ARM GAS  C:\Users\Lauriane\AppData\Local\Temp\cchyTeCa.s 			page 1


   1              		.syntax unified
   2              		.cpu cortex-m4
   3              		.eabi_attribute 27, 1
   4              		.fpu fpv4-sp-d16
   5              		.eabi_attribute 20, 1
   6              		.eabi_attribute 21, 1
   7              		.eabi_attribute 23, 3
   8              		.eabi_attribute 24, 1
   9              		.eabi_attribute 25, 1
  10              		.eabi_attribute 26, 1
  11              		.eabi_attribute 30, 1
  12              		.eabi_attribute 34, 1
  13              		.eabi_attribute 18, 4
  14              		.thumb
  15              		.syntax unified
  16              		.file	"CapSense_Control.c"
  17              		.text
  18              	.Ltext0:
  19              		.cfi_sections	.debug_frame
  20              		.section	.text.CapSense_Initialize,"ax",%progbits
  21              		.align	2
  22              		.global	CapSense_Initialize
  23              		.thumb
  24              		.thumb_func
  25              		.type	CapSense_Initialize, %function
  26              	CapSense_Initialize:
  27              	.LFB268:
  28              		.file 1 "Generated_Source\\PSoC6\\CapSense_Control.c"
   1:Generated_Source\PSoC6/CapSense_Control.c **** /***************************************************************************//**
   2:Generated_Source\PSoC6/CapSense_Control.c **** * \file CapSense_Control.c
   3:Generated_Source\PSoC6/CapSense_Control.c **** * \version 3.0
   4:Generated_Source\PSoC6/CapSense_Control.c **** *
   5:Generated_Source\PSoC6/CapSense_Control.c **** * \brief
   6:Generated_Source\PSoC6/CapSense_Control.c **** *   This file provides the source code to the Control module API of the Component.
   7:Generated_Source\PSoC6/CapSense_Control.c **** *
   8:Generated_Source\PSoC6/CapSense_Control.c **** * \see CapSense v3.0 Datasheet
   9:Generated_Source\PSoC6/CapSense_Control.c **** *
  10:Generated_Source\PSoC6/CapSense_Control.c **** *//*****************************************************************************
  11:Generated_Source\PSoC6/CapSense_Control.c **** * Copyright (2016-2017), Cypress Semiconductor Corporation.
  12:Generated_Source\PSoC6/CapSense_Control.c **** ********************************************************************************
  13:Generated_Source\PSoC6/CapSense_Control.c **** * This software is owned by Cypress Semiconductor Corporation (Cypress) and is
  14:Generated_Source\PSoC6/CapSense_Control.c **** * protected by and subject to worldwide patent protection (United States and
  15:Generated_Source\PSoC6/CapSense_Control.c **** * foreign), United States copyright laws and international treaty provisions.
  16:Generated_Source\PSoC6/CapSense_Control.c **** * Cypress hereby grants to licensee a personal, non-exclusive, non-transferable
  17:Generated_Source\PSoC6/CapSense_Control.c **** * license to copy, use, modify, create derivative works of, and compile the
  18:Generated_Source\PSoC6/CapSense_Control.c **** * Cypress Source Code and derivative works for the sole purpose of creating
  19:Generated_Source\PSoC6/CapSense_Control.c **** * custom software in support of licensee product to be used only in conjunction
  20:Generated_Source\PSoC6/CapSense_Control.c **** * with a Cypress integrated circuit as specified in the applicable agreement.
  21:Generated_Source\PSoC6/CapSense_Control.c **** * Any reproduction, modification, translation, compilation, or representation of
  22:Generated_Source\PSoC6/CapSense_Control.c **** * this software except as specified above is prohibited without the express
  23:Generated_Source\PSoC6/CapSense_Control.c **** * written permission of Cypress.
  24:Generated_Source\PSoC6/CapSense_Control.c **** *
  25:Generated_Source\PSoC6/CapSense_Control.c **** * Disclaimer: CYPRESS MAKES NO WARRANTY OF ANY KIND, EXPRESS OR IMPLIED, WITH
  26:Generated_Source\PSoC6/CapSense_Control.c **** * REGARD TO THIS MATERIAL, INCLUDING, BUT NOT LIMITED TO, THE IMPLIED
  27:Generated_Source\PSoC6/CapSense_Control.c **** * WARRANTIES OF MERCHANTABILITY AND FITNESS FOR A PARTICULAR PURPOSE.
  28:Generated_Source\PSoC6/CapSense_Control.c **** * Cypress reserves the right to make changes without further notice to the
  29:Generated_Source\PSoC6/CapSense_Control.c **** * materials described herein. Cypress does not assume any liability arising out
ARM GAS  C:\Users\Lauriane\AppData\Local\Temp\cchyTeCa.s 			page 2


  30:Generated_Source\PSoC6/CapSense_Control.c **** * of the application or use of any product or circuit described herein. Cypress
  31:Generated_Source\PSoC6/CapSense_Control.c **** * does not authorize its products for use as critical components in life-support
  32:Generated_Source\PSoC6/CapSense_Control.c **** * systems where a malfunction or failure may reasonably be expected to result in
  33:Generated_Source\PSoC6/CapSense_Control.c **** * significant injury to the user. The inclusion of Cypress' product in a life-
  34:Generated_Source\PSoC6/CapSense_Control.c **** * support systems application implies that the manufacturer assumes all risk of
  35:Generated_Source\PSoC6/CapSense_Control.c **** * such use and in doing so indemnifies Cypress against all charges. Use may be
  36:Generated_Source\PSoC6/CapSense_Control.c **** * limited by and subject to the applicable Cypress software license agreement.
  37:Generated_Source\PSoC6/CapSense_Control.c **** *******************************************************************************/
  38:Generated_Source\PSoC6/CapSense_Control.c **** 
  39:Generated_Source\PSoC6/CapSense_Control.c **** #include <stddef.h>
  40:Generated_Source\PSoC6/CapSense_Control.c **** #include "syslib/cy_syslib.h"
  41:Generated_Source\PSoC6/CapSense_Control.c **** #include "syspm/cy_syspm.h"
  42:Generated_Source\PSoC6/CapSense_Control.c **** #include "cyfitter_sysint_cfg.h"
  43:Generated_Source\PSoC6/CapSense_Control.c **** #include "CapSense_Configuration.h"
  44:Generated_Source\PSoC6/CapSense_Control.c **** #include "CapSense_Structure.h"
  45:Generated_Source\PSoC6/CapSense_Control.c **** #include "CapSense_Control.h"
  46:Generated_Source\PSoC6/CapSense_Control.c **** #include "CapSense_Processing.h"
  47:Generated_Source\PSoC6/CapSense_Control.c **** #include "CapSense_Filter.h"
  48:Generated_Source\PSoC6/CapSense_Control.c **** #include "CapSense_Sensing.h"
  49:Generated_Source\PSoC6/CapSense_Control.c **** #include "CapSense_Tuner.h"
  50:Generated_Source\PSoC6/CapSense_Control.c **** 
  51:Generated_Source\PSoC6/CapSense_Control.c **** #if (CapSense_ENABLE == CapSense_SELF_TEST_EN)
  52:Generated_Source\PSoC6/CapSense_Control.c ****     #include "CapSense_SelfTest.h"
  53:Generated_Source\PSoC6/CapSense_Control.c **** #endif
  54:Generated_Source\PSoC6/CapSense_Control.c **** 
  55:Generated_Source\PSoC6/CapSense_Control.c **** #if (0u != CapSense_ADC_EN)
  56:Generated_Source\PSoC6/CapSense_Control.c ****     #include "CapSense_Adc.h"
  57:Generated_Source\PSoC6/CapSense_Control.c **** #endif /* (0u != CapSense_ADC_EN) */
  58:Generated_Source\PSoC6/CapSense_Control.c **** 
  59:Generated_Source\PSoC6/CapSense_Control.c **** #if ((CapSense_ENABLE == CapSense_GES_GLOBAL_EN) ||\
  60:Generated_Source\PSoC6/CapSense_Control.c ****      (CapSense_ENABLE == CapSense_BALLISTIC_MULTIPLIER_EN))
  61:Generated_Source\PSoC6/CapSense_Control.c ****     #include "CapSense_Gesture.h"
  62:Generated_Source\PSoC6/CapSense_Control.c **** #endif /* (CapSense_ENABLE == CapSense_GES_GLOBAL_EN) */
  63:Generated_Source\PSoC6/CapSense_Control.c **** 
  64:Generated_Source\PSoC6/CapSense_Control.c **** /**************************************************************************************************
  65:Generated_Source\PSoC6/CapSense_Control.c **** * Local definition
  66:Generated_Source\PSoC6/CapSense_Control.c **** ***************************************************************************************************
  67:Generated_Source\PSoC6/CapSense_Control.c **** #define CapSense_INIT_DONE   (1u)
  68:Generated_Source\PSoC6/CapSense_Control.c **** #define CapSense_INIT_NEEDED (0u)
  69:Generated_Source\PSoC6/CapSense_Control.c **** 
  70:Generated_Source\PSoC6/CapSense_Control.c **** /**************************************************************************************************
  71:Generated_Source\PSoC6/CapSense_Control.c **** * Local variables
  72:Generated_Source\PSoC6/CapSense_Control.c **** ***************************************************************************************************
  73:Generated_Source\PSoC6/CapSense_Control.c **** static uint8 CapSense_InitVar = CapSense_INIT_NEEDED;
  74:Generated_Source\PSoC6/CapSense_Control.c **** 
  75:Generated_Source\PSoC6/CapSense_Control.c **** /**************************************************************************************************
  76:Generated_Source\PSoC6/CapSense_Control.c **** * Local function
  77:Generated_Source\PSoC6/CapSense_Control.c **** ***************************************************************************************************
  78:Generated_Source\PSoC6/CapSense_Control.c **** #if (CY_SYSPM_DRV_VERSION_MAJOR < 4u)
  79:Generated_Source\PSoC6/CapSense_Control.c ****     static cy_en_syspm_status_t CapSense_SwitchPowerModeCallback(cy_stc_syspm_callback_params_t *ca
  80:Generated_Source\PSoC6/CapSense_Control.c **** #endif
  81:Generated_Source\PSoC6/CapSense_Control.c **** 
  82:Generated_Source\PSoC6/CapSense_Control.c **** /*******************************************************************************
  83:Generated_Source\PSoC6/CapSense_Control.c **** * Function Name: CapSense_Start
  84:Generated_Source\PSoC6/CapSense_Control.c **** ****************************************************************************//**
  85:Generated_Source\PSoC6/CapSense_Control.c **** *
  86:Generated_Source\PSoC6/CapSense_Control.c **** * \brief
ARM GAS  C:\Users\Lauriane\AppData\Local\Temp\cchyTeCa.s 			page 3


  87:Generated_Source\PSoC6/CapSense_Control.c **** *  Initializes the Component hardware and firmware modules. This function is
  88:Generated_Source\PSoC6/CapSense_Control.c **** *  called by the application program prior to calling any other function of the
  89:Generated_Source\PSoC6/CapSense_Control.c **** *  Component.
  90:Generated_Source\PSoC6/CapSense_Control.c **** *
  91:Generated_Source\PSoC6/CapSense_Control.c **** * \details
  92:Generated_Source\PSoC6/CapSense_Control.c **** *  This function initializes the Component hardware and firmware modules and
  93:Generated_Source\PSoC6/CapSense_Control.c **** *  is called by the application program prior to calling any other API
  94:Generated_Source\PSoC6/CapSense_Control.c **** *  of the Component. When this function is called, the following tasks are
  95:Generated_Source\PSoC6/CapSense_Control.c **** *  executed as part of the initialization process:
  96:Generated_Source\PSoC6/CapSense_Control.c **** *    1. Initialize the registers of the \ref group_structures variable
  97:Generated_Source\PSoC6/CapSense_Control.c **** *       CapSense_dsRam based on the user selection in the Component
  98:Generated_Source\PSoC6/CapSense_Control.c **** *       configuration wizard.
  99:Generated_Source\PSoC6/CapSense_Control.c **** *    2. Configure the hardware to perform capacitive sensing.
 100:Generated_Source\PSoC6/CapSense_Control.c **** *    3. If SmartSense Auto-tuning is selected for the CSD Tuning mode in the
 101:Generated_Source\PSoC6/CapSense_Control.c **** *       Basic tab, the auto-tuning algorithm is executed to set the optimal
 102:Generated_Source\PSoC6/CapSense_Control.c **** *       values for the hardware parameters of the widgets/sensors.
 103:Generated_Source\PSoC6/CapSense_Control.c **** *    4. Calibrate the sensors and find the optimal values for IDACs of each
 104:Generated_Source\PSoC6/CapSense_Control.c **** *       widget / sensor, if the Enable IDAC auto-calibration is enabled in the
 105:Generated_Source\PSoC6/CapSense_Control.c **** *       CSD Setting or CSX Setting tabs.
 106:Generated_Source\PSoC6/CapSense_Control.c **** *    5. Perform scanning for all the sensors and initialize the baseline history.
 107:Generated_Source\PSoC6/CapSense_Control.c **** *    6. If the firmware filters are enabled in the Advanced General tab, the
 108:Generated_Source\PSoC6/CapSense_Control.c **** *       filter histories are also initialized.
 109:Generated_Source\PSoC6/CapSense_Control.c **** 
 110:Generated_Source\PSoC6/CapSense_Control.c **** *  Any next call of this API repeats an initialization process except for
 111:Generated_Source\PSoC6/CapSense_Control.c **** *  data structure initialization. Therefore, it is possible to change the
 112:Generated_Source\PSoC6/CapSense_Control.c **** *  Component configuration from the application program by writing registers to the
 113:Generated_Source\PSoC6/CapSense_Control.c **** *  data structure and calling this function again. This is also
 114:Generated_Source\PSoC6/CapSense_Control.c **** *  done inside the CapSense_RunTuner() function when a restart command
 115:Generated_Source\PSoC6/CapSense_Control.c **** *  is received.
 116:Generated_Source\PSoC6/CapSense_Control.c **** *
 117:Generated_Source\PSoC6/CapSense_Control.c **** *  When the Component operation is stopped by the CapSense_Stop()
 118:Generated_Source\PSoC6/CapSense_Control.c **** *  function, the CapSense_Start() function repeats an initialization
 119:Generated_Source\PSoC6/CapSense_Control.c **** *  process including data structure initialization.
 120:Generated_Source\PSoC6/CapSense_Control.c **** *
 121:Generated_Source\PSoC6/CapSense_Control.c **** * \return
 122:Generated_Source\PSoC6/CapSense_Control.c **** *  Returns the status of the initialization process. If CY_RET_SUCCESS is not
 123:Generated_Source\PSoC6/CapSense_Control.c **** *  received, some of the initialization fails and the Component may not operate
 124:Generated_Source\PSoC6/CapSense_Control.c **** *  as expected.
 125:Generated_Source\PSoC6/CapSense_Control.c **** *
 126:Generated_Source\PSoC6/CapSense_Control.c **** *******************************************************************************/
 127:Generated_Source\PSoC6/CapSense_Control.c **** cy_status CapSense_Start(void)
 128:Generated_Source\PSoC6/CapSense_Control.c **** {
 129:Generated_Source\PSoC6/CapSense_Control.c ****     cy_status result;
 130:Generated_Source\PSoC6/CapSense_Control.c **** 
 131:Generated_Source\PSoC6/CapSense_Control.c ****     /* Initialize CapSense modules */
 132:Generated_Source\PSoC6/CapSense_Control.c ****     result = CapSense_Initialize();
 133:Generated_Source\PSoC6/CapSense_Control.c **** 
 134:Generated_Source\PSoC6/CapSense_Control.c ****     #if (CapSense_CSD_AUTOTUNE != CapSense_CSD_SS_DIS)
 135:Generated_Source\PSoC6/CapSense_Control.c ****         if (CY_RET_SUCCESS == result)
 136:Generated_Source\PSoC6/CapSense_Control.c ****         {
 137:Generated_Source\PSoC6/CapSense_Control.c ****             result = CapSense_SsAutoTune();
 138:Generated_Source\PSoC6/CapSense_Control.c ****         }
 139:Generated_Source\PSoC6/CapSense_Control.c ****     #endif /* #if (CapSense_CSD_AUTOTUNE != CapSense_CSD_SS_DIS) */
 140:Generated_Source\PSoC6/CapSense_Control.c **** 
 141:Generated_Source\PSoC6/CapSense_Control.c ****     #if ((0u != CapSense_CSX_IDAC_AUTOCAL_EN) || \
 142:Generated_Source\PSoC6/CapSense_Control.c ****         ((CapSense_CSD_AUTOTUNE == CapSense_CSD_SS_DIS) && (0u != CapSense_CSD_IDAC_AUTOCAL_EN)))
 143:Generated_Source\PSoC6/CapSense_Control.c ****         if (CY_RET_SUCCESS == result)
ARM GAS  C:\Users\Lauriane\AppData\Local\Temp\cchyTeCa.s 			page 4


 144:Generated_Source\PSoC6/CapSense_Control.c ****         {
 145:Generated_Source\PSoC6/CapSense_Control.c ****             result = CapSense_CalibrateAllWidgets();
 146:Generated_Source\PSoC6/CapSense_Control.c ****         }
 147:Generated_Source\PSoC6/CapSense_Control.c ****     #endif
 148:Generated_Source\PSoC6/CapSense_Control.c **** 
 149:Generated_Source\PSoC6/CapSense_Control.c ****     if (CY_RET_SUCCESS == result)
 150:Generated_Source\PSoC6/CapSense_Control.c ****     {
 151:Generated_Source\PSoC6/CapSense_Control.c ****         result = CapSense_ScanAllWidgets();
 152:Generated_Source\PSoC6/CapSense_Control.c ****     }
 153:Generated_Source\PSoC6/CapSense_Control.c **** 
 154:Generated_Source\PSoC6/CapSense_Control.c ****     while(CapSense_NOT_BUSY != CapSense_IsBusy()){}
 155:Generated_Source\PSoC6/CapSense_Control.c **** 
 156:Generated_Source\PSoC6/CapSense_Control.c ****     CapSense_FtInitialize();
 157:Generated_Source\PSoC6/CapSense_Control.c ****     CapSense_InitializeAllBaselines();
 158:Generated_Source\PSoC6/CapSense_Control.c **** 
 159:Generated_Source\PSoC6/CapSense_Control.c ****     #if(CapSense_ENABLE == CapSense_GES_GLOBAL_EN)
 160:Generated_Source\PSoC6/CapSense_Control.c ****         if (CY_RET_SUCCESS == result)
 161:Generated_Source\PSoC6/CapSense_Control.c ****         {
 162:Generated_Source\PSoC6/CapSense_Control.c ****             CapSense_InitializeGestures();
 163:Generated_Source\PSoC6/CapSense_Control.c ****         }
 164:Generated_Source\PSoC6/CapSense_Control.c ****     #endif /* (CapSense_ENABLE == CapSense_GES_GLOBAL_EN) */
 165:Generated_Source\PSoC6/CapSense_Control.c **** 
 166:Generated_Source\PSoC6/CapSense_Control.c ****     #if (0u != CapSense_BALLISTIC_MULTIPLIER_EN)
 167:Generated_Source\PSoC6/CapSense_Control.c ****         if (CY_RET_SUCCESS == result)
 168:Generated_Source\PSoC6/CapSense_Control.c ****         {
 169:Generated_Source\PSoC6/CapSense_Control.c ****             CapSense_InitializeBallisticMultiplier();
 170:Generated_Source\PSoC6/CapSense_Control.c ****         }
 171:Generated_Source\PSoC6/CapSense_Control.c ****     #endif /* (0u != CapSense_BALLISTIC_MULTIPLIER_EN) */
 172:Generated_Source\PSoC6/CapSense_Control.c **** 
 173:Generated_Source\PSoC6/CapSense_Control.c ****     #if (0u != CapSense_ADC_EN)
 174:Generated_Source\PSoC6/CapSense_Control.c ****         CapSense_AdcInitialize();
 175:Generated_Source\PSoC6/CapSense_Control.c ****     #endif /* (0u != CapSense_ADC_EN) */
 176:Generated_Source\PSoC6/CapSense_Control.c **** 
 177:Generated_Source\PSoC6/CapSense_Control.c ****     return result;
 178:Generated_Source\PSoC6/CapSense_Control.c **** }
 179:Generated_Source\PSoC6/CapSense_Control.c **** 
 180:Generated_Source\PSoC6/CapSense_Control.c **** /*******************************************************************************
 181:Generated_Source\PSoC6/CapSense_Control.c **** * Function Name: CapSense_Initialize
 182:Generated_Source\PSoC6/CapSense_Control.c **** ****************************************************************************//**
 183:Generated_Source\PSoC6/CapSense_Control.c **** *
 184:Generated_Source\PSoC6/CapSense_Control.c **** * \brief
 185:Generated_Source\PSoC6/CapSense_Control.c **** *  This function initializes the CapSense Component.
 186:Generated_Source\PSoC6/CapSense_Control.c **** *
 187:Generated_Source\PSoC6/CapSense_Control.c **** * \details
 188:Generated_Source\PSoC6/CapSense_Control.c **** *  This API initializes all sub-modules of the CapSense Component:
 189:Generated_Source\PSoC6/CapSense_Control.c **** *   - Data Structure - set the default Component parameters defined in the Customizer.
 190:Generated_Source\PSoC6/CapSense_Control.c **** *   - Data Processing - resets all widget statuses.
 191:Generated_Source\PSoC6/CapSense_Control.c **** *   - Tuner - resets tuning state.
 192:Generated_Source\PSoC6/CapSense_Control.c **** *   - Sensing - prepares CSD HW for operation.
 193:Generated_Source\PSoC6/CapSense_Control.c **** *
 194:Generated_Source\PSoC6/CapSense_Control.c **** *  Note that Data Structure module is initialized only once after the reset or
 195:Generated_Source\PSoC6/CapSense_Control.c **** *  CapSense_Stop() API is called. The repeated calls of Initialize API
 196:Generated_Source\PSoC6/CapSense_Control.c **** *  will not re-initialize Data Structure. This is done to preserve Component
 197:Generated_Source\PSoC6/CapSense_Control.c **** *  parameters that user may set in runtime.
 198:Generated_Source\PSoC6/CapSense_Control.c **** *
 199:Generated_Source\PSoC6/CapSense_Control.c **** * \return
 200:Generated_Source\PSoC6/CapSense_Control.c **** *  Return CY_RET_SUCCESS if the initialization was successful.
ARM GAS  C:\Users\Lauriane\AppData\Local\Temp\cchyTeCa.s 			page 5


 201:Generated_Source\PSoC6/CapSense_Control.c **** *
 202:Generated_Source\PSoC6/CapSense_Control.c **** *******************************************************************************/
 203:Generated_Source\PSoC6/CapSense_Control.c **** cy_status CapSense_Initialize(void)
 204:Generated_Source\PSoC6/CapSense_Control.c **** {
  29              		.loc 1 204 0
  30              		.cfi_startproc
  31              		@ args = 0, pretend = 0, frame = 0
  32              		@ frame_needed = 0, uses_anonymous_args = 0
  33 0000 08B5     		push	{r3, lr}
  34              		.cfi_def_cfa_offset 8
  35              		.cfi_offset 3, -8
  36              		.cfi_offset 14, -4
 205:Generated_Source\PSoC6/CapSense_Control.c ****     cy_status result;
 206:Generated_Source\PSoC6/CapSense_Control.c **** 
 207:Generated_Source\PSoC6/CapSense_Control.c ****     /* The Data Structure and Tuner are initialized only once */
 208:Generated_Source\PSoC6/CapSense_Control.c ****     if (CapSense_INIT_NEEDED == CapSense_InitVar)
  37              		.loc 1 208 0
  38 0002 074B     		ldr	r3, .L4
  39 0004 1B78     		ldrb	r3, [r3]	@ zero_extendqisi2
  40 0006 33B9     		cbnz	r3, .L2
 209:Generated_Source\PSoC6/CapSense_Control.c ****     {
 210:Generated_Source\PSoC6/CapSense_Control.c ****         CapSense_DsInitialize();
  41              		.loc 1 210 0
  42 0008 FFF7FEFF 		bl	CapSense_DsInitialize
  43              	.LVL0:
 211:Generated_Source\PSoC6/CapSense_Control.c ****         CapSense_TuInitialize();
  44              		.loc 1 211 0
  45 000c FFF7FEFF 		bl	CapSense_TuInitialize
  46              	.LVL1:
 212:Generated_Source\PSoC6/CapSense_Control.c ****         CapSense_InitVar = CapSense_INIT_DONE;
  47              		.loc 1 212 0
  48 0010 0122     		movs	r2, #1
  49 0012 034B     		ldr	r3, .L4
  50 0014 1A70     		strb	r2, [r3]
  51              	.L2:
 213:Generated_Source\PSoC6/CapSense_Control.c ****     }
 214:Generated_Source\PSoC6/CapSense_Control.c **** 
 215:Generated_Source\PSoC6/CapSense_Control.c ****     CapSense_DpInitialize();
  52              		.loc 1 215 0
  53 0016 FFF7FEFF 		bl	CapSense_DpInitialize
  54              	.LVL2:
 216:Generated_Source\PSoC6/CapSense_Control.c **** 
 217:Generated_Source\PSoC6/CapSense_Control.c ****     result = CapSense_SsInitialize();
  55              		.loc 1 217 0
  56 001a FFF7FEFF 		bl	CapSense_SsInitialize
  57              	.LVL3:
 218:Generated_Source\PSoC6/CapSense_Control.c **** 
 219:Generated_Source\PSoC6/CapSense_Control.c ****     return result;
 220:Generated_Source\PSoC6/CapSense_Control.c **** }
  58              		.loc 1 220 0
  59 001e 08BD     		pop	{r3, pc}
  60              	.L5:
  61              		.align	2
  62              	.L4:
  63 0020 00000000 		.word	.LANCHOR0
  64              		.cfi_endproc
  65              	.LFE268:
ARM GAS  C:\Users\Lauriane\AppData\Local\Temp\cchyTeCa.s 			page 6


  66              		.size	CapSense_Initialize, .-CapSense_Initialize
  67              		.section	.text.CapSense_Start,"ax",%progbits
  68              		.align	2
  69              		.global	CapSense_Start
  70              		.thumb
  71              		.thumb_func
  72              		.type	CapSense_Start, %function
  73              	CapSense_Start:
  74              	.LFB267:
 128:Generated_Source\PSoC6/CapSense_Control.c ****     cy_status result;
  75              		.loc 1 128 0
  76              		.cfi_startproc
  77              		@ args = 0, pretend = 0, frame = 0
  78              		@ frame_needed = 0, uses_anonymous_args = 0
  79 0000 10B5     		push	{r4, lr}
  80              		.cfi_def_cfa_offset 8
  81              		.cfi_offset 4, -8
  82              		.cfi_offset 14, -4
 132:Generated_Source\PSoC6/CapSense_Control.c **** 
  83              		.loc 1 132 0
  84 0002 FFF7FEFF 		bl	CapSense_Initialize
  85              	.LVL4:
 135:Generated_Source\PSoC6/CapSense_Control.c ****         {
  86              		.loc 1 135 0
  87 0006 0446     		mov	r4, r0
  88 0008 10B9     		cbnz	r0, .L7
 137:Generated_Source\PSoC6/CapSense_Control.c ****         }
  89              		.loc 1 137 0
  90 000a FFF7FEFF 		bl	CapSense_SsAutoTune
  91              	.LVL5:
  92 000e 0446     		mov	r4, r0
  93              	.LVL6:
  94              	.L7:
 143:Generated_Source\PSoC6/CapSense_Control.c ****         {
  95              		.loc 1 143 0
  96 0010 14B9     		cbnz	r4, .L8
 145:Generated_Source\PSoC6/CapSense_Control.c ****         }
  97              		.loc 1 145 0
  98 0012 FFF7FEFF 		bl	CapSense_CalibrateAllWidgets
  99              	.LVL7:
 100 0016 0446     		mov	r4, r0
 101              	.LVL8:
 102              	.L8:
 149:Generated_Source\PSoC6/CapSense_Control.c ****     {
 103              		.loc 1 149 0
 104 0018 14B9     		cbnz	r4, .L10
 151:Generated_Source\PSoC6/CapSense_Control.c ****     }
 105              		.loc 1 151 0
 106 001a FFF7FEFF 		bl	CapSense_ScanAllWidgets
 107              	.LVL9:
 108 001e 0446     		mov	r4, r0
 109              	.LVL10:
 110              	.L10:
 154:Generated_Source\PSoC6/CapSense_Control.c **** 
 111              		.loc 1 154 0 discriminator 1
 112 0020 FFF7FEFF 		bl	CapSense_IsBusy
 113              	.LVL11:
ARM GAS  C:\Users\Lauriane\AppData\Local\Temp\cchyTeCa.s 			page 7


 114 0024 0028     		cmp	r0, #0
 115 0026 FBD1     		bne	.L10
 156:Generated_Source\PSoC6/CapSense_Control.c ****     CapSense_InitializeAllBaselines();
 116              		.loc 1 156 0
 117 0028 FFF7FEFF 		bl	CapSense_FtInitialize
 118              	.LVL12:
 157:Generated_Source\PSoC6/CapSense_Control.c **** 
 119              		.loc 1 157 0
 120 002c FFF7FEFF 		bl	CapSense_InitializeAllBaselines
 121              	.LVL13:
 160:Generated_Source\PSoC6/CapSense_Control.c ****         {
 122              		.loc 1 160 0
 123 0030 0CB9     		cbnz	r4, .L11
 162:Generated_Source\PSoC6/CapSense_Control.c ****         }
 124              		.loc 1 162 0
 125 0032 FFF7FEFF 		bl	CapSense_InitializeGestures
 126              	.LVL14:
 127              	.L11:
 178:Generated_Source\PSoC6/CapSense_Control.c **** 
 128              		.loc 1 178 0
 129 0036 2046     		mov	r0, r4
 130 0038 10BD     		pop	{r4, pc}
 131              		.cfi_endproc
 132              	.LFE267:
 133              		.size	CapSense_Start, .-CapSense_Start
 134 003a 00BF     		.section	.text.CapSense_Stop,"ax",%progbits
 135              		.align	2
 136              		.global	CapSense_Stop
 137              		.thumb
 138              		.thumb_func
 139              		.type	CapSense_Stop, %function
 140              	CapSense_Stop:
 141              	.LFB269:
 221:Generated_Source\PSoC6/CapSense_Control.c **** 
 222:Generated_Source\PSoC6/CapSense_Control.c **** /*******************************************************************************
 223:Generated_Source\PSoC6/CapSense_Control.c **** * Function Name: CapSense_Stop
 224:Generated_Source\PSoC6/CapSense_Control.c **** ****************************************************************************//**
 225:Generated_Source\PSoC6/CapSense_Control.c **** *
 226:Generated_Source\PSoC6/CapSense_Control.c **** * \brief
 227:Generated_Source\PSoC6/CapSense_Control.c **** *  Stops the Component operation.
 228:Generated_Source\PSoC6/CapSense_Control.c **** *
 229:Generated_Source\PSoC6/CapSense_Control.c **** * \details
 230:Generated_Source\PSoC6/CapSense_Control.c **** *  This function stops the Component operation, no sensor scanning can be
 231:Generated_Source\PSoC6/CapSense_Control.c **** *  executed when the Component is stopped. Once stopped, the hardware block may
 232:Generated_Source\PSoC6/CapSense_Control.c **** *  be reconfigured by the application program for any other special usage. The
 233:Generated_Source\PSoC6/CapSense_Control.c **** *  Component operation can be resumed by calling the CapSense_Resume()
 234:Generated_Source\PSoC6/CapSense_Control.c **** *  function or the Component can be reset by calling the
 235:Generated_Source\PSoC6/CapSense_Control.c **** *  CapSense_Start() function.
 236:Generated_Source\PSoC6/CapSense_Control.c **** *
 237:Generated_Source\PSoC6/CapSense_Control.c **** *  This function is called when no scanning is in progress.
 238:Generated_Source\PSoC6/CapSense_Control.c **** *  I.e. CapSense_IsBusy() returns a non-busy status.
 239:Generated_Source\PSoC6/CapSense_Control.c **** *
 240:Generated_Source\PSoC6/CapSense_Control.c **** * \return
 241:Generated_Source\PSoC6/CapSense_Control.c **** *  Returns the status of the stop process. If CY_RET_SUCCESS is not received,
 242:Generated_Source\PSoC6/CapSense_Control.c **** *  the stop process fails and retries may be required.
 243:Generated_Source\PSoC6/CapSense_Control.c **** *
 244:Generated_Source\PSoC6/CapSense_Control.c **** *******************************************************************************/
ARM GAS  C:\Users\Lauriane\AppData\Local\Temp\cchyTeCa.s 			page 8


 245:Generated_Source\PSoC6/CapSense_Control.c **** cy_status CapSense_Stop(void)
 246:Generated_Source\PSoC6/CapSense_Control.c **** {
 142              		.loc 1 246 0
 143              		.cfi_startproc
 144              		@ args = 0, pretend = 0, frame = 0
 145              		@ frame_needed = 0, uses_anonymous_args = 0
 146              		@ link register save eliminated.
 147              	.LVL15:
 247:Generated_Source\PSoC6/CapSense_Control.c ****     cy_status result = CY_RET_SUCCESS;
 248:Generated_Source\PSoC6/CapSense_Control.c **** 
 249:Generated_Source\PSoC6/CapSense_Control.c ****     #if (CapSense_ENABLE == CapSense_ADC_EN)
 250:Generated_Source\PSoC6/CapSense_Control.c ****         /* Release CSD resources */
 251:Generated_Source\PSoC6/CapSense_Control.c ****         result = CapSense_SsReleaseResources();
 252:Generated_Source\PSoC6/CapSense_Control.c **** 
 253:Generated_Source\PSoC6/CapSense_Control.c ****         /* Release ADC resources */
 254:Generated_Source\PSoC6/CapSense_Control.c ****         CapSense_AdcStop();
 255:Generated_Source\PSoC6/CapSense_Control.c ****     #endif /* (CapSense_ENABLE == CapSense_ADC_EN) */
 256:Generated_Source\PSoC6/CapSense_Control.c **** 
 257:Generated_Source\PSoC6/CapSense_Control.c ****     CapSense_InitVar = CapSense_INIT_NEEDED;
 148              		.loc 1 257 0
 149 0000 0020     		movs	r0, #0
 150 0002 014B     		ldr	r3, .L14
 151 0004 1870     		strb	r0, [r3]
 258:Generated_Source\PSoC6/CapSense_Control.c **** 
 259:Generated_Source\PSoC6/CapSense_Control.c ****     return result;
 260:Generated_Source\PSoC6/CapSense_Control.c **** }
 152              		.loc 1 260 0
 153 0006 7047     		bx	lr
 154              	.L15:
 155              		.align	2
 156              	.L14:
 157 0008 00000000 		.word	.LANCHOR0
 158              		.cfi_endproc
 159              	.LFE269:
 160              		.size	CapSense_Stop, .-CapSense_Stop
 161              		.section	.text.CapSense_Resume,"ax",%progbits
 162              		.align	2
 163              		.global	CapSense_Resume
 164              		.thumb
 165              		.thumb_func
 166              		.type	CapSense_Resume, %function
 167              	CapSense_Resume:
 168              	.LFB270:
 261:Generated_Source\PSoC6/CapSense_Control.c **** 
 262:Generated_Source\PSoC6/CapSense_Control.c **** /*******************************************************************************
 263:Generated_Source\PSoC6/CapSense_Control.c **** * Function Name: CapSense_Resume
 264:Generated_Source\PSoC6/CapSense_Control.c **** ****************************************************************************//**
 265:Generated_Source\PSoC6/CapSense_Control.c **** *
 266:Generated_Source\PSoC6/CapSense_Control.c **** * \brief
 267:Generated_Source\PSoC6/CapSense_Control.c **** *  Resumes the Component operation if the CapSense_Stop() function was
 268:Generated_Source\PSoC6/CapSense_Control.c **** *  called previously.
 269:Generated_Source\PSoC6/CapSense_Control.c **** *
 270:Generated_Source\PSoC6/CapSense_Control.c **** * \details
 271:Generated_Source\PSoC6/CapSense_Control.c **** *  This function resumes the Component operation if the operation is stopped
 272:Generated_Source\PSoC6/CapSense_Control.c **** *  previously by the CapSense_Stop() function. The following tasks are
 273:Generated_Source\PSoC6/CapSense_Control.c **** *  executed as part of the operation resume process:
 274:Generated_Source\PSoC6/CapSense_Control.c **** *    1. Reset all the Widgets/Sensors statuses.
ARM GAS  C:\Users\Lauriane\AppData\Local\Temp\cchyTeCa.s 			page 9


 275:Generated_Source\PSoC6/CapSense_Control.c **** *    2. Configure the hardware to perform capacitive sensing.
 276:Generated_Source\PSoC6/CapSense_Control.c **** *
 277:Generated_Source\PSoC6/CapSense_Control.c **** * \return
 278:Generated_Source\PSoC6/CapSense_Control.c **** *  Returns the status of the resume process. If CY_RET_SUCCESS is not received,
 279:Generated_Source\PSoC6/CapSense_Control.c **** *  the resume process fails and retries may be required.
 280:Generated_Source\PSoC6/CapSense_Control.c **** *
 281:Generated_Source\PSoC6/CapSense_Control.c **** *******************************************************************************/
 282:Generated_Source\PSoC6/CapSense_Control.c **** cy_status CapSense_Resume(void)
 283:Generated_Source\PSoC6/CapSense_Control.c **** {
 169              		.loc 1 283 0
 170              		.cfi_startproc
 171              		@ args = 0, pretend = 0, frame = 0
 172              		@ frame_needed = 0, uses_anonymous_args = 0
 173 0000 08B5     		push	{r3, lr}
 174              		.cfi_def_cfa_offset 8
 175              		.cfi_offset 3, -8
 176              		.cfi_offset 14, -4
 284:Generated_Source\PSoC6/CapSense_Control.c ****     cy_status result;
 285:Generated_Source\PSoC6/CapSense_Control.c **** 
 286:Generated_Source\PSoC6/CapSense_Control.c ****     /* The Tuner are initialized only once in order not to break communication */
 287:Generated_Source\PSoC6/CapSense_Control.c ****     if (CapSense_INIT_NEEDED == CapSense_InitVar)
 177              		.loc 1 287 0
 178 0002 064B     		ldr	r3, .L19
 179 0004 1B78     		ldrb	r3, [r3]	@ zero_extendqisi2
 180 0006 23B9     		cbnz	r3, .L17
 288:Generated_Source\PSoC6/CapSense_Control.c ****     {
 289:Generated_Source\PSoC6/CapSense_Control.c ****         CapSense_TuInitialize();
 181              		.loc 1 289 0
 182 0008 FFF7FEFF 		bl	CapSense_TuInitialize
 183              	.LVL16:
 290:Generated_Source\PSoC6/CapSense_Control.c ****         CapSense_InitVar = CapSense_INIT_DONE;
 184              		.loc 1 290 0
 185 000c 0122     		movs	r2, #1
 186 000e 034B     		ldr	r3, .L19
 187 0010 1A70     		strb	r2, [r3]
 188              	.L17:
 291:Generated_Source\PSoC6/CapSense_Control.c ****     }
 292:Generated_Source\PSoC6/CapSense_Control.c ****     CapSense_DpInitialize();
 189              		.loc 1 292 0
 190 0012 FFF7FEFF 		bl	CapSense_DpInitialize
 191              	.LVL17:
 293:Generated_Source\PSoC6/CapSense_Control.c **** 
 294:Generated_Source\PSoC6/CapSense_Control.c ****     result = CapSense_SsInitialize();
 192              		.loc 1 294 0
 193 0016 FFF7FEFF 		bl	CapSense_SsInitialize
 194              	.LVL18:
 295:Generated_Source\PSoC6/CapSense_Control.c **** 
 296:Generated_Source\PSoC6/CapSense_Control.c ****     return result;
 297:Generated_Source\PSoC6/CapSense_Control.c **** }
 195              		.loc 1 297 0
 196 001a 08BD     		pop	{r3, pc}
 197              	.L20:
 198              		.align	2
 199              	.L19:
 200 001c 00000000 		.word	.LANCHOR0
 201              		.cfi_endproc
 202              	.LFE270:
ARM GAS  C:\Users\Lauriane\AppData\Local\Temp\cchyTeCa.s 			page 10


 203              		.size	CapSense_Resume, .-CapSense_Resume
 204              		.section	.text.CapSense_ProcessAllWidgets,"ax",%progbits
 205              		.align	2
 206              		.global	CapSense_ProcessAllWidgets
 207              		.thumb
 208              		.thumb_func
 209              		.type	CapSense_ProcessAllWidgets, %function
 210              	CapSense_ProcessAllWidgets:
 211              	.LFB271:
 298:Generated_Source\PSoC6/CapSense_Control.c **** 
 299:Generated_Source\PSoC6/CapSense_Control.c **** /*******************************************************************************
 300:Generated_Source\PSoC6/CapSense_Control.c **** * Function Name: CapSense_ProcessAllWidgets
 301:Generated_Source\PSoC6/CapSense_Control.c **** ****************************************************************************//**
 302:Generated_Source\PSoC6/CapSense_Control.c **** *
 303:Generated_Source\PSoC6/CapSense_Control.c **** * \brief
 304:Generated_Source\PSoC6/CapSense_Control.c **** *  Performs full data processing of all enabled widgets.
 305:Generated_Source\PSoC6/CapSense_Control.c **** *
 306:Generated_Source\PSoC6/CapSense_Control.c **** * \details
 307:Generated_Source\PSoC6/CapSense_Control.c **** *  This function performs all data processes for all enabled widgets in the
 308:Generated_Source\PSoC6/CapSense_Control.c **** *  Component. The following tasks are executed as part of processing all the
 309:Generated_Source\PSoC6/CapSense_Control.c **** *  widgets:
 310:Generated_Source\PSoC6/CapSense_Control.c **** *    1. Apply raw count filters to the raw counts, if they are enabled in the
 311:Generated_Source\PSoC6/CapSense_Control.c **** *       customizer.
 312:Generated_Source\PSoC6/CapSense_Control.c **** *    2. Update the thresholds if the SmartSense Full Auto-Tuning is enabled in
 313:Generated_Source\PSoC6/CapSense_Control.c **** *       the customizer.
 314:Generated_Source\PSoC6/CapSense_Control.c **** *    3. Update the baselines and difference counts for all the sensors.
 315:Generated_Source\PSoC6/CapSense_Control.c **** *    4. Update the sensor and widget status (on/off), update the centroid for
 316:Generated_Source\PSoC6/CapSense_Control.c **** *       the sliders and the X/Y position for the touchpads.
 317:Generated_Source\PSoC6/CapSense_Control.c **** *
 318:Generated_Source\PSoC6/CapSense_Control.c **** *  This function is called by an application program only after all the enabled
 319:Generated_Source\PSoC6/CapSense_Control.c **** *  widgets (and sensors) in the Component is scanned. Calling this function
 320:Generated_Source\PSoC6/CapSense_Control.c **** *  multiple times without sensor scanning causes unexpected behavior.
 321:Generated_Source\PSoC6/CapSense_Control.c **** *
 322:Generated_Source\PSoC6/CapSense_Control.c **** *  The disabled widgets are not processed by this function. To disable/enable
 323:Generated_Source\PSoC6/CapSense_Control.c **** *  a widget, set the appropriate values in the
 324:Generated_Source\PSoC6/CapSense_Control.c **** *  CapSense_WDGT_ENABLE<RegisterNumber>_PARAM_ID register using the
 325:Generated_Source\PSoC6/CapSense_Control.c **** *  CapSense_SetParam() function.
 326:Generated_Source\PSoC6/CapSense_Control.c **** *
 327:Generated_Source\PSoC6/CapSense_Control.c **** *  If the Ballistic multiplier filter is enabled the Timestamp must be
 328:Generated_Source\PSoC6/CapSense_Control.c **** *  updated before calling this function using the
 329:Generated_Source\PSoC6/CapSense_Control.c **** *  CapSense_IncrementGestureTimestamp() function.
 330:Generated_Source\PSoC6/CapSense_Control.c **** *
 331:Generated_Source\PSoC6/CapSense_Control.c **** *  If the Self-test library is enabled, this function executes the baseline duplication
 332:Generated_Source\PSoC6/CapSense_Control.c **** *  test. Refer to CapSense_CheckBaselineDuplication() for details.
 333:Generated_Source\PSoC6/CapSense_Control.c **** *
 334:Generated_Source\PSoC6/CapSense_Control.c **** * \return
 335:Generated_Source\PSoC6/CapSense_Control.c **** *  Returns the status of the processing operation. If CY_RET_SUCCESS is not received,
 336:Generated_Source\PSoC6/CapSense_Control.c **** *  the processing fails and retries may be required.
 337:Generated_Source\PSoC6/CapSense_Control.c **** *
 338:Generated_Source\PSoC6/CapSense_Control.c **** *******************************************************************************/
 339:Generated_Source\PSoC6/CapSense_Control.c **** cy_status CapSense_ProcessAllWidgets(void)
 340:Generated_Source\PSoC6/CapSense_Control.c **** {
 212              		.loc 1 340 0
 213              		.cfi_startproc
 214              		@ args = 0, pretend = 0, frame = 0
 215              		@ frame_needed = 0, uses_anonymous_args = 0
 216 0000 70B5     		push	{r4, r5, r6, lr}
ARM GAS  C:\Users\Lauriane\AppData\Local\Temp\cchyTeCa.s 			page 11


 217              		.cfi_def_cfa_offset 16
 218              		.cfi_offset 4, -16
 219              		.cfi_offset 5, -12
 220              		.cfi_offset 6, -8
 221              		.cfi_offset 14, -4
 222              	.LVL19:
 341:Generated_Source\PSoC6/CapSense_Control.c ****     uint32 wdgtId;
 342:Generated_Source\PSoC6/CapSense_Control.c ****     cy_status result = CY_RET_SUCCESS;
 343:Generated_Source\PSoC6/CapSense_Control.c ****     CapSense_FLASH_WD_STRUCT const *ptrFlashWdgt;
 344:Generated_Source\PSoC6/CapSense_Control.c **** 
 345:Generated_Source\PSoC6/CapSense_Control.c ****     ptrFlashWdgt = CapSense_dsFlash.wdgtArray;
 223              		.loc 1 345 0
 224 0002 194D     		ldr	r5, .L30
 342:Generated_Source\PSoC6/CapSense_Control.c ****     CapSense_FLASH_WD_STRUCT const *ptrFlashWdgt;
 225              		.loc 1 342 0
 226 0004 0026     		movs	r6, #0
 346:Generated_Source\PSoC6/CapSense_Control.c **** 
 347:Generated_Source\PSoC6/CapSense_Control.c ****     for (wdgtId = 0u; wdgtId < CapSense_TOTAL_WIDGETS; wdgtId++)
 227              		.loc 1 347 0
 228 0006 3446     		mov	r4, r6
 229 0008 29E0     		b	.L22
 230              	.LVL20:
 231              	.L27:
 348:Generated_Source\PSoC6/CapSense_Control.c ****     {
 349:Generated_Source\PSoC6/CapSense_Control.c ****         if (0uL != CapSense_GET_WIDGET_EN_STATUS(wdgtId))
 232              		.loc 1 349 0
 233 000a 6309     		lsrs	r3, r4, #5
 234 000c 0433     		adds	r3, r3, #4
 235 000e 174A     		ldr	r2, .L30+4
 236 0010 52F82330 		ldr	r3, [r2, r3, lsl #2]
 237 0014 04F01F02 		and	r2, r4, #31
 238 0018 D340     		lsrs	r3, r3, r2
 239 001a 13F0010F 		tst	r3, #1
 240 001e 1CD0     		beq	.L23
 350:Generated_Source\PSoC6/CapSense_Control.c ****         {
 351:Generated_Source\PSoC6/CapSense_Control.c ****             switch(CapSense_GET_SENSE_METHOD(ptrFlashWdgt))
 241              		.loc 1 351 0
 242 0020 EB7E     		ldrb	r3, [r5, #27]	@ zero_extendqisi2
 243 0022 012B     		cmp	r3, #1
 244 0024 02D0     		beq	.L25
 245 0026 022B     		cmp	r3, #2
 246 0028 09D0     		beq	.L26
 247 002a 11E0     		b	.L28
 248              	.L25:
 352:Generated_Source\PSoC6/CapSense_Control.c ****             {
 353:Generated_Source\PSoC6/CapSense_Control.c ****             #if (0u != CapSense_TOTAL_CSD_WIDGETS)
 354:Generated_Source\PSoC6/CapSense_Control.c ****                 case CapSense_SENSE_METHOD_CSD_E:
 355:Generated_Source\PSoC6/CapSense_Control.c ****                     result = CapSense_DpProcessCsdWidgetRawCounts(ptrFlashWdgt);
 249              		.loc 1 355 0
 250 002c 2846     		mov	r0, r5
 251 002e FFF7FEFF 		bl	CapSense_DpProcessCsdWidgetRawCounts
 252              	.LVL21:
 253 0032 0646     		mov	r6, r0
 254              	.LVL22:
 356:Generated_Source\PSoC6/CapSense_Control.c ****                     CapSense_DpProcessCsdWidgetStatus(wdgtId, ptrFlashWdgt);
 255              		.loc 1 356 0
 256 0034 2946     		mov	r1, r5
ARM GAS  C:\Users\Lauriane\AppData\Local\Temp\cchyTeCa.s 			page 12


 257 0036 2046     		mov	r0, r4
 258              	.LVL23:
 259 0038 FFF7FEFF 		bl	CapSense_DpProcessCsdWidgetStatus
 260              	.LVL24:
 357:Generated_Source\PSoC6/CapSense_Control.c ****                     break;
 261              		.loc 1 357 0
 262 003c 0DE0     		b	.L23
 263              	.L26:
 358:Generated_Source\PSoC6/CapSense_Control.c ****             #endif /* #if (0u != CapSense_TOTAL_CSD_WIDGETS) */
 359:Generated_Source\PSoC6/CapSense_Control.c **** 
 360:Generated_Source\PSoC6/CapSense_Control.c ****             #if (0u != CapSense_TOTAL_CSX_WIDGETS)
 361:Generated_Source\PSoC6/CapSense_Control.c ****                 case CapSense_SENSE_METHOD_CSX_E:
 362:Generated_Source\PSoC6/CapSense_Control.c ****                     result = CapSense_DpProcessCsxWidgetRawCounts(ptrFlashWdgt);
 264              		.loc 1 362 0
 265 003e 2846     		mov	r0, r5
 266 0040 FFF7FEFF 		bl	CapSense_DpProcessCsxWidgetRawCounts
 267              	.LVL25:
 268 0044 0646     		mov	r6, r0
 269              	.LVL26:
 363:Generated_Source\PSoC6/CapSense_Control.c ****                     CapSense_DpProcessCsxWidgetStatus(wdgtId, ptrFlashWdgt);
 270              		.loc 1 363 0
 271 0046 2946     		mov	r1, r5
 272 0048 2046     		mov	r0, r4
 273              	.LVL27:
 274 004a FFF7FEFF 		bl	CapSense_DpProcessCsxWidgetStatus
 275              	.LVL28:
 364:Generated_Source\PSoC6/CapSense_Control.c ****                     break;
 276              		.loc 1 364 0
 277 004e 04E0     		b	.L23
 278              	.L28:
 365:Generated_Source\PSoC6/CapSense_Control.c ****             #endif /* #if (0u != CapSense_TOTAL_CSX_WIDGETS) */
 366:Generated_Source\PSoC6/CapSense_Control.c **** 
 367:Generated_Source\PSoC6/CapSense_Control.c ****             default:
 368:Generated_Source\PSoC6/CapSense_Control.c ****                 CY_ASSERT(0 != 0);
 279              		.loc 1 368 0 discriminator 1
 280 0050 4FF4B871 		mov	r1, #368
 281 0054 0648     		ldr	r0, .L30+8
 282 0056 FFF7FEFF 		bl	Cy_SysLib_AssertFailed
 283              	.LVL29:
 284              	.L23:
 369:Generated_Source\PSoC6/CapSense_Control.c ****                 break;
 370:Generated_Source\PSoC6/CapSense_Control.c ****             }
 371:Generated_Source\PSoC6/CapSense_Control.c **** 
 372:Generated_Source\PSoC6/CapSense_Control.c ****             #if (CapSense_ENABLE == CapSense_TST_BSLN_DUPLICATION_EN)
 373:Generated_Source\PSoC6/CapSense_Control.c ****                 if (CY_RET_SUCCESS != result)
 374:Generated_Source\PSoC6/CapSense_Control.c ****                 {
 375:Generated_Source\PSoC6/CapSense_Control.c ****                     CapSense_UpdateTestResultBaselineDuplication(wdgtId, result);
 376:Generated_Source\PSoC6/CapSense_Control.c ****                     result = CY_RET_BAD_DATA;
 377:Generated_Source\PSoC6/CapSense_Control.c ****                 }
 378:Generated_Source\PSoC6/CapSense_Control.c ****             #endif /* (CapSense_ENABLE == CapSense_TST_BSLN_DUPLICATION_EN) */
 379:Generated_Source\PSoC6/CapSense_Control.c **** 
 380:Generated_Source\PSoC6/CapSense_Control.c ****         }
 381:Generated_Source\PSoC6/CapSense_Control.c ****         ptrFlashWdgt++;
 285              		.loc 1 381 0 discriminator 2
 286 005a 3035     		adds	r5, r5, #48
 287              	.LVL30:
 347:Generated_Source\PSoC6/CapSense_Control.c ****     {
ARM GAS  C:\Users\Lauriane\AppData\Local\Temp\cchyTeCa.s 			page 13


 288              		.loc 1 347 0 discriminator 2
 289 005c 0134     		adds	r4, r4, #1
 290              	.LVL31:
 291              	.L22:
 347:Generated_Source\PSoC6/CapSense_Control.c ****     {
 292              		.loc 1 347 0 is_stmt 0 discriminator 1
 293 005e 022C     		cmp	r4, #2
 294 0060 D3D9     		bls	.L27
 382:Generated_Source\PSoC6/CapSense_Control.c ****     }
 383:Generated_Source\PSoC6/CapSense_Control.c ****     return result;
 384:Generated_Source\PSoC6/CapSense_Control.c **** }
 295              		.loc 1 384 0 is_stmt 1
 296 0062 3046     		mov	r0, r6
 297 0064 70BD     		pop	{r4, r5, r6, pc}
 298              	.LVL32:
 299              	.L31:
 300 0066 00BF     		.align	2
 301              	.L30:
 302 0068 00000000 		.word	CapSense_dsFlash
 303 006c 00000000 		.word	CapSense_dsRam
 304 0070 00000000 		.word	.LC0
 305              		.cfi_endproc
 306              	.LFE271:
 307              		.size	CapSense_ProcessAllWidgets, .-CapSense_ProcessAllWidgets
 308              		.section	.text.CapSense_ProcessWidget,"ax",%progbits
 309              		.align	2
 310              		.global	CapSense_ProcessWidget
 311              		.thumb
 312              		.thumb_func
 313              		.type	CapSense_ProcessWidget, %function
 314              	CapSense_ProcessWidget:
 315              	.LFB272:
 385:Generated_Source\PSoC6/CapSense_Control.c **** 
 386:Generated_Source\PSoC6/CapSense_Control.c **** /*******************************************************************************
 387:Generated_Source\PSoC6/CapSense_Control.c **** * Function Name: CapSense_ProcessWidget
 388:Generated_Source\PSoC6/CapSense_Control.c **** ****************************************************************************//**
 389:Generated_Source\PSoC6/CapSense_Control.c **** *
 390:Generated_Source\PSoC6/CapSense_Control.c **** * \brief
 391:Generated_Source\PSoC6/CapSense_Control.c **** *  Performs full data processing of the specified widget if it is enabled.
 392:Generated_Source\PSoC6/CapSense_Control.c **** *
 393:Generated_Source\PSoC6/CapSense_Control.c **** * \details
 394:Generated_Source\PSoC6/CapSense_Control.c **** *  This function performs exactly the same tasks as
 395:Generated_Source\PSoC6/CapSense_Control.c **** *  CapSense_ProcessAllWidgets(), but only for a specified widget. This
 396:Generated_Source\PSoC6/CapSense_Control.c **** *  function can be used along with the CapSense_SetupWidget() and
 397:Generated_Source\PSoC6/CapSense_Control.c **** *  CapSense_Scan() functions to scan and process data for a specific
 398:Generated_Source\PSoC6/CapSense_Control.c **** *  widget. This function is called only after all the sensors in the
 399:Generated_Source\PSoC6/CapSense_Control.c **** *  widgets are scanned. A disabled widget is not processed by this function.
 400:Generated_Source\PSoC6/CapSense_Control.c **** *
 401:Generated_Source\PSoC6/CapSense_Control.c **** *  A pipeline scan method (i.e. during scanning of a widget perform processing
 402:Generated_Source\PSoC6/CapSense_Control.c **** *  of the previously scanned widget) can be implemented using this function and
 403:Generated_Source\PSoC6/CapSense_Control.c **** *  it may reduce the total execution time, increase the refresh rate and
 404:Generated_Source\PSoC6/CapSense_Control.c **** *  decrease the average power consumption.
 405:Generated_Source\PSoC6/CapSense_Control.c **** *
 406:Generated_Source\PSoC6/CapSense_Control.c **** *  If the Ballistic multiplier filter is enabled the Timestamp must be
 407:Generated_Source\PSoC6/CapSense_Control.c **** *  updated before calling this function using the
 408:Generated_Source\PSoC6/CapSense_Control.c **** *  CapSense_IncrementGestureTimestamp() function.
 409:Generated_Source\PSoC6/CapSense_Control.c **** *
ARM GAS  C:\Users\Lauriane\AppData\Local\Temp\cchyTeCa.s 			page 14


 410:Generated_Source\PSoC6/CapSense_Control.c **** *  If the Self-test library is enabled, this function executes the baseline duplication
 411:Generated_Source\PSoC6/CapSense_Control.c **** *  test. Refer to CapSense_CheckBaselineDuplication() for details.
 412:Generated_Source\PSoC6/CapSense_Control.c **** *
 413:Generated_Source\PSoC6/CapSense_Control.c **** * \param widgetId
 414:Generated_Source\PSoC6/CapSense_Control.c **** *  Specifies the ID number of the widget to be processed.
 415:Generated_Source\PSoC6/CapSense_Control.c **** *  A macro for the widget ID can be found in the
 416:Generated_Source\PSoC6/CapSense_Control.c **** *  CapSense Configuration header file defined as
 417:Generated_Source\PSoC6/CapSense_Control.c **** *  CapSense_<WidgetName>_WDGT_ID
 418:Generated_Source\PSoC6/CapSense_Control.c **** *
 419:Generated_Source\PSoC6/CapSense_Control.c **** * \return
 420:Generated_Source\PSoC6/CapSense_Control.c **** *  Returns the status of the widget processing:
 421:Generated_Source\PSoC6/CapSense_Control.c **** *  - CY_RET_SUCCESS - The operation is successfully completed
 422:Generated_Source\PSoC6/CapSense_Control.c **** *  - CY_RET_BAD_PARAM - The input parameter is invalid
 423:Generated_Source\PSoC6/CapSense_Control.c **** *  - CY_RET_INVALID_STATE - The specified widget is disabled
 424:Generated_Source\PSoC6/CapSense_Control.c **** *  - CY_RET_BAD_DATA - The processing is failed
 425:Generated_Source\PSoC6/CapSense_Control.c **** *
 426:Generated_Source\PSoC6/CapSense_Control.c **** *******************************************************************************/
 427:Generated_Source\PSoC6/CapSense_Control.c **** cy_status CapSense_ProcessWidget(uint32 widgetId)
 428:Generated_Source\PSoC6/CapSense_Control.c **** {
 316              		.loc 1 428 0
 317              		.cfi_startproc
 318              		@ args = 0, pretend = 0, frame = 0
 319              		@ frame_needed = 0, uses_anonymous_args = 0
 320              	.LVL33:
 321 0000 70B5     		push	{r4, r5, r6, lr}
 322              		.cfi_def_cfa_offset 16
 323              		.cfi_offset 4, -16
 324              		.cfi_offset 5, -12
 325              		.cfi_offset 6, -8
 326              		.cfi_offset 14, -4
 327              	.LVL34:
 429:Generated_Source\PSoC6/CapSense_Control.c ****     cy_status result = CY_RET_SUCCESS;
 430:Generated_Source\PSoC6/CapSense_Control.c ****     CapSense_FLASH_WD_STRUCT const *ptrFlashWdgt;
 431:Generated_Source\PSoC6/CapSense_Control.c **** 
 432:Generated_Source\PSoC6/CapSense_Control.c ****     if (widgetId >= CapSense_TOTAL_WIDGETS)
 328              		.loc 1 432 0
 329 0002 0228     		cmp	r0, #2
 330 0004 01D8     		bhi	.L39
 429:Generated_Source\PSoC6/CapSense_Control.c ****     cy_status result = CY_RET_SUCCESS;
 331              		.loc 1 429 0
 332 0006 0025     		movs	r5, #0
 333 0008 00E0     		b	.L33
 334              	.L39:
 433:Generated_Source\PSoC6/CapSense_Control.c ****     {
 434:Generated_Source\PSoC6/CapSense_Control.c ****         result = CY_RET_BAD_PARAM;
 335              		.loc 1 434 0
 336 000a 0125     		movs	r5, #1
 337              	.L33:
 338              	.LVL35:
 435:Generated_Source\PSoC6/CapSense_Control.c ****     }
 436:Generated_Source\PSoC6/CapSense_Control.c **** 
 437:Generated_Source\PSoC6/CapSense_Control.c ****     if ((CY_RET_SUCCESS == result) && (0uL == CapSense_GET_WIDGET_EN_STATUS(widgetId)))
 339              		.loc 1 437 0
 340 000c 5DB9     		cbnz	r5, .L34
 341              		.loc 1 437 0 is_stmt 0 discriminator 1
 342 000e 4309     		lsrs	r3, r0, #5
 343 0010 0433     		adds	r3, r3, #4
ARM GAS  C:\Users\Lauriane\AppData\Local\Temp\cchyTeCa.s 			page 15


 344 0012 184A     		ldr	r2, .L43
 345 0014 52F82330 		ldr	r3, [r2, r3, lsl #2]
 346 0018 00F01F02 		and	r2, r0, #31
 347 001c D340     		lsrs	r3, r3, r2
 348 001e 13F0010F 		tst	r3, #1
 349 0022 00D1     		bne	.L34
 438:Generated_Source\PSoC6/CapSense_Control.c ****     {
 439:Generated_Source\PSoC6/CapSense_Control.c ****         result = CY_RET_INVALID_STATE;
 350              		.loc 1 439 0 is_stmt 1
 351 0024 1125     		movs	r5, #17
 352              	.LVL36:
 353              	.L34:
 440:Generated_Source\PSoC6/CapSense_Control.c ****     }
 441:Generated_Source\PSoC6/CapSense_Control.c **** 
 442:Generated_Source\PSoC6/CapSense_Control.c ****     if (CY_RET_SUCCESS == result)
 354              		.loc 1 442 0
 355 0026 15BB     		cbnz	r5, .L35
 356 0028 0446     		mov	r4, r0
 443:Generated_Source\PSoC6/CapSense_Control.c ****     {
 444:Generated_Source\PSoC6/CapSense_Control.c ****         ptrFlashWdgt = &CapSense_dsFlash.wdgtArray[widgetId];
 357              		.loc 1 444 0
 358 002a 4300     		lsls	r3, r0, #1
 359 002c 0344     		add	r3, r3, r0
 360 002e 1E01     		lsls	r6, r3, #4
 361 0030 114B     		ldr	r3, .L43+4
 362 0032 1E44     		add	r6, r6, r3
 363              	.LVL37:
 445:Generated_Source\PSoC6/CapSense_Control.c **** 
 446:Generated_Source\PSoC6/CapSense_Control.c ****         switch(CapSense_GET_SENSE_METHOD(ptrFlashWdgt))
 364              		.loc 1 446 0
 365 0034 F37E     		ldrb	r3, [r6, #27]	@ zero_extendqisi2
 366 0036 012B     		cmp	r3, #1
 367 0038 02D0     		beq	.L37
 368 003a 022B     		cmp	r3, #2
 369 003c 09D0     		beq	.L38
 370 003e 11E0     		b	.L41
 371              	.L37:
 447:Generated_Source\PSoC6/CapSense_Control.c ****         {
 448:Generated_Source\PSoC6/CapSense_Control.c ****         #if (0u != CapSense_TOTAL_CSD_WIDGETS)
 449:Generated_Source\PSoC6/CapSense_Control.c ****             case CapSense_SENSE_METHOD_CSD_E:
 450:Generated_Source\PSoC6/CapSense_Control.c ****                 result = CapSense_DpProcessCsdWidgetRawCounts(ptrFlashWdgt);
 372              		.loc 1 450 0
 373 0040 3046     		mov	r0, r6
 374              	.LVL38:
 375 0042 FFF7FEFF 		bl	CapSense_DpProcessCsdWidgetRawCounts
 376              	.LVL39:
 377 0046 0546     		mov	r5, r0
 378              	.LVL40:
 451:Generated_Source\PSoC6/CapSense_Control.c ****                 CapSense_DpProcessCsdWidgetStatus(widgetId, ptrFlashWdgt);
 379              		.loc 1 451 0
 380 0048 3146     		mov	r1, r6
 381 004a 2046     		mov	r0, r4
 382              	.LVL41:
 383 004c FFF7FEFF 		bl	CapSense_DpProcessCsdWidgetStatus
 384              	.LVL42:
 452:Generated_Source\PSoC6/CapSense_Control.c ****                 break;
 385              		.loc 1 452 0
ARM GAS  C:\Users\Lauriane\AppData\Local\Temp\cchyTeCa.s 			page 16


 386 0050 0DE0     		b	.L35
 387              	.LVL43:
 388              	.L38:
 453:Generated_Source\PSoC6/CapSense_Control.c ****         #endif /* #if (0u != CapSense_TOTAL_CSD_WIDGETS) */
 454:Generated_Source\PSoC6/CapSense_Control.c **** 
 455:Generated_Source\PSoC6/CapSense_Control.c ****         #if (0u != CapSense_TOTAL_CSX_WIDGETS)
 456:Generated_Source\PSoC6/CapSense_Control.c ****             case CapSense_SENSE_METHOD_CSX_E:
 457:Generated_Source\PSoC6/CapSense_Control.c ****                 result = CapSense_DpProcessCsxWidgetRawCounts(ptrFlashWdgt);
 389              		.loc 1 457 0
 390 0052 3046     		mov	r0, r6
 391              	.LVL44:
 392 0054 FFF7FEFF 		bl	CapSense_DpProcessCsxWidgetRawCounts
 393              	.LVL45:
 394 0058 0546     		mov	r5, r0
 395              	.LVL46:
 458:Generated_Source\PSoC6/CapSense_Control.c ****                 CapSense_DpProcessCsxWidgetStatus(widgetId, ptrFlashWdgt);
 396              		.loc 1 458 0
 397 005a 3146     		mov	r1, r6
 398 005c 2046     		mov	r0, r4
 399              	.LVL47:
 400 005e FFF7FEFF 		bl	CapSense_DpProcessCsxWidgetStatus
 401              	.LVL48:
 459:Generated_Source\PSoC6/CapSense_Control.c ****                 break;
 402              		.loc 1 459 0
 403 0062 04E0     		b	.L35
 404              	.LVL49:
 405              	.L41:
 460:Generated_Source\PSoC6/CapSense_Control.c ****         #endif /* #if (0u != CapSense_TOTAL_CSX_WIDGETS) */
 461:Generated_Source\PSoC6/CapSense_Control.c **** 
 462:Generated_Source\PSoC6/CapSense_Control.c ****         default:
 463:Generated_Source\PSoC6/CapSense_Control.c ****             CY_ASSERT(0 != 0);
 406              		.loc 1 463 0 discriminator 1
 407 0064 40F2CF11 		movw	r1, #463
 408 0068 0448     		ldr	r0, .L43+8
 409              	.LVL50:
 410 006a FFF7FEFF 		bl	Cy_SysLib_AssertFailed
 411              	.LVL51:
 412              	.L35:
 464:Generated_Source\PSoC6/CapSense_Control.c ****             break;
 465:Generated_Source\PSoC6/CapSense_Control.c ****         }
 466:Generated_Source\PSoC6/CapSense_Control.c **** 
 467:Generated_Source\PSoC6/CapSense_Control.c ****         #if (CapSense_ENABLE == CapSense_TST_BSLN_DUPLICATION_EN)
 468:Generated_Source\PSoC6/CapSense_Control.c ****             if (CY_RET_SUCCESS != result)
 469:Generated_Source\PSoC6/CapSense_Control.c ****             {
 470:Generated_Source\PSoC6/CapSense_Control.c ****                 CapSense_UpdateTestResultBaselineDuplication(widgetId, result);
 471:Generated_Source\PSoC6/CapSense_Control.c ****                 result = CY_RET_BAD_DATA;
 472:Generated_Source\PSoC6/CapSense_Control.c ****             }
 473:Generated_Source\PSoC6/CapSense_Control.c ****         #endif /* (CapSense_ENABLE == CapSense_TST_BSLN_DUPLICATION_EN) */
 474:Generated_Source\PSoC6/CapSense_Control.c ****     }
 475:Generated_Source\PSoC6/CapSense_Control.c ****     return result;
 476:Generated_Source\PSoC6/CapSense_Control.c **** }
 413              		.loc 1 476 0
 414 006e 2846     		mov	r0, r5
 415 0070 70BD     		pop	{r4, r5, r6, pc}
 416              	.LVL52:
 417              	.L44:
 418 0072 00BF     		.align	2
ARM GAS  C:\Users\Lauriane\AppData\Local\Temp\cchyTeCa.s 			page 17


 419              	.L43:
 420 0074 00000000 		.word	CapSense_dsRam
 421 0078 00000000 		.word	CapSense_dsFlash
 422 007c 00000000 		.word	.LC0
 423              		.cfi_endproc
 424              	.LFE272:
 425              		.size	CapSense_ProcessWidget, .-CapSense_ProcessWidget
 426              		.section	.text.CapSense_ProcessWidgetExt,"ax",%progbits
 427              		.align	2
 428              		.global	CapSense_ProcessWidgetExt
 429              		.thumb
 430              		.thumb_func
 431              		.type	CapSense_ProcessWidgetExt, %function
 432              	CapSense_ProcessWidgetExt:
 433              	.LFB273:
 477:Generated_Source\PSoC6/CapSense_Control.c **** 
 478:Generated_Source\PSoC6/CapSense_Control.c **** 
 479:Generated_Source\PSoC6/CapSense_Control.c **** /*******************************************************************************
 480:Generated_Source\PSoC6/CapSense_Control.c **** * Function Name: CapSense_ProcessWidgetExt
 481:Generated_Source\PSoC6/CapSense_Control.c **** ****************************************************************************//**
 482:Generated_Source\PSoC6/CapSense_Control.c **** *
 483:Generated_Source\PSoC6/CapSense_Control.c **** * \brief
 484:Generated_Source\PSoC6/CapSense_Control.c **** *  Performs customized data processing on the selected widget.
 485:Generated_Source\PSoC6/CapSense_Control.c **** *
 486:Generated_Source\PSoC6/CapSense_Control.c **** * \details
 487:Generated_Source\PSoC6/CapSense_Control.c **** *  This function performs data processes for the specified widget specified by
 488:Generated_Source\PSoC6/CapSense_Control.c **** *  the mode parameter. The execution order of the requested operations is from
 489:Generated_Source\PSoC6/CapSense_Control.c **** *  LSB to MSB of the mode parameter. For a different order, this API
 490:Generated_Source\PSoC6/CapSense_Control.c **** *  can be called multiple times with the required mode parameter.
 491:Generated_Source\PSoC6/CapSense_Control.c **** *
 492:Generated_Source\PSoC6/CapSense_Control.c **** *  This function can be used with any of the available scan functions. This
 493:Generated_Source\PSoC6/CapSense_Control.c **** *  function is called only after all the sensors in the specified widget are
 494:Generated_Source\PSoC6/CapSense_Control.c **** *  scanned. Calling this function multiple times with the same mode without
 495:Generated_Source\PSoC6/CapSense_Control.c **** *  sensor scanning causes unexpected behavior. This function ignores the value
 496:Generated_Source\PSoC6/CapSense_Control.c **** *  of the wdgtEnable register.
 497:Generated_Source\PSoC6/CapSense_Control.c **** *
 498:Generated_Source\PSoC6/CapSense_Control.c **** *  The CapSense_PROCESS_CALC_NOISE and
 499:Generated_Source\PSoC6/CapSense_Control.c **** *  CapSense_PROCESS_THRESHOLDS flags are supported by the CSD sensing
 500:Generated_Source\PSoC6/CapSense_Control.c **** *  method only when Auto-tuning mode is enabled.
 501:Generated_Source\PSoC6/CapSense_Control.c **** *
 502:Generated_Source\PSoC6/CapSense_Control.c **** *  The pipeline scan method (i.e. during scanning of a widget, processing
 503:Generated_Source\PSoC6/CapSense_Control.c **** *  of a previously scanned widget is performed) can be implemented using this
 504:Generated_Source\PSoC6/CapSense_Control.c **** *  function and it may reduce the total scan/process time, increase the refresh
 505:Generated_Source\PSoC6/CapSense_Control.c **** *  rate and decrease the power consumption.
 506:Generated_Source\PSoC6/CapSense_Control.c **** *
 507:Generated_Source\PSoC6/CapSense_Control.c **** *  If the Self-test library is enabled, this function executes the baseline duplication
 508:Generated_Source\PSoC6/CapSense_Control.c **** *  test. Refer to CapSense_CheckBaselineDuplication() for details.
 509:Generated_Source\PSoC6/CapSense_Control.c **** *
 510:Generated_Source\PSoC6/CapSense_Control.c **** *  If the Ballistic multiplier filter is enabled the Timestamp must be
 511:Generated_Source\PSoC6/CapSense_Control.c **** *  updated before calling this function using the
 512:Generated_Source\PSoC6/CapSense_Control.c **** *  CapSense_IncrementGestureTimestamp() function.
 513:Generated_Source\PSoC6/CapSense_Control.c **** *
 514:Generated_Source\PSoC6/CapSense_Control.c **** * \param widgetId
 515:Generated_Source\PSoC6/CapSense_Control.c **** *  Specifies the ID number of the widget to be processed.
 516:Generated_Source\PSoC6/CapSense_Control.c **** *  A macro for the widget ID can be found in the CapSense Configuration header
 517:Generated_Source\PSoC6/CapSense_Control.c **** *  file defined as CapSense_<WidgetName>_WDGT_ID.
 518:Generated_Source\PSoC6/CapSense_Control.c **** 
ARM GAS  C:\Users\Lauriane\AppData\Local\Temp\cchyTeCa.s 			page 18


 519:Generated_Source\PSoC6/CapSense_Control.c **** * \param mode
 520:Generated_Source\PSoC6/CapSense_Control.c **** *  Specifies the type of widget processing to be executed for the
 521:Generated_Source\PSoC6/CapSense_Control.c **** *  specified widget:
 522:Generated_Source\PSoC6/CapSense_Control.c **** *    1. Bits [31..6] - Reserved.
 523:Generated_Source\PSoC6/CapSense_Control.c **** *    2. Bits [5..0] - CapSense_PROCESS_ALL - Execute all the tasks.
 524:Generated_Source\PSoC6/CapSense_Control.c **** *    3. Bit [5] - CapSense_PROCESS_STATUS - Update the status (on/off,
 525:Generated_Source\PSoC6/CapSense_Control.c **** *       centroid position).
 526:Generated_Source\PSoC6/CapSense_Control.c **** *    4. Bit [4] - CapSense_PROCESS_THRESHOLDS - Update the thresholds
 527:Generated_Source\PSoC6/CapSense_Control.c **** *       (only in CSD auto-tuning mode).
 528:Generated_Source\PSoC6/CapSense_Control.c **** *    5. Bit [3] - CapSense_PROCESS_CALC_NOISE - Calculate the noise (only in
 529:Generated_Source\PSoC6/CapSense_Control.c **** *       CSD auto-tuning mode).
 530:Generated_Source\PSoC6/CapSense_Control.c **** *    6. Bit [2] - CapSense_PROCESS_DIFFCOUNTS - Update the difference counts.
 531:Generated_Source\PSoC6/CapSense_Control.c **** *    7. Bit [1] - CapSense_PROCESS_BASELINE - Update the baselines.
 532:Generated_Source\PSoC6/CapSense_Control.c **** *    8. Bit [0] - CapSense_PROCESS_FILTER - Run the firmware filters.
 533:Generated_Source\PSoC6/CapSense_Control.c **** *
 534:Generated_Source\PSoC6/CapSense_Control.c **** * \return
 535:Generated_Source\PSoC6/CapSense_Control.c **** *  Returns the status of the widget processing operation:
 536:Generated_Source\PSoC6/CapSense_Control.c **** *  - CY_RET_SUCCESS - The processing is successfully performed.
 537:Generated_Source\PSoC6/CapSense_Control.c **** *  - CY_RET_BAD_PARAM - The input parameter is invalid.
 538:Generated_Source\PSoC6/CapSense_Control.c **** *  - CY_RET_BAD_DATA - The processing failed.
 539:Generated_Source\PSoC6/CapSense_Control.c **** *
 540:Generated_Source\PSoC6/CapSense_Control.c **** *******************************************************************************/
 541:Generated_Source\PSoC6/CapSense_Control.c **** cy_status CapSense_ProcessWidgetExt(uint32 widgetId, uint32 mode)
 542:Generated_Source\PSoC6/CapSense_Control.c **** {
 434              		.loc 1 542 0
 435              		.cfi_startproc
 436              		@ args = 0, pretend = 0, frame = 0
 437              		@ frame_needed = 0, uses_anonymous_args = 0
 438              	.LVL53:
 439 0000 2DE9F84F 		push	{r3, r4, r5, r6, r7, r8, r9, r10, fp, lr}
 440              		.cfi_def_cfa_offset 40
 441              		.cfi_offset 3, -40
 442              		.cfi_offset 4, -36
 443              		.cfi_offset 5, -32
 444              		.cfi_offset 6, -28
 445              		.cfi_offset 7, -24
 446              		.cfi_offset 8, -20
 447              		.cfi_offset 9, -16
 448              		.cfi_offset 10, -12
 449              		.cfi_offset 11, -8
 450              		.cfi_offset 14, -4
 451              	.LVL54:
 543:Generated_Source\PSoC6/CapSense_Control.c ****     uint32 snsCount;
 544:Generated_Source\PSoC6/CapSense_Control.c ****     cy_status result = CY_RET_BAD_PARAM;
 545:Generated_Source\PSoC6/CapSense_Control.c ****     CapSense_FLASH_WD_STRUCT const *ptrFlashWdgt;
 546:Generated_Source\PSoC6/CapSense_Control.c ****     CapSense_PTR_FILTER_VARIANT fltrHistV;
 547:Generated_Source\PSoC6/CapSense_Control.c ****     CapSense_RAM_SNS_STRUCT *ptrSnsTmp;
 548:Generated_Source\PSoC6/CapSense_Control.c **** 
 549:Generated_Source\PSoC6/CapSense_Control.c ****     #if (0u != CapSense_TOTAL_CSD_WIDGETS)
 550:Generated_Source\PSoC6/CapSense_Control.c ****         uint32 isProxWdgt;
 551:Generated_Source\PSoC6/CapSense_Control.c ****     #endif
 552:Generated_Source\PSoC6/CapSense_Control.c **** 
 553:Generated_Source\PSoC6/CapSense_Control.c ****     if (widgetId < CapSense_TOTAL_WIDGETS)
 452              		.loc 1 553 0
 453 0004 0228     		cmp	r0, #2
 454 0006 59D8     		bhi	.L55
 455 0008 0F46     		mov	r7, r1
ARM GAS  C:\Users\Lauriane\AppData\Local\Temp\cchyTeCa.s 			page 19


 456 000a 8146     		mov	r9, r0
 554:Generated_Source\PSoC6/CapSense_Control.c ****     {
 555:Generated_Source\PSoC6/CapSense_Control.c ****         ptrFlashWdgt = &CapSense_dsFlash.wdgtArray[widgetId];
 457              		.loc 1 555 0
 458 000c 4300     		lsls	r3, r0, #1
 459 000e 0344     		add	r3, r3, r0
 460 0010 1A01     		lsls	r2, r3, #4
 461 0012 2D4E     		ldr	r6, .L60
 462 0014 1644     		add	r6, r6, r2
 463              	.LVL55:
 556:Generated_Source\PSoC6/CapSense_Control.c ****         snsCount = CapSense_GET_SNS_CNT_BY_PTR(ptrFlashWdgt);
 464              		.loc 1 556 0
 465 0016 338B     		ldrh	r3, [r6, #24]
 466              	.LVL56:
 557:Generated_Source\PSoC6/CapSense_Control.c ****         ptrSnsTmp = ptrFlashWdgt->ptr2SnsRam;
 467              		.loc 1 557 0
 468 0018 B468     		ldr	r4, [r6, #8]
 469              	.LVL57:
 558:Generated_Source\PSoC6/CapSense_Control.c ****         fltrHistV.ptr = ptrFlashWdgt->ptr2FltrHistory;
 470              		.loc 1 558 0
 471 001a F568     		ldr	r5, [r6, #12]
 472              	.LVL58:
 559:Generated_Source\PSoC6/CapSense_Control.c **** 
 560:Generated_Source\PSoC6/CapSense_Control.c ****         switch(CapSense_GET_SENSE_METHOD(ptrFlashWdgt))
 473              		.loc 1 560 0
 474 001c F27E     		ldrb	r2, [r6, #27]	@ zero_extendqisi2
 475 001e 012A     		cmp	r2, #1
 476 0020 02D0     		beq	.L48
 477 0022 022A     		cmp	r2, #2
 478 0024 34D0     		beq	.L56
 479 0026 41E0     		b	.L58
 480              	.L48:
 561:Generated_Source\PSoC6/CapSense_Control.c ****         {
 562:Generated_Source\PSoC6/CapSense_Control.c ****         #if (0u != CapSense_TOTAL_CSD_WIDGETS)
 563:Generated_Source\PSoC6/CapSense_Control.c ****             case CapSense_SENSE_METHOD_CSD_E:
 564:Generated_Source\PSoC6/CapSense_Control.c ****             {
 565:Generated_Source\PSoC6/CapSense_Control.c ****                 /* Determine if widget is type of proximity.
 566:Generated_Source\PSoC6/CapSense_Control.c ****                  * The Proximity widgets use different filters and
 567:Generated_Source\PSoC6/CapSense_Control.c ****                  * therefore have different filter history object structure */
 568:Generated_Source\PSoC6/CapSense_Control.c ****                 isProxWdgt = (CapSense_GET_WIDGET_TYPE(ptrFlashWdgt) == CapSense_WD_PROXIMITY_E) ? 
 481              		.loc 1 568 0
 482 0028 00EB4001 		add	r1, r0, r0, lsl #1
 483              	.LVL59:
 484 002c 0A01     		lsls	r2, r1, #4
 485 002e 2649     		ldr	r1, .L60
 486 0030 0A44     		add	r2, r2, r1
 487 0032 927E     		ldrb	r2, [r2, #26]	@ zero_extendqisi2
 488 0034 062A     		cmp	r2, #6
 489 0036 02D1     		bne	.L57
 490 0038 4FF0010B 		mov	fp, #1
 491 003c 01E0     		b	.L50
 492              	.L57:
 493 003e 4FF0000B 		mov	fp, #0
 494              	.L50:
 495              	.LVL60:
 544:Generated_Source\PSoC6/CapSense_Control.c ****     CapSense_FLASH_WD_STRUCT const *ptrFlashWdgt;
 496              		.loc 1 544 0 discriminator 4
ARM GAS  C:\Users\Lauriane\AppData\Local\Temp\cchyTeCa.s 			page 20


 497 0042 4FF00108 		mov	r8, #1
 569:Generated_Source\PSoC6/CapSense_Control.c **** 
 570:Generated_Source\PSoC6/CapSense_Control.c ****                 /* Run the desired processing for the all CSD widget sensors */
 571:Generated_Source\PSoC6/CapSense_Control.c ****                 for (;snsCount-- > 0u;)
 498              		.loc 1 571 0 discriminator 4
 499 0046 0CE0     		b	.L51
 500              	.LVL61:
 501              	.L53:
 572:Generated_Source\PSoC6/CapSense_Control.c ****                 {
 573:Generated_Source\PSoC6/CapSense_Control.c ****                     result = CapSense_DpProcessCsdSensorRawCountsExt(ptrFlashWdgt, ptrSnsTmp, fltrH
 502              		.loc 1 573 0
 503 0048 3B46     		mov	r3, r7
 504 004a 2A46     		mov	r2, r5
 505 004c 2146     		mov	r1, r4
 506 004e 3046     		mov	r0, r6
 507 0050 FFF7FEFF 		bl	CapSense_DpProcessCsdSensorRawCountsExt
 508              	.LVL62:
 509 0054 8046     		mov	r8, r0
 510              	.LVL63:
 574:Generated_Source\PSoC6/CapSense_Control.c **** 
 575:Generated_Source\PSoC6/CapSense_Control.c ****                     #if (CapSense_ENABLE == CapSense_TST_BSLN_DUPLICATION_EN)
 576:Generated_Source\PSoC6/CapSense_Control.c ****                         if (CY_RET_SUCCESS != result)
 577:Generated_Source\PSoC6/CapSense_Control.c ****                         {
 578:Generated_Source\PSoC6/CapSense_Control.c ****                             result = (result | CapSense_TST_LSBYTE) & snsCount;
 579:Generated_Source\PSoC6/CapSense_Control.c ****                         }
 580:Generated_Source\PSoC6/CapSense_Control.c ****                     #endif /* (CapSense_ENABLE == CapSense_TST_BSLN_DUPLICATION_EN) */
 581:Generated_Source\PSoC6/CapSense_Control.c **** 
 582:Generated_Source\PSoC6/CapSense_Control.c ****                     /* Move to the next sensor and filter history objects */
 583:Generated_Source\PSoC6/CapSense_Control.c ****                     ptrSnsTmp++;
 511              		.loc 1 583 0
 512 0056 0A34     		adds	r4, r4, #10
 513              	.LVL64:
 584:Generated_Source\PSoC6/CapSense_Control.c ****                     CapSense_INC_FLTR_OBJ_VARIANT(isProxWdgt, fltrHistV);
 514              		.loc 1 584 0
 515 0058 BBF1000F 		cmp	fp, #0
 516 005c 00D1     		bne	.L52
 517              		.loc 1 584 0 is_stmt 0 discriminator 1
 518 005e 0A35     		adds	r5, r5, #10
 519              	.LVL65:
 520              	.L52:
 521 0060 5346     		mov	r3, r10
 522              	.LVL66:
 523              	.L51:
 571:Generated_Source\PSoC6/CapSense_Control.c ****                 {
 524              		.loc 1 571 0 is_stmt 1
 525 0062 03F1FF3A 		add	r10, r3, #-1
 526              	.LVL67:
 527 0066 002B     		cmp	r3, #0
 528 0068 EED1     		bne	.L53
 585:Generated_Source\PSoC6/CapSense_Control.c ****                 }
 586:Generated_Source\PSoC6/CapSense_Control.c **** 
 587:Generated_Source\PSoC6/CapSense_Control.c ****                 if (0u != (mode & CapSense_PROCESS_STATUS))
 529              		.loc 1 587 0
 530 006a 17F0200F 		tst	r7, #32
 531 006e 27D0     		beq	.L46
 588:Generated_Source\PSoC6/CapSense_Control.c ****                 {
 589:Generated_Source\PSoC6/CapSense_Control.c ****                     CapSense_DpProcessCsdWidgetStatus(widgetId, ptrFlashWdgt);
ARM GAS  C:\Users\Lauriane\AppData\Local\Temp\cchyTeCa.s 			page 21


 532              		.loc 1 589 0
 533 0070 3146     		mov	r1, r6
 534 0072 4846     		mov	r0, r9
 535 0074 FFF7FEFF 		bl	CapSense_DpProcessCsdWidgetStatus
 536              	.LVL68:
 537 0078 22E0     		b	.L46
 538              	.LVL69:
 539              	.L54:
 590:Generated_Source\PSoC6/CapSense_Control.c ****                 }
 591:Generated_Source\PSoC6/CapSense_Control.c ****                 break;
 592:Generated_Source\PSoC6/CapSense_Control.c ****             }
 593:Generated_Source\PSoC6/CapSense_Control.c ****         #endif /* #if (0u != CapSense_TOTAL_CSD_WIDGETS) */
 594:Generated_Source\PSoC6/CapSense_Control.c **** 
 595:Generated_Source\PSoC6/CapSense_Control.c ****         #if (0u != CapSense_TOTAL_CSX_WIDGETS)
 596:Generated_Source\PSoC6/CapSense_Control.c ****             case CapSense_SENSE_METHOD_CSX_E:
 597:Generated_Source\PSoC6/CapSense_Control.c **** 
 598:Generated_Source\PSoC6/CapSense_Control.c ****                 #if (0u != CapSense_CSX_MULTIPHASE_TX_EN)
 599:Generated_Source\PSoC6/CapSense_Control.c ****                     if ((0u != (mode & CapSense_PROCESS_DECONVOLUTION)) &&
 600:Generated_Source\PSoC6/CapSense_Control.c ****                         (0u != (ptrFlashWdgt->staticConfig & CapSense_MULTIPHASE_TX_MASK)))
 601:Generated_Source\PSoC6/CapSense_Control.c ****                     {
 602:Generated_Source\PSoC6/CapSense_Control.c ****                         CapSense_DpDeconvolution(ptrFlashWdgt);
 603:Generated_Source\PSoC6/CapSense_Control.c ****                     }
 604:Generated_Source\PSoC6/CapSense_Control.c ****                 #endif /* #if (0u != CapSense_CSX_MULTIPHASE_TX_EN) */
 605:Generated_Source\PSoC6/CapSense_Control.c **** 
 606:Generated_Source\PSoC6/CapSense_Control.c ****                 /* Run the desired processing for the all CSX widget sensors */
 607:Generated_Source\PSoC6/CapSense_Control.c ****                 for (;snsCount-- > 0u;)
 608:Generated_Source\PSoC6/CapSense_Control.c ****                 {
 609:Generated_Source\PSoC6/CapSense_Control.c ****                     result = CapSense_DpProcessCsxSensorRawCountsExt(ptrFlashWdgt, ptrSnsTmp, fltrH
 540              		.loc 1 609 0
 541 007a 3B46     		mov	r3, r7
 542              	.LVL70:
 543 007c 2A46     		mov	r2, r5
 544 007e 2146     		mov	r1, r4
 545 0080 3046     		mov	r0, r6
 546 0082 FFF7FEFF 		bl	CapSense_DpProcessCsxSensorRawCountsExt
 547              	.LVL71:
 548 0086 8046     		mov	r8, r0
 549              	.LVL72:
 610:Generated_Source\PSoC6/CapSense_Control.c **** 
 611:Generated_Source\PSoC6/CapSense_Control.c ****                     #if (CapSense_ENABLE == CapSense_TST_BSLN_DUPLICATION_EN)
 612:Generated_Source\PSoC6/CapSense_Control.c ****                         if (CY_RET_SUCCESS != result)
 613:Generated_Source\PSoC6/CapSense_Control.c ****                         {
 614:Generated_Source\PSoC6/CapSense_Control.c ****                             result = (result | CapSense_TST_LSBYTE) & snsCount;
 615:Generated_Source\PSoC6/CapSense_Control.c ****                         }
 616:Generated_Source\PSoC6/CapSense_Control.c ****                     #endif /* (CapSense_ENABLE == CapSense_TST_BSLN_DUPLICATION_EN) */
 617:Generated_Source\PSoC6/CapSense_Control.c **** 
 618:Generated_Source\PSoC6/CapSense_Control.c ****                     /* Move to the next sensor and filter history objects */
 619:Generated_Source\PSoC6/CapSense_Control.c ****                     ptrSnsTmp++;
 550              		.loc 1 619 0
 551 0088 0A34     		adds	r4, r4, #10
 552              	.LVL73:
 620:Generated_Source\PSoC6/CapSense_Control.c ****                     CapSense_INC_REG_FLTR_OBJ(fltrHistV);
 553              		.loc 1 620 0
 554 008a 0A35     		adds	r5, r5, #10
 555              	.LVL74:
 607:Generated_Source\PSoC6/CapSense_Control.c ****                 {
 556              		.loc 1 607 0
ARM GAS  C:\Users\Lauriane\AppData\Local\Temp\cchyTeCa.s 			page 22


 557 008c 5346     		mov	r3, r10
 558 008e 01E0     		b	.L49
 559              	.LVL75:
 560              	.L56:
 560:Generated_Source\PSoC6/CapSense_Control.c ****         {
 561              		.loc 1 560 0
 562 0090 4FF00108 		mov	r8, #1
 563              	.LVL76:
 564              	.L49:
 607:Generated_Source\PSoC6/CapSense_Control.c ****                 {
 565              		.loc 1 607 0
 566 0094 03F1FF3A 		add	r10, r3, #-1
 567              	.LVL77:
 568 0098 002B     		cmp	r3, #0
 569 009a EED1     		bne	.L54
 621:Generated_Source\PSoC6/CapSense_Control.c ****                 }
 622:Generated_Source\PSoC6/CapSense_Control.c **** 
 623:Generated_Source\PSoC6/CapSense_Control.c ****                 if (0u != (mode & CapSense_PROCESS_STATUS))
 570              		.loc 1 623 0
 571 009c 17F0200F 		tst	r7, #32
 572 00a0 0ED0     		beq	.L46
 624:Generated_Source\PSoC6/CapSense_Control.c ****                 {
 625:Generated_Source\PSoC6/CapSense_Control.c ****                     CapSense_DpProcessCsxWidgetStatus(widgetId, ptrFlashWdgt);
 573              		.loc 1 625 0
 574 00a2 3146     		mov	r1, r6
 575 00a4 4846     		mov	r0, r9
 576 00a6 FFF7FEFF 		bl	CapSense_DpProcessCsxWidgetStatus
 577              	.LVL78:
 578 00aa 09E0     		b	.L46
 579              	.LVL79:
 580              	.L58:
 626:Generated_Source\PSoC6/CapSense_Control.c ****                 }
 627:Generated_Source\PSoC6/CapSense_Control.c ****                 break;
 628:Generated_Source\PSoC6/CapSense_Control.c ****         #endif /* #if (0u != CapSense_TOTAL_CSX_WIDGETS) */
 629:Generated_Source\PSoC6/CapSense_Control.c **** 
 630:Generated_Source\PSoC6/CapSense_Control.c ****         default:
 631:Generated_Source\PSoC6/CapSense_Control.c ****             CY_ASSERT(0 != 0);
 581              		.loc 1 631 0 discriminator 1
 582 00ac 40F27721 		movw	r1, #631
 583              	.LVL80:
 584 00b0 0648     		ldr	r0, .L60+4
 585              	.LVL81:
 586 00b2 FFF7FEFF 		bl	Cy_SysLib_AssertFailed
 587              	.LVL82:
 544:Generated_Source\PSoC6/CapSense_Control.c ****     CapSense_FLASH_WD_STRUCT const *ptrFlashWdgt;
 588              		.loc 1 544 0 discriminator 1
 589 00b6 4FF00108 		mov	r8, #1
 632:Generated_Source\PSoC6/CapSense_Control.c ****             break;
 590              		.loc 1 632 0 discriminator 1
 591 00ba 01E0     		b	.L46
 592              	.LVL83:
 593              	.L55:
 544:Generated_Source\PSoC6/CapSense_Control.c ****     CapSense_FLASH_WD_STRUCT const *ptrFlashWdgt;
 594              		.loc 1 544 0
 595 00bc 4FF00108 		mov	r8, #1
 596              	.LVL84:
 597              	.L46:
ARM GAS  C:\Users\Lauriane\AppData\Local\Temp\cchyTeCa.s 			page 23


 633:Generated_Source\PSoC6/CapSense_Control.c ****         }
 634:Generated_Source\PSoC6/CapSense_Control.c **** 
 635:Generated_Source\PSoC6/CapSense_Control.c ****         #if (CapSense_ENABLE == CapSense_TST_BSLN_DUPLICATION_EN)
 636:Generated_Source\PSoC6/CapSense_Control.c ****             if (CY_RET_SUCCESS != result)
 637:Generated_Source\PSoC6/CapSense_Control.c ****             {
 638:Generated_Source\PSoC6/CapSense_Control.c ****                 CapSense_UpdateTestResultBaselineDuplication(widgetId, snsCount);
 639:Generated_Source\PSoC6/CapSense_Control.c ****                 result = CY_RET_BAD_DATA;
 640:Generated_Source\PSoC6/CapSense_Control.c ****             }
 641:Generated_Source\PSoC6/CapSense_Control.c ****         #endif /* (CapSense_ENABLE == CapSense_TST_BSLN_DUPLICATION_EN) */
 642:Generated_Source\PSoC6/CapSense_Control.c **** 
 643:Generated_Source\PSoC6/CapSense_Control.c ****     }
 644:Generated_Source\PSoC6/CapSense_Control.c ****     return result;
 645:Generated_Source\PSoC6/CapSense_Control.c **** }
 598              		.loc 1 645 0
 599 00c0 4046     		mov	r0, r8
 600 00c2 BDE8F88F 		pop	{r3, r4, r5, r6, r7, r8, r9, r10, fp, pc}
 601              	.LVL85:
 602              	.L61:
 603 00c6 00BF     		.align	2
 604              	.L60:
 605 00c8 00000000 		.word	CapSense_dsFlash
 606 00cc 00000000 		.word	.LC0
 607              		.cfi_endproc
 608              	.LFE273:
 609              		.size	CapSense_ProcessWidgetExt, .-CapSense_ProcessWidgetExt
 610              		.section	.text.CapSense_ProcessSensorExt,"ax",%progbits
 611              		.align	2
 612              		.global	CapSense_ProcessSensorExt
 613              		.thumb
 614              		.thumb_func
 615              		.type	CapSense_ProcessSensorExt, %function
 616              	CapSense_ProcessSensorExt:
 617              	.LFB274:
 646:Generated_Source\PSoC6/CapSense_Control.c **** 
 647:Generated_Source\PSoC6/CapSense_Control.c **** /*******************************************************************************
 648:Generated_Source\PSoC6/CapSense_Control.c **** * Function Name: CapSense_ProcessSensorExt
 649:Generated_Source\PSoC6/CapSense_Control.c **** ****************************************************************************//**
 650:Generated_Source\PSoC6/CapSense_Control.c **** *
 651:Generated_Source\PSoC6/CapSense_Control.c **** * \brief
 652:Generated_Source\PSoC6/CapSense_Control.c **** *  Performs customized data processing on the selected widget's sensor.
 653:Generated_Source\PSoC6/CapSense_Control.c **** *
 654:Generated_Source\PSoC6/CapSense_Control.c **** * \details
 655:Generated_Source\PSoC6/CapSense_Control.c **** *  This function performs data processes for the specified sensor specified by
 656:Generated_Source\PSoC6/CapSense_Control.c **** *  the mode parameter. The execution order of the requested operations is from
 657:Generated_Source\PSoC6/CapSense_Control.c **** *  LSB to MSB of the mode parameter. For a different order, this
 658:Generated_Source\PSoC6/CapSense_Control.c **** *  function can be called multiple times with the required mode parameter.
 659:Generated_Source\PSoC6/CapSense_Control.c **** *
 660:Generated_Source\PSoC6/CapSense_Control.c **** *  This function can be used with any of the available scan functions. This
 661:Generated_Source\PSoC6/CapSense_Control.c **** *  function is called only after a specified sensor in the widget is
 662:Generated_Source\PSoC6/CapSense_Control.c **** *  scanned. Calling this function multiple times with the same mode without
 663:Generated_Source\PSoC6/CapSense_Control.c **** *  sensor scanning causes unexpected behavior. This function ignores the value
 664:Generated_Source\PSoC6/CapSense_Control.c **** *  of the wdgtEnable register.
 665:Generated_Source\PSoC6/CapSense_Control.c **** *
 666:Generated_Source\PSoC6/CapSense_Control.c **** *  The CapSense_PROCESS_CALC_NOISE and
 667:Generated_Source\PSoC6/CapSense_Control.c **** *  CapSense_PROCESS_THRESHOLDS flags are supported by the CSD sensing
 668:Generated_Source\PSoC6/CapSense_Control.c **** *  method only when Auto-tuning mode is enabled.
 669:Generated_Source\PSoC6/CapSense_Control.c **** *
ARM GAS  C:\Users\Lauriane\AppData\Local\Temp\cchyTeCa.s 			page 24


 670:Generated_Source\PSoC6/CapSense_Control.c **** *  The pipeline scan method (i.e. during scanning of a sensor, processing
 671:Generated_Source\PSoC6/CapSense_Control.c **** *  of a previously scanned sensor is performed) can be implemented using this
 672:Generated_Source\PSoC6/CapSense_Control.c **** *  function and it may reduce the total scan/process time, increase the refresh
 673:Generated_Source\PSoC6/CapSense_Control.c **** *  rate and decrease the power consumption.
 674:Generated_Source\PSoC6/CapSense_Control.c **** *
 675:Generated_Source\PSoC6/CapSense_Control.c **** *  If the Self-test library is enabled, this function executes the baseline duplication
 676:Generated_Source\PSoC6/CapSense_Control.c **** *  test. Refer to CapSense_CheckBaselineDuplication() for details.
 677:Generated_Source\PSoC6/CapSense_Control.c **** *
 678:Generated_Source\PSoC6/CapSense_Control.c **** * \param widgetId
 679:Generated_Source\PSoC6/CapSense_Control.c **** *  Specifies the ID number of the widget to process one of its sensors.
 680:Generated_Source\PSoC6/CapSense_Control.c **** *  A macro for the widget ID can be found in the
 681:Generated_Source\PSoC6/CapSense_Control.c **** *  CapSense Configuration header file defined as
 682:Generated_Source\PSoC6/CapSense_Control.c **** *  CapSense_<WidgetName>_WDGT_ID.
 683:Generated_Source\PSoC6/CapSense_Control.c **** *
 684:Generated_Source\PSoC6/CapSense_Control.c **** * \param sensorId
 685:Generated_Source\PSoC6/CapSense_Control.c **** *  Specifies the ID number of the sensor within the widget to process it.
 686:Generated_Source\PSoC6/CapSense_Control.c **** *  A macro for the sensor ID within a specified widget can be found in the
 687:Generated_Source\PSoC6/CapSense_Control.c **** *  CapSense Configuration header file defined as
 688:Generated_Source\PSoC6/CapSense_Control.c **** *  CapSense_<WidgetName>_SNS<SensorNumber>_ID.
 689:Generated_Source\PSoC6/CapSense_Control.c **** *
 690:Generated_Source\PSoC6/CapSense_Control.c **** * \param mode
 691:Generated_Source\PSoC6/CapSense_Control.c **** *  Specifies the type of the sensor processing that needs to be executed for the
 692:Generated_Source\PSoC6/CapSense_Control.c **** *  specified sensor:
 693:Generated_Source\PSoC6/CapSense_Control.c **** *    1. Bits [31..5] - Reserved
 694:Generated_Source\PSoC6/CapSense_Control.c **** *    2. Bits [4..0] - CapSense_PROCESS_ALL - Executes all the tasks
 695:Generated_Source\PSoC6/CapSense_Control.c **** *    3. Bit [4] - CapSense_PROCESS_THRESHOLDS - Updates the thresholds (only
 696:Generated_Source\PSoC6/CapSense_Control.c **** *       in auto-tuning mode)
 697:Generated_Source\PSoC6/CapSense_Control.c **** *    4. Bit [3] - CapSense_PROCESS_CALC_NOISE - Calculates the noise (only
 698:Generated_Source\PSoC6/CapSense_Control.c **** *       in auto-tuning mode)
 699:Generated_Source\PSoC6/CapSense_Control.c **** *    5. Bit [2] - CapSense_PROCESS_DIFFCOUNTS - Updates the difference count
 700:Generated_Source\PSoC6/CapSense_Control.c **** *    6. Bit [1] - CapSense_PROCESS_BASELINE - Updates the baseline
 701:Generated_Source\PSoC6/CapSense_Control.c **** *    7. Bit [0] - CapSense_PROCESS_FILTER - Runs the firmware filters
 702:Generated_Source\PSoC6/CapSense_Control.c **** *
 703:Generated_Source\PSoC6/CapSense_Control.c **** * \return
 704:Generated_Source\PSoC6/CapSense_Control.c **** *  Returns the status of the sensor process operation:
 705:Generated_Source\PSoC6/CapSense_Control.c **** *  - CY_RET_SUCCESS - The processing is successfully performed.
 706:Generated_Source\PSoC6/CapSense_Control.c **** *  - CY_RET_BAD_PARAM - The input parameter is invalid.
 707:Generated_Source\PSoC6/CapSense_Control.c **** *  - CY_RET_BAD_DATA - The processing failed.
 708:Generated_Source\PSoC6/CapSense_Control.c **** *
 709:Generated_Source\PSoC6/CapSense_Control.c **** *******************************************************************************/
 710:Generated_Source\PSoC6/CapSense_Control.c **** cy_status CapSense_ProcessSensorExt(uint32 widgetId, uint32 sensorId, uint32 mode)
 711:Generated_Source\PSoC6/CapSense_Control.c **** {
 618              		.loc 1 711 0
 619              		.cfi_startproc
 620              		@ args = 0, pretend = 0, frame = 0
 621              		@ frame_needed = 0, uses_anonymous_args = 0
 622              	.LVL86:
 712:Generated_Source\PSoC6/CapSense_Control.c ****     cy_status result = CY_RET_BAD_PARAM;
 713:Generated_Source\PSoC6/CapSense_Control.c ****     CapSense_FLASH_WD_STRUCT const *ptrFlashWdgt;
 714:Generated_Source\PSoC6/CapSense_Control.c ****     CapSense_PTR_FILTER_VARIANT fltrHistV;
 715:Generated_Source\PSoC6/CapSense_Control.c ****     CapSense_RAM_SNS_STRUCT *ptrSnsTmp;
 716:Generated_Source\PSoC6/CapSense_Control.c **** 
 717:Generated_Source\PSoC6/CapSense_Control.c ****     if ((widgetId < CapSense_TOTAL_WIDGETS) && (sensorId < CapSense_GET_SENSOR_COUNT(widgetId)))
 623              		.loc 1 717 0
 624 0000 0228     		cmp	r0, #2
 625 0002 34D8     		bhi	.L68
 711:Generated_Source\PSoC6/CapSense_Control.c ****     cy_status result = CY_RET_BAD_PARAM;
ARM GAS  C:\Users\Lauriane\AppData\Local\Temp\cchyTeCa.s 			page 25


 626              		.loc 1 711 0 discriminator 1
 627 0004 F8B5     		push	{r3, r4, r5, r6, r7, lr}
 628              		.cfi_def_cfa_offset 24
 629              		.cfi_offset 3, -24
 630              		.cfi_offset 4, -20
 631              		.cfi_offset 5, -16
 632              		.cfi_offset 6, -12
 633              		.cfi_offset 7, -8
 634              		.cfi_offset 14, -4
 635              		.loc 1 717 0 discriminator 1
 636 0006 00EB4005 		add	r5, r0, r0, lsl #1
 637 000a 2C01     		lsls	r4, r5, #4
 638 000c 1A4B     		ldr	r3, .L72
 639 000e 1C44     		add	r4, r4, r3
 640 0010 238B     		ldrh	r3, [r4, #24]
 641 0012 8B42     		cmp	r3, r1
 642 0014 2DD9     		bls	.L69
 643 0016 1346     		mov	r3, r2
 644 0018 0446     		mov	r4, r0
 645              	.LVL87:
 718:Generated_Source\PSoC6/CapSense_Control.c ****     {
 719:Generated_Source\PSoC6/CapSense_Control.c ****         result = CY_RET_SUCCESS;
 720:Generated_Source\PSoC6/CapSense_Control.c **** 
 721:Generated_Source\PSoC6/CapSense_Control.c ****         ptrFlashWdgt = &CapSense_dsFlash.wdgtArray[widgetId];
 646              		.loc 1 721 0
 647 001a 4500     		lsls	r5, r0, #1
 648 001c 0544     		add	r5, r5, r0
 649 001e 2A01     		lsls	r2, r5, #4
 650              	.LVL88:
 651 0020 1548     		ldr	r0, .L72
 652              	.LVL89:
 653 0022 1044     		add	r0, r0, r2
 654              	.LVL90:
 722:Generated_Source\PSoC6/CapSense_Control.c ****         fltrHistV.ptr = ptrFlashWdgt->ptr2FltrHistory;
 655              		.loc 1 722 0
 656 0024 C768     		ldr	r7, [r0, #12]
 657 0026 3A46     		mov	r2, r7
 658              	.LVL91:
 723:Generated_Source\PSoC6/CapSense_Control.c ****         ptrSnsTmp = ptrFlashWdgt->ptr2SnsRam;
 659              		.loc 1 723 0
 660 0028 8668     		ldr	r6, [r0, #8]
 661              	.LVL92:
 724:Generated_Source\PSoC6/CapSense_Control.c ****         ptrSnsTmp += sensorId;
 662              		.loc 1 724 0
 663 002a 01EB8101 		add	r1, r1, r1, lsl #2
 664              	.LVL93:
 665 002e 4D00     		lsls	r5, r1, #1
 666 0030 7119     		adds	r1, r6, r5
 667              	.LVL94:
 725:Generated_Source\PSoC6/CapSense_Control.c **** 
 726:Generated_Source\PSoC6/CapSense_Control.c ****         switch(CapSense_GET_SENSE_METHOD(ptrFlashWdgt))
 668              		.loc 1 726 0
 669 0032 C67E     		ldrb	r6, [r0, #27]	@ zero_extendqisi2
 670 0034 012E     		cmp	r6, #1
 671 0036 02D0     		beq	.L65
 672 0038 022E     		cmp	r6, #2
 673 003a 0CD0     		beq	.L66
ARM GAS  C:\Users\Lauriane\AppData\Local\Temp\cchyTeCa.s 			page 26


 674 003c 10E0     		b	.L70
 675              	.L65:
 727:Generated_Source\PSoC6/CapSense_Control.c ****         {
 728:Generated_Source\PSoC6/CapSense_Control.c ****         #if (0u != CapSense_TOTAL_CSD_WIDGETS)
 729:Generated_Source\PSoC6/CapSense_Control.c ****             case CapSense_SENSE_METHOD_CSD_E:
 730:Generated_Source\PSoC6/CapSense_Control.c ****                 if (CapSense_WD_PROXIMITY_E == (CapSense_WD_TYPE_ENUM)ptrFlashWdgt->wdgtType)
 676              		.loc 1 730 0
 677 003e 04EB4404 		add	r4, r4, r4, lsl #1
 678              	.LVL95:
 679 0042 2601     		lsls	r6, r4, #4
 680 0044 0C4C     		ldr	r4, .L72
 681 0046 2644     		add	r6, r6, r4
 682 0048 B47E     		ldrb	r4, [r6, #26]	@ zero_extendqisi2
 683 004a 062C     		cmp	r4, #6
 684 004c 00D0     		beq	.L67
 731:Generated_Source\PSoC6/CapSense_Control.c ****                 {
 732:Generated_Source\PSoC6/CapSense_Control.c ****                     #if (0u != CapSense_PROX_RC_ALP_FILTER_EN)
 733:Generated_Source\PSoC6/CapSense_Control.c ****                         fltrHistV.ptr = &fltrHistV.ptrAlp[sensorId];
 734:Generated_Source\PSoC6/CapSense_Control.c ****                     #elif (0u != CapSense_PROX_RC_FILTER_EN)
 735:Generated_Source\PSoC6/CapSense_Control.c ****                         fltrHistV.ptr = &fltrHistV.ptrProx[sensorId];
 736:Generated_Source\PSoC6/CapSense_Control.c ****                     #endif
 737:Generated_Source\PSoC6/CapSense_Control.c ****                 }
 738:Generated_Source\PSoC6/CapSense_Control.c ****                 else
 739:Generated_Source\PSoC6/CapSense_Control.c ****                 {
 740:Generated_Source\PSoC6/CapSense_Control.c ****                     #if (0u != CapSense_REGULAR_RC_ALP_FILTER_EN)
 741:Generated_Source\PSoC6/CapSense_Control.c ****                         fltrHistV.ptr = &fltrHistV.ptrAlp[sensorId];
 742:Generated_Source\PSoC6/CapSense_Control.c ****                     #elif (0u != CapSense_REGULAR_RC_FILTER_EN)
 743:Generated_Source\PSoC6/CapSense_Control.c ****                         fltrHistV.ptr = &fltrHistV.ptrRegular[sensorId];
 685              		.loc 1 743 0
 686 004e 7A19     		adds	r2, r7, r5
 687              	.L67:
 744:Generated_Source\PSoC6/CapSense_Control.c ****                     #endif
 745:Generated_Source\PSoC6/CapSense_Control.c ****                 }
 746:Generated_Source\PSoC6/CapSense_Control.c **** 
 747:Generated_Source\PSoC6/CapSense_Control.c ****                 result = CapSense_DpProcessCsdSensorRawCountsExt(ptrFlashWdgt, ptrSnsTmp, fltrHistV
 688              		.loc 1 747 0
 689 0050 FFF7FEFF 		bl	CapSense_DpProcessCsdSensorRawCountsExt
 690              	.LVL96:
 748:Generated_Source\PSoC6/CapSense_Control.c ****                 break;
 691              		.loc 1 748 0
 692 0054 F8BD     		pop	{r3, r4, r5, r6, r7, pc}
 693              	.LVL97:
 694              	.L66:
 749:Generated_Source\PSoC6/CapSense_Control.c ****         #endif /* #if (0u != CapSense_TOTAL_CSD_WIDGETS) */
 750:Generated_Source\PSoC6/CapSense_Control.c **** 
 751:Generated_Source\PSoC6/CapSense_Control.c ****         #if (0u != CapSense_TOTAL_CSX_WIDGETS)
 752:Generated_Source\PSoC6/CapSense_Control.c ****             case CapSense_SENSE_METHOD_CSX_E:
 753:Generated_Source\PSoC6/CapSense_Control.c ****                 #if (0u != CapSense_REGULAR_RC_ALP_FILTER_EN)
 754:Generated_Source\PSoC6/CapSense_Control.c ****                     fltrHistV.ptr = &fltrHistV.ptrAlp[sensorId];
 755:Generated_Source\PSoC6/CapSense_Control.c ****                 #elif (0u != CapSense_REGULAR_RC_FILTER_EN)
 756:Generated_Source\PSoC6/CapSense_Control.c ****                     fltrHistV.ptr = &fltrHistV.ptrRegular[sensorId];
 695              		.loc 1 756 0
 696 0056 3D44     		add	r5, r5, r7
 697 0058 2A46     		mov	r2, r5
 757:Generated_Source\PSoC6/CapSense_Control.c ****                 #endif
 758:Generated_Source\PSoC6/CapSense_Control.c **** 
 759:Generated_Source\PSoC6/CapSense_Control.c ****                 result = CapSense_DpProcessCsxSensorRawCountsExt(ptrFlashWdgt, ptrSnsTmp, fltrHistV
ARM GAS  C:\Users\Lauriane\AppData\Local\Temp\cchyTeCa.s 			page 27


 698              		.loc 1 759 0
 699 005a FFF7FEFF 		bl	CapSense_DpProcessCsxSensorRawCountsExt
 700              	.LVL98:
 760:Generated_Source\PSoC6/CapSense_Control.c ****                 break;
 701              		.loc 1 760 0
 702 005e F8BD     		pop	{r3, r4, r5, r6, r7, pc}
 703              	.LVL99:
 704              	.L70:
 761:Generated_Source\PSoC6/CapSense_Control.c ****         #endif /* #if (0u != CapSense_TOTAL_CSX_WIDGETS) */
 762:Generated_Source\PSoC6/CapSense_Control.c **** 
 763:Generated_Source\PSoC6/CapSense_Control.c ****         default:
 764:Generated_Source\PSoC6/CapSense_Control.c ****             CY_ASSERT(0 != 0);
 705              		.loc 1 764 0 discriminator 1
 706 0060 4FF43F71 		mov	r1, #764
 707              	.LVL100:
 708 0064 0548     		ldr	r0, .L72+4
 709              	.LVL101:
 710 0066 FFF7FEFF 		bl	Cy_SysLib_AssertFailed
 711              	.LVL102:
 719:Generated_Source\PSoC6/CapSense_Control.c **** 
 712              		.loc 1 719 0 discriminator 1
 713 006a 0020     		movs	r0, #0
 765:Generated_Source\PSoC6/CapSense_Control.c ****             break;
 714              		.loc 1 765 0 discriminator 1
 715 006c F8BD     		pop	{r3, r4, r5, r6, r7, pc}
 716              	.LVL103:
 717              	.L68:
 718              		.cfi_def_cfa_offset 0
 719              		.cfi_restore 3
 720              		.cfi_restore 4
 721              		.cfi_restore 5
 722              		.cfi_restore 6
 723              		.cfi_restore 7
 724              		.cfi_restore 14
 712:Generated_Source\PSoC6/CapSense_Control.c ****     CapSense_FLASH_WD_STRUCT const *ptrFlashWdgt;
 725              		.loc 1 712 0
 726 006e 0120     		movs	r0, #1
 727              	.LVL104:
 766:Generated_Source\PSoC6/CapSense_Control.c ****         }
 767:Generated_Source\PSoC6/CapSense_Control.c **** 
 768:Generated_Source\PSoC6/CapSense_Control.c ****         #if (CapSense_ENABLE == CapSense_TST_BSLN_DUPLICATION_EN)
 769:Generated_Source\PSoC6/CapSense_Control.c ****             if (CY_RET_SUCCESS != result)
 770:Generated_Source\PSoC6/CapSense_Control.c ****             {
 771:Generated_Source\PSoC6/CapSense_Control.c ****                 CapSense_UpdateTestResultBaselineDuplication(widgetId, sensorId);
 772:Generated_Source\PSoC6/CapSense_Control.c ****                 result = CY_RET_BAD_DATA;
 773:Generated_Source\PSoC6/CapSense_Control.c ****             }
 774:Generated_Source\PSoC6/CapSense_Control.c ****         #endif /* (CapSense_ENABLE == CapSense_TST_BSLN_DUPLICATION_EN) */
 775:Generated_Source\PSoC6/CapSense_Control.c **** 
 776:Generated_Source\PSoC6/CapSense_Control.c ****     }
 777:Generated_Source\PSoC6/CapSense_Control.c ****     return result;
 778:Generated_Source\PSoC6/CapSense_Control.c **** }
 728              		.loc 1 778 0
 729 0070 7047     		bx	lr
 730              	.LVL105:
 731              	.L69:
 732              		.cfi_def_cfa_offset 24
 733              		.cfi_offset 3, -24
ARM GAS  C:\Users\Lauriane\AppData\Local\Temp\cchyTeCa.s 			page 28


 734              		.cfi_offset 4, -20
 735              		.cfi_offset 5, -16
 736              		.cfi_offset 6, -12
 737              		.cfi_offset 7, -8
 738              		.cfi_offset 14, -4
 712:Generated_Source\PSoC6/CapSense_Control.c ****     CapSense_FLASH_WD_STRUCT const *ptrFlashWdgt;
 739              		.loc 1 712 0
 740 0072 0120     		movs	r0, #1
 741              	.LVL106:
 742              		.loc 1 778 0
 743 0074 F8BD     		pop	{r3, r4, r5, r6, r7, pc}
 744              	.L73:
 745 0076 00BF     		.align	2
 746              	.L72:
 747 0078 00000000 		.word	CapSense_dsFlash
 748 007c 00000000 		.word	.LC0
 749              		.cfi_endproc
 750              	.LFE274:
 751              		.size	CapSense_ProcessSensorExt, .-CapSense_ProcessSensorExt
 752              		.section	.text.CapSense_Sleep,"ax",%progbits
 753              		.align	2
 754              		.global	CapSense_Sleep
 755              		.thumb
 756              		.thumb_func
 757              		.type	CapSense_Sleep, %function
 758              	CapSense_Sleep:
 759              	.LFB275:
 779:Generated_Source\PSoC6/CapSense_Control.c **** 
 780:Generated_Source\PSoC6/CapSense_Control.c **** /*******************************************************************************
 781:Generated_Source\PSoC6/CapSense_Control.c **** * Function Name: CapSense_Sleep
 782:Generated_Source\PSoC6/CapSense_Control.c **** ****************************************************************************//**
 783:Generated_Source\PSoC6/CapSense_Control.c **** *
 784:Generated_Source\PSoC6/CapSense_Control.c **** * \brief
 785:Generated_Source\PSoC6/CapSense_Control.c **** *  Prepares the Component for deep sleep.
 786:Generated_Source\PSoC6/CapSense_Control.c **** *
 787:Generated_Source\PSoC6/CapSense_Control.c **** * \details
 788:Generated_Source\PSoC6/CapSense_Control.c **** *  Currently this function is empty and exists as a place for future updates,
 789:Generated_Source\PSoC6/CapSense_Control.c **** *  this function will be used to prepare the Component to enter deep sleep.
 790:Generated_Source\PSoC6/CapSense_Control.c **** *
 791:Generated_Source\PSoC6/CapSense_Control.c **** *******************************************************************************/
 792:Generated_Source\PSoC6/CapSense_Control.c **** void CapSense_Sleep(void)
 793:Generated_Source\PSoC6/CapSense_Control.c **** {
 760              		.loc 1 793 0
 761              		.cfi_startproc
 762              		@ args = 0, pretend = 0, frame = 0
 763              		@ frame_needed = 0, uses_anonymous_args = 0
 764              		@ link register save eliminated.
 765 0000 7047     		bx	lr
 766              		.cfi_endproc
 767              	.LFE275:
 768              		.size	CapSense_Sleep, .-CapSense_Sleep
 769 0002 00BF     		.section	.text.CapSense_Wakeup,"ax",%progbits
 770              		.align	2
 771              		.global	CapSense_Wakeup
 772              		.thumb
 773              		.thumb_func
 774              		.type	CapSense_Wakeup, %function
ARM GAS  C:\Users\Lauriane\AppData\Local\Temp\cchyTeCa.s 			page 29


 775              	CapSense_Wakeup:
 776              	.LFB276:
 794:Generated_Source\PSoC6/CapSense_Control.c **** }
 795:Generated_Source\PSoC6/CapSense_Control.c **** 
 796:Generated_Source\PSoC6/CapSense_Control.c **** 
 797:Generated_Source\PSoC6/CapSense_Control.c **** /*******************************************************************************
 798:Generated_Source\PSoC6/CapSense_Control.c **** * Function Name: CapSense_Wakeup
 799:Generated_Source\PSoC6/CapSense_Control.c **** ****************************************************************************//**
 800:Generated_Source\PSoC6/CapSense_Control.c **** *
 801:Generated_Source\PSoC6/CapSense_Control.c **** * \brief
 802:Generated_Source\PSoC6/CapSense_Control.c **** *  Resumes the Component after sleep.
 803:Generated_Source\PSoC6/CapSense_Control.c **** *
 804:Generated_Source\PSoC6/CapSense_Control.c **** * \details
 805:Generated_Source\PSoC6/CapSense_Control.c **** *  Resumes the Component after sleep. This function shall be used to resume
 806:Generated_Source\PSoC6/CapSense_Control.c **** *  the Component after exiting deep sleep.
 807:Generated_Source\PSoC6/CapSense_Control.c **** *
 808:Generated_Source\PSoC6/CapSense_Control.c **** *******************************************************************************/
 809:Generated_Source\PSoC6/CapSense_Control.c **** void CapSense_Wakeup(void)
 810:Generated_Source\PSoC6/CapSense_Control.c **** {
 777              		.loc 1 810 0
 778              		.cfi_startproc
 779              		@ args = 0, pretend = 0, frame = 0
 780              		@ frame_needed = 0, uses_anonymous_args = 0
 781              		@ link register save eliminated.
 782 0000 7047     		bx	lr
 783              		.cfi_endproc
 784              	.LFE276:
 785              		.size	CapSense_Wakeup, .-CapSense_Wakeup
 786 0002 00BF     		.section	.text.CapSense_DeepSleepCallback,"ax",%progbits
 787              		.align	2
 788              		.global	CapSense_DeepSleepCallback
 789              		.thumb
 790              		.thumb_func
 791              		.type	CapSense_DeepSleepCallback, %function
 792              	CapSense_DeepSleepCallback:
 793              	.LFB277:
 811:Generated_Source\PSoC6/CapSense_Control.c ****     #if(CapSense_BLOCK_ANALOG_WAKEUP_DELAY_US > 0uL)
 812:Generated_Source\PSoC6/CapSense_Control.c ****         Cy_SysLib_DelayUs(CapSense_BLOCK_ANALOG_WAKEUP_DELAY_US);
 813:Generated_Source\PSoC6/CapSense_Control.c ****     #endif /* (CapSense_BLOCK_ANALOG_WAKEUP_DELAY_US > 0uL) */
 814:Generated_Source\PSoC6/CapSense_Control.c **** }
 815:Generated_Source\PSoC6/CapSense_Control.c **** 
 816:Generated_Source\PSoC6/CapSense_Control.c **** 
 817:Generated_Source\PSoC6/CapSense_Control.c **** #if (CY_SYSPM_DRV_VERSION_MAJOR < 4u)
 818:Generated_Source\PSoC6/CapSense_Control.c ****     /*******************************************************************************
 819:Generated_Source\PSoC6/CapSense_Control.c ****     * Function Name: CapSense_DeepSleepCallback
 820:Generated_Source\PSoC6/CapSense_Control.c ****     ****************************************************************************//**
 821:Generated_Source\PSoC6/CapSense_Control.c ****     *
 822:Generated_Source\PSoC6/CapSense_Control.c ****     * \brief
 823:Generated_Source\PSoC6/CapSense_Control.c ****     *  Handles Active to DeepSleep power mode transition for the CapSense
 824:Generated_Source\PSoC6/CapSense_Control.c ****     *  Component. This function is used when the major version of the SysPm driver
 825:Generated_Source\PSoC6/CapSense_Control.c ****     *  is less than 4.
 826:Generated_Source\PSoC6/CapSense_Control.c ****     *
 827:Generated_Source\PSoC6/CapSense_Control.c ****     * \details
 828:Generated_Source\PSoC6/CapSense_Control.c ****     *  This function handles Active to DeepSleep power mode transition
 829:Generated_Source\PSoC6/CapSense_Control.c ****     *  for the CapSense Component.
 830:Generated_Source\PSoC6/CapSense_Control.c ****     *  Calling this function directly by application layer is not recommended.
 831:Generated_Source\PSoC6/CapSense_Control.c ****     *  Instead, Cy_SysPm_DeepSleep() should be used for the Active to DeepSleep
ARM GAS  C:\Users\Lauriane\AppData\Local\Temp\cchyTeCa.s 			page 30


 832:Generated_Source\PSoC6/CapSense_Control.c ****     *  power mode transition of the device.
 833:Generated_Source\PSoC6/CapSense_Control.c ****     *
 834:Generated_Source\PSoC6/CapSense_Control.c ****     *  For proper operation of the CapSense Component during the Active to
 835:Generated_Source\PSoC6/CapSense_Control.c ****     *  DeepSleep mode transition, a callback to this API should be registered
 836:Generated_Source\PSoC6/CapSense_Control.c ****     *  using the Cy_SysPm_RegisterCallback() function with CY_SYSPM_DEEPSLEEP
 837:Generated_Source\PSoC6/CapSense_Control.c ****     *  type. Once the callback is registered, this function is called by the
 838:Generated_Source\PSoC6/CapSense_Control.c ****     *  Cy_SysPm_DeepSleep() function to prepare the Component to the device
 839:Generated_Source\PSoC6/CapSense_Control.c ****     *  power mode transition.
 840:Generated_Source\PSoC6/CapSense_Control.c ****     *
 841:Generated_Source\PSoC6/CapSense_Control.c ****     *  When this function is called with CY_SYSPM_CHECK_READY as input, this
 842:Generated_Source\PSoC6/CapSense_Control.c ****     *  function returns CY_SYSPM_SUCCESS if no scanning is in progress, otherwise
 843:Generated_Source\PSoC6/CapSense_Control.c ****     *  CY_SYSPM_FAIL is returned. If CY_SYSPM_FAIL status is returned, a device
 844:Generated_Source\PSoC6/CapSense_Control.c ****     *  cannot change the power mode without completing the current scan as
 845:Generated_Source\PSoC6/CapSense_Control.c ****     *  a transition to DeepSleep during the scan can disrupt the Component
 846:Generated_Source\PSoC6/CapSense_Control.c ****     *  operation.
 847:Generated_Source\PSoC6/CapSense_Control.c ****     *
 848:Generated_Source\PSoC6/CapSense_Control.c ****     * \param callbackParams
 849:Generated_Source\PSoC6/CapSense_Control.c ****     *  Refer to the description of the cy_stc_syspm_callback_params_t type in the
 850:Generated_Source\PSoC6/CapSense_Control.c ****     *  Peripheral Driver Library documentation.
 851:Generated_Source\PSoC6/CapSense_Control.c ****     *
 852:Generated_Source\PSoC6/CapSense_Control.c ****     * \return
 853:Generated_Source\PSoC6/CapSense_Control.c ****     *  Returns the status of the operation requested by the mode parameter:
 854:Generated_Source\PSoC6/CapSense_Control.c ****     *  - CY_SYSPM_SUCCESS  - DeepSleep power mode can be entered.
 855:Generated_Source\PSoC6/CapSense_Control.c ****     *  - CY_SYSPM_FAIL     - DeepSleep power mode cannot be entered.
 856:Generated_Source\PSoC6/CapSense_Control.c ****     *
 857:Generated_Source\PSoC6/CapSense_Control.c ****     *******************************************************************************/
 858:Generated_Source\PSoC6/CapSense_Control.c ****     cy_en_syspm_status_t CapSense_DeepSleepCallback(cy_stc_syspm_callback_params_t *callbackParams)
 859:Generated_Source\PSoC6/CapSense_Control.c ****     {
 860:Generated_Source\PSoC6/CapSense_Control.c ****         return(CapSense_SwitchPowerModeCallback(callbackParams));
 861:Generated_Source\PSoC6/CapSense_Control.c ****     }
 862:Generated_Source\PSoC6/CapSense_Control.c **** 
 863:Generated_Source\PSoC6/CapSense_Control.c **** 
 864:Generated_Source\PSoC6/CapSense_Control.c ****     /*******************************************************************************
 865:Generated_Source\PSoC6/CapSense_Control.c ****     * Function Name: CapSense_EnterLowPowerCallback
 866:Generated_Source\PSoC6/CapSense_Control.c ****     ****************************************************************************//**
 867:Generated_Source\PSoC6/CapSense_Control.c ****     *
 868:Generated_Source\PSoC6/CapSense_Control.c ****     * \brief
 869:Generated_Source\PSoC6/CapSense_Control.c ****     *  Handles Active to Low Power Active (LPActive) power mode transition for
 870:Generated_Source\PSoC6/CapSense_Control.c ****     *  the CapSense Component. This function is used when the major version
 871:Generated_Source\PSoC6/CapSense_Control.c ****     *  of the SysPm driver is less than 4.
 872:Generated_Source\PSoC6/CapSense_Control.c ****     *
 873:Generated_Source\PSoC6/CapSense_Control.c ****     * \details
 874:Generated_Source\PSoC6/CapSense_Control.c ****     *  This function handles the Active to LPActive power mode transition for
 875:Generated_Source\PSoC6/CapSense_Control.c ****     *  the CapSense Component.
 876:Generated_Source\PSoC6/CapSense_Control.c ****     *  Calling this function directly by application layer is not recommended.
 877:Generated_Source\PSoC6/CapSense_Control.c ****     *  Instead, Cy_SysPm_EnterLpMode() should be used for the Active to LPActive
 878:Generated_Source\PSoC6/CapSense_Control.c ****     *  power mode transition of the device.
 879:Generated_Source\PSoC6/CapSense_Control.c ****     *
 880:Generated_Source\PSoC6/CapSense_Control.c ****     *  For proper operation of the CapSense Component during the Active to
 881:Generated_Source\PSoC6/CapSense_Control.c ****     *  LPActive mode transition, a callback to this function should be registered
 882:Generated_Source\PSoC6/CapSense_Control.c ****     *  using the Cy_SysPm_RegisterCallback() function with CY_SYSPM_ENTER_LP_MODE
 883:Generated_Source\PSoC6/CapSense_Control.c ****     *  type. Once the callback is registered, this function is called by the
 884:Generated_Source\PSoC6/CapSense_Control.c ****     *  Cy_SysPm_EnterLpMode() function to prepare the Component to the device
 885:Generated_Source\PSoC6/CapSense_Control.c ****     *  power mode transition.
 886:Generated_Source\PSoC6/CapSense_Control.c ****     *
 887:Generated_Source\PSoC6/CapSense_Control.c ****     *  When this function is called with CY_SYSPM_CHECK_READY as input, this
 888:Generated_Source\PSoC6/CapSense_Control.c ****     *  function returns CY_SYSPM_SUCCESS if no scanning is in progress, otherwise
ARM GAS  C:\Users\Lauriane\AppData\Local\Temp\cchyTeCa.s 			page 31


 889:Generated_Source\PSoC6/CapSense_Control.c ****     *  CY_SYSPM_FAIL is returned. If CY_SYSPM_FAIL status is returned, a device
 890:Generated_Source\PSoC6/CapSense_Control.c ****     *  cannot change the power mode without completing the current scan as
 891:Generated_Source\PSoC6/CapSense_Control.c ****     *  a transition to LPActive during the scan can disrupt the Component
 892:Generated_Source\PSoC6/CapSense_Control.c ****     *  operation.
 893:Generated_Source\PSoC6/CapSense_Control.c ****     *
 894:Generated_Source\PSoC6/CapSense_Control.c ****     * \param callbackParams
 895:Generated_Source\PSoC6/CapSense_Control.c ****     *  Refer to the description of the cy_stc_syspm_callback_params_t type in the
 896:Generated_Source\PSoC6/CapSense_Control.c ****     *  Peripheral Driver Library documentation.
 897:Generated_Source\PSoC6/CapSense_Control.c ****     *
 898:Generated_Source\PSoC6/CapSense_Control.c ****     * \return
 899:Generated_Source\PSoC6/CapSense_Control.c ****     *  Returns the status of the operation requested by the mode parameter:
 900:Generated_Source\PSoC6/CapSense_Control.c ****     *  - CY_SYSPM_SUCCESS  - LPActive power mode can be entered.
 901:Generated_Source\PSoC6/CapSense_Control.c ****     *  - CY_SYSPM_FAIL     - LPActive power mode cannot be entered.
 902:Generated_Source\PSoC6/CapSense_Control.c ****     *
 903:Generated_Source\PSoC6/CapSense_Control.c ****     *******************************************************************************/
 904:Generated_Source\PSoC6/CapSense_Control.c ****     cy_en_syspm_status_t CapSense_EnterLowPowerCallback(cy_stc_syspm_callback_params_t *callbackPar
 905:Generated_Source\PSoC6/CapSense_Control.c ****     {
 906:Generated_Source\PSoC6/CapSense_Control.c ****         return(CapSense_SwitchPowerModeCallback(callbackParams));
 907:Generated_Source\PSoC6/CapSense_Control.c ****     }
 908:Generated_Source\PSoC6/CapSense_Control.c **** 
 909:Generated_Source\PSoC6/CapSense_Control.c **** 
 910:Generated_Source\PSoC6/CapSense_Control.c ****     /*******************************************************************************
 911:Generated_Source\PSoC6/CapSense_Control.c ****     * Function Name: CapSense_ExitLowPowerCallback
 912:Generated_Source\PSoC6/CapSense_Control.c ****     ****************************************************************************//**
 913:Generated_Source\PSoC6/CapSense_Control.c ****     *
 914:Generated_Source\PSoC6/CapSense_Control.c ****     * \brief
 915:Generated_Source\PSoC6/CapSense_Control.c ****     *  Handles Low Power Active (LPActive) to Active power mode transition for
 916:Generated_Source\PSoC6/CapSense_Control.c ****     *  the CapSense Component. This function is used when the major version
 917:Generated_Source\PSoC6/CapSense_Control.c ****     *  of the SysPm driver is less than 4.
 918:Generated_Source\PSoC6/CapSense_Control.c ****     *
 919:Generated_Source\PSoC6/CapSense_Control.c ****     * \details
 920:Generated_Source\PSoC6/CapSense_Control.c ****     *  This function handles LPActive to Active power mode transition for
 921:Generated_Source\PSoC6/CapSense_Control.c ****     *  the CapSense Component.
 922:Generated_Source\PSoC6/CapSense_Control.c ****     *  Calling this function directly by application layer is not recommended.
 923:Generated_Source\PSoC6/CapSense_Control.c ****     *  Instead, Cy_SysPm_ExitLpMode() should be used for the LPActive to Active
 924:Generated_Source\PSoC6/CapSense_Control.c ****     *  power mode transition of the device.
 925:Generated_Source\PSoC6/CapSense_Control.c ****     *
 926:Generated_Source\PSoC6/CapSense_Control.c ****     *  For proper operation of the CapSense Component during the LPActive to
 927:Generated_Source\PSoC6/CapSense_Control.c ****     *  Active mode transition, a callback to this function should be registered
 928:Generated_Source\PSoC6/CapSense_Control.c ****     *  using Cy_SysPm_RegisterCallback() function with CY_SYSPM_EXIT_LP_MODE
 929:Generated_Source\PSoC6/CapSense_Control.c ****     *  type. Once the callback is registered, this function is called by the
 930:Generated_Source\PSoC6/CapSense_Control.c ****     *  Cy_SysPm_ExitLpMode() function to prepare the Component to the device
 931:Generated_Source\PSoC6/CapSense_Control.c ****     *  power mode transition.
 932:Generated_Source\PSoC6/CapSense_Control.c ****     *
 933:Generated_Source\PSoC6/CapSense_Control.c ****     *  When this function is called with CY_SYSPM_CHECK_READY as input, this
 934:Generated_Source\PSoC6/CapSense_Control.c ****     *  function returns CY_SYSPM_SUCCESS if no scanning is in progress, otherwise
 935:Generated_Source\PSoC6/CapSense_Control.c ****     *  CY_SYSPM_FAIL is returned. If CY_SYSPM_FAIL status is returned, a device
 936:Generated_Source\PSoC6/CapSense_Control.c ****     *  cannot change the power mode without completing the current scan as
 937:Generated_Source\PSoC6/CapSense_Control.c ****     *  a transition to Active during the scan can disrupt the Component
 938:Generated_Source\PSoC6/CapSense_Control.c ****     *  operation.
 939:Generated_Source\PSoC6/CapSense_Control.c **** 
 940:Generated_Source\PSoC6/CapSense_Control.c ****     * \param callbackParams
 941:Generated_Source\PSoC6/CapSense_Control.c ****     *  Refer to the description of the cy_stc_syspm_callback_params_t type in the
 942:Generated_Source\PSoC6/CapSense_Control.c ****     *  Peripheral Driver Library documentation.
 943:Generated_Source\PSoC6/CapSense_Control.c ****     *
 944:Generated_Source\PSoC6/CapSense_Control.c ****     * \return
 945:Generated_Source\PSoC6/CapSense_Control.c ****     *  Returns the status of the operation requested by the mode parameter:
ARM GAS  C:\Users\Lauriane\AppData\Local\Temp\cchyTeCa.s 			page 32


 946:Generated_Source\PSoC6/CapSense_Control.c ****     *  - CY_SYSPM_SUCCESS  - Active power mode can be entered.
 947:Generated_Source\PSoC6/CapSense_Control.c ****     *  - CY_SYSPM_FAIL     - Active power mode cannot be entered.
 948:Generated_Source\PSoC6/CapSense_Control.c ****     *
 949:Generated_Source\PSoC6/CapSense_Control.c ****     *******************************************************************************/
 950:Generated_Source\PSoC6/CapSense_Control.c ****     cy_en_syspm_status_t CapSense_ExitLowPowerCallback(cy_stc_syspm_callback_params_t *callbackPara
 951:Generated_Source\PSoC6/CapSense_Control.c ****     {
 952:Generated_Source\PSoC6/CapSense_Control.c ****         return(CapSense_SwitchPowerModeCallback(callbackParams));
 953:Generated_Source\PSoC6/CapSense_Control.c ****     }
 954:Generated_Source\PSoC6/CapSense_Control.c **** 
 955:Generated_Source\PSoC6/CapSense_Control.c **** 
 956:Generated_Source\PSoC6/CapSense_Control.c ****     /*******************************************************************************
 957:Generated_Source\PSoC6/CapSense_Control.c ****     * Function Name: CapSense_SwitchPowerModeCallback
 958:Generated_Source\PSoC6/CapSense_Control.c ****     ****************************************************************************//**
 959:Generated_Source\PSoC6/CapSense_Control.c ****     *
 960:Generated_Source\PSoC6/CapSense_Control.c ****     * \brief
 961:Generated_Source\PSoC6/CapSense_Control.c ****     *  Handles the switching power mode for the CapSense Component.
 962:Generated_Source\PSoC6/CapSense_Control.c ****     *
 963:Generated_Source\PSoC6/CapSense_Control.c ****     * \details
 964:Generated_Source\PSoC6/CapSense_Control.c ****     *  This function handles swithing of system power mode.
 965:Generated_Source\PSoC6/CapSense_Control.c ****     *  When this function is called with the mode parameter set to CY_SYSPM_CHECK_READY,
 966:Generated_Source\PSoC6/CapSense_Control.c ****     *  the function returns CY_SYSPM_SUCCESS if no scanning is in progress, otherwise
 967:Generated_Source\PSoC6/CapSense_Control.c ****     *  CY_SYSPM_FAIL is returned that means that the device cannot switch the power mode
 968:Generated_Source\PSoC6/CapSense_Control.c ****     *  without finishing the current scan that is in progress (switching power mode
 969:Generated_Source\PSoC6/CapSense_Control.c ****     *  during the scan can disrupt a sensor scan result and produce an unexpected
 970:Generated_Source\PSoC6/CapSense_Control.c ****     *  behavior).
 971:Generated_Source\PSoC6/CapSense_Control.c ****     *
 972:Generated_Source\PSoC6/CapSense_Control.c ****     * \param callbackParams
 973:Generated_Source\PSoC6/CapSense_Control.c ****     *  Refer to the description of the cy_stc_syspm_callback_params_t type.
 974:Generated_Source\PSoC6/CapSense_Control.c ****     *
 975:Generated_Source\PSoC6/CapSense_Control.c ****     * \return
 976:Generated_Source\PSoC6/CapSense_Control.c ****     *  Returns the status of the operation requeted by mode parameter:
 977:Generated_Source\PSoC6/CapSense_Control.c ****     *  - CY_SYSPM_SUCCESS  - Switching power mode can be done
 978:Generated_Source\PSoC6/CapSense_Control.c ****     *  - CY_SYSPM_FAIL     - Switching power mode cannot be done.
 979:Generated_Source\PSoC6/CapSense_Control.c ****     *
 980:Generated_Source\PSoC6/CapSense_Control.c ****     *******************************************************************************/
 981:Generated_Source\PSoC6/CapSense_Control.c ****     static cy_en_syspm_status_t CapSense_SwitchPowerModeCallback(cy_stc_syspm_callback_params_t *ca
 982:Generated_Source\PSoC6/CapSense_Control.c ****     {
 983:Generated_Source\PSoC6/CapSense_Control.c ****         cy_en_syspm_status_t retVal = CY_SYSPM_SUCCESS;
 984:Generated_Source\PSoC6/CapSense_Control.c **** 
 985:Generated_Source\PSoC6/CapSense_Control.c ****         #if (0u != CapSense_ADC_EN)
 986:Generated_Source\PSoC6/CapSense_Control.c ****             uint8 temp;
 987:Generated_Source\PSoC6/CapSense_Control.c ****         #endif /* (0u != CapSense_ADC_EN) */
 988:Generated_Source\PSoC6/CapSense_Control.c **** 
 989:Generated_Source\PSoC6/CapSense_Control.c ****         switch(callbackParams->mode)
 990:Generated_Source\PSoC6/CapSense_Control.c ****         {
 991:Generated_Source\PSoC6/CapSense_Control.c ****         case (CY_SYSPM_CHECK_READY):
 992:Generated_Source\PSoC6/CapSense_Control.c ****             if (CapSense_NOT_BUSY != CapSense_IsBusy())
 993:Generated_Source\PSoC6/CapSense_Control.c ****             {
 994:Generated_Source\PSoC6/CapSense_Control.c ****                 /* Scanning in progress */
 995:Generated_Source\PSoC6/CapSense_Control.c ****                 retVal = CY_SYSPM_FAIL;
 996:Generated_Source\PSoC6/CapSense_Control.c ****             }
 997:Generated_Source\PSoC6/CapSense_Control.c ****             #if (0u != CapSense_ADC_EN)
 998:Generated_Source\PSoC6/CapSense_Control.c ****                 temp = CapSense_AdcIsBusy();
 999:Generated_Source\PSoC6/CapSense_Control.c ****                 if ((CapSense_AdcSTATUS_IDLE != temp) &&
1000:Generated_Source\PSoC6/CapSense_Control.c ****                     (CapSense_AdcSTATUS_OVERFLOW != temp))
1001:Generated_Source\PSoC6/CapSense_Control.c ****                 {
1002:Generated_Source\PSoC6/CapSense_Control.c ****                     /* Scanning in progress */
ARM GAS  C:\Users\Lauriane\AppData\Local\Temp\cchyTeCa.s 			page 33


1003:Generated_Source\PSoC6/CapSense_Control.c ****                     retVal = CY_SYSPM_FAIL;
1004:Generated_Source\PSoC6/CapSense_Control.c ****                 }
1005:Generated_Source\PSoC6/CapSense_Control.c ****             #endif /* (0u != CapSense_ADC_EN) */
1006:Generated_Source\PSoC6/CapSense_Control.c ****             break;
1007:Generated_Source\PSoC6/CapSense_Control.c **** 
1008:Generated_Source\PSoC6/CapSense_Control.c ****         default:
1009:Generated_Source\PSoC6/CapSense_Control.c ****             break;
1010:Generated_Source\PSoC6/CapSense_Control.c ****         }
1011:Generated_Source\PSoC6/CapSense_Control.c **** 
1012:Generated_Source\PSoC6/CapSense_Control.c ****         return(retVal);
1013:Generated_Source\PSoC6/CapSense_Control.c ****     }
1014:Generated_Source\PSoC6/CapSense_Control.c **** #else
1015:Generated_Source\PSoC6/CapSense_Control.c **** 
1016:Generated_Source\PSoC6/CapSense_Control.c **** 
1017:Generated_Source\PSoC6/CapSense_Control.c ****     /*******************************************************************************
1018:Generated_Source\PSoC6/CapSense_Control.c ****     * Function Name: CapSense_DeepSleepCallback
1019:Generated_Source\PSoC6/CapSense_Control.c ****     ****************************************************************************//**
1020:Generated_Source\PSoC6/CapSense_Control.c ****     *
1021:Generated_Source\PSoC6/CapSense_Control.c ****     * \brief
1022:Generated_Source\PSoC6/CapSense_Control.c ****     *  Handles Active to Deep Sleep power mode transition for the CapSense
1023:Generated_Source\PSoC6/CapSense_Control.c ****     *  Component. This function is used when the major version of the SysPm driver
1024:Generated_Source\PSoC6/CapSense_Control.c ****     *  is 4 or greater.
1025:Generated_Source\PSoC6/CapSense_Control.c ****     *
1026:Generated_Source\PSoC6/CapSense_Control.c ****     * \details
1027:Generated_Source\PSoC6/CapSense_Control.c ****     *  This function handles Active to Deep Sleep power mode transition for the
1028:Generated_Source\PSoC6/CapSense_Control.c ****     *  CapSense Component.
1029:Generated_Source\PSoC6/CapSense_Control.c ****     *  Calling this function directly from the application layer is not recommended.
1030:Generated_Source\PSoC6/CapSense_Control.c ****     *  Instead, Cy_SysPm_CpuEnterDeepSleep() should be used for the Active to Deep Sleep
1031:Generated_Source\PSoC6/CapSense_Control.c ****     *  power mode transition of the device.
1032:Generated_Source\PSoC6/CapSense_Control.c ****     *
1033:Generated_Source\PSoC6/CapSense_Control.c ****     *  For proper operation of the CapSense Component during the Active to
1034:Generated_Source\PSoC6/CapSense_Control.c ****     *  Deep Sleep mode transition, a callback to this function should be registered
1035:Generated_Source\PSoC6/CapSense_Control.c ****     *  using the Cy_SysPm_RegisterCallback() function with CY_SYSPM_DEEPSLEEP
1036:Generated_Source\PSoC6/CapSense_Control.c ****     *  type. After the callback is registered, this function is called by the
1037:Generated_Source\PSoC6/CapSense_Control.c ****     *  Cy_SysPm_CpuEnterDeepSleep() function to prepare the Component to the device
1038:Generated_Source\PSoC6/CapSense_Control.c ****     *  power mode transition.
1039:Generated_Source\PSoC6/CapSense_Control.c ****     *
1040:Generated_Source\PSoC6/CapSense_Control.c ****     *  When this function is called with CY_SYSPM_CHECK_READY as input, this
1041:Generated_Source\PSoC6/CapSense_Control.c ****     *  function returns CY_SYSPM_SUCCESS if no scanning is in progress. Otherwise
1042:Generated_Source\PSoC6/CapSense_Control.c ****     *  CY_SYSPM_FAIL is returned. If CY_SYSPM_FAIL status is returned, a device
1043:Generated_Source\PSoC6/CapSense_Control.c ****     *  cannot change the power mode without completing the current scan as
1044:Generated_Source\PSoC6/CapSense_Control.c ****     *  a transition to Deep Sleep during the scan can disrupt the Component
1045:Generated_Source\PSoC6/CapSense_Control.c ****     *  operation.
1046:Generated_Source\PSoC6/CapSense_Control.c ****     *
1047:Generated_Source\PSoC6/CapSense_Control.c ****     * \param callbackParams
1048:Generated_Source\PSoC6/CapSense_Control.c ****     *  Refer to the description of the cy_stc_syspm_callback_params_t type in the
1049:Generated_Source\PSoC6/CapSense_Control.c ****     *  Peripheral Driver Library documentation.
1050:Generated_Source\PSoC6/CapSense_Control.c ****     *
1051:Generated_Source\PSoC6/CapSense_Control.c ****     * \param mode
1052:Generated_Source\PSoC6/CapSense_Control.c ****     *  Specifies mode cy_en_syspm_callback_mode_t.
1053:Generated_Source\PSoC6/CapSense_Control.c ****     *
1054:Generated_Source\PSoC6/CapSense_Control.c ****     * \return
1055:Generated_Source\PSoC6/CapSense_Control.c ****     *  Returns the status cy_en_syspm_status_t of the operation requested
1056:Generated_Source\PSoC6/CapSense_Control.c ****     *  by the mode parameter:
1057:Generated_Source\PSoC6/CapSense_Control.c ****     *  - CY_SYSPM_SUCCESS  - Deep Sleep power mode can be entered.
1058:Generated_Source\PSoC6/CapSense_Control.c ****     *  - CY_SYSPM_FAIL     - Deep Sleep power mode cannot be entered.
1059:Generated_Source\PSoC6/CapSense_Control.c ****     *
ARM GAS  C:\Users\Lauriane\AppData\Local\Temp\cchyTeCa.s 			page 34


1060:Generated_Source\PSoC6/CapSense_Control.c ****     *******************************************************************************/
1061:Generated_Source\PSoC6/CapSense_Control.c ****     cy_en_syspm_status_t CapSense_DeepSleepCallback(
1062:Generated_Source\PSoC6/CapSense_Control.c ****                          cy_stc_syspm_callback_params_t * callbackParams,
1063:Generated_Source\PSoC6/CapSense_Control.c ****                          cy_en_syspm_callback_mode_t mode)
1064:Generated_Source\PSoC6/CapSense_Control.c ****     {
 794              		.loc 1 1064 0
 795              		.cfi_startproc
 796              		@ args = 0, pretend = 0, frame = 0
 797              		@ frame_needed = 0, uses_anonymous_args = 0
 798              	.LVL107:
1065:Generated_Source\PSoC6/CapSense_Control.c ****         cy_en_syspm_status_t retVal = CY_SYSPM_SUCCESS;
1066:Generated_Source\PSoC6/CapSense_Control.c **** 
1067:Generated_Source\PSoC6/CapSense_Control.c ****         #if (0u != CapSense_ADC_EN)
1068:Generated_Source\PSoC6/CapSense_Control.c ****             uint8 temp;
1069:Generated_Source\PSoC6/CapSense_Control.c ****         #endif /* (0u != CapSense_ADC_EN) */
1070:Generated_Source\PSoC6/CapSense_Control.c **** 
1071:Generated_Source\PSoC6/CapSense_Control.c ****         (void)callbackParams;
1072:Generated_Source\PSoC6/CapSense_Control.c ****         switch(mode)
 799              		.loc 1 1072 0
 800 0000 0129     		cmp	r1, #1
 801 0002 04D1     		bne	.L81
1064:Generated_Source\PSoC6/CapSense_Control.c ****         cy_en_syspm_status_t retVal = CY_SYSPM_SUCCESS;
 802              		.loc 1 1064 0
 803 0004 08B5     		push	{r3, lr}
 804              		.cfi_def_cfa_offset 8
 805              		.cfi_offset 3, -8
 806              		.cfi_offset 14, -4
1073:Generated_Source\PSoC6/CapSense_Control.c ****         {
1074:Generated_Source\PSoC6/CapSense_Control.c ****         case (CY_SYSPM_CHECK_READY):
1075:Generated_Source\PSoC6/CapSense_Control.c ****             if (CapSense_NOT_BUSY != CapSense_IsBusy())
 807              		.loc 1 1075 0
 808 0006 FFF7FEFF 		bl	CapSense_IsBusy
 809              	.LVL108:
 810 000a 10B9     		cbnz	r0, .L80
 811 000c 08BD     		pop	{r3, pc}
 812              	.LVL109:
 813              	.L81:
 814              		.cfi_def_cfa_offset 0
 815              		.cfi_restore 3
 816              		.cfi_restore 14
1065:Generated_Source\PSoC6/CapSense_Control.c **** 
 817              		.loc 1 1065 0
 818 000e 0020     		movs	r0, #0
 819              	.LVL110:
1076:Generated_Source\PSoC6/CapSense_Control.c ****             {
1077:Generated_Source\PSoC6/CapSense_Control.c ****                 /* Scanning in progress */
1078:Generated_Source\PSoC6/CapSense_Control.c ****                 retVal = CY_SYSPM_FAIL;
1079:Generated_Source\PSoC6/CapSense_Control.c ****             }
1080:Generated_Source\PSoC6/CapSense_Control.c ****             #if (0u != CapSense_ADC_EN)
1081:Generated_Source\PSoC6/CapSense_Control.c ****                 temp = CapSense_AdcIsBusy();
1082:Generated_Source\PSoC6/CapSense_Control.c ****                 if ((CapSense_AdcSTATUS_IDLE != temp) &&
1083:Generated_Source\PSoC6/CapSense_Control.c ****                     (CapSense_AdcSTATUS_OVERFLOW != temp))
1084:Generated_Source\PSoC6/CapSense_Control.c ****                 {
1085:Generated_Source\PSoC6/CapSense_Control.c ****                     /* Scanning in progress */
1086:Generated_Source\PSoC6/CapSense_Control.c ****                     retVal = CY_SYSPM_FAIL;
1087:Generated_Source\PSoC6/CapSense_Control.c ****                 }
1088:Generated_Source\PSoC6/CapSense_Control.c ****             #endif /* (0u != CapSense_ADC_EN) */
ARM GAS  C:\Users\Lauriane\AppData\Local\Temp\cchyTeCa.s 			page 35


1089:Generated_Source\PSoC6/CapSense_Control.c ****             break;
1090:Generated_Source\PSoC6/CapSense_Control.c **** 
1091:Generated_Source\PSoC6/CapSense_Control.c ****         default:
1092:Generated_Source\PSoC6/CapSense_Control.c ****             break;
1093:Generated_Source\PSoC6/CapSense_Control.c ****         }
1094:Generated_Source\PSoC6/CapSense_Control.c **** 
1095:Generated_Source\PSoC6/CapSense_Control.c ****         return(retVal);
1096:Generated_Source\PSoC6/CapSense_Control.c ****     }
 820              		.loc 1 1096 0
 821 0010 7047     		bx	lr
 822              	.LVL111:
 823              	.L80:
 824              		.cfi_def_cfa_offset 8
 825              		.cfi_offset 3, -8
 826              		.cfi_offset 14, -4
1078:Generated_Source\PSoC6/CapSense_Control.c ****             }
 827              		.loc 1 1078 0
 828 0012 0148     		ldr	r0, .L83
 829              	.LVL112:
 830              		.loc 1 1096 0
 831 0014 08BD     		pop	{r3, pc}
 832              	.L84:
 833 0016 00BF     		.align	2
 834              	.L83:
 835 0018 FF004200 		.word	4325631
 836              		.cfi_endproc
 837              	.LFE277:
 838              		.size	CapSense_DeepSleepCallback, .-CapSense_DeepSleepCallback
 839              		.section	.rodata.str1.4,"aMS",%progbits,1
 840              		.align	2
 841              	.LC0:
 842 0000 47656E65 		.ascii	"Generated_Source\\PSoC6\\CapSense_Control.c\000"
 842      72617465 
 842      645F536F 
 842      75726365 
 842      5C50536F 
 843              		.bss
 844              		.set	.LANCHOR0,. + 0
 845              		.type	CapSense_InitVar, %object
 846              		.size	CapSense_InitVar, 1
 847              	CapSense_InitVar:
 848 0000 00       		.space	1
 849              		.text
 850              	.Letext0:
 851              		.file 2 "c:\\program files (x86)\\cypress\\psoc creator\\4.4\\psoc creator\\import\\gnu\\arm\\5.4.
 852              		.file 3 "c:\\program files (x86)\\cypress\\psoc creator\\4.4\\psoc creator\\import\\gnu\\arm\\5.4.
 853              		.file 4 "Generated_Source\\PSoC6\\pdl\\drivers/peripheral/device/cy_device.h"
 854              		.file 5 "Generated_Source\\PSoC6\\pdl\\drivers/peripheral/syslib/cy_syslib.h"
 855              		.file 6 "Generated_Source\\PSoC6\\pdl\\drivers/peripheral/syspm/cy_syspm.h"
 856              		.file 7 "Generated_Source\\PSoC6\\CapSense_Configuration.h"
 857              		.file 8 "Generated_Source\\PSoC6\\CapSense_SmartSense_LL.h"
 858              		.file 9 "Generated_Source\\PSoC6\\CapSense_TMG.h"
 859              		.file 10 "Generated_Source\\PSoC6\\CapSense_Structure.h"
 860              		.file 11 "Generated_Source\\PSoC6\\pdl\\cmsis/include/core_cm4.h"
 861              		.file 12 "Generated_Source\\PSoC6\\CapSense_Tuner.h"
 862              		.file 13 "Generated_Source\\PSoC6\\CapSense_Processing.h"
 863              		.file 14 "Generated_Source\\PSoC6\\CapSense_Sensing.h"
ARM GAS  C:\Users\Lauriane\AppData\Local\Temp\cchyTeCa.s 			page 36


 864              		.file 15 "Generated_Source\\PSoC6\\CapSense_Filter.h"
 865              		.file 16 "Generated_Source\\PSoC6\\CapSense_Gesture.h"