ARM GAS  C:\Users\gab_1\AppData\Local\Temp\ccTtYdci.s 			page 1


   1              		.syntax unified
   2              		.cpu cortex-m4
   3              		.eabi_attribute 27, 1
   4              		.fpu fpv4-sp-d16
   5              		.eabi_attribute 20, 1
   6              		.eabi_attribute 21, 1
   7              		.eabi_attribute 23, 3
   8              		.eabi_attribute 24, 1
   9              		.eabi_attribute 25, 1
  10              		.eabi_attribute 26, 1
  11              		.eabi_attribute 30, 1
  12              		.eabi_attribute 34, 1
  13              		.eabi_attribute 18, 4
  14              		.thumb
  15              		.syntax unified
  16              		.file	"main_cm4.c"
  17              		.text
  18              	.Ltext0:
  19              		.cfi_sections	.debug_frame
  20              		.section	.text.sensorsDeviceInit,"ax",%progbits
  21              		.align	2
  22              		.thumb
  23              		.thumb_func
  24              		.type	sensorsDeviceInit, %function
  25              	sensorsDeviceInit:
  26              	.LFB695:
  27              		.file 1 "codeBmi.c"
   1:codeBmi.c     **** /* ========================================
   2:codeBmi.c     ****  *
   3:codeBmi.c     ****  * Copyright YOUR COMPANY, THE YEAR
   4:codeBmi.c     ****  * All Rights Reserved
   5:codeBmi.c     ****  * UNPUBLISHED, LICENSED SOFTWARE.
   6:codeBmi.c     ****  *
   7:codeBmi.c     ****  * CONFIDENTIAL AND PROPRIETARY INFORMATION
   8:codeBmi.c     ****  * WHICH IS THE PROPERTY OF your company.
   9:codeBmi.c     ****  *
  10:codeBmi.c     ****  * ========================================
  11:codeBmi.c     **** */
  12:codeBmi.c     **** 
  13:codeBmi.c     **** #include "project.h"
  14:codeBmi.c     **** #include "FreeRTOS.h"
  15:codeBmi.c     **** #include "task.h"
  16:codeBmi.c     **** #include <stdio.h>
  17:codeBmi.c     **** #include "bmi160.h"
  18:codeBmi.c     **** 
  19:codeBmi.c     **** static struct bmi160_dev bmi160Dev; //structure du capteur
  20:codeBmi.c     **** 
  21:codeBmi.c     **** static int8_t BMI160BurstWrite(uint8_t dev_addr, uint8_t reg_addr,uint8_t *data, uint16_t len) // 4
  22:codeBmi.c     **** {
  23:codeBmi.c     ****     
  24:codeBmi.c     ****     Cy_SCB_I2C_MasterSendStart(I2C_1_HW,dev_addr,CY_SCB_I2C_WRITE_XFER,0,&I2C_1_context); // on dé
  25:codeBmi.c     ****     
  26:codeBmi.c     ****     Cy_SCB_I2C_MasterWriteByte(I2C_1_HW,reg_addr,0,&I2C_1_context); // on envoie le registre où l'
  27:codeBmi.c     ****     
  28:codeBmi.c     ****     for(int i = 0;i<len; i++) // loop pour tous les bytes
  29:codeBmi.c     ****     { 
  30:codeBmi.c     ****         
ARM GAS  C:\Users\gab_1\AppData\Local\Temp\ccTtYdci.s 			page 2


  31:codeBmi.c     ****         Cy_SCB_I2C_MasterWriteByte(I2C_1_HW,data[i],0,&I2C_1_context); //on écrit tous les bytes a
  32:codeBmi.c     ****         
  33:codeBmi.c     ****     }
  34:codeBmi.c     ****     
  35:codeBmi.c     ****     Cy_SCB_I2C_MasterSendStop(I2C_1_HW,0,&I2C_1_context);// on arrête la fonction
  36:codeBmi.c     ****     
  37:codeBmi.c     ****     return 0;
  38:codeBmi.c     **** }
  39:codeBmi.c     **** 
  40:codeBmi.c     **** static int8_t BMI160BurstRead(uint8_t dev_addr, uint8_t reg_addr,uint8_t *data, uint16_t len) //fon
  41:codeBmi.c     **** {
  42:codeBmi.c     ****     
  43:codeBmi.c     ****     Cy_SCB_I2C_MasterSendStart(I2C_1_HW,dev_addr,CY_SCB_I2C_WRITE_XFER,0,&I2C_1_context); //I2C STA
  44:codeBmi.c     ****     
  45:codeBmi.c     ****     Cy_SCB_I2C_MasterWriteByte(I2C_1_HW,reg_addr,0,&I2C_1_context); //écrit l'addresse que l'on ve
  46:codeBmi.c     ****     
  47:codeBmi.c     ****     Cy_SCB_I2C_MasterSendReStart(I2C_1_HW,dev_addr,CY_SCB_I2C_READ_XFER,0,&I2C_1_context); //I2C RE
  48:codeBmi.c     ****     
  49:codeBmi.c     ****     for(int i = 0;i<len-1; i++)
  50:codeBmi.c     ****     {
  51:codeBmi.c     ****         
  52:codeBmi.c     ****         Cy_SCB_I2C_MasterReadByte(I2C_1_HW,CY_SCB_I2C_ACK,&data[i],0,&I2C_1_context); //fonction av
  53:codeBmi.c     ****         
  54:codeBmi.c     ****     }
  55:codeBmi.c     ****     
  56:codeBmi.c     ****     Cy_SCB_I2C_MasterReadByte(I2C_1_HW,CY_SCB_I2C_NAK,&data[len-1],0,&I2C_1_context); //fonction po
  57:codeBmi.c     ****     
  58:codeBmi.c     ****     Cy_SCB_I2C_MasterSendStop(I2C_1_HW,0,&I2C_1_context); //on arrête la fonction
  59:codeBmi.c     ****     
  60:codeBmi.c     ****     
  61:codeBmi.c     ****     return 0;
  62:codeBmi.c     **** }
  63:codeBmi.c     **** 
  64:codeBmi.c     **** 
  65:codeBmi.c     **** static void sensorsDeviceInit(void)
  66:codeBmi.c     **** {
  28              		.loc 1 66 0
  29              		.cfi_startproc
  30              		@ args = 0, pretend = 0, frame = 0
  31              		@ frame_needed = 0, uses_anonymous_args = 0
  32 0000 10B5     		push	{r4, lr}
  33              		.cfi_def_cfa_offset 8
  34              		.cfi_offset 4, -8
  35              		.cfi_offset 14, -4
  67:codeBmi.c     **** 
  68:codeBmi.c     ****   int8_t rslt;
  69:codeBmi.c     ****     
  70:codeBmi.c     ****   vTaskDelay(500); 
  36              		.loc 1 70 0
  37 0002 4FF4FA70 		mov	r0, #500
  38 0006 FFF7FEFF 		bl	vTaskDelay
  39              	.LVL0:
  71:codeBmi.c     **** 
  72:codeBmi.c     ****   bmi160Dev.read = (bmi160_read_fptr_t)BMI160BurstRead;
  40              		.loc 1 72 0
  41 000a 1548     		ldr	r0, .L5
  42 000c 154B     		ldr	r3, .L5+4
ARM GAS  C:\Users\gab_1\AppData\Local\Temp\ccTtYdci.s 			page 3


  43 000e C361     		str	r3, [r0, #28]
  73:codeBmi.c     **** 
  74:codeBmi.c     ****   bmi160Dev.write = (bmi160_write_fptr_t)BMI160BurstWrite;
  44              		.loc 1 74 0
  45 0010 154B     		ldr	r3, .L5+8
  46 0012 0362     		str	r3, [r0, #32]
  75:codeBmi.c     **** 
  76:codeBmi.c     ****   bmi160Dev.delay_ms = (bmi160_delay_fptr_t)vTaskDelay;
  47              		.loc 1 76 0
  48 0014 154B     		ldr	r3, .L5+12
  49 0016 4362     		str	r3, [r0, #36]
  77:codeBmi.c     ****   
  78:codeBmi.c     ****   bmi160Dev.id = BMI160_I2C_ADDR;  
  50              		.loc 1 78 0
  51 0018 6823     		movs	r3, #104
  52 001a 4370     		strb	r3, [r0, #1]
  79:codeBmi.c     **** 
  80:codeBmi.c     ****   rslt = bmi160_init(&bmi160Dev); 
  53              		.loc 1 80 0
  54 001c FFF7FEFF 		bl	bmi160_init
  55              	.LVL1:
  81:codeBmi.c     **** 
  82:codeBmi.c     ****   if (rslt == 0)
  56              		.loc 1 82 0
  57 0020 C8B9     		cbnz	r0, .L2
  83:codeBmi.c     ****     {
  84:codeBmi.c     ****         
  85:codeBmi.c     ****       printf("Determination des valeurs du mouvement\n");
  58              		.loc 1 85 0
  59 0022 1348     		ldr	r0, .L5+16
  60              	.LVL2:
  61 0024 FFF7FEFF 		bl	puts
  62              	.LVL3:
  86:codeBmi.c     ****       bmi160Dev.gyro_cfg.odr = BMI160_GYRO_ODR_800HZ;
  63              		.loc 1 86 0
  64 0028 0D4C     		ldr	r4, .L5
  65 002a 0B23     		movs	r3, #11
  66 002c 6373     		strb	r3, [r4, #13]
  87:codeBmi.c     ****       bmi160Dev.gyro_cfg.range = BMI160_GYRO_RANGE_125_DPS;
  67              		.loc 1 87 0
  68 002e 0423     		movs	r3, #4
  69 0030 A373     		strb	r3, [r4, #14]
  88:codeBmi.c     ****       bmi160Dev.gyro_cfg.bw = BMI160_GYRO_BW_OSR4_MODE;
  70              		.loc 1 88 0
  71 0032 0023     		movs	r3, #0
  72 0034 E373     		strb	r3, [r4, #15]
  89:codeBmi.c     **** 
  90:codeBmi.c     ****       bmi160Dev.gyro_cfg.power = BMI160_GYRO_NORMAL_MODE;
  73              		.loc 1 90 0
  74 0036 1522     		movs	r2, #21
  75 0038 2273     		strb	r2, [r4, #12]
  91:codeBmi.c     **** 
  92:codeBmi.c     ****       bmi160Dev.accel_cfg.odr = BMI160_ACCEL_ODR_1600HZ;
  76              		.loc 1 92 0
  77 003a 0C22     		movs	r2, #12
  78 003c 6271     		strb	r2, [r4, #5]
  93:codeBmi.c     ****       bmi160Dev.accel_cfg.range = BMI160_ACCEL_RANGE_4G;
ARM GAS  C:\Users\gab_1\AppData\Local\Temp\ccTtYdci.s 			page 4


  79              		.loc 1 93 0
  80 003e 0522     		movs	r2, #5
  81 0040 A271     		strb	r2, [r4, #6]
  94:codeBmi.c     ****       bmi160Dev.accel_cfg.bw = BMI160_ACCEL_BW_OSR4_AVG1;
  82              		.loc 1 94 0
  83 0042 E371     		strb	r3, [r4, #7]
  95:codeBmi.c     ****       bmi160Dev.accel_cfg.power = BMI160_ACCEL_NORMAL_MODE;
  84              		.loc 1 95 0
  85 0044 1123     		movs	r3, #17
  86 0046 2371     		strb	r3, [r4, #4]
  96:codeBmi.c     **** 
  97:codeBmi.c     ****       bmi160_set_sens_conf(&bmi160Dev);
  87              		.loc 1 97 0
  88 0048 2046     		mov	r0, r4
  89 004a FFF7FEFF 		bl	bmi160_set_sens_conf
  90              	.LVL4:
  98:codeBmi.c     ****       bmi160Dev.delay_ms(50);
  91              		.loc 1 98 0
  92 004e 636A     		ldr	r3, [r4, #36]
  93 0050 3220     		movs	r0, #50
  94 0052 9847     		blx	r3
  95              	.LVL5:
  96 0054 10BD     		pop	{r4, pc}
  97              	.LVL6:
  98              	.L2:
  99:codeBmi.c     ****     
 100:codeBmi.c     ****     }
 101:codeBmi.c     ****     
 102:codeBmi.c     ****   else
 103:codeBmi.c     ****     
 104:codeBmi.c     ****     {
 105:codeBmi.c     ****         
 106:codeBmi.c     ****       printf("ALERTE: erreur\n");
  99              		.loc 1 106 0
 100 0056 0748     		ldr	r0, .L5+20
 101              	.LVL7:
 102 0058 FFF7FEFF 		bl	puts
 103              	.LVL8:
 104 005c 10BD     		pop	{r4, pc}
 105              	.L6:
 106 005e 00BF     		.align	2
 107              	.L5:
 108 0060 00000000 		.word	.LANCHOR0
 109 0064 00000000 		.word	BMI160BurstRead
 110 0068 00000000 		.word	BMI160BurstWrite
 111 006c 00000000 		.word	vTaskDelay
 112 0070 00000000 		.word	.LC0
 113 0074 28000000 		.word	.LC1
 114              		.cfi_endproc
 115              	.LFE695:
 116              		.size	sensorsDeviceInit, .-sensorsDeviceInit
 117              		.section	.text.BMI160BurstWrite,"ax",%progbits
 118              		.align	2
 119              		.thumb
 120              		.thumb_func
 121              		.type	BMI160BurstWrite, %function
 122              	BMI160BurstWrite:
ARM GAS  C:\Users\gab_1\AppData\Local\Temp\ccTtYdci.s 			page 5


 123              	.LFB693:
  22:codeBmi.c     ****     
 124              		.loc 1 22 0
 125              		.cfi_startproc
 126              		@ args = 0, pretend = 0, frame = 0
 127              		@ frame_needed = 0, uses_anonymous_args = 0
 128              	.LVL9:
 129 0000 2DE9F041 		push	{r4, r5, r6, r7, r8, lr}
 130              		.cfi_def_cfa_offset 24
 131              		.cfi_offset 4, -24
 132              		.cfi_offset 5, -20
 133              		.cfi_offset 6, -16
 134              		.cfi_offset 7, -12
 135              		.cfi_offset 8, -8
 136              		.cfi_offset 14, -4
 137 0004 82B0     		sub	sp, sp, #8
 138              		.cfi_def_cfa_offset 32
 139 0006 8846     		mov	r8, r1
 140 0008 1646     		mov	r6, r2
 141 000a 1D46     		mov	r5, r3
  24:codeBmi.c     ****     
 142              		.loc 1 24 0
 143 000c 114C     		ldr	r4, .L11
 144 000e 124F     		ldr	r7, .L11+4
 145 0010 0097     		str	r7, [sp]
 146 0012 0023     		movs	r3, #0
 147              	.LVL10:
 148 0014 1A46     		mov	r2, r3
 149              	.LVL11:
 150 0016 0146     		mov	r1, r0
 151              	.LVL12:
 152 0018 2046     		mov	r0, r4
 153              	.LVL13:
 154 001a FFF7FEFF 		bl	Cy_SCB_I2C_MasterSendStart
 155              	.LVL14:
  26:codeBmi.c     ****     
 156              		.loc 1 26 0
 157 001e 3B46     		mov	r3, r7
 158 0020 0022     		movs	r2, #0
 159 0022 4146     		mov	r1, r8
 160 0024 2046     		mov	r0, r4
 161 0026 FFF7FEFF 		bl	Cy_SCB_I2C_MasterWriteByte
 162              	.LVL15:
 163              	.LBB69:
  28:codeBmi.c     ****     { 
 164              		.loc 1 28 0
 165 002a 0024     		movs	r4, #0
 166 002c 06E0     		b	.L8
 167              	.LVL16:
 168              	.L9:
  31:codeBmi.c     ****         
 169              		.loc 1 31 0 discriminator 3
 170 002e 0A4B     		ldr	r3, .L11+4
 171 0030 0022     		movs	r2, #0
 172 0032 315D     		ldrb	r1, [r6, r4]	@ zero_extendqisi2
 173 0034 0748     		ldr	r0, .L11
 174 0036 FFF7FEFF 		bl	Cy_SCB_I2C_MasterWriteByte
ARM GAS  C:\Users\gab_1\AppData\Local\Temp\ccTtYdci.s 			page 6


 175              	.LVL17:
  28:codeBmi.c     ****     { 
 176              		.loc 1 28 0 discriminator 3
 177 003a 0134     		adds	r4, r4, #1
 178              	.LVL18:
 179              	.L8:
  28:codeBmi.c     ****     { 
 180              		.loc 1 28 0 is_stmt 0 discriminator 1
 181 003c AC42     		cmp	r4, r5
 182 003e F6DB     		blt	.L9
 183              	.LBE69:
  35:codeBmi.c     ****     
 184              		.loc 1 35 0 is_stmt 1
 185 0040 054A     		ldr	r2, .L11+4
 186 0042 0021     		movs	r1, #0
 187 0044 0348     		ldr	r0, .L11
 188 0046 FFF7FEFF 		bl	Cy_SCB_I2C_MasterSendStop
 189              	.LVL19:
  38:codeBmi.c     **** 
 190              		.loc 1 38 0
 191 004a 0020     		movs	r0, #0
 192 004c 02B0     		add	sp, sp, #8
 193              		.cfi_def_cfa_offset 24
 194              		@ sp needed
 195 004e BDE8F081 		pop	{r4, r5, r6, r7, r8, pc}
 196              	.LVL20:
 197              	.L12:
 198 0052 00BF     		.align	2
 199              	.L11:
 200 0054 00006440 		.word	1080295424
 201 0058 00000000 		.word	I2C_1_context
 202              		.cfi_endproc
 203              	.LFE693:
 204              		.size	BMI160BurstWrite, .-BMI160BurstWrite
 205              		.section	.text.BMI160BurstRead,"ax",%progbits
 206              		.align	2
 207              		.thumb
 208              		.thumb_func
 209              		.type	BMI160BurstRead, %function
 210              	BMI160BurstRead:
 211              	.LFB694:
  41:codeBmi.c     ****     
 212              		.loc 1 41 0
 213              		.cfi_startproc
 214              		@ args = 0, pretend = 0, frame = 0
 215              		@ frame_needed = 0, uses_anonymous_args = 0
 216              	.LVL21:
 217 0000 2DE9F043 		push	{r4, r5, r6, r7, r8, r9, lr}
 218              		.cfi_def_cfa_offset 28
 219              		.cfi_offset 4, -28
 220              		.cfi_offset 5, -24
 221              		.cfi_offset 6, -20
 222              		.cfi_offset 7, -16
 223              		.cfi_offset 8, -12
 224              		.cfi_offset 9, -8
 225              		.cfi_offset 14, -4
 226 0004 83B0     		sub	sp, sp, #12
ARM GAS  C:\Users\gab_1\AppData\Local\Temp\ccTtYdci.s 			page 7


 227              		.cfi_def_cfa_offset 40
 228 0006 8046     		mov	r8, r0
 229 0008 8946     		mov	r9, r1
 230 000a 1646     		mov	r6, r2
 231 000c 1D46     		mov	r5, r3
  43:codeBmi.c     ****     
 232              		.loc 1 43 0
 233 000e 1B4C     		ldr	r4, .L17
 234 0010 1B4F     		ldr	r7, .L17+4
 235 0012 0097     		str	r7, [sp]
 236 0014 0023     		movs	r3, #0
 237              	.LVL22:
 238 0016 1A46     		mov	r2, r3
 239              	.LVL23:
 240 0018 0146     		mov	r1, r0
 241              	.LVL24:
 242 001a 2046     		mov	r0, r4
 243              	.LVL25:
 244 001c FFF7FEFF 		bl	Cy_SCB_I2C_MasterSendStart
 245              	.LVL26:
  45:codeBmi.c     ****     
 246              		.loc 1 45 0
 247 0020 3B46     		mov	r3, r7
 248 0022 0022     		movs	r2, #0
 249 0024 4946     		mov	r1, r9
 250 0026 2046     		mov	r0, r4
 251 0028 FFF7FEFF 		bl	Cy_SCB_I2C_MasterWriteByte
 252              	.LVL27:
  47:codeBmi.c     ****     
 253              		.loc 1 47 0
 254 002c 0097     		str	r7, [sp]
 255 002e 0023     		movs	r3, #0
 256 0030 0122     		movs	r2, #1
 257 0032 4146     		mov	r1, r8
 258 0034 2046     		mov	r0, r4
 259 0036 FFF7FEFF 		bl	Cy_SCB_I2C_MasterSendReStart
 260              	.LVL28:
 261              	.LBB70:
  49:codeBmi.c     ****     {
 262              		.loc 1 49 0
 263 003a 0024     		movs	r4, #0
 264 003c 08E0     		b	.L14
 265              	.LVL29:
 266              	.L15:
  52:codeBmi.c     ****         
 267              		.loc 1 52 0 discriminator 3
 268 003e 104B     		ldr	r3, .L17+4
 269 0040 0093     		str	r3, [sp]
 270 0042 0023     		movs	r3, #0
 271 0044 3219     		adds	r2, r6, r4
 272 0046 1946     		mov	r1, r3
 273 0048 0C48     		ldr	r0, .L17
 274 004a FFF7FEFF 		bl	Cy_SCB_I2C_MasterReadByte
 275              	.LVL30:
  49:codeBmi.c     ****     {
 276              		.loc 1 49 0 discriminator 3
 277 004e 0134     		adds	r4, r4, #1
ARM GAS  C:\Users\gab_1\AppData\Local\Temp\ccTtYdci.s 			page 8


 278              	.LVL31:
 279              	.L14:
  49:codeBmi.c     ****     {
 280              		.loc 1 49 0 is_stmt 0 discriminator 1
 281 0050 6B1E     		subs	r3, r5, #1
 282 0052 9C42     		cmp	r4, r3
 283 0054 F3DB     		blt	.L15
 284              	.LBE70:
  56:codeBmi.c     ****     
 285              		.loc 1 56 0 is_stmt 1
 286 0056 1A46     		mov	r2, r3
 287 0058 084C     		ldr	r4, .L17
 288              	.LVL32:
 289 005a 094D     		ldr	r5, .L17+4
 290 005c 0095     		str	r5, [sp]
 291 005e 0023     		movs	r3, #0
 292 0060 3244     		add	r2, r2, r6
 293 0062 0121     		movs	r1, #1
 294 0064 2046     		mov	r0, r4
 295 0066 FFF7FEFF 		bl	Cy_SCB_I2C_MasterReadByte
 296              	.LVL33:
  58:codeBmi.c     ****     
 297              		.loc 1 58 0
 298 006a 2A46     		mov	r2, r5
 299 006c 0021     		movs	r1, #0
 300 006e 2046     		mov	r0, r4
 301 0070 FFF7FEFF 		bl	Cy_SCB_I2C_MasterSendStop
 302              	.LVL34:
  62:codeBmi.c     **** 
 303              		.loc 1 62 0
 304 0074 0020     		movs	r0, #0
 305 0076 03B0     		add	sp, sp, #12
 306              		.cfi_def_cfa_offset 28
 307              		@ sp needed
 308 0078 BDE8F083 		pop	{r4, r5, r6, r7, r8, r9, pc}
 309              	.LVL35:
 310              	.L18:
 311              		.align	2
 312              	.L17:
 313 007c 00006440 		.word	1080295424
 314 0080 00000000 		.word	I2C_1_context
 315              		.cfi_endproc
 316              	.LFE694:
 317              		.size	BMI160BurstRead, .-BMI160BurstRead
 318              		.section	.text.read_MAX30102_Register,"ax",%progbits
 319              		.align	2
 320              		.global	read_MAX30102_Register
 321              		.thumb
 322              		.thumb_func
 323              		.type	read_MAX30102_Register, %function
 324              	read_MAX30102_Register:
 325              	.LFB697:
 326              		.file 2 "main_cm4.c"
   1:main_cm4.c    **** /******************************************************************************
   2:main_cm4.c    **** * File Name: main_cm4.c
   3:main_cm4.c    **** *
   4:main_cm4.c    **** * Code final - Oxymètre de pouls 6688
ARM GAS  C:\Users\gab_1\AppData\Local\Temp\ccTtYdci.s 			page 9


   5:main_cm4.c    **** * Par :
   6:main_cm4.c    **** * Lauriane Grondin-Reiher (2011285)
   7:main_cm4.c    **** * Gabriel Lopez-Garcia (2017012)
   8:main_cm4.c    **** * Joëlle Morissette (2017462)
   9:main_cm4.c    **** * Yi Yang Yu (2017484)
  10:main_cm4.c    **** * 
  11:main_cm4.c    **** *
  12:main_cm4.c    **** ********************************************************************************/
  13:main_cm4.c    **** 
  14:main_cm4.c    **** // LA VERSION FINALEEEEEEEEEEEEEEEEEEEEEEEEEEEEEEEEEEEEEEEEEEEEEEEEEEEEEEEEEEEEEEEEEEEE !!!!!!!! 
  15:main_cm4.c    **** 
  16:main_cm4.c    **** // inclure tous les fichiers pertinents
  17:main_cm4.c    **** #include "project.h" 
  18:main_cm4.c    **** #include "GUI.h"
  19:main_cm4.c    **** #include "pervasive_eink_hardware_driver.h"
  20:main_cm4.c    **** #include "cy_eink_library.h"
  21:main_cm4.c    **** #include "LCDConf.h"
  22:main_cm4.c    **** #include <stdlib.h>
  23:main_cm4.c    **** #include "LCDConf.h"
  24:main_cm4.c    **** #include <stdio.h>
  25:main_cm4.c    **** #include "FreeRTOS.h"
  26:main_cm4.c    **** #include "display_task.h"
  27:main_cm4.c    **** #include "task.h"
  28:main_cm4.c    **** #include "queue.h"
  29:main_cm4.c    **** #include <arm_math.h> 
  30:main_cm4.c    **** #include <core_cm4.h>
  31:main_cm4.c    **** #include "bmi160.h"
  32:main_cm4.c    **** #include "codeBmi.c"
  33:main_cm4.c    **** #include "math.h"
  34:main_cm4.c    **** 
  35:main_cm4.c    **** 
  36:main_cm4.c    **** // Définitions - Acquisition
  37:main_cm4.c    **** #define SLAVEADRESS 0x57
  38:main_cm4.c    **** #define REG_FIFO_DATA 0x07
  39:main_cm4.c    **** 
  40:main_cm4.c    **** // Définitions - Interface
  41:main_cm4.c    **** #define TASK_DISPLAY_PRIORITY    (1u)
  42:main_cm4.c    **** #define TASK_DISPLAY_STACK_SIZE  (2048u)
  43:main_cm4.c    **** #define TASK_TOUCH_STACK_SIZE    (configMINIMAL_STACK_SIZE)
  44:main_cm4.c    **** #define TOUCH_QUEUE_LENGHT       (1u)
  45:main_cm4.c    **** 
  46:main_cm4.c    **** // Définitions - Traitement de signal
  47:main_cm4.c    **** #define TEST_LENGTH_SAMPLES  1000 
  48:main_cm4.c    **** #define BLOCK_SIZE 1000 
  49:main_cm4.c    **** #define FILTER_TAP_NUM 861 // 
  50:main_cm4.c    **** #define FILTER_TAP_HAUT 51
  51:main_cm4.c    **** #define FILTER_TAP_BAS 51
  52:main_cm4.c    **** static float32_t firStateF32[BLOCK_SIZE + FILTER_TAP_NUM -1];
  53:main_cm4.c    **** 
  54:main_cm4.c    **** volatile bool Index = false;
  55:main_cm4.c    **** extern bool flagAlarme;
  56:main_cm4.c    **** extern volatile int courantDEL;
  57:main_cm4.c    **** 
  58:main_cm4.c    **** // PARTIE ACQUISITION
  59:main_cm4.c    **** 
  60:main_cm4.c    **** 
  61:main_cm4.c    **** // Trouver la position du capteur afin de déterminer s'il y a un mouvement important 
ARM GAS  C:\Users\gab_1\AppData\Local\Temp\ccTtYdci.s 			page 10


  62:main_cm4.c    **** void motionTask(void *arg)
  63:main_cm4.c    **** {
  64:main_cm4.c    ****     (void)arg;
  65:main_cm4.c    ****     I2C_1_Start();
  66:main_cm4.c    ****     sensorsDeviceInit();
  67:main_cm4.c    ****     struct bmi160_sensor_data acc;
  68:main_cm4.c    ****     int xx = 0;
  69:main_cm4.c    **** 
  70:main_cm4.c    ****     while(1)
  71:main_cm4.c    ****     {
  72:main_cm4.c    ****         bmi160_get_sensor_data(BMI160_ACCEL_ONLY, &acc, NULL, &bmi160Dev);
  73:main_cm4.c    ****         //printf("x=%4d y=%4d z=%4d\r\n",acc.x,acc.y,acc.z); // Décommenter pour voir les coordonn
  74:main_cm4.c    **** 
  75:main_cm4.c    ****         vTaskDelay(2);
  76:main_cm4.c    ****         
  77:main_cm4.c    ****         // Si mouvement trop important, on allume une DEL rouge
  78:main_cm4.c    ****         if (acc.x > xx + 200 && flagAlarme == true  /*|| acc.y > yy + 200*/ )
  79:main_cm4.c    ****         {   
  80:main_cm4.c    ****             UART_1_PutString("\r\n ATTENTION: Veuillez ne pas bouger \r\n");
  81:main_cm4.c    ****             Cy_GPIO_Write(RED_PORT,RED_NUM,0);
  82:main_cm4.c    ****         }
  83:main_cm4.c    ****         
  84:main_cm4.c    ****         else if(acc.x<600){
  85:main_cm4.c    ****             Cy_GPIO_Write(RED_PORT,RED_NUM,1);
  86:main_cm4.c    ****             xx = acc.x;
  87:main_cm4.c    ****             interrupt_MAX30102();
  88:main_cm4.c    ****         }    
  89:main_cm4.c    ****         
  90:main_cm4.c    ****         xx = acc.x;
  91:main_cm4.c    ****     }
  92:main_cm4.c    **** }
  93:main_cm4.c    **** 
  94:main_cm4.c    **** // Définition des données qui seront utiles au transfer de données dans le traitement de signal
  95:main_cm4.c    **** float DataRouge[1000];
  96:main_cm4.c    **** float DataIR[1000];
  97:main_cm4.c    **** 
  98:main_cm4.c    **** 
  99:main_cm4.c    **** uint32_t bufferROUGE[1000];
 100:main_cm4.c    **** uint32_t bufferINFRAROUGE[1000];
 101:main_cm4.c    **** uint16_t indice;
 102:main_cm4.c    **** 
 103:main_cm4.c    **** uint32_t* pointeurIr =&bufferINFRAROUGE[0];
 104:main_cm4.c    **** uint32_t*pointeurRed =&bufferROUGE[0];
 105:main_cm4.c    **** 
 106:main_cm4.c    **** // Lecture des registres 
 107:main_cm4.c    **** uint8_t read_MAX30102_Register(uint8_t address)
 108:main_cm4.c    **** {
 327              		.loc 2 108 0
 328              		.cfi_startproc
 329              		@ args = 0, pretend = 0, frame = 8
 330              		@ frame_needed = 0, uses_anonymous_args = 0
 331              	.LVL36:
 332 0000 70B5     		push	{r4, r5, r6, lr}
 333              		.cfi_def_cfa_offset 16
 334              		.cfi_offset 4, -16
 335              		.cfi_offset 5, -12
 336              		.cfi_offset 6, -8
ARM GAS  C:\Users\gab_1\AppData\Local\Temp\ccTtYdci.s 			page 11


 337              		.cfi_offset 14, -4
 338 0002 84B0     		sub	sp, sp, #16
 339              		.cfi_def_cfa_offset 32
 340 0004 0646     		mov	r6, r0
 341              	.LVL37:
 342              	.LBB71:
 343              	.LBB72:
 344              		.file 3 "Generated_Source\\PSoC6/I2C.h"
   1:Generated_Source\PSoC6/I2C.h **** /***************************************************************************//**
   2:Generated_Source\PSoC6/I2C.h **** * \file I2C.c
   3:Generated_Source\PSoC6/I2C.h **** * \version 2.0
   4:Generated_Source\PSoC6/I2C.h **** *
   5:Generated_Source\PSoC6/I2C.h **** *  This file provides constants and parameter values for the I2C component.
   6:Generated_Source\PSoC6/I2C.h **** *
   7:Generated_Source\PSoC6/I2C.h **** ********************************************************************************
   8:Generated_Source\PSoC6/I2C.h **** * \copyright
   9:Generated_Source\PSoC6/I2C.h **** * Copyright 2016-2017, Cypress Semiconductor Corporation. All rights reserved.
  10:Generated_Source\PSoC6/I2C.h **** * You may use this file only in accordance with the license, terms, conditions,
  11:Generated_Source\PSoC6/I2C.h **** * disclaimers, and limitations in the end user license agreement accompanying
  12:Generated_Source\PSoC6/I2C.h **** * the software package with which this file was provided.
  13:Generated_Source\PSoC6/I2C.h **** *******************************************************************************/
  14:Generated_Source\PSoC6/I2C.h **** 
  15:Generated_Source\PSoC6/I2C.h **** #if !defined(I2C_CY_SCB_I2C_PDL_H)
  16:Generated_Source\PSoC6/I2C.h **** #define I2C_CY_SCB_I2C_PDL_H
  17:Generated_Source\PSoC6/I2C.h **** 
  18:Generated_Source\PSoC6/I2C.h **** #include "cyfitter.h"
  19:Generated_Source\PSoC6/I2C.h **** #include "scb/cy_scb_i2c.h"
  20:Generated_Source\PSoC6/I2C.h **** 
  21:Generated_Source\PSoC6/I2C.h **** #if defined(__cplusplus)
  22:Generated_Source\PSoC6/I2C.h **** extern "C" {
  23:Generated_Source\PSoC6/I2C.h **** #endif
  24:Generated_Source\PSoC6/I2C.h **** 
  25:Generated_Source\PSoC6/I2C.h **** /***************************************
  26:Generated_Source\PSoC6/I2C.h **** *   Initial Parameter Constants
  27:Generated_Source\PSoC6/I2C.h **** ****************************************/
  28:Generated_Source\PSoC6/I2C.h **** 
  29:Generated_Source\PSoC6/I2C.h **** #define I2C_MODE               (0x2U)
  30:Generated_Source\PSoC6/I2C.h **** #define I2C_MODE_SLAVE_MASK    (0x1U)
  31:Generated_Source\PSoC6/I2C.h **** #define I2C_MODE_MASTER_MASK   (0x2U)
  32:Generated_Source\PSoC6/I2C.h **** 
  33:Generated_Source\PSoC6/I2C.h **** #define I2C_ENABLE_SLAVE       (0UL != (I2C_MODE & I2C_MODE_SLAVE_MASK))
  34:Generated_Source\PSoC6/I2C.h **** #define I2C_ENABLE_MASTER      (0UL != (I2C_MODE & I2C_MODE_MASTER_MASK))
  35:Generated_Source\PSoC6/I2C.h **** #define I2C_MANUAL_SCL_CONTROL (0U)
  36:Generated_Source\PSoC6/I2C.h **** 
  37:Generated_Source\PSoC6/I2C.h **** 
  38:Generated_Source\PSoC6/I2C.h **** /***************************************
  39:Generated_Source\PSoC6/I2C.h **** *        Function Prototypes
  40:Generated_Source\PSoC6/I2C.h **** ***************************************/
  41:Generated_Source\PSoC6/I2C.h **** /**
  42:Generated_Source\PSoC6/I2C.h **** * \addtogroup group_general
  43:Generated_Source\PSoC6/I2C.h **** * @{
  44:Generated_Source\PSoC6/I2C.h **** */
  45:Generated_Source\PSoC6/I2C.h **** /* Component only APIs. */
  46:Generated_Source\PSoC6/I2C.h **** void I2C_Start(void);
  47:Generated_Source\PSoC6/I2C.h **** 
  48:Generated_Source\PSoC6/I2C.h **** /* Basic functions. */
  49:Generated_Source\PSoC6/I2C.h **** __STATIC_INLINE cy_en_scb_i2c_status_t I2C_Init(cy_stc_scb_i2c_config_t const *config);
ARM GAS  C:\Users\gab_1\AppData\Local\Temp\ccTtYdci.s 			page 12


  50:Generated_Source\PSoC6/I2C.h **** __STATIC_INLINE void I2C_DeInit (void);
  51:Generated_Source\PSoC6/I2C.h **** __STATIC_INLINE void I2C_Enable (void);
  52:Generated_Source\PSoC6/I2C.h **** __STATIC_INLINE void I2C_Disable(void);
  53:Generated_Source\PSoC6/I2C.h **** 
  54:Generated_Source\PSoC6/I2C.h **** /* Data rate configuration functions. */
  55:Generated_Source\PSoC6/I2C.h **** __STATIC_INLINE uint32_t I2C_SetDataRate(uint32_t dataRateHz, uint32_t scbClockHz);
  56:Generated_Source\PSoC6/I2C.h **** __STATIC_INLINE uint32_t I2C_GetDataRate(uint32_t scbClockHz);
  57:Generated_Source\PSoC6/I2C.h **** 
  58:Generated_Source\PSoC6/I2C.h **** /* Register callbacks. */
  59:Generated_Source\PSoC6/I2C.h **** __STATIC_INLINE void I2C_RegisterEventCallback(cy_cb_scb_i2c_handle_events_t callback);
  60:Generated_Source\PSoC6/I2C.h **** #if (I2C_ENABLE_SLAVE)
  61:Generated_Source\PSoC6/I2C.h **** __STATIC_INLINE void I2C_RegisterAddrCallback (cy_cb_scb_i2c_handle_addr_t callback);
  62:Generated_Source\PSoC6/I2C.h **** #endif /* (I2C_ENABLE_SLAVE) */
  63:Generated_Source\PSoC6/I2C.h **** 
  64:Generated_Source\PSoC6/I2C.h **** /* Configuration functions. */
  65:Generated_Source\PSoC6/I2C.h **** #if (I2C_ENABLE_SLAVE)
  66:Generated_Source\PSoC6/I2C.h **** __STATIC_INLINE void     I2C_SlaveSetAddress(uint8_t addr);
  67:Generated_Source\PSoC6/I2C.h **** __STATIC_INLINE uint32_t I2C_SlaveGetAddress(void);
  68:Generated_Source\PSoC6/I2C.h **** __STATIC_INLINE void     I2C_SlaveSetAddressMask(uint8_t addrMask);
  69:Generated_Source\PSoC6/I2C.h **** __STATIC_INLINE uint32_t I2C_SlaveGetAddressMask(void);
  70:Generated_Source\PSoC6/I2C.h **** #endif /* (I2C_ENABLE_SLAVE) */
  71:Generated_Source\PSoC6/I2C.h **** 
  72:Generated_Source\PSoC6/I2C.h **** #if (I2C_ENABLE_MASTER)
  73:Generated_Source\PSoC6/I2C.h **** __STATIC_INLINE void I2C_MasterSetLowPhaseDutyCycle (uint32_t clockCycles);
  74:Generated_Source\PSoC6/I2C.h **** __STATIC_INLINE void I2C_MasterSetHighPhaseDutyCycle(uint32_t clockCycles);
  75:Generated_Source\PSoC6/I2C.h **** #endif /* (I2C_ENABLE_MASTER) */
  76:Generated_Source\PSoC6/I2C.h **** 
  77:Generated_Source\PSoC6/I2C.h **** /* Bus status. */
  78:Generated_Source\PSoC6/I2C.h **** __STATIC_INLINE bool     I2C_IsBusBusy(void);
  79:Generated_Source\PSoC6/I2C.h **** 
  80:Generated_Source\PSoC6/I2C.h **** /* Slave functions. */
  81:Generated_Source\PSoC6/I2C.h **** #if (I2C_ENABLE_SLAVE)
  82:Generated_Source\PSoC6/I2C.h **** __STATIC_INLINE uint32_t I2C_SlaveGetStatus(void);
  83:Generated_Source\PSoC6/I2C.h **** 
  84:Generated_Source\PSoC6/I2C.h **** __STATIC_INLINE void     I2C_SlaveConfigReadBuf(uint8_t *buffer, uint32_t size);
  85:Generated_Source\PSoC6/I2C.h **** __STATIC_INLINE void     I2C_SlaveAbortRead(void);
  86:Generated_Source\PSoC6/I2C.h **** __STATIC_INLINE uint32_t I2C_SlaveGetReadTransferCount(void);
  87:Generated_Source\PSoC6/I2C.h **** __STATIC_INLINE uint32_t I2C_SlaveClearReadStatus(void);
  88:Generated_Source\PSoC6/I2C.h **** 
  89:Generated_Source\PSoC6/I2C.h **** __STATIC_INLINE void     I2C_SlaveConfigWriteBuf(uint8_t *buffer, uint32_t size);
  90:Generated_Source\PSoC6/I2C.h **** __STATIC_INLINE void     I2C_SlaveAbortWrite(void);
  91:Generated_Source\PSoC6/I2C.h **** __STATIC_INLINE uint32_t I2C_SlaveGetWriteTransferCount(void);
  92:Generated_Source\PSoC6/I2C.h **** __STATIC_INLINE uint32_t I2C_SlaveClearWriteStatus(void);
  93:Generated_Source\PSoC6/I2C.h **** #endif /* (I2C_ENABLE_SLAVE) */
  94:Generated_Source\PSoC6/I2C.h **** 
  95:Generated_Source\PSoC6/I2C.h **** /* Master interrupt processing functions. */
  96:Generated_Source\PSoC6/I2C.h **** #if (I2C_ENABLE_MASTER)
  97:Generated_Source\PSoC6/I2C.h **** __STATIC_INLINE uint32_t I2C_MasterGetStatus(void);
  98:Generated_Source\PSoC6/I2C.h **** 
  99:Generated_Source\PSoC6/I2C.h **** __STATIC_INLINE cy_en_scb_i2c_status_t I2C_MasterRead(cy_stc_scb_i2c_master_xfer_config_t *xferConf
 100:Generated_Source\PSoC6/I2C.h **** __STATIC_INLINE void I2C_MasterAbortRead(void);
 101:Generated_Source\PSoC6/I2C.h **** __STATIC_INLINE cy_en_scb_i2c_status_t I2C_MasterWrite(cy_stc_scb_i2c_master_xfer_config_t *xferCon
 102:Generated_Source\PSoC6/I2C.h **** __STATIC_INLINE void I2C_MasterAbortWrite(void);
 103:Generated_Source\PSoC6/I2C.h **** __STATIC_INLINE uint32_t I2C_MasterGetTransferCount(void);
 104:Generated_Source\PSoC6/I2C.h **** 
 105:Generated_Source\PSoC6/I2C.h **** /* Master manual processing functions. */
 106:Generated_Source\PSoC6/I2C.h **** __STATIC_INLINE cy_en_scb_i2c_status_t I2C_MasterSendStart(uint32_t address, cy_en_scb_i2c_directio
ARM GAS  C:\Users\gab_1\AppData\Local\Temp\ccTtYdci.s 			page 13


 107:Generated_Source\PSoC6/I2C.h **** __STATIC_INLINE cy_en_scb_i2c_status_t I2C_MasterSendReStart(uint32_t address, cy_en_scb_i2c_direct
 108:Generated_Source\PSoC6/I2C.h **** __STATIC_INLINE cy_en_scb_i2c_status_t I2C_MasterSendStop(uint32_t timeoutMs);
 109:Generated_Source\PSoC6/I2C.h **** __STATIC_INLINE cy_en_scb_i2c_status_t I2C_MasterReadByte(cy_en_scb_i2c_command_t ackNack, uint8_t 
 110:Generated_Source\PSoC6/I2C.h **** __STATIC_INLINE cy_en_scb_i2c_status_t I2C_MasterWriteByte(uint8_t byte, uint32_t timeoutMs);
 111:Generated_Source\PSoC6/I2C.h **** #endif /* (I2C_ENABLE_MASTER) */
 112:Generated_Source\PSoC6/I2C.h **** 
 113:Generated_Source\PSoC6/I2C.h **** /* Interrupt handler. */
 114:Generated_Source\PSoC6/I2C.h **** __STATIC_INLINE void I2C_Interrupt(void);
 115:Generated_Source\PSoC6/I2C.h **** /** @} group_general */
 116:Generated_Source\PSoC6/I2C.h **** 
 117:Generated_Source\PSoC6/I2C.h **** 
 118:Generated_Source\PSoC6/I2C.h **** /***************************************
 119:Generated_Source\PSoC6/I2C.h **** *    Variables with External Linkage
 120:Generated_Source\PSoC6/I2C.h **** ***************************************/
 121:Generated_Source\PSoC6/I2C.h **** /**
 122:Generated_Source\PSoC6/I2C.h **** * \addtogroup group_globals
 123:Generated_Source\PSoC6/I2C.h **** * @{
 124:Generated_Source\PSoC6/I2C.h **** */
 125:Generated_Source\PSoC6/I2C.h **** extern uint8_t I2C_initVar;
 126:Generated_Source\PSoC6/I2C.h **** extern cy_stc_scb_i2c_config_t const I2C_config;
 127:Generated_Source\PSoC6/I2C.h **** extern cy_stc_scb_i2c_context_t I2C_context;
 128:Generated_Source\PSoC6/I2C.h **** /** @} group_globals */
 129:Generated_Source\PSoC6/I2C.h **** 
 130:Generated_Source\PSoC6/I2C.h **** 
 131:Generated_Source\PSoC6/I2C.h **** /***************************************
 132:Generated_Source\PSoC6/I2C.h **** *         Preprocessor Macros
 133:Generated_Source\PSoC6/I2C.h **** ***************************************/
 134:Generated_Source\PSoC6/I2C.h **** /**
 135:Generated_Source\PSoC6/I2C.h **** * \addtogroup group_macros
 136:Generated_Source\PSoC6/I2C.h **** * @{
 137:Generated_Source\PSoC6/I2C.h **** */
 138:Generated_Source\PSoC6/I2C.h **** /** The pointer to the base address of the SCB instance */
 139:Generated_Source\PSoC6/I2C.h **** #define I2C_HW     ((CySCB_Type *) I2C_SCB__HW)
 140:Generated_Source\PSoC6/I2C.h **** 
 141:Generated_Source\PSoC6/I2C.h **** /** The desired data rate in Hz */
 142:Generated_Source\PSoC6/I2C.h **** #define I2C_DATA_RATE_HZ      (100000U)
 143:Generated_Source\PSoC6/I2C.h **** 
 144:Generated_Source\PSoC6/I2C.h **** /** The frequency of the clock used by the Component in Hz */
 145:Generated_Source\PSoC6/I2C.h **** #define I2C_CLK_FREQ_HZ       (1538461U)
 146:Generated_Source\PSoC6/I2C.h **** 
 147:Generated_Source\PSoC6/I2C.h **** /** The number of Component clocks used by the master to generate the SCL
 148:Generated_Source\PSoC6/I2C.h **** * low phase. This number is calculated by GUI based on the selected data rate.
 149:Generated_Source\PSoC6/I2C.h **** */
 150:Generated_Source\PSoC6/I2C.h **** #define I2C_LOW_PHASE_DUTY_CYCLE   (8U)
 151:Generated_Source\PSoC6/I2C.h **** 
 152:Generated_Source\PSoC6/I2C.h **** /** The number of Component clocks used by the master to generate the SCL
 153:Generated_Source\PSoC6/I2C.h **** * high phase. This number is calculated by GUI based on the selected data rate.
 154:Generated_Source\PSoC6/I2C.h **** */
 155:Generated_Source\PSoC6/I2C.h **** #define I2C_HIGH_PHASE_DUTY_CYCLE  (8U)
 156:Generated_Source\PSoC6/I2C.h **** /** @} group_macros */
 157:Generated_Source\PSoC6/I2C.h **** 
 158:Generated_Source\PSoC6/I2C.h **** 
 159:Generated_Source\PSoC6/I2C.h **** /***************************************
 160:Generated_Source\PSoC6/I2C.h **** *    In-line Function Implementation
 161:Generated_Source\PSoC6/I2C.h **** ***************************************/
 162:Generated_Source\PSoC6/I2C.h **** 
 163:Generated_Source\PSoC6/I2C.h **** /*******************************************************************************
ARM GAS  C:\Users\gab_1\AppData\Local\Temp\ccTtYdci.s 			page 14


 164:Generated_Source\PSoC6/I2C.h **** * Function Name: I2C_Init
 165:Generated_Source\PSoC6/I2C.h **** ****************************************************************************//**
 166:Generated_Source\PSoC6/I2C.h **** *
 167:Generated_Source\PSoC6/I2C.h **** * Invokes the Cy_SCB_I2C_Init() PDL driver function.
 168:Generated_Source\PSoC6/I2C.h **** *
 169:Generated_Source\PSoC6/I2C.h **** *******************************************************************************/
 170:Generated_Source\PSoC6/I2C.h **** __STATIC_INLINE cy_en_scb_i2c_status_t I2C_Init(cy_stc_scb_i2c_config_t const *config)
 171:Generated_Source\PSoC6/I2C.h **** {
 172:Generated_Source\PSoC6/I2C.h ****     return Cy_SCB_I2C_Init(I2C_HW, config, &I2C_context);
 173:Generated_Source\PSoC6/I2C.h **** }
 174:Generated_Source\PSoC6/I2C.h **** 
 175:Generated_Source\PSoC6/I2C.h **** 
 176:Generated_Source\PSoC6/I2C.h **** /*******************************************************************************
 177:Generated_Source\PSoC6/I2C.h **** *  Function Name: I2C_DeInit
 178:Generated_Source\PSoC6/I2C.h **** ****************************************************************************//**
 179:Generated_Source\PSoC6/I2C.h **** *
 180:Generated_Source\PSoC6/I2C.h **** * Invokes the Cy_SCB_I2C_DeInit() PDL driver function.
 181:Generated_Source\PSoC6/I2C.h **** *
 182:Generated_Source\PSoC6/I2C.h **** *******************************************************************************/
 183:Generated_Source\PSoC6/I2C.h **** __STATIC_INLINE void I2C_DeInit(void)
 184:Generated_Source\PSoC6/I2C.h **** {
 185:Generated_Source\PSoC6/I2C.h ****     Cy_SCB_I2C_DeInit(I2C_HW);
 186:Generated_Source\PSoC6/I2C.h **** }
 187:Generated_Source\PSoC6/I2C.h **** 
 188:Generated_Source\PSoC6/I2C.h **** 
 189:Generated_Source\PSoC6/I2C.h **** /*******************************************************************************
 190:Generated_Source\PSoC6/I2C.h **** * Function Name: I2C_Enable
 191:Generated_Source\PSoC6/I2C.h **** ****************************************************************************//**
 192:Generated_Source\PSoC6/I2C.h **** *
 193:Generated_Source\PSoC6/I2C.h **** * Invokes the Cy_SCB_I2C_Enable() PDL driver function.
 194:Generated_Source\PSoC6/I2C.h **** *
 195:Generated_Source\PSoC6/I2C.h **** *******************************************************************************/
 196:Generated_Source\PSoC6/I2C.h **** __STATIC_INLINE void I2C_Enable(void)
 197:Generated_Source\PSoC6/I2C.h **** {
 198:Generated_Source\PSoC6/I2C.h ****     Cy_SCB_I2C_Enable(I2C_HW);
 199:Generated_Source\PSoC6/I2C.h **** }
 200:Generated_Source\PSoC6/I2C.h **** 
 201:Generated_Source\PSoC6/I2C.h **** 
 202:Generated_Source\PSoC6/I2C.h **** /*******************************************************************************
 203:Generated_Source\PSoC6/I2C.h **** * Function Name: I2C_Disable
 204:Generated_Source\PSoC6/I2C.h **** ****************************************************************************//**
 205:Generated_Source\PSoC6/I2C.h **** *
 206:Generated_Source\PSoC6/I2C.h **** * Invokes the Cy_SCB_I2C_Disable() PDL driver function.
 207:Generated_Source\PSoC6/I2C.h **** *
 208:Generated_Source\PSoC6/I2C.h **** *******************************************************************************/
 209:Generated_Source\PSoC6/I2C.h **** __STATIC_INLINE void I2C_Disable(void)
 210:Generated_Source\PSoC6/I2C.h **** {
 211:Generated_Source\PSoC6/I2C.h ****     Cy_SCB_I2C_Disable(I2C_HW, &I2C_context);
 212:Generated_Source\PSoC6/I2C.h **** }
 213:Generated_Source\PSoC6/I2C.h **** 
 214:Generated_Source\PSoC6/I2C.h **** 
 215:Generated_Source\PSoC6/I2C.h **** /*******************************************************************************
 216:Generated_Source\PSoC6/I2C.h **** * Function Name: I2C_SetDataRate
 217:Generated_Source\PSoC6/I2C.h **** ****************************************************************************//**
 218:Generated_Source\PSoC6/I2C.h **** *
 219:Generated_Source\PSoC6/I2C.h **** * Invokes the Cy_SCB_I2C_SetDataRate() PDL driver function.
 220:Generated_Source\PSoC6/I2C.h **** *
ARM GAS  C:\Users\gab_1\AppData\Local\Temp\ccTtYdci.s 			page 15


 221:Generated_Source\PSoC6/I2C.h **** *******************************************************************************/
 222:Generated_Source\PSoC6/I2C.h **** __STATIC_INLINE uint32_t I2C_SetDataRate(uint32_t dataRateHz, uint32_t scbClockHz)
 223:Generated_Source\PSoC6/I2C.h **** {
 224:Generated_Source\PSoC6/I2C.h ****     return Cy_SCB_I2C_SetDataRate(I2C_HW, dataRateHz, scbClockHz);
 225:Generated_Source\PSoC6/I2C.h **** }
 226:Generated_Source\PSoC6/I2C.h **** 
 227:Generated_Source\PSoC6/I2C.h **** 
 228:Generated_Source\PSoC6/I2C.h **** /*******************************************************************************
 229:Generated_Source\PSoC6/I2C.h **** * Function Name: I2C_GetDataRate
 230:Generated_Source\PSoC6/I2C.h **** ****************************************************************************//**
 231:Generated_Source\PSoC6/I2C.h **** *
 232:Generated_Source\PSoC6/I2C.h **** * Invokes the Cy_SCB_I2C_GetDataRate() PDL driver function.
 233:Generated_Source\PSoC6/I2C.h **** *
 234:Generated_Source\PSoC6/I2C.h **** *******************************************************************************/
 235:Generated_Source\PSoC6/I2C.h **** __STATIC_INLINE uint32_t I2C_GetDataRate(uint32_t scbClockHz)
 236:Generated_Source\PSoC6/I2C.h **** {
 237:Generated_Source\PSoC6/I2C.h ****     return Cy_SCB_I2C_GetDataRate(I2C_HW, scbClockHz);
 238:Generated_Source\PSoC6/I2C.h **** }
 239:Generated_Source\PSoC6/I2C.h **** 
 240:Generated_Source\PSoC6/I2C.h **** 
 241:Generated_Source\PSoC6/I2C.h **** /*******************************************************************************
 242:Generated_Source\PSoC6/I2C.h **** * Function Name: I2C_RegisterEventCallback
 243:Generated_Source\PSoC6/I2C.h **** ****************************************************************************//**
 244:Generated_Source\PSoC6/I2C.h **** *
 245:Generated_Source\PSoC6/I2C.h **** * Invokes the Cy_SCB_I2C_RegisterEventCallback() PDL driver function.
 246:Generated_Source\PSoC6/I2C.h **** *
 247:Generated_Source\PSoC6/I2C.h **** *******************************************************************************/
 248:Generated_Source\PSoC6/I2C.h **** __STATIC_INLINE void I2C_RegisterEventCallback(cy_cb_scb_i2c_handle_events_t callback)
 249:Generated_Source\PSoC6/I2C.h **** {
 250:Generated_Source\PSoC6/I2C.h ****     Cy_SCB_I2C_RegisterEventCallback(I2C_HW, callback, &I2C_context);
 251:Generated_Source\PSoC6/I2C.h **** }
 252:Generated_Source\PSoC6/I2C.h **** 
 253:Generated_Source\PSoC6/I2C.h **** 
 254:Generated_Source\PSoC6/I2C.h **** #if (I2C_ENABLE_SLAVE)
 255:Generated_Source\PSoC6/I2C.h **** /*******************************************************************************
 256:Generated_Source\PSoC6/I2C.h **** * Function Name: I2C_RegisterAddrCallback
 257:Generated_Source\PSoC6/I2C.h **** ****************************************************************************//**
 258:Generated_Source\PSoC6/I2C.h **** *
 259:Generated_Source\PSoC6/I2C.h **** * Invokes the Cy_SCB_I2C_RegisterAddrCallback() PDL driver function.
 260:Generated_Source\PSoC6/I2C.h **** *
 261:Generated_Source\PSoC6/I2C.h **** *******************************************************************************/
 262:Generated_Source\PSoC6/I2C.h **** __STATIC_INLINE void I2C_RegisterAddrCallback(cy_cb_scb_i2c_handle_addr_t callback)
 263:Generated_Source\PSoC6/I2C.h **** {
 264:Generated_Source\PSoC6/I2C.h ****     Cy_SCB_I2C_RegisterAddrCallback(I2C_HW, callback, &I2C_context);
 265:Generated_Source\PSoC6/I2C.h **** }
 266:Generated_Source\PSoC6/I2C.h **** #endif /* (I2C_ENABLE_SLAVE) */
 267:Generated_Source\PSoC6/I2C.h **** 
 268:Generated_Source\PSoC6/I2C.h **** 
 269:Generated_Source\PSoC6/I2C.h **** /*******************************************************************************
 270:Generated_Source\PSoC6/I2C.h **** * Function Name: I2C_IsBusBusy
 271:Generated_Source\PSoC6/I2C.h **** ****************************************************************************//**
 272:Generated_Source\PSoC6/I2C.h **** *
 273:Generated_Source\PSoC6/I2C.h **** * Invokes the Cy_SCB_I2C_IsBusBusy() PDL driver function.
 274:Generated_Source\PSoC6/I2C.h **** *
 275:Generated_Source\PSoC6/I2C.h **** *******************************************************************************/
 276:Generated_Source\PSoC6/I2C.h **** __STATIC_INLINE bool I2C_IsBusBusy(void)
 277:Generated_Source\PSoC6/I2C.h **** {
ARM GAS  C:\Users\gab_1\AppData\Local\Temp\ccTtYdci.s 			page 16


 278:Generated_Source\PSoC6/I2C.h ****     return Cy_SCB_I2C_IsBusBusy(I2C_HW);
 279:Generated_Source\PSoC6/I2C.h **** }
 280:Generated_Source\PSoC6/I2C.h **** 
 281:Generated_Source\PSoC6/I2C.h **** 
 282:Generated_Source\PSoC6/I2C.h **** #if (I2C_ENABLE_SLAVE)
 283:Generated_Source\PSoC6/I2C.h **** /*******************************************************************************
 284:Generated_Source\PSoC6/I2C.h **** * Function Name: I2C_SlaveSetAddress
 285:Generated_Source\PSoC6/I2C.h **** ****************************************************************************//**
 286:Generated_Source\PSoC6/I2C.h **** *
 287:Generated_Source\PSoC6/I2C.h **** * Invokes the Cy_SCB_I2C_SlaveGetAddress() PDL driver function.
 288:Generated_Source\PSoC6/I2C.h **** *
 289:Generated_Source\PSoC6/I2C.h **** *******************************************************************************/
 290:Generated_Source\PSoC6/I2C.h **** __STATIC_INLINE void I2C_SlaveSetAddress(uint8_t addr)
 291:Generated_Source\PSoC6/I2C.h **** {
 292:Generated_Source\PSoC6/I2C.h ****     Cy_SCB_I2C_SlaveSetAddress(I2C_HW, addr);
 293:Generated_Source\PSoC6/I2C.h **** }
 294:Generated_Source\PSoC6/I2C.h **** 
 295:Generated_Source\PSoC6/I2C.h **** 
 296:Generated_Source\PSoC6/I2C.h **** /*******************************************************************************
 297:Generated_Source\PSoC6/I2C.h **** * Function Name: I2C_SlaveGetAddress
 298:Generated_Source\PSoC6/I2C.h **** ****************************************************************************//**
 299:Generated_Source\PSoC6/I2C.h **** *
 300:Generated_Source\PSoC6/I2C.h **** * Invokes the Cy_SCB_I2C_SlaveGetAddress() PDL driver function.
 301:Generated_Source\PSoC6/I2C.h **** *
 302:Generated_Source\PSoC6/I2C.h **** *******************************************************************************/
 303:Generated_Source\PSoC6/I2C.h **** __STATIC_INLINE uint32_t I2C_SlaveGetAddress(void)
 304:Generated_Source\PSoC6/I2C.h **** {
 305:Generated_Source\PSoC6/I2C.h ****     return Cy_SCB_I2C_SlaveGetAddress(I2C_HW);
 306:Generated_Source\PSoC6/I2C.h **** }
 307:Generated_Source\PSoC6/I2C.h **** 
 308:Generated_Source\PSoC6/I2C.h **** 
 309:Generated_Source\PSoC6/I2C.h **** /*******************************************************************************
 310:Generated_Source\PSoC6/I2C.h **** * Function Name: I2C_SlaveSetAddressMask
 311:Generated_Source\PSoC6/I2C.h **** ****************************************************************************//**
 312:Generated_Source\PSoC6/I2C.h **** *
 313:Generated_Source\PSoC6/I2C.h **** * Invokes the Cy_SCB_I2C_SlaveSetAddressMask() PDL driver function.
 314:Generated_Source\PSoC6/I2C.h **** *
 315:Generated_Source\PSoC6/I2C.h **** *******************************************************************************/
 316:Generated_Source\PSoC6/I2C.h **** __STATIC_INLINE void I2C_SlaveSetAddressMask(uint8_t addrMask)
 317:Generated_Source\PSoC6/I2C.h **** {
 318:Generated_Source\PSoC6/I2C.h ****     Cy_SCB_I2C_SlaveSetAddressMask(I2C_HW, addrMask);
 319:Generated_Source\PSoC6/I2C.h **** }
 320:Generated_Source\PSoC6/I2C.h **** 
 321:Generated_Source\PSoC6/I2C.h **** 
 322:Generated_Source\PSoC6/I2C.h **** /*******************************************************************************
 323:Generated_Source\PSoC6/I2C.h **** * Function Name: I2C_SlaveGetAddressMask
 324:Generated_Source\PSoC6/I2C.h **** ****************************************************************************//**
 325:Generated_Source\PSoC6/I2C.h **** *
 326:Generated_Source\PSoC6/I2C.h **** * Invokes the Cy_SCB_I2C_SlaveGetAddressMask() PDL driver function.
 327:Generated_Source\PSoC6/I2C.h **** *
 328:Generated_Source\PSoC6/I2C.h **** *******************************************************************************/
 329:Generated_Source\PSoC6/I2C.h **** __STATIC_INLINE uint32_t I2C_SlaveGetAddressMask(void)
 330:Generated_Source\PSoC6/I2C.h **** {
 331:Generated_Source\PSoC6/I2C.h ****     return Cy_SCB_I2C_SlaveGetAddressMask(I2C_HW);
 332:Generated_Source\PSoC6/I2C.h **** }
 333:Generated_Source\PSoC6/I2C.h **** #endif /* (I2C_ENABLE_SLAVE) */
 334:Generated_Source\PSoC6/I2C.h **** 
ARM GAS  C:\Users\gab_1\AppData\Local\Temp\ccTtYdci.s 			page 17


 335:Generated_Source\PSoC6/I2C.h **** #if (I2C_ENABLE_MASTER)
 336:Generated_Source\PSoC6/I2C.h **** /*******************************************************************************
 337:Generated_Source\PSoC6/I2C.h **** * Function Name: I2C_MasterSetLowPhaseDutyCycle
 338:Generated_Source\PSoC6/I2C.h **** ****************************************************************************//**
 339:Generated_Source\PSoC6/I2C.h **** *
 340:Generated_Source\PSoC6/I2C.h **** * Invokes the Cy_SCB_I2C_MasterSetLowPhaseDutyCycle() PDL driver function.
 341:Generated_Source\PSoC6/I2C.h **** *
 342:Generated_Source\PSoC6/I2C.h **** *******************************************************************************/
 343:Generated_Source\PSoC6/I2C.h **** __STATIC_INLINE void I2C_MasterSetLowPhaseDutyCycle(uint32_t clockCycles)
 344:Generated_Source\PSoC6/I2C.h **** {
 345:Generated_Source\PSoC6/I2C.h ****     Cy_SCB_I2C_MasterSetLowPhaseDutyCycle(I2C_HW, clockCycles);
 346:Generated_Source\PSoC6/I2C.h **** }
 347:Generated_Source\PSoC6/I2C.h **** 
 348:Generated_Source\PSoC6/I2C.h **** 
 349:Generated_Source\PSoC6/I2C.h **** /*******************************************************************************
 350:Generated_Source\PSoC6/I2C.h **** * Function Name: I2C_MasterSetHighPhaseDutyCycle
 351:Generated_Source\PSoC6/I2C.h **** ****************************************************************************//**
 352:Generated_Source\PSoC6/I2C.h **** *
 353:Generated_Source\PSoC6/I2C.h **** * Invokes the Cy_SCB_I2C_MasterSetHighPhaseDutyCycle() PDL driver function.
 354:Generated_Source\PSoC6/I2C.h **** *
 355:Generated_Source\PSoC6/I2C.h **** *******************************************************************************/
 356:Generated_Source\PSoC6/I2C.h **** __STATIC_INLINE void I2C_MasterSetHighPhaseDutyCycle(uint32_t clockCycles)
 357:Generated_Source\PSoC6/I2C.h **** {
 358:Generated_Source\PSoC6/I2C.h ****     Cy_SCB_I2C_MasterSetHighPhaseDutyCycle(I2C_HW, clockCycles);
 359:Generated_Source\PSoC6/I2C.h **** }
 360:Generated_Source\PSoC6/I2C.h **** #endif /* (I2C_ENABLE_MASTER) */
 361:Generated_Source\PSoC6/I2C.h **** 
 362:Generated_Source\PSoC6/I2C.h **** 
 363:Generated_Source\PSoC6/I2C.h **** #if (I2C_ENABLE_SLAVE)
 364:Generated_Source\PSoC6/I2C.h **** /*******************************************************************************
 365:Generated_Source\PSoC6/I2C.h **** * Function Name: I2C_SlaveGetStatus
 366:Generated_Source\PSoC6/I2C.h **** ****************************************************************************//**
 367:Generated_Source\PSoC6/I2C.h **** *
 368:Generated_Source\PSoC6/I2C.h **** * Invokes the Cy_SCB_I2C_SlaveGetStatus() PDL driver function.
 369:Generated_Source\PSoC6/I2C.h **** *
 370:Generated_Source\PSoC6/I2C.h **** *******************************************************************************/
 371:Generated_Source\PSoC6/I2C.h **** __STATIC_INLINE uint32_t I2C_SlaveGetStatus(void)
 372:Generated_Source\PSoC6/I2C.h **** {
 373:Generated_Source\PSoC6/I2C.h ****     return Cy_SCB_I2C_SlaveGetStatus(I2C_HW, &I2C_context);
 374:Generated_Source\PSoC6/I2C.h **** }
 375:Generated_Source\PSoC6/I2C.h **** 
 376:Generated_Source\PSoC6/I2C.h **** 
 377:Generated_Source\PSoC6/I2C.h **** /*******************************************************************************
 378:Generated_Source\PSoC6/I2C.h **** * Function Name: I2C_SlaveConfigReadBuf
 379:Generated_Source\PSoC6/I2C.h **** ****************************************************************************//**
 380:Generated_Source\PSoC6/I2C.h **** *
 381:Generated_Source\PSoC6/I2C.h **** * Invokes the Cy_SCB_I2C_SlaveConfigReadBuf() PDL driver function.
 382:Generated_Source\PSoC6/I2C.h **** *
 383:Generated_Source\PSoC6/I2C.h **** *******************************************************************************/
 384:Generated_Source\PSoC6/I2C.h **** __STATIC_INLINE void I2C_SlaveConfigReadBuf(uint8_t *buffer, uint32_t size)
 385:Generated_Source\PSoC6/I2C.h **** {
 386:Generated_Source\PSoC6/I2C.h ****     Cy_SCB_I2C_SlaveConfigReadBuf(I2C_HW, buffer, size, &I2C_context);
 387:Generated_Source\PSoC6/I2C.h **** }
 388:Generated_Source\PSoC6/I2C.h **** 
 389:Generated_Source\PSoC6/I2C.h **** 
 390:Generated_Source\PSoC6/I2C.h **** /*******************************************************************************
 391:Generated_Source\PSoC6/I2C.h **** * Function Name: I2C_SlaveAbortRead
ARM GAS  C:\Users\gab_1\AppData\Local\Temp\ccTtYdci.s 			page 18


 392:Generated_Source\PSoC6/I2C.h **** ****************************************************************************//**
 393:Generated_Source\PSoC6/I2C.h **** *
 394:Generated_Source\PSoC6/I2C.h **** * Invokes the Cy_SCB_I2C_SlaveAbortRead() PDL driver function.
 395:Generated_Source\PSoC6/I2C.h **** *
 396:Generated_Source\PSoC6/I2C.h **** *******************************************************************************/
 397:Generated_Source\PSoC6/I2C.h **** __STATIC_INLINE void I2C_SlaveAbortRead(void)
 398:Generated_Source\PSoC6/I2C.h **** {
 399:Generated_Source\PSoC6/I2C.h ****     Cy_SCB_I2C_SlaveAbortRead(I2C_HW, &I2C_context);
 400:Generated_Source\PSoC6/I2C.h **** }
 401:Generated_Source\PSoC6/I2C.h **** 
 402:Generated_Source\PSoC6/I2C.h **** 
 403:Generated_Source\PSoC6/I2C.h **** /*******************************************************************************
 404:Generated_Source\PSoC6/I2C.h **** * Function Name: I2C_SlaveGetReadTransferCount
 405:Generated_Source\PSoC6/I2C.h **** ****************************************************************************//**
 406:Generated_Source\PSoC6/I2C.h **** *
 407:Generated_Source\PSoC6/I2C.h **** * Invokes the Cy_SCB_I2C_SlaveGetReadTransferCount() PDL driver function.
 408:Generated_Source\PSoC6/I2C.h **** *
 409:Generated_Source\PSoC6/I2C.h **** *******************************************************************************/
 410:Generated_Source\PSoC6/I2C.h **** __STATIC_INLINE uint32_t I2C_SlaveGetReadTransferCount(void)
 411:Generated_Source\PSoC6/I2C.h **** {
 412:Generated_Source\PSoC6/I2C.h ****     return Cy_SCB_I2C_SlaveGetReadTransferCount(I2C_HW, &I2C_context);
 413:Generated_Source\PSoC6/I2C.h **** }
 414:Generated_Source\PSoC6/I2C.h **** 
 415:Generated_Source\PSoC6/I2C.h **** 
 416:Generated_Source\PSoC6/I2C.h **** /*******************************************************************************
 417:Generated_Source\PSoC6/I2C.h **** * Function Name: I2C_SlaveClearReadStatus
 418:Generated_Source\PSoC6/I2C.h **** ****************************************************************************//**
 419:Generated_Source\PSoC6/I2C.h **** *
 420:Generated_Source\PSoC6/I2C.h **** * Invokes the Cy_SCB_I2C_SlaveClearReadStatus() PDL driver function.
 421:Generated_Source\PSoC6/I2C.h **** *
 422:Generated_Source\PSoC6/I2C.h **** *******************************************************************************/
 423:Generated_Source\PSoC6/I2C.h **** __STATIC_INLINE uint32_t I2C_SlaveClearReadStatus(void)
 424:Generated_Source\PSoC6/I2C.h **** {
 425:Generated_Source\PSoC6/I2C.h ****     return Cy_SCB_I2C_SlaveClearReadStatus(I2C_HW, &I2C_context);
 426:Generated_Source\PSoC6/I2C.h **** }
 427:Generated_Source\PSoC6/I2C.h **** 
 428:Generated_Source\PSoC6/I2C.h **** 
 429:Generated_Source\PSoC6/I2C.h **** /*******************************************************************************
 430:Generated_Source\PSoC6/I2C.h **** * Function Name: I2C_SlaveConfigWriteBuf
 431:Generated_Source\PSoC6/I2C.h **** ****************************************************************************//**
 432:Generated_Source\PSoC6/I2C.h **** *
 433:Generated_Source\PSoC6/I2C.h **** * Invokes the Cy_SCB_I2C_SlaveConfigWriteBuf() PDL driver function.
 434:Generated_Source\PSoC6/I2C.h **** *
 435:Generated_Source\PSoC6/I2C.h **** *******************************************************************************/
 436:Generated_Source\PSoC6/I2C.h **** __STATIC_INLINE void I2C_SlaveConfigWriteBuf(uint8_t *buffer, uint32_t size)
 437:Generated_Source\PSoC6/I2C.h **** {
 438:Generated_Source\PSoC6/I2C.h ****     Cy_SCB_I2C_SlaveConfigWriteBuf(I2C_HW, buffer, size, &I2C_context);
 439:Generated_Source\PSoC6/I2C.h **** }
 440:Generated_Source\PSoC6/I2C.h **** 
 441:Generated_Source\PSoC6/I2C.h **** 
 442:Generated_Source\PSoC6/I2C.h **** /*******************************************************************************
 443:Generated_Source\PSoC6/I2C.h **** * Function Name: I2C_SlaveAbortWrite
 444:Generated_Source\PSoC6/I2C.h **** ****************************************************************************//**
 445:Generated_Source\PSoC6/I2C.h **** *
 446:Generated_Source\PSoC6/I2C.h **** * Invokes the Cy_SCB_I2C_SlaveAbortWrite() PDL driver function.
 447:Generated_Source\PSoC6/I2C.h **** *
 448:Generated_Source\PSoC6/I2C.h **** *******************************************************************************/
ARM GAS  C:\Users\gab_1\AppData\Local\Temp\ccTtYdci.s 			page 19


 449:Generated_Source\PSoC6/I2C.h **** __STATIC_INLINE void I2C_SlaveAbortWrite(void)
 450:Generated_Source\PSoC6/I2C.h **** {
 451:Generated_Source\PSoC6/I2C.h ****     Cy_SCB_I2C_SlaveAbortWrite(I2C_HW, &I2C_context);
 452:Generated_Source\PSoC6/I2C.h **** }
 453:Generated_Source\PSoC6/I2C.h **** 
 454:Generated_Source\PSoC6/I2C.h **** 
 455:Generated_Source\PSoC6/I2C.h **** /*******************************************************************************
 456:Generated_Source\PSoC6/I2C.h **** * Function Name: I2C_SlaveGetWriteTransferCount
 457:Generated_Source\PSoC6/I2C.h **** ****************************************************************************//**
 458:Generated_Source\PSoC6/I2C.h **** *
 459:Generated_Source\PSoC6/I2C.h **** * Invokes the Cy_SCB_I2C_SlaveGetWriteTransferCount() PDL driver function.
 460:Generated_Source\PSoC6/I2C.h **** *
 461:Generated_Source\PSoC6/I2C.h **** *******************************************************************************/
 462:Generated_Source\PSoC6/I2C.h **** __STATIC_INLINE uint32_t I2C_SlaveGetWriteTransferCount(void)
 463:Generated_Source\PSoC6/I2C.h **** {
 464:Generated_Source\PSoC6/I2C.h ****     return Cy_SCB_I2C_SlaveGetWriteTransferCount(I2C_HW, &I2C_context);
 465:Generated_Source\PSoC6/I2C.h **** }
 466:Generated_Source\PSoC6/I2C.h **** 
 467:Generated_Source\PSoC6/I2C.h **** 
 468:Generated_Source\PSoC6/I2C.h **** /*******************************************************************************
 469:Generated_Source\PSoC6/I2C.h **** * Function Name: I2C_SlaveClearWriteStatus
 470:Generated_Source\PSoC6/I2C.h **** ****************************************************************************//**
 471:Generated_Source\PSoC6/I2C.h **** *
 472:Generated_Source\PSoC6/I2C.h **** * Invokes the Cy_SCB_I2C_SlaveClearWriteStatus() PDL driver function.
 473:Generated_Source\PSoC6/I2C.h **** *
 474:Generated_Source\PSoC6/I2C.h **** *******************************************************************************/
 475:Generated_Source\PSoC6/I2C.h **** __STATIC_INLINE uint32_t I2C_SlaveClearWriteStatus(void)
 476:Generated_Source\PSoC6/I2C.h **** {
 477:Generated_Source\PSoC6/I2C.h ****     return Cy_SCB_I2C_SlaveClearWriteStatus(I2C_HW, &I2C_context);
 478:Generated_Source\PSoC6/I2C.h **** }
 479:Generated_Source\PSoC6/I2C.h **** #endif /* (I2C_ENABLE_SLAVE) */
 480:Generated_Source\PSoC6/I2C.h **** 
 481:Generated_Source\PSoC6/I2C.h **** 
 482:Generated_Source\PSoC6/I2C.h **** #if (I2C_ENABLE_MASTER)
 483:Generated_Source\PSoC6/I2C.h **** /*******************************************************************************
 484:Generated_Source\PSoC6/I2C.h **** * Function Name: I2C_MasterGetStatus
 485:Generated_Source\PSoC6/I2C.h **** ****************************************************************************//**
 486:Generated_Source\PSoC6/I2C.h **** *
 487:Generated_Source\PSoC6/I2C.h **** * Invokes the Cy_SCB_I2C_MasterGetStatus() PDL driver function.
 488:Generated_Source\PSoC6/I2C.h **** *
 489:Generated_Source\PSoC6/I2C.h **** *******************************************************************************/
 490:Generated_Source\PSoC6/I2C.h **** __STATIC_INLINE uint32_t I2C_MasterGetStatus(void)
 491:Generated_Source\PSoC6/I2C.h **** {
 492:Generated_Source\PSoC6/I2C.h ****     return Cy_SCB_I2C_MasterGetStatus(I2C_HW, &I2C_context);
 493:Generated_Source\PSoC6/I2C.h **** }
 494:Generated_Source\PSoC6/I2C.h **** 
 495:Generated_Source\PSoC6/I2C.h **** 
 496:Generated_Source\PSoC6/I2C.h **** /*******************************************************************************
 497:Generated_Source\PSoC6/I2C.h **** * Function Name: I2C_MasterRead
 498:Generated_Source\PSoC6/I2C.h **** ****************************************************************************//**
 499:Generated_Source\PSoC6/I2C.h **** *
 500:Generated_Source\PSoC6/I2C.h **** * Invokes the Cy_SCB_I2C_MasterRead() PDL driver function.
 501:Generated_Source\PSoC6/I2C.h **** *
 502:Generated_Source\PSoC6/I2C.h **** *******************************************************************************/
 503:Generated_Source\PSoC6/I2C.h **** __STATIC_INLINE cy_en_scb_i2c_status_t I2C_MasterRead(cy_stc_scb_i2c_master_xfer_config_t *xferConf
 504:Generated_Source\PSoC6/I2C.h **** {
 505:Generated_Source\PSoC6/I2C.h ****     return Cy_SCB_I2C_MasterRead(I2C_HW, xferConfig, &I2C_context);
ARM GAS  C:\Users\gab_1\AppData\Local\Temp\ccTtYdci.s 			page 20


 506:Generated_Source\PSoC6/I2C.h **** }
 507:Generated_Source\PSoC6/I2C.h **** 
 508:Generated_Source\PSoC6/I2C.h **** 
 509:Generated_Source\PSoC6/I2C.h **** /*******************************************************************************
 510:Generated_Source\PSoC6/I2C.h **** * Function Name: I2C_MasterAbortRead
 511:Generated_Source\PSoC6/I2C.h **** ****************************************************************************//**
 512:Generated_Source\PSoC6/I2C.h **** *
 513:Generated_Source\PSoC6/I2C.h **** * Invokes the Cy_SCB_I2C_MasterAbortRead() PDL driver function.
 514:Generated_Source\PSoC6/I2C.h **** *
 515:Generated_Source\PSoC6/I2C.h **** ******************************************************************************/
 516:Generated_Source\PSoC6/I2C.h **** __STATIC_INLINE void I2C_MasterAbortRead(void)
 517:Generated_Source\PSoC6/I2C.h **** {
 518:Generated_Source\PSoC6/I2C.h ****     Cy_SCB_I2C_MasterAbortRead(I2C_HW, &I2C_context);
 519:Generated_Source\PSoC6/I2C.h **** }
 520:Generated_Source\PSoC6/I2C.h **** 
 521:Generated_Source\PSoC6/I2C.h **** 
 522:Generated_Source\PSoC6/I2C.h **** /*******************************************************************************
 523:Generated_Source\PSoC6/I2C.h **** * Function Name: I2C_MasterWrite
 524:Generated_Source\PSoC6/I2C.h **** ****************************************************************************//**
 525:Generated_Source\PSoC6/I2C.h **** *
 526:Generated_Source\PSoC6/I2C.h **** * Invokes the Cy_SCB_I2C_MasterWrite() PDL driver function.
 527:Generated_Source\PSoC6/I2C.h **** *
 528:Generated_Source\PSoC6/I2C.h **** *******************************************************************************/
 529:Generated_Source\PSoC6/I2C.h **** __STATIC_INLINE cy_en_scb_i2c_status_t I2C_MasterWrite(cy_stc_scb_i2c_master_xfer_config_t *xferCon
 530:Generated_Source\PSoC6/I2C.h **** {
 531:Generated_Source\PSoC6/I2C.h ****     return Cy_SCB_I2C_MasterWrite(I2C_HW, xferConfig, &I2C_context);
 532:Generated_Source\PSoC6/I2C.h **** }
 533:Generated_Source\PSoC6/I2C.h **** 
 534:Generated_Source\PSoC6/I2C.h **** 
 535:Generated_Source\PSoC6/I2C.h **** /*******************************************************************************
 536:Generated_Source\PSoC6/I2C.h **** * Function Name: I2C_MasterAbortWrite
 537:Generated_Source\PSoC6/I2C.h **** ****************************************************************************//**
 538:Generated_Source\PSoC6/I2C.h **** *
 539:Generated_Source\PSoC6/I2C.h **** * Invokes the Cy_SCB_I2C_MasterAbortWrite() PDL driver function.
 540:Generated_Source\PSoC6/I2C.h **** *
 541:Generated_Source\PSoC6/I2C.h **** *******************************************************************************/
 542:Generated_Source\PSoC6/I2C.h **** __STATIC_INLINE void I2C_MasterAbortWrite(void)
 543:Generated_Source\PSoC6/I2C.h **** {
 544:Generated_Source\PSoC6/I2C.h ****     Cy_SCB_I2C_MasterAbortWrite(I2C_HW, &I2C_context);
 545:Generated_Source\PSoC6/I2C.h **** }
 546:Generated_Source\PSoC6/I2C.h **** 
 547:Generated_Source\PSoC6/I2C.h **** 
 548:Generated_Source\PSoC6/I2C.h **** /*******************************************************************************
 549:Generated_Source\PSoC6/I2C.h **** * Function Name: I2C_MasterGetTransferCount
 550:Generated_Source\PSoC6/I2C.h **** ****************************************************************************//**
 551:Generated_Source\PSoC6/I2C.h **** *
 552:Generated_Source\PSoC6/I2C.h **** * Invokes the Cy_SCB_I2C_MasterGetTransferCount() PDL driver function.
 553:Generated_Source\PSoC6/I2C.h **** *
 554:Generated_Source\PSoC6/I2C.h **** *******************************************************************************/
 555:Generated_Source\PSoC6/I2C.h **** __STATIC_INLINE uint32_t I2C_MasterGetTransferCount(void)
 556:Generated_Source\PSoC6/I2C.h **** {
 557:Generated_Source\PSoC6/I2C.h ****     return Cy_SCB_I2C_MasterGetTransferCount(I2C_HW, &I2C_context);
 558:Generated_Source\PSoC6/I2C.h **** }
 559:Generated_Source\PSoC6/I2C.h **** 
 560:Generated_Source\PSoC6/I2C.h **** 
 561:Generated_Source\PSoC6/I2C.h **** /*******************************************************************************
 562:Generated_Source\PSoC6/I2C.h **** * Function Name: I2C_MasterSendStart
ARM GAS  C:\Users\gab_1\AppData\Local\Temp\ccTtYdci.s 			page 21


 563:Generated_Source\PSoC6/I2C.h **** ****************************************************************************//**
 564:Generated_Source\PSoC6/I2C.h **** *
 565:Generated_Source\PSoC6/I2C.h **** * Invokes the Cy_SCB_I2C_MasterSendStart() PDL driver function.
 566:Generated_Source\PSoC6/I2C.h **** *
 567:Generated_Source\PSoC6/I2C.h **** *******************************************************************************/
 568:Generated_Source\PSoC6/I2C.h **** __STATIC_INLINE cy_en_scb_i2c_status_t I2C_MasterSendStart(uint32_t address, cy_en_scb_i2c_directio
 569:Generated_Source\PSoC6/I2C.h **** {
 570:Generated_Source\PSoC6/I2C.h ****     return Cy_SCB_I2C_MasterSendStart(I2C_HW, address, bitRnW, timeoutMs, &I2C_context);
 345              		.loc 3 570 0
 346 0006 144C     		ldr	r4, .L21
 347 0008 144D     		ldr	r5, .L21+4
 348 000a 0095     		str	r5, [sp]
 349 000c 6423     		movs	r3, #100
 350 000e 0022     		movs	r2, #0
 351 0010 5721     		movs	r1, #87
 352 0012 2046     		mov	r0, r4
 353              	.LVL38:
 354 0014 FFF7FEFF 		bl	Cy_SCB_I2C_MasterSendStart
 355              	.LVL39:
 356              	.LBE72:
 357              	.LBE71:
 358              	.LBB73:
 359              	.LBB74:
 571:Generated_Source\PSoC6/I2C.h **** }
 572:Generated_Source\PSoC6/I2C.h **** 
 573:Generated_Source\PSoC6/I2C.h **** 
 574:Generated_Source\PSoC6/I2C.h **** /*******************************************************************************
 575:Generated_Source\PSoC6/I2C.h **** * Function Name: I2C_MasterSendReStart
 576:Generated_Source\PSoC6/I2C.h **** ****************************************************************************//**
 577:Generated_Source\PSoC6/I2C.h **** *
 578:Generated_Source\PSoC6/I2C.h **** * Invokes the Cy_SCB_I2C_MasterSendReStart() PDL driver function.
 579:Generated_Source\PSoC6/I2C.h **** *
 580:Generated_Source\PSoC6/I2C.h **** *******************************************************************************/
 581:Generated_Source\PSoC6/I2C.h **** __STATIC_INLINE cy_en_scb_i2c_status_t I2C_MasterSendReStart(uint32_t address, cy_en_scb_i2c_direct
 582:Generated_Source\PSoC6/I2C.h **** {
 583:Generated_Source\PSoC6/I2C.h ****     return Cy_SCB_I2C_MasterSendReStart(I2C_HW, address, bitRnW, timeoutMs, &I2C_context);
 584:Generated_Source\PSoC6/I2C.h **** }
 585:Generated_Source\PSoC6/I2C.h **** 
 586:Generated_Source\PSoC6/I2C.h **** 
 587:Generated_Source\PSoC6/I2C.h **** /*******************************************************************************
 588:Generated_Source\PSoC6/I2C.h **** * Function Name: I2C_MasterSendStop
 589:Generated_Source\PSoC6/I2C.h **** ****************************************************************************//**
 590:Generated_Source\PSoC6/I2C.h **** *
 591:Generated_Source\PSoC6/I2C.h **** * Invokes the Cy_SCB_I2C_MasterSendStop() PDL driver function.
 592:Generated_Source\PSoC6/I2C.h **** *
 593:Generated_Source\PSoC6/I2C.h **** *******************************************************************************/
 594:Generated_Source\PSoC6/I2C.h **** __STATIC_INLINE cy_en_scb_i2c_status_t I2C_MasterSendStop(uint32_t timeoutMs)
 595:Generated_Source\PSoC6/I2C.h **** {
 596:Generated_Source\PSoC6/I2C.h ****     return Cy_SCB_I2C_MasterSendStop(I2C_HW, timeoutMs, &I2C_context);
 597:Generated_Source\PSoC6/I2C.h **** }
 598:Generated_Source\PSoC6/I2C.h **** 
 599:Generated_Source\PSoC6/I2C.h **** 
 600:Generated_Source\PSoC6/I2C.h **** /*******************************************************************************
 601:Generated_Source\PSoC6/I2C.h **** * Function Name: I2C_MasterReadByte
 602:Generated_Source\PSoC6/I2C.h **** ****************************************************************************//**
 603:Generated_Source\PSoC6/I2C.h **** *
 604:Generated_Source\PSoC6/I2C.h **** * Invokes the Cy_SCB_I2C_MasterReadByte() PDL driver function.
ARM GAS  C:\Users\gab_1\AppData\Local\Temp\ccTtYdci.s 			page 22


 605:Generated_Source\PSoC6/I2C.h **** *
 606:Generated_Source\PSoC6/I2C.h **** *******************************************************************************/
 607:Generated_Source\PSoC6/I2C.h **** __STATIC_INLINE cy_en_scb_i2c_status_t I2C_MasterReadByte(cy_en_scb_i2c_command_t ackNack, uint8_t 
 608:Generated_Source\PSoC6/I2C.h **** {
 609:Generated_Source\PSoC6/I2C.h ****     return Cy_SCB_I2C_MasterReadByte(I2C_HW, ackNack, byte, timeoutMs, &I2C_context);
 610:Generated_Source\PSoC6/I2C.h **** }
 611:Generated_Source\PSoC6/I2C.h **** 
 612:Generated_Source\PSoC6/I2C.h **** 
 613:Generated_Source\PSoC6/I2C.h **** /*******************************************************************************
 614:Generated_Source\PSoC6/I2C.h **** * Function Name: I2C_MasterWriteByte
 615:Generated_Source\PSoC6/I2C.h **** ****************************************************************************//**
 616:Generated_Source\PSoC6/I2C.h **** *
 617:Generated_Source\PSoC6/I2C.h **** * Invokes the Cy_SCB_I2C_MasterWriteByte() PDL driver function.
 618:Generated_Source\PSoC6/I2C.h **** *
 619:Generated_Source\PSoC6/I2C.h **** *******************************************************************************/
 620:Generated_Source\PSoC6/I2C.h **** __STATIC_INLINE cy_en_scb_i2c_status_t I2C_MasterWriteByte(uint8_t byte, uint32_t timeoutMs)
 621:Generated_Source\PSoC6/I2C.h **** {
 622:Generated_Source\PSoC6/I2C.h ****     return Cy_SCB_I2C_MasterWriteByte(I2C_HW, byte, timeoutMs, &I2C_context);
 360              		.loc 3 622 0
 361 0018 2B46     		mov	r3, r5
 362 001a 6422     		movs	r2, #100
 363 001c 3146     		mov	r1, r6
 364 001e 2046     		mov	r0, r4
 365 0020 FFF7FEFF 		bl	Cy_SCB_I2C_MasterWriteByte
 366              	.LVL40:
 367              	.LBE74:
 368              	.LBE73:
 369              	.LBB75:
 370              	.LBB76:
 583:Generated_Source\PSoC6/I2C.h **** }
 371              		.loc 3 583 0
 372 0024 0095     		str	r5, [sp]
 373 0026 6423     		movs	r3, #100
 374 0028 0122     		movs	r2, #1
 375 002a 5721     		movs	r1, #87
 376 002c 2046     		mov	r0, r4
 377 002e FFF7FEFF 		bl	Cy_SCB_I2C_MasterSendReStart
 378              	.LVL41:
 379              	.LBE76:
 380              	.LBE75:
 109:main_cm4.c    ****     I2C_MasterSendStart( SLAVEADRESS,CY_SCB_I2C_WRITE_XFER,100);
 110:main_cm4.c    ****     I2C_MasterWriteByte(address,100);  
 111:main_cm4.c    ****     I2C_MasterSendReStart(SLAVEADRESS,CY_SCB_I2C_READ_XFER,100);
 112:main_cm4.c    ****     uint8_t regValue=0;
 381              		.loc 2 112 0
 382 0032 0021     		movs	r1, #0
 383 0034 04AA     		add	r2, sp, #16
 384 0036 02F8011D 		strb	r1, [r2, #-1]!
 385              	.LVL42:
 386              	.LBB77:
 387              	.LBB78:
 609:Generated_Source\PSoC6/I2C.h **** }
 388              		.loc 3 609 0
 389 003a 0095     		str	r5, [sp]
 390 003c 6423     		movs	r3, #100
 391 003e 2046     		mov	r0, r4
 392 0040 FFF7FEFF 		bl	Cy_SCB_I2C_MasterReadByte
ARM GAS  C:\Users\gab_1\AppData\Local\Temp\ccTtYdci.s 			page 23


 393              	.LVL43:
 394              	.LBE78:
 395              	.LBE77:
 396              	.LBB79:
 397              	.LBB80:
 596:Generated_Source\PSoC6/I2C.h **** }
 398              		.loc 3 596 0
 399 0044 2A46     		mov	r2, r5
 400 0046 6421     		movs	r1, #100
 401 0048 2046     		mov	r0, r4
 402 004a FFF7FEFF 		bl	Cy_SCB_I2C_MasterSendStop
 403              	.LVL44:
 404              	.LBE80:
 405              	.LBE79:
 113:main_cm4.c    ****     I2C_MasterReadByte(CY_SCB_I2C_MASTER_DATA_NAK,(uint8_t*)&regValue,100);
 114:main_cm4.c    ****     I2C_MasterSendStop(100);  
 115:main_cm4.c    ****     return regValue;
 116:main_cm4.c    **** }
 406              		.loc 2 116 0
 407 004e 9DF80F00 		ldrb	r0, [sp, #15]	@ zero_extendqisi2
 408 0052 04B0     		add	sp, sp, #16
 409              		.cfi_def_cfa_offset 16
 410              		@ sp needed
 411 0054 70BD     		pop	{r4, r5, r6, pc}
 412              	.L22:
 413 0056 00BF     		.align	2
 414              	.L21:
 415 0058 00006340 		.word	1080229888
 416 005c 00000000 		.word	I2C_context
 417              		.cfi_endproc
 418              	.LFE697:
 419              		.size	read_MAX30102_Register, .-read_MAX30102_Register
 420              		.section	.text.write_MAX30102_Register,"ax",%progbits
 421              		.align	2
 422              		.global	write_MAX30102_Register
 423              		.thumb
 424              		.thumb_func
 425              		.type	write_MAX30102_Register, %function
 426              	write_MAX30102_Register:
 427              	.LFB698:
 117:main_cm4.c    **** 
 118:main_cm4.c    **** void write_MAX30102_Register(uint8_t address, uint8_t data)
 119:main_cm4.c    **** { 
 428              		.loc 2 119 0
 429              		.cfi_startproc
 430              		@ args = 0, pretend = 0, frame = 0
 431              		@ frame_needed = 0, uses_anonymous_args = 0
 432              	.LVL45:
 433 0000 F0B5     		push	{r4, r5, r6, r7, lr}
 434              		.cfi_def_cfa_offset 20
 435              		.cfi_offset 4, -20
 436              		.cfi_offset 5, -16
 437              		.cfi_offset 6, -12
 438              		.cfi_offset 7, -8
 439              		.cfi_offset 14, -4
 440 0002 83B0     		sub	sp, sp, #12
 441              		.cfi_def_cfa_offset 32
ARM GAS  C:\Users\gab_1\AppData\Local\Temp\ccTtYdci.s 			page 24


 442 0004 0746     		mov	r7, r0
 443 0006 0E46     		mov	r6, r1
 444              	.LVL46:
 445              	.LBB81:
 446              	.LBB82:
 570:Generated_Source\PSoC6/I2C.h **** }
 447              		.loc 3 570 0
 448 0008 0D4C     		ldr	r4, .L25
 449 000a 0E4D     		ldr	r5, .L25+4
 450 000c 0095     		str	r5, [sp]
 451 000e 6423     		movs	r3, #100
 452 0010 0022     		movs	r2, #0
 453 0012 5721     		movs	r1, #87
 454              	.LVL47:
 455 0014 2046     		mov	r0, r4
 456              	.LVL48:
 457 0016 FFF7FEFF 		bl	Cy_SCB_I2C_MasterSendStart
 458              	.LVL49:
 459              	.LBE82:
 460              	.LBE81:
 461              	.LBB83:
 462              	.LBB84:
 463              		.loc 3 622 0
 464 001a 2B46     		mov	r3, r5
 465 001c 6422     		movs	r2, #100
 466 001e 3946     		mov	r1, r7
 467 0020 2046     		mov	r0, r4
 468 0022 FFF7FEFF 		bl	Cy_SCB_I2C_MasterWriteByte
 469              	.LVL50:
 470              	.LBE84:
 471              	.LBE83:
 472              	.LBB85:
 473              	.LBB86:
 474 0026 2B46     		mov	r3, r5
 475 0028 6422     		movs	r2, #100
 476 002a 3146     		mov	r1, r6
 477 002c 2046     		mov	r0, r4
 478 002e FFF7FEFF 		bl	Cy_SCB_I2C_MasterWriteByte
 479              	.LVL51:
 480              	.LBE86:
 481              	.LBE85:
 482              	.LBB87:
 483              	.LBB88:
 596:Generated_Source\PSoC6/I2C.h **** }
 484              		.loc 3 596 0
 485 0032 2A46     		mov	r2, r5
 486 0034 6421     		movs	r1, #100
 487 0036 2046     		mov	r0, r4
 488 0038 FFF7FEFF 		bl	Cy_SCB_I2C_MasterSendStop
 489              	.LVL52:
 490              	.LBE88:
 491              	.LBE87:
 120:main_cm4.c    ****     I2C_MasterSendStart(SLAVEADRESS,CY_SCB_I2C_WRITE_XFER,100);
 121:main_cm4.c    ****     I2C_MasterWriteByte(address,100);        
 122:main_cm4.c    ****     I2C_MasterWriteByte(data,100);         
 123:main_cm4.c    ****     I2C_MasterSendStop(100);   
 124:main_cm4.c    ****     
ARM GAS  C:\Users\gab_1\AppData\Local\Temp\ccTtYdci.s 			page 25


 125:main_cm4.c    **** }
 492              		.loc 2 125 0
 493 003c 03B0     		add	sp, sp, #12
 494              		.cfi_def_cfa_offset 20
 495              		@ sp needed
 496 003e F0BD     		pop	{r4, r5, r6, r7, pc}
 497              	.L26:
 498              		.align	2
 499              	.L25:
 500 0040 00006340 		.word	1080229888
 501 0044 00000000 		.word	I2C_context
 502              		.cfi_endproc
 503              	.LFE698:
 504              		.size	write_MAX30102_Register, .-write_MAX30102_Register
 505              		.section	.text.burstRead_MAX30102,"ax",%progbits
 506              		.align	2
 507              		.global	burstRead_MAX30102
 508              		.thumb
 509              		.thumb_func
 510              		.type	burstRead_MAX30102, %function
 511              	burstRead_MAX30102:
 512              	.LFB699:
 126:main_cm4.c    **** 
 127:main_cm4.c    **** void burstRead_MAX30102(uint8_t baseAddress, uint8_t *buffer, uint8_t length)
 128:main_cm4.c    **** {
 513              		.loc 2 128 0
 514              		.cfi_startproc
 515              		@ args = 0, pretend = 0, frame = 0
 516              		@ frame_needed = 0, uses_anonymous_args = 0
 517              	.LVL53:
 518 0000 2DE9F041 		push	{r4, r5, r6, r7, r8, lr}
 519              		.cfi_def_cfa_offset 24
 520              		.cfi_offset 4, -24
 521              		.cfi_offset 5, -20
 522              		.cfi_offset 6, -16
 523              		.cfi_offset 7, -12
 524              		.cfi_offset 8, -8
 525              		.cfi_offset 14, -4
 526 0004 82B0     		sub	sp, sp, #8
 527              		.cfi_def_cfa_offset 32
 528 0006 8046     		mov	r8, r0
 529 0008 0D46     		mov	r5, r1
 530 000a 1646     		mov	r6, r2
 531              	.LVL54:
 532              	.LBB89:
 533              	.LBB90:
 570:Generated_Source\PSoC6/I2C.h **** }
 534              		.loc 3 570 0
 535 000c 1A4C     		ldr	r4, .L31
 536 000e 1B4F     		ldr	r7, .L31+4
 537 0010 0097     		str	r7, [sp]
 538 0012 6423     		movs	r3, #100
 539 0014 0022     		movs	r2, #0
 540              	.LVL55:
 541 0016 5721     		movs	r1, #87
 542              	.LVL56:
 543 0018 2046     		mov	r0, r4
ARM GAS  C:\Users\gab_1\AppData\Local\Temp\ccTtYdci.s 			page 26


 544              	.LVL57:
 545 001a FFF7FEFF 		bl	Cy_SCB_I2C_MasterSendStart
 546              	.LVL58:
 547              	.LBE90:
 548              	.LBE89:
 549              	.LBB91:
 550              	.LBB92:
 551              		.loc 3 622 0
 552 001e 3B46     		mov	r3, r7
 553 0020 6422     		movs	r2, #100
 554 0022 4146     		mov	r1, r8
 555 0024 2046     		mov	r0, r4
 556 0026 FFF7FEFF 		bl	Cy_SCB_I2C_MasterWriteByte
 557              	.LVL59:
 558              	.LBE92:
 559              	.LBE91:
 560              	.LBB93:
 561              	.LBB94:
 583:Generated_Source\PSoC6/I2C.h **** }
 562              		.loc 3 583 0
 563 002a 0097     		str	r7, [sp]
 564 002c 6423     		movs	r3, #100
 565 002e 0122     		movs	r2, #1
 566 0030 5721     		movs	r1, #87
 567 0032 2046     		mov	r0, r4
 568 0034 FFF7FEFF 		bl	Cy_SCB_I2C_MasterSendReStart
 569              	.LVL60:
 570              	.LBE94:
 571              	.LBE93:
 129:main_cm4.c    ****         I2C_MasterSendStart( SLAVEADRESS,CY_SCB_I2C_WRITE_XFER,100); 
 130:main_cm4.c    ****         I2C_MasterWriteByte(baseAddress,100);       
 131:main_cm4.c    ****         I2C_MasterSendReStart( SLAVEADRESS,CY_SCB_I2C_READ_XFER,100);
 132:main_cm4.c    ****         uint8_t idx = 0;
 133:main_cm4.c    ****         for(idx=0 ; idx < length-1 ; idx++){ 
 572              		.loc 2 133 0
 573 0038 0024     		movs	r4, #0
 574 003a 09E0     		b	.L28
 575              	.LVL61:
 576              	.L29:
 577              	.LBB95:
 578              	.LBB96:
 609:Generated_Source\PSoC6/I2C.h **** }
 579              		.loc 3 609 0 discriminator 3
 580 003c 0F4B     		ldr	r3, .L31+4
 581 003e 0093     		str	r3, [sp]
 582 0040 6423     		movs	r3, #100
 583 0042 2A19     		adds	r2, r5, r4
 584              	.LVL62:
 585 0044 0021     		movs	r1, #0
 586 0046 0C48     		ldr	r0, .L31
 587 0048 FFF7FEFF 		bl	Cy_SCB_I2C_MasterReadByte
 588              	.LVL63:
 589              	.LBE96:
 590              	.LBE95:
 591              		.loc 2 133 0 discriminator 3
 592 004c 0134     		adds	r4, r4, #1
 593              	.LVL64:
ARM GAS  C:\Users\gab_1\AppData\Local\Temp\ccTtYdci.s 			page 27


 594 004e E4B2     		uxtb	r4, r4
 595              	.LVL65:
 596              	.L28:
 597              		.loc 2 133 0 is_stmt 0 discriminator 1
 598 0050 731E     		subs	r3, r6, #1
 599 0052 9C42     		cmp	r4, r3
 600 0054 F2DB     		blt	.L29
 601              	.LVL66:
 602              	.LBB97:
 603              	.LBB98:
 609:Generated_Source\PSoC6/I2C.h **** }
 604              		.loc 3 609 0 is_stmt 1
 605 0056 084E     		ldr	r6, .L31
 606 0058 084F     		ldr	r7, .L31+4
 607 005a 0097     		str	r7, [sp]
 608 005c 6423     		movs	r3, #100
 609 005e 2A19     		adds	r2, r5, r4
 610              	.LVL67:
 611 0060 0121     		movs	r1, #1
 612 0062 3046     		mov	r0, r6
 613 0064 FFF7FEFF 		bl	Cy_SCB_I2C_MasterReadByte
 614              	.LVL68:
 615              	.LBE98:
 616              	.LBE97:
 617              	.LBB99:
 618              	.LBB100:
 596:Generated_Source\PSoC6/I2C.h **** }
 619              		.loc 3 596 0
 620 0068 3A46     		mov	r2, r7
 621 006a 6421     		movs	r1, #100
 622 006c 3046     		mov	r0, r6
 623 006e FFF7FEFF 		bl	Cy_SCB_I2C_MasterSendStop
 624              	.LVL69:
 625              	.LBE100:
 626              	.LBE99:
 134:main_cm4.c    ****             I2C_MasterReadByte(CY_SCB_I2C_ACK,(uint8_t*)&buffer[idx],100);  
 135:main_cm4.c    ****         }
 136:main_cm4.c    ****         I2C_MasterReadByte(CY_SCB_I2C_NAK,(uint8_t*)&buffer[idx],100);
 137:main_cm4.c    ****         I2C_MasterSendStop(100); 
 138:main_cm4.c    ****      //   UART_1_PutString("hello5\r\n");
 139:main_cm4.c    **** }
 627              		.loc 2 139 0
 628 0072 02B0     		add	sp, sp, #8
 629              		.cfi_def_cfa_offset 24
 630              		@ sp needed
 631 0074 BDE8F081 		pop	{r4, r5, r6, r7, r8, pc}
 632              	.LVL70:
 633              	.L32:
 634              		.align	2
 635              	.L31:
 636 0078 00006340 		.word	1080229888
 637 007c 00000000 		.word	I2C_context
 638              		.cfi_endproc
 639              	.LFE699:
 640              		.size	burstRead_MAX30102, .-burstRead_MAX30102
 641              		.section	.text.read_FIFO_DATA,"ax",%progbits
 642              		.align	2
ARM GAS  C:\Users\gab_1\AppData\Local\Temp\ccTtYdci.s 			page 28


 643              		.global	read_FIFO_DATA
 644              		.thumb
 645              		.thumb_func
 646              		.type	read_FIFO_DATA, %function
 647              	read_FIFO_DATA:
 648              	.LFB700:
 140:main_cm4.c    **** 
 141:main_cm4.c    **** void read_FIFO_DATA(uint32_t *bufferR, uint32_t* bufferIR){
 649              		.loc 2 141 0
 650              		.cfi_startproc
 651              		@ args = 0, pretend = 0, frame = 8
 652              		@ frame_needed = 0, uses_anonymous_args = 0
 653              	.LVL71:
 654 0000 30B5     		push	{r4, r5, lr}
 655              		.cfi_def_cfa_offset 12
 656              		.cfi_offset 4, -12
 657              		.cfi_offset 5, -8
 658              		.cfi_offset 14, -4
 659 0002 83B0     		sub	sp, sp, #12
 660              		.cfi_def_cfa_offset 24
 661 0004 0546     		mov	r5, r0
 662 0006 0C46     		mov	r4, r1
 142:main_cm4.c    ****         
 143:main_cm4.c    ****     uint8_t buffer[6];
 144:main_cm4.c    ****     
 145:main_cm4.c    ****     burstRead_MAX30102(REG_FIFO_DATA, buffer, 6); 
 663              		.loc 2 145 0
 664 0008 0622     		movs	r2, #6
 665 000a 6946     		mov	r1, sp
 666              	.LVL72:
 667 000c 0720     		movs	r0, #7
 668              	.LVL73:
 669 000e FFF7FEFF 		bl	burstRead_MAX30102
 670              	.LVL74:
 671              	.LBB105:
 672              	.LBB106:
 673              	.LBB107:
 674              		.file 4 "Generated_Source\\PSoC6\\pdl\\drivers/peripheral/scb/cy_scb_uart.h"
   1:Generated_Source\PSoC6\pdl\drivers/peripheral/scb/cy_scb_uart.h **** /***************************************************************************//**
   2:Generated_Source\PSoC6\pdl\drivers/peripheral/scb/cy_scb_uart.h **** * \file cy_scb_uart.h
   3:Generated_Source\PSoC6\pdl\drivers/peripheral/scb/cy_scb_uart.h **** * \version 2.20
   4:Generated_Source\PSoC6\pdl\drivers/peripheral/scb/cy_scb_uart.h **** *
   5:Generated_Source\PSoC6\pdl\drivers/peripheral/scb/cy_scb_uart.h **** * Provides UART API declarations of the SCB driver.
   6:Generated_Source\PSoC6\pdl\drivers/peripheral/scb/cy_scb_uart.h **** *
   7:Generated_Source\PSoC6\pdl\drivers/peripheral/scb/cy_scb_uart.h **** ********************************************************************************
   8:Generated_Source\PSoC6\pdl\drivers/peripheral/scb/cy_scb_uart.h **** * \copyright
   9:Generated_Source\PSoC6\pdl\drivers/peripheral/scb/cy_scb_uart.h **** * Copyright 2016-2018, Cypress Semiconductor Corporation.  All rights reserved.
  10:Generated_Source\PSoC6\pdl\drivers/peripheral/scb/cy_scb_uart.h **** * You may use this file only in accordance with the license, terms, conditions,
  11:Generated_Source\PSoC6\pdl\drivers/peripheral/scb/cy_scb_uart.h **** * disclaimers, and limitations in the end user license agreement accompanying
  12:Generated_Source\PSoC6\pdl\drivers/peripheral/scb/cy_scb_uart.h **** * the software package with which this file was provided.
  13:Generated_Source\PSoC6\pdl\drivers/peripheral/scb/cy_scb_uart.h **** *******************************************************************************/
  14:Generated_Source\PSoC6\pdl\drivers/peripheral/scb/cy_scb_uart.h **** 
  15:Generated_Source\PSoC6\pdl\drivers/peripheral/scb/cy_scb_uart.h **** /**
  16:Generated_Source\PSoC6\pdl\drivers/peripheral/scb/cy_scb_uart.h **** * \addtogroup group_scb_uart
  17:Generated_Source\PSoC6\pdl\drivers/peripheral/scb/cy_scb_uart.h **** * \{
  18:Generated_Source\PSoC6\pdl\drivers/peripheral/scb/cy_scb_uart.h **** * Driver API for UART
  19:Generated_Source\PSoC6\pdl\drivers/peripheral/scb/cy_scb_uart.h **** *
ARM GAS  C:\Users\gab_1\AppData\Local\Temp\ccTtYdci.s 			page 29


  20:Generated_Source\PSoC6\pdl\drivers/peripheral/scb/cy_scb_uart.h **** * The functions and other declarations used in this part of the driver are in 
  21:Generated_Source\PSoC6\pdl\drivers/peripheral/scb/cy_scb_uart.h **** * cy_scb_uart.h. You can also include cy_pdl.h (ModusToolbox only) to get access 
  22:Generated_Source\PSoC6\pdl\drivers/peripheral/scb/cy_scb_uart.h **** * to all functions and declarations in the PDL.
  23:Generated_Source\PSoC6\pdl\drivers/peripheral/scb/cy_scb_uart.h **** *
  24:Generated_Source\PSoC6\pdl\drivers/peripheral/scb/cy_scb_uart.h **** * The Universal Asynchronous Receiver/Transmitter (UART) protocol is an 
  25:Generated_Source\PSoC6\pdl\drivers/peripheral/scb/cy_scb_uart.h **** * asynchronous serial interface protocol. UART communication is typically 
  26:Generated_Source\PSoC6\pdl\drivers/peripheral/scb/cy_scb_uart.h **** * point-to-point. The UART interface consists of two signals:
  27:Generated_Source\PSoC6\pdl\drivers/peripheral/scb/cy_scb_uart.h **** * * TX: Transmitter output
  28:Generated_Source\PSoC6\pdl\drivers/peripheral/scb/cy_scb_uart.h **** * * RX: Receiver input
  29:Generated_Source\PSoC6\pdl\drivers/peripheral/scb/cy_scb_uart.h **** *
  30:Generated_Source\PSoC6\pdl\drivers/peripheral/scb/cy_scb_uart.h **** * Additionally, two side-band signals are used to implement flow control in 
  31:Generated_Source\PSoC6\pdl\drivers/peripheral/scb/cy_scb_uart.h **** * UART. Note that the flow control applies only to TX functionality.
  32:Generated_Source\PSoC6\pdl\drivers/peripheral/scb/cy_scb_uart.h **** * * Clear to Send (CTS): This is an input signal to the transmitter. 
  33:Generated_Source\PSoC6\pdl\drivers/peripheral/scb/cy_scb_uart.h **** *   When active, it indicates that the slave is ready for the master to 
  34:Generated_Source\PSoC6\pdl\drivers/peripheral/scb/cy_scb_uart.h **** *   transmit data.
  35:Generated_Source\PSoC6\pdl\drivers/peripheral/scb/cy_scb_uart.h **** * * Ready to Send (RTS): This is an output signal from the receiver. When 
  36:Generated_Source\PSoC6\pdl\drivers/peripheral/scb/cy_scb_uart.h **** *   active, it indicates that the receiver is ready to receive data
  37:Generated_Source\PSoC6\pdl\drivers/peripheral/scb/cy_scb_uart.h **** *
  38:Generated_Source\PSoC6\pdl\drivers/peripheral/scb/cy_scb_uart.h **** * Features:
  39:Generated_Source\PSoC6\pdl\drivers/peripheral/scb/cy_scb_uart.h **** * * Supports UART protocol
  40:Generated_Source\PSoC6\pdl\drivers/peripheral/scb/cy_scb_uart.h **** *   * Standard UART
  41:Generated_Source\PSoC6\pdl\drivers/peripheral/scb/cy_scb_uart.h **** *   * Multi-processor mode
  42:Generated_Source\PSoC6\pdl\drivers/peripheral/scb/cy_scb_uart.h **** * * SmartCard (ISO7816) reader
  43:Generated_Source\PSoC6\pdl\drivers/peripheral/scb/cy_scb_uart.h **** * * IrDA
  44:Generated_Source\PSoC6\pdl\drivers/peripheral/scb/cy_scb_uart.h **** * * Data frame size programmable from 4 to 16 bits
  45:Generated_Source\PSoC6\pdl\drivers/peripheral/scb/cy_scb_uart.h **** * * Programmable number of STOP bits, which can be set in terms of half bit 
  46:Generated_Source\PSoC6\pdl\drivers/peripheral/scb/cy_scb_uart.h **** *   periods between 1 and 4
  47:Generated_Source\PSoC6\pdl\drivers/peripheral/scb/cy_scb_uart.h **** * * Parity support (odd and even parity)
  48:Generated_Source\PSoC6\pdl\drivers/peripheral/scb/cy_scb_uart.h **** * * Median filter on Rx input
  49:Generated_Source\PSoC6\pdl\drivers/peripheral/scb/cy_scb_uart.h **** * * Programmable oversampling
  50:Generated_Source\PSoC6\pdl\drivers/peripheral/scb/cy_scb_uart.h **** * * Start skipping
  51:Generated_Source\PSoC6\pdl\drivers/peripheral/scb/cy_scb_uart.h **** *
  52:Generated_Source\PSoC6\pdl\drivers/peripheral/scb/cy_scb_uart.h **** ********************************************************************************
  53:Generated_Source\PSoC6\pdl\drivers/peripheral/scb/cy_scb_uart.h **** * \section group_scb_uart_configuration Configuration Considerations
  54:Generated_Source\PSoC6\pdl\drivers/peripheral/scb/cy_scb_uart.h **** ********************************************************************************
  55:Generated_Source\PSoC6\pdl\drivers/peripheral/scb/cy_scb_uart.h **** * The UART driver configuration can be divided to number of sequential
  56:Generated_Source\PSoC6\pdl\drivers/peripheral/scb/cy_scb_uart.h **** * steps listed below:
  57:Generated_Source\PSoC6\pdl\drivers/peripheral/scb/cy_scb_uart.h **** * * \ref group_scb_uart_config
  58:Generated_Source\PSoC6\pdl\drivers/peripheral/scb/cy_scb_uart.h **** * * \ref group_scb_uart_pins
  59:Generated_Source\PSoC6\pdl\drivers/peripheral/scb/cy_scb_uart.h **** * * \ref group_scb_uart_clock
  60:Generated_Source\PSoC6\pdl\drivers/peripheral/scb/cy_scb_uart.h **** * * \ref group_scb_uart_data_rate
  61:Generated_Source\PSoC6\pdl\drivers/peripheral/scb/cy_scb_uart.h **** * * \ref group_scb_uart_intr
  62:Generated_Source\PSoC6\pdl\drivers/peripheral/scb/cy_scb_uart.h **** * * \ref group_scb_uart_enable
  63:Generated_Source\PSoC6\pdl\drivers/peripheral/scb/cy_scb_uart.h **** *
  64:Generated_Source\PSoC6\pdl\drivers/peripheral/scb/cy_scb_uart.h **** * \note
  65:Generated_Source\PSoC6\pdl\drivers/peripheral/scb/cy_scb_uart.h **** * UART driver is built on top of the SCB hardware block. The SCB5 instance is
  66:Generated_Source\PSoC6\pdl\drivers/peripheral/scb/cy_scb_uart.h **** * used as an example for all code snippets. Modify the code to match your
  67:Generated_Source\PSoC6\pdl\drivers/peripheral/scb/cy_scb_uart.h **** * design.
  68:Generated_Source\PSoC6\pdl\drivers/peripheral/scb/cy_scb_uart.h **** *
  69:Generated_Source\PSoC6\pdl\drivers/peripheral/scb/cy_scb_uart.h **** ********************************************************************************
  70:Generated_Source\PSoC6\pdl\drivers/peripheral/scb/cy_scb_uart.h **** * \subsection group_scb_uart_config Configure UART
  71:Generated_Source\PSoC6\pdl\drivers/peripheral/scb/cy_scb_uart.h **** ********************************************************************************
  72:Generated_Source\PSoC6\pdl\drivers/peripheral/scb/cy_scb_uart.h **** * To set up the UART driver, provide the configuration parameters in the
  73:Generated_Source\PSoC6\pdl\drivers/peripheral/scb/cy_scb_uart.h **** * \ref cy_stc_scb_uart_config_t structure. For example: provide uartMode,
  74:Generated_Source\PSoC6\pdl\drivers/peripheral/scb/cy_scb_uart.h **** * oversample, dataWidth, enableMsbFirst, parity, and stopBits. The other
  75:Generated_Source\PSoC6\pdl\drivers/peripheral/scb/cy_scb_uart.h **** * parameters are optional. To initialize the driver, call \ref Cy_SCB_UART_Init 
  76:Generated_Source\PSoC6\pdl\drivers/peripheral/scb/cy_scb_uart.h **** * function providing a pointer to the populated \ref cy_stc_scb_uart_config_t 
ARM GAS  C:\Users\gab_1\AppData\Local\Temp\ccTtYdci.s 			page 30


  77:Generated_Source\PSoC6\pdl\drivers/peripheral/scb/cy_scb_uart.h **** * structure and the allocated \ref cy_stc_scb_uart_context_t structure.
  78:Generated_Source\PSoC6\pdl\drivers/peripheral/scb/cy_scb_uart.h **** *
  79:Generated_Source\PSoC6\pdl\drivers/peripheral/scb/cy_scb_uart.h **** * \snippet SCB_CompDatasheet_sut_01_revA.cydsn\uart_snippets.c UART_CFG
  80:Generated_Source\PSoC6\pdl\drivers/peripheral/scb/cy_scb_uart.h **** *
  81:Generated_Source\PSoC6\pdl\drivers/peripheral/scb/cy_scb_uart.h **** ********************************************************************************
  82:Generated_Source\PSoC6\pdl\drivers/peripheral/scb/cy_scb_uart.h **** * \subsection group_scb_uart_pins Assign and Configure Pins
  83:Generated_Source\PSoC6\pdl\drivers/peripheral/scb/cy_scb_uart.h **** ********************************************************************************
  84:Generated_Source\PSoC6\pdl\drivers/peripheral/scb/cy_scb_uart.h **** * Only dedicated SCB pins can be used for UART operation. The HSIOM
  85:Generated_Source\PSoC6\pdl\drivers/peripheral/scb/cy_scb_uart.h **** * register must be configured to connect dedicated SCB UART pins to the 
  86:Generated_Source\PSoC6\pdl\drivers/peripheral/scb/cy_scb_uart.h **** * SCB block. Also, the UART output pins must be configured in Strong Drive 
  87:Generated_Source\PSoC6\pdl\drivers/peripheral/scb/cy_scb_uart.h **** * Input Off mode and UART input pins in Digital High-Z:
  88:Generated_Source\PSoC6\pdl\drivers/peripheral/scb/cy_scb_uart.h **** *
  89:Generated_Source\PSoC6\pdl\drivers/peripheral/scb/cy_scb_uart.h **** * \snippet SCB_CompDatasheet_sut_01_revA.cydsn\uart_snippets.c UART_CFG_PINS
  90:Generated_Source\PSoC6\pdl\drivers/peripheral/scb/cy_scb_uart.h **** *
  91:Generated_Source\PSoC6\pdl\drivers/peripheral/scb/cy_scb_uart.h **** ********************************************************************************
  92:Generated_Source\PSoC6\pdl\drivers/peripheral/scb/cy_scb_uart.h **** * \subsection group_scb_uart_clock Assign Clock Divider
  93:Generated_Source\PSoC6\pdl\drivers/peripheral/scb/cy_scb_uart.h **** ********************************************************************************
  94:Generated_Source\PSoC6\pdl\drivers/peripheral/scb/cy_scb_uart.h **** * A clock source must be connected to the SCB block to oversample input and
  95:Generated_Source\PSoC6\pdl\drivers/peripheral/scb/cy_scb_uart.h **** * output signals, in this document this clock will be referred as clk_scb.
  96:Generated_Source\PSoC6\pdl\drivers/peripheral/scb/cy_scb_uart.h **** * You must use one of available integer or fractional dividers. Use the 
  97:Generated_Source\PSoC6\pdl\drivers/peripheral/scb/cy_scb_uart.h **** * \ref group_sysclk driver API to do this.
  98:Generated_Source\PSoC6\pdl\drivers/peripheral/scb/cy_scb_uart.h **** *
  99:Generated_Source\PSoC6\pdl\drivers/peripheral/scb/cy_scb_uart.h **** * \snippet SCB_CompDatasheet_sut_01_revA.cydsn\uart_snippets.c UART_CFG_ASSIGN_CLOCK
 100:Generated_Source\PSoC6\pdl\drivers/peripheral/scb/cy_scb_uart.h **** *
 101:Generated_Source\PSoC6\pdl\drivers/peripheral/scb/cy_scb_uart.h **** ********************************************************************************
 102:Generated_Source\PSoC6\pdl\drivers/peripheral/scb/cy_scb_uart.h **** * \subsection group_scb_uart_data_rate Configure Baud Rate
 103:Generated_Source\PSoC6\pdl\drivers/peripheral/scb/cy_scb_uart.h **** ********************************************************************************
 104:Generated_Source\PSoC6\pdl\drivers/peripheral/scb/cy_scb_uart.h **** * To get the UART to operate with the desired baud rate, the clk_scb frequency
 105:Generated_Source\PSoC6\pdl\drivers/peripheral/scb/cy_scb_uart.h **** * and the oversample must be configured. Use the \ref group_sysclk driver API
 106:Generated_Source\PSoC6\pdl\drivers/peripheral/scb/cy_scb_uart.h **** * to configure clk_scb frequency. Set the <em><b>oversample parameter
 107:Generated_Source\PSoC6\pdl\drivers/peripheral/scb/cy_scb_uart.h **** * in configuration structure</b></em> to define the number of the SCB clocks
 108:Generated_Source\PSoC6\pdl\drivers/peripheral/scb/cy_scb_uart.h **** * within one UART bit-time.
 109:Generated_Source\PSoC6\pdl\drivers/peripheral/scb/cy_scb_uart.h **** *
 110:Generated_Source\PSoC6\pdl\drivers/peripheral/scb/cy_scb_uart.h **** * \snippet SCB_CompDatasheet_sut_01_revA.cydsn\uart_snippets.c UART_CFG_DATA_RATE
 111:Generated_Source\PSoC6\pdl\drivers/peripheral/scb/cy_scb_uart.h **** *
 112:Generated_Source\PSoC6\pdl\drivers/peripheral/scb/cy_scb_uart.h **** * <b>Refer to the technical reference manual (TRM) section UART sub-section
 113:Generated_Source\PSoC6\pdl\drivers/peripheral/scb/cy_scb_uart.h **** * Clocking and Oversampling to get information about how to configure the UART to run with
 114:Generated_Source\PSoC6\pdl\drivers/peripheral/scb/cy_scb_uart.h **** * desired baud rate.</b>
 115:Generated_Source\PSoC6\pdl\drivers/peripheral/scb/cy_scb_uart.h **** *
 116:Generated_Source\PSoC6\pdl\drivers/peripheral/scb/cy_scb_uart.h **** ********************************************************************************
 117:Generated_Source\PSoC6\pdl\drivers/peripheral/scb/cy_scb_uart.h **** * \subsection group_scb_uart_intr Configure Interrupt
 118:Generated_Source\PSoC6\pdl\drivers/peripheral/scb/cy_scb_uart.h **** ********************************************************************************
 119:Generated_Source\PSoC6\pdl\drivers/peripheral/scb/cy_scb_uart.h **** * The interrupt is optional for the UART operation. To configure interrupt
 120:Generated_Source\PSoC6\pdl\drivers/peripheral/scb/cy_scb_uart.h **** * the \ref Cy_SCB_UART_Interrupt function must be called in the interrupt
 121:Generated_Source\PSoC6\pdl\drivers/peripheral/scb/cy_scb_uart.h **** * handler for the selected SCB instance. Also, this interrupt must be enabled
 122:Generated_Source\PSoC6\pdl\drivers/peripheral/scb/cy_scb_uart.h **** * in the NVIC.
 123:Generated_Source\PSoC6\pdl\drivers/peripheral/scb/cy_scb_uart.h **** * The interrupt must be configured when \ref group_scb_uart_hl will be used.
 124:Generated_Source\PSoC6\pdl\drivers/peripheral/scb/cy_scb_uart.h **** *
 125:Generated_Source\PSoC6\pdl\drivers/peripheral/scb/cy_scb_uart.h **** * \snippet SCB_CompDatasheet_sut_01_revA.cydsn\uart_snippets.c UART_INTR_A
 126:Generated_Source\PSoC6\pdl\drivers/peripheral/scb/cy_scb_uart.h **** * \snippet SCB_CompDatasheet_sut_01_revA.cydsn\uart_snippets.c UART_INTR_B
 127:Generated_Source\PSoC6\pdl\drivers/peripheral/scb/cy_scb_uart.h **** *
 128:Generated_Source\PSoC6\pdl\drivers/peripheral/scb/cy_scb_uart.h **** ********************************************************************************
 129:Generated_Source\PSoC6\pdl\drivers/peripheral/scb/cy_scb_uart.h **** * \subsection group_scb_uart_enable Enable UART
 130:Generated_Source\PSoC6\pdl\drivers/peripheral/scb/cy_scb_uart.h **** ********************************************************************************
 131:Generated_Source\PSoC6\pdl\drivers/peripheral/scb/cy_scb_uart.h **** * Finally, enable the UART operation by calling \ref Cy_SCB_UART_Enable.
 132:Generated_Source\PSoC6\pdl\drivers/peripheral/scb/cy_scb_uart.h **** *
 133:Generated_Source\PSoC6\pdl\drivers/peripheral/scb/cy_scb_uart.h **** * \snippet SCB_CompDatasheet_sut_01_revA.cydsn\uart_snippets.c UART_ENABLE
ARM GAS  C:\Users\gab_1\AppData\Local\Temp\ccTtYdci.s 			page 31


 134:Generated_Source\PSoC6\pdl\drivers/peripheral/scb/cy_scb_uart.h **** *
 135:Generated_Source\PSoC6\pdl\drivers/peripheral/scb/cy_scb_uart.h **** ********************************************************************************
 136:Generated_Source\PSoC6\pdl\drivers/peripheral/scb/cy_scb_uart.h **** * \section group_scb_uart_use_cases Common Use Cases
 137:Generated_Source\PSoC6\pdl\drivers/peripheral/scb/cy_scb_uart.h **** ********************************************************************************
 138:Generated_Source\PSoC6\pdl\drivers/peripheral/scb/cy_scb_uart.h **** * The UART API is divided into two categories: \ref group_scb_uart_low_level_functions
 139:Generated_Source\PSoC6\pdl\drivers/peripheral/scb/cy_scb_uart.h **** * and \ref group_scb_uart_high_level_functions. \n
 140:Generated_Source\PSoC6\pdl\drivers/peripheral/scb/cy_scb_uart.h **** * <em>Do not mix <b>High-Level</b> and <b>Low-Level</b> API because a Low-Level
 141:Generated_Source\PSoC6\pdl\drivers/peripheral/scb/cy_scb_uart.h **** * API can adversely affect the operation of a High-Level API.</em>
 142:Generated_Source\PSoC6\pdl\drivers/peripheral/scb/cy_scb_uart.h **** *
 143:Generated_Source\PSoC6\pdl\drivers/peripheral/scb/cy_scb_uart.h **** ********************************************************************************
 144:Generated_Source\PSoC6\pdl\drivers/peripheral/scb/cy_scb_uart.h **** * \subsection group_scb_uart_ll Low-Level API
 145:Generated_Source\PSoC6\pdl\drivers/peripheral/scb/cy_scb_uart.h **** ********************************************************************************
 146:Generated_Source\PSoC6\pdl\drivers/peripheral/scb/cy_scb_uart.h **** * The \ref group_scb_uart_low_level_functions functions allow
 147:Generated_Source\PSoC6\pdl\drivers/peripheral/scb/cy_scb_uart.h **** * interacting directly with the hardware and do not use \ref Cy_SCB_UART_Interrupt.
 148:Generated_Source\PSoC6\pdl\drivers/peripheral/scb/cy_scb_uart.h **** * These functions do not require context for operation. Thus, NULL can be
 149:Generated_Source\PSoC6\pdl\drivers/peripheral/scb/cy_scb_uart.h **** * passed for context parameter in \ref Cy_SCB_UART_Init and \ref Cy_SCB_UART_Disable 
 150:Generated_Source\PSoC6\pdl\drivers/peripheral/scb/cy_scb_uart.h **** * instead of a pointer to the context structure.
 151:Generated_Source\PSoC6\pdl\drivers/peripheral/scb/cy_scb_uart.h **** *
 152:Generated_Source\PSoC6\pdl\drivers/peripheral/scb/cy_scb_uart.h **** * * To write data into the TX FIFO, use one of the provided functions:
 153:Generated_Source\PSoC6\pdl\drivers/peripheral/scb/cy_scb_uart.h **** *   \ref Cy_SCB_UART_Put, \ref Cy_SCB_UART_PutArray,
 154:Generated_Source\PSoC6\pdl\drivers/peripheral/scb/cy_scb_uart.h **** *   \ref Cy_SCB_UART_PutArrayBlocking or \ref Cy_SCB_UART_PutString.
 155:Generated_Source\PSoC6\pdl\drivers/peripheral/scb/cy_scb_uart.h **** *   Note that putting data into the TX FIFO starts data transfer.
 156:Generated_Source\PSoC6\pdl\drivers/peripheral/scb/cy_scb_uart.h **** *
 157:Generated_Source\PSoC6\pdl\drivers/peripheral/scb/cy_scb_uart.h **** * * To read data from the RX FIFO, use one of the provided functions:
 158:Generated_Source\PSoC6\pdl\drivers/peripheral/scb/cy_scb_uart.h **** *   \ref Cy_SCB_UART_Get, \ref Cy_SCB_UART_GetArray or
 159:Generated_Source\PSoC6\pdl\drivers/peripheral/scb/cy_scb_uart.h **** *   \ref Cy_SCB_UART_GetArrayBlocking.
 160:Generated_Source\PSoC6\pdl\drivers/peripheral/scb/cy_scb_uart.h **** *
 161:Generated_Source\PSoC6\pdl\drivers/peripheral/scb/cy_scb_uart.h **** * * The statuses can be polled using: \ref Cy_SCB_UART_GetRxFifoStatus and
 162:Generated_Source\PSoC6\pdl\drivers/peripheral/scb/cy_scb_uart.h **** *   \ref Cy_SCB_UART_GetTxFifoStatus.
 163:Generated_Source\PSoC6\pdl\drivers/peripheral/scb/cy_scb_uart.h **** *   <em>The statuses are <b>W1C (Write 1 to Clear)</b> and after a status
 164:Generated_Source\PSoC6\pdl\drivers/peripheral/scb/cy_scb_uart.h **** *   is set, it must be cleared.</em> Note that there are statuses evaluated as level.
 165:Generated_Source\PSoC6\pdl\drivers/peripheral/scb/cy_scb_uart.h **** *   These statuses remain set until an event is true. Therefore, after the clear
 166:Generated_Source\PSoC6\pdl\drivers/peripheral/scb/cy_scb_uart.h **** *   operation, the status is cleared but then it is restored (if event is still
 167:Generated_Source\PSoC6\pdl\drivers/peripheral/scb/cy_scb_uart.h **** *   true).
 168:Generated_Source\PSoC6\pdl\drivers/peripheral/scb/cy_scb_uart.h **** *   Also, the following functions can be used for polling as well
 169:Generated_Source\PSoC6\pdl\drivers/peripheral/scb/cy_scb_uart.h **** *   \ref Cy_SCB_UART_IsTxComplete, \ref Cy_SCB_UART_GetNumInRxFifo and
 170:Generated_Source\PSoC6\pdl\drivers/peripheral/scb/cy_scb_uart.h **** *   \ref Cy_SCB_UART_GetNumInTxFifo.
 171:Generated_Source\PSoC6\pdl\drivers/peripheral/scb/cy_scb_uart.h **** *
 172:Generated_Source\PSoC6\pdl\drivers/peripheral/scb/cy_scb_uart.h **** * \snippet SCB_CompDatasheet_sut_01_revA.cydsn\uart_snippets.c UART_TRANSMIT_DATA_LL
 173:Generated_Source\PSoC6\pdl\drivers/peripheral/scb/cy_scb_uart.h **** *
 174:Generated_Source\PSoC6\pdl\drivers/peripheral/scb/cy_scb_uart.h **** ********************************************************************************
 175:Generated_Source\PSoC6\pdl\drivers/peripheral/scb/cy_scb_uart.h **** * \subsection group_scb_uart_hl High-Level API
 176:Generated_Source\PSoC6\pdl\drivers/peripheral/scb/cy_scb_uart.h **** ********************************************************************************
 177:Generated_Source\PSoC6\pdl\drivers/peripheral/scb/cy_scb_uart.h **** * The \ref group_scb_uart_high_level_functions API use \ref Cy_SCB_UART_Interrupt
 178:Generated_Source\PSoC6\pdl\drivers/peripheral/scb/cy_scb_uart.h **** * to execute the transfer. Call \ref Cy_SCB_UART_Transmit to start transmission.
 179:Generated_Source\PSoC6\pdl\drivers/peripheral/scb/cy_scb_uart.h **** * Call \ref Cy_SCB_UART_Receive to start receive operation. After the
 180:Generated_Source\PSoC6\pdl\drivers/peripheral/scb/cy_scb_uart.h **** * operation is started the \ref Cy_SCB_UART_Interrupt handles the data
 181:Generated_Source\PSoC6\pdl\drivers/peripheral/scb/cy_scb_uart.h **** * transfer until its completion.
 182:Generated_Source\PSoC6\pdl\drivers/peripheral/scb/cy_scb_uart.h **** * Therefore \ref Cy_SCB_UART_Interrupt must be called inside the user 
 183:Generated_Source\PSoC6\pdl\drivers/peripheral/scb/cy_scb_uart.h **** * interrupt handler to make the High-Level API work. To monitor status
 184:Generated_Source\PSoC6\pdl\drivers/peripheral/scb/cy_scb_uart.h **** * of transmit operation, use \ref Cy_SCB_UART_GetTransmitStatus and
 185:Generated_Source\PSoC6\pdl\drivers/peripheral/scb/cy_scb_uart.h **** * \ref Cy_SCB_UART_GetReceiveStatus to monitor receive status appropriately.
 186:Generated_Source\PSoC6\pdl\drivers/peripheral/scb/cy_scb_uart.h **** * Alternatively use \ref Cy_SCB_UART_RegisterCallback to register callback
 187:Generated_Source\PSoC6\pdl\drivers/peripheral/scb/cy_scb_uart.h **** * function to be notified about \ref group_scb_uart_macros_callback_events.
 188:Generated_Source\PSoC6\pdl\drivers/peripheral/scb/cy_scb_uart.h **** *
 189:Generated_Source\PSoC6\pdl\drivers/peripheral/scb/cy_scb_uart.h **** * <b>Receive Operation</b>
 190:Generated_Source\PSoC6\pdl\drivers/peripheral/scb/cy_scb_uart.h **** * \snippet SCB_CompDatasheet_sut_01_revA.cydsn\uart_snippets.c UART_RECEIVE_DATA_HL
ARM GAS  C:\Users\gab_1\AppData\Local\Temp\ccTtYdci.s 			page 32


 191:Generated_Source\PSoC6\pdl\drivers/peripheral/scb/cy_scb_uart.h **** *
 192:Generated_Source\PSoC6\pdl\drivers/peripheral/scb/cy_scb_uart.h **** * <b>Transmit Operation</b>
 193:Generated_Source\PSoC6\pdl\drivers/peripheral/scb/cy_scb_uart.h **** * \snippet SCB_CompDatasheet_sut_01_revA.cydsn\uart_snippets.c UART_TRANSMIT_DATA_HL
 194:Generated_Source\PSoC6\pdl\drivers/peripheral/scb/cy_scb_uart.h **** *
 195:Generated_Source\PSoC6\pdl\drivers/peripheral/scb/cy_scb_uart.h **** * There is also capability to insert a receive ring buffer that operates between
 196:Generated_Source\PSoC6\pdl\drivers/peripheral/scb/cy_scb_uart.h **** * the RX FIFO and the user buffer. The received data is copied into the ring
 197:Generated_Source\PSoC6\pdl\drivers/peripheral/scb/cy_scb_uart.h **** * buffer from the RX FIFO. This process runs in the background after the ring
 198:Generated_Source\PSoC6\pdl\drivers/peripheral/scb/cy_scb_uart.h **** * buffer operation is started by \ref Cy_SCB_UART_StartRingBuffer.
 199:Generated_Source\PSoC6\pdl\drivers/peripheral/scb/cy_scb_uart.h **** * When \ref Cy_SCB_UART_Receive is called, it first reads data from the ring
 200:Generated_Source\PSoC6\pdl\drivers/peripheral/scb/cy_scb_uart.h **** * buffer and then sets up an interrupt to receive more data if the required
 201:Generated_Source\PSoC6\pdl\drivers/peripheral/scb/cy_scb_uart.h **** * amount has not yet been read.
 202:Generated_Source\PSoC6\pdl\drivers/peripheral/scb/cy_scb_uart.h **** *
 203:Generated_Source\PSoC6\pdl\drivers/peripheral/scb/cy_scb_uart.h **** ********************************************************************************
 204:Generated_Source\PSoC6\pdl\drivers/peripheral/scb/cy_scb_uart.h **** * \section group_scb_uart_dma_trig DMA Trigger
 205:Generated_Source\PSoC6\pdl\drivers/peripheral/scb/cy_scb_uart.h **** ********************************************************************************
 206:Generated_Source\PSoC6\pdl\drivers/peripheral/scb/cy_scb_uart.h **** * The SCB provides TX and RX output trigger signals that can be routed to the
 207:Generated_Source\PSoC6\pdl\drivers/peripheral/scb/cy_scb_uart.h **** * DMA controller inputs. These signals are assigned based on the data availability
 208:Generated_Source\PSoC6\pdl\drivers/peripheral/scb/cy_scb_uart.h **** * in the TX and RX FIFOs appropriately.
 209:Generated_Source\PSoC6\pdl\drivers/peripheral/scb/cy_scb_uart.h **** *
 210:Generated_Source\PSoC6\pdl\drivers/peripheral/scb/cy_scb_uart.h **** * * The RX trigger signal is active while the number of data
 211:Generated_Source\PSoC6\pdl\drivers/peripheral/scb/cy_scb_uart.h **** *   elements in the RX FIFO is greater than the value of RX FIFO level. Use
 212:Generated_Source\PSoC6\pdl\drivers/peripheral/scb/cy_scb_uart.h **** *   function \ref Cy_SCB_SetRxFifoLevel or set configuration structure
 213:Generated_Source\PSoC6\pdl\drivers/peripheral/scb/cy_scb_uart.h **** *   rxFifoTriggerLevel parameter to configure RX FIFO level value. \n
 214:Generated_Source\PSoC6\pdl\drivers/peripheral/scb/cy_scb_uart.h **** *   <em>For example, the RX FIFO has 8 data elements and the RX FIFO level is 0.
 215:Generated_Source\PSoC6\pdl\drivers/peripheral/scb/cy_scb_uart.h **** *   The RX trigger signal is active until DMA reads all data from
 216:Generated_Source\PSoC6\pdl\drivers/peripheral/scb/cy_scb_uart.h **** *   the RX FIFO.</em>
 217:Generated_Source\PSoC6\pdl\drivers/peripheral/scb/cy_scb_uart.h **** *
 218:Generated_Source\PSoC6\pdl\drivers/peripheral/scb/cy_scb_uart.h **** * * The TX trigger signal is active while the number of data elements
 219:Generated_Source\PSoC6\pdl\drivers/peripheral/scb/cy_scb_uart.h **** *   in the TX FIFO is less than the value of TX FIFO level. Use function
 220:Generated_Source\PSoC6\pdl\drivers/peripheral/scb/cy_scb_uart.h **** *   \ref Cy_SCB_SetTxFifoLevel or set configuration structure txFifoTriggerLevel
 221:Generated_Source\PSoC6\pdl\drivers/peripheral/scb/cy_scb_uart.h **** *   parameter to configure TX FIFO level value. \n
 222:Generated_Source\PSoC6\pdl\drivers/peripheral/scb/cy_scb_uart.h **** *   <em>For example, the TX FIFO has 0 data elements (empty) and the TX FIFO level
 223:Generated_Source\PSoC6\pdl\drivers/peripheral/scb/cy_scb_uart.h **** *   is 7. The TX trigger signal is active until DMA loads TX FIFO
 224:Generated_Source\PSoC6\pdl\drivers/peripheral/scb/cy_scb_uart.h **** *   with 8 data elements (note that after the first TX load operation, the data 
 225:Generated_Source\PSoC6\pdl\drivers/peripheral/scb/cy_scb_uart.h **** *   element goes to the shift register and TX FIFO is empty).</em>
 226:Generated_Source\PSoC6\pdl\drivers/peripheral/scb/cy_scb_uart.h **** *
 227:Generated_Source\PSoC6\pdl\drivers/peripheral/scb/cy_scb_uart.h **** * To route SCB TX or RX trigger signals to DMA controller use \ref group_trigmux
 228:Generated_Source\PSoC6\pdl\drivers/peripheral/scb/cy_scb_uart.h **** * driver API.
 229:Generated_Source\PSoC6\pdl\drivers/peripheral/scb/cy_scb_uart.h **** *
 230:Generated_Source\PSoC6\pdl\drivers/peripheral/scb/cy_scb_uart.h **** * \note
 231:Generated_Source\PSoC6\pdl\drivers/peripheral/scb/cy_scb_uart.h **** * To properly handle DMA level request signal activation and de-activation from the SCB
 232:Generated_Source\PSoC6\pdl\drivers/peripheral/scb/cy_scb_uart.h **** * peripheral block the DMA Descriptor typically must be configured to re-trigger
 233:Generated_Source\PSoC6\pdl\drivers/peripheral/scb/cy_scb_uart.h **** * after 16 Clk_Slow cycles.
 234:Generated_Source\PSoC6\pdl\drivers/peripheral/scb/cy_scb_uart.h **** *
 235:Generated_Source\PSoC6\pdl\drivers/peripheral/scb/cy_scb_uart.h **** ********************************************************************************
 236:Generated_Source\PSoC6\pdl\drivers/peripheral/scb/cy_scb_uart.h **** * \section group_scb_uart_lp Low Power Support
 237:Generated_Source\PSoC6\pdl\drivers/peripheral/scb/cy_scb_uart.h **** ********************************************************************************
 238:Generated_Source\PSoC6\pdl\drivers/peripheral/scb/cy_scb_uart.h **** * The UART driver provides callback functions to handle power mode
 239:Generated_Source\PSoC6\pdl\drivers/peripheral/scb/cy_scb_uart.h **** * transition. The callback \ref Cy_SCB_UART_DeepSleepCallback must be called
 240:Generated_Source\PSoC6\pdl\drivers/peripheral/scb/cy_scb_uart.h **** * during execution of \ref Cy_SysPm_CpuEnterDeepSleep \ref Cy_SCB_UART_HibernateCallback
 241:Generated_Source\PSoC6\pdl\drivers/peripheral/scb/cy_scb_uart.h **** * must be called during execution of \ref Cy_SysPm_SystemEnterHibernate. To trigger the
 242:Generated_Source\PSoC6\pdl\drivers/peripheral/scb/cy_scb_uart.h **** * callback execution, the callback must be registered before calling the
 243:Generated_Source\PSoC6\pdl\drivers/peripheral/scb/cy_scb_uart.h **** * power mode transition function. Refer to \ref group_syspm driver for more
 244:Generated_Source\PSoC6\pdl\drivers/peripheral/scb/cy_scb_uart.h **** * information about power mode transitions and callback registration.
 245:Generated_Source\PSoC6\pdl\drivers/peripheral/scb/cy_scb_uart.h **** *
 246:Generated_Source\PSoC6\pdl\drivers/peripheral/scb/cy_scb_uart.h **** * The UART is disabled during Deep Sleep and Hibernate and stops driving 
 247:Generated_Source\PSoC6\pdl\drivers/peripheral/scb/cy_scb_uart.h **** * the output pins. The state of the UART output pins TX and RTS is High-Z, 
ARM GAS  C:\Users\gab_1\AppData\Local\Temp\ccTtYdci.s 			page 33


 248:Generated_Source\PSoC6\pdl\drivers/peripheral/scb/cy_scb_uart.h **** * which can cause unexpected behavior of the UART receiver due to possible
 249:Generated_Source\PSoC6\pdl\drivers/peripheral/scb/cy_scb_uart.h **** * glitches on these lines. These pins must be set to the inactive state before 
 250:Generated_Source\PSoC6\pdl\drivers/peripheral/scb/cy_scb_uart.h **** * entering Deep Sleep or Hibernate mode.
 251:Generated_Source\PSoC6\pdl\drivers/peripheral/scb/cy_scb_uart.h **** * These pins must keep the inactive level (the same state 
 252:Generated_Source\PSoC6\pdl\drivers/peripheral/scb/cy_scb_uart.h **** * when UART TX is enabled and does not transfer data) before entering Deep 
 253:Generated_Source\PSoC6\pdl\drivers/peripheral/scb/cy_scb_uart.h **** * Sleep or Hibernate mode. To do that, write the GPIO data register of each pin 
 254:Generated_Source\PSoC6\pdl\drivers/peripheral/scb/cy_scb_uart.h **** * to the inactive level for each output pin. Then configure High-Speed Input 
 255:Generated_Source\PSoC6\pdl\drivers/peripheral/scb/cy_scb_uart.h **** * Output Multiplexer (HSIOM) of each pin to be controlled by the GPIO (use 
 256:Generated_Source\PSoC6\pdl\drivers/peripheral/scb/cy_scb_uart.h **** * \ref group_gpio driver API). After exiting Deep Sleep mode the UART 
 257:Generated_Source\PSoC6\pdl\drivers/peripheral/scb/cy_scb_uart.h **** * must be enabled and the pins configuration restored to return the 
 258:Generated_Source\PSoC6\pdl\drivers/peripheral/scb/cy_scb_uart.h **** * UART control of the pins (after exiting Hibernate mode, the 
 259:Generated_Source\PSoC6\pdl\drivers/peripheral/scb/cy_scb_uart.h **** * system initialization code does the same). Copy either or 
 260:Generated_Source\PSoC6\pdl\drivers/peripheral/scb/cy_scb_uart.h **** * both \ref Cy_SCB_UART_DeepSleepCallback and \ref Cy_SCB_UART_HibernateCallback 
 261:Generated_Source\PSoC6\pdl\drivers/peripheral/scb/cy_scb_uart.h **** * as appropriate, and make the changes described above inside the function.
 262:Generated_Source\PSoC6\pdl\drivers/peripheral/scb/cy_scb_uart.h **** * Alternately, external pull-up or pull-down resistors can be connected 
 263:Generated_Source\PSoC6\pdl\drivers/peripheral/scb/cy_scb_uart.h **** * to the appropriate UART lines to keep them inactive during Deep-Sleep or 
 264:Generated_Source\PSoC6\pdl\drivers/peripheral/scb/cy_scb_uart.h **** * Hibernate.
 265:Generated_Source\PSoC6\pdl\drivers/peripheral/scb/cy_scb_uart.h **** *
 266:Generated_Source\PSoC6\pdl\drivers/peripheral/scb/cy_scb_uart.h **** ********************************************************************************
 267:Generated_Source\PSoC6\pdl\drivers/peripheral/scb/cy_scb_uart.h **** * \section group_scb_uart_more_information More Information
 268:Generated_Source\PSoC6\pdl\drivers/peripheral/scb/cy_scb_uart.h **** ********************************************************************************
 269:Generated_Source\PSoC6\pdl\drivers/peripheral/scb/cy_scb_uart.h **** * For more information on the SCB peripheral, refer to the technical reference
 270:Generated_Source\PSoC6\pdl\drivers/peripheral/scb/cy_scb_uart.h **** * manual (TRM).
 271:Generated_Source\PSoC6\pdl\drivers/peripheral/scb/cy_scb_uart.h **** *
 272:Generated_Source\PSoC6\pdl\drivers/peripheral/scb/cy_scb_uart.h **** ********************************************************************************
 273:Generated_Source\PSoC6\pdl\drivers/peripheral/scb/cy_scb_uart.h **** * \section group_scb_uart_MISRA MISRA-C Compliance
 274:Generated_Source\PSoC6\pdl\drivers/peripheral/scb/cy_scb_uart.h **** ********************************************************************************
 275:Generated_Source\PSoC6\pdl\drivers/peripheral/scb/cy_scb_uart.h **** * <table class="doxtable">
 276:Generated_Source\PSoC6\pdl\drivers/peripheral/scb/cy_scb_uart.h **** *   <tr>
 277:Generated_Source\PSoC6\pdl\drivers/peripheral/scb/cy_scb_uart.h **** *     <th>MISRA Rule</th>
 278:Generated_Source\PSoC6\pdl\drivers/peripheral/scb/cy_scb_uart.h **** *     <th>Rule Class (Required/Advisory)</th>
 279:Generated_Source\PSoC6\pdl\drivers/peripheral/scb/cy_scb_uart.h **** *     <th>Rule Description</th>
 280:Generated_Source\PSoC6\pdl\drivers/peripheral/scb/cy_scb_uart.h **** *     <th>Description of Deviation(s)</th>
 281:Generated_Source\PSoC6\pdl\drivers/peripheral/scb/cy_scb_uart.h **** *   </tr>
 282:Generated_Source\PSoC6\pdl\drivers/peripheral/scb/cy_scb_uart.h **** *   <tr>
 283:Generated_Source\PSoC6\pdl\drivers/peripheral/scb/cy_scb_uart.h **** *     <td>11.4</td>
 284:Generated_Source\PSoC6\pdl\drivers/peripheral/scb/cy_scb_uart.h **** *     <td>A</td>
 285:Generated_Source\PSoC6\pdl\drivers/peripheral/scb/cy_scb_uart.h **** *     <td>A cast should not be performed between a pointer to object type and
 286:Generated_Source\PSoC6\pdl\drivers/peripheral/scb/cy_scb_uart.h **** *         a different pointer to object type.</td>
 287:Generated_Source\PSoC6\pdl\drivers/peripheral/scb/cy_scb_uart.h **** *     <td>
 288:Generated_Source\PSoC6\pdl\drivers/peripheral/scb/cy_scb_uart.h **** *         * The pointer to the buffer memory is void to allow handling different
 289:Generated_Source\PSoC6\pdl\drivers/peripheral/scb/cy_scb_uart.h **** *         different data types: uint8_t (4-8 bits) or uint16_t (9-16 bits).
 290:Generated_Source\PSoC6\pdl\drivers/peripheral/scb/cy_scb_uart.h **** *         The cast operation is safe because the configuration is verified
 291:Generated_Source\PSoC6\pdl\drivers/peripheral/scb/cy_scb_uart.h **** *         before operation is performed.
 292:Generated_Source\PSoC6\pdl\drivers/peripheral/scb/cy_scb_uart.h **** *         * The functions \ref Cy_SCB_UART_DeepSleepCallback and
 293:Generated_Source\PSoC6\pdl\drivers/peripheral/scb/cy_scb_uart.h **** *         \ref Cy_SCB_UART_HibernateCallback are callback of
 294:Generated_Source\PSoC6\pdl\drivers/peripheral/scb/cy_scb_uart.h **** *         \ref cy_en_syspm_status_t type. The cast operation safety in these
 295:Generated_Source\PSoC6\pdl\drivers/peripheral/scb/cy_scb_uart.h **** *         functions becomes the user's responsibility because pointers are
 296:Generated_Source\PSoC6\pdl\drivers/peripheral/scb/cy_scb_uart.h **** *         initialized when callback is registered in SysPm driver.</td>
 297:Generated_Source\PSoC6\pdl\drivers/peripheral/scb/cy_scb_uart.h **** *   </tr>
 298:Generated_Source\PSoC6\pdl\drivers/peripheral/scb/cy_scb_uart.h **** *   <tr>
 299:Generated_Source\PSoC6\pdl\drivers/peripheral/scb/cy_scb_uart.h **** *     <td>14.2</td>
 300:Generated_Source\PSoC6\pdl\drivers/peripheral/scb/cy_scb_uart.h **** *     <td>R</td>
 301:Generated_Source\PSoC6\pdl\drivers/peripheral/scb/cy_scb_uart.h **** *     <td>All non-null statements shall either: a) have at least one side-effect
 302:Generated_Source\PSoC6\pdl\drivers/peripheral/scb/cy_scb_uart.h **** *         however executed, or b) cause control flow to change.</td>
 303:Generated_Source\PSoC6\pdl\drivers/peripheral/scb/cy_scb_uart.h **** *     <td>The unused function parameters are cast to void. This statement
 304:Generated_Source\PSoC6\pdl\drivers/peripheral/scb/cy_scb_uart.h **** *         has no side-effect and is used to suppress a compiler warning.</td>
ARM GAS  C:\Users\gab_1\AppData\Local\Temp\ccTtYdci.s 			page 34


 305:Generated_Source\PSoC6\pdl\drivers/peripheral/scb/cy_scb_uart.h **** *   </tr>
 306:Generated_Source\PSoC6\pdl\drivers/peripheral/scb/cy_scb_uart.h **** *   <tr>
 307:Generated_Source\PSoC6\pdl\drivers/peripheral/scb/cy_scb_uart.h **** *     <td>14.7</td>
 308:Generated_Source\PSoC6\pdl\drivers/peripheral/scb/cy_scb_uart.h **** *     <td>R</td>
 309:Generated_Source\PSoC6\pdl\drivers/peripheral/scb/cy_scb_uart.h **** *     <td>A function shall have a single point of exit at the end of the
 310:Generated_Source\PSoC6\pdl\drivers/peripheral/scb/cy_scb_uart.h **** *         function.</td>
 311:Generated_Source\PSoC6\pdl\drivers/peripheral/scb/cy_scb_uart.h **** *     <td>The functions can return from several points. This is done to improve
 312:Generated_Source\PSoC6\pdl\drivers/peripheral/scb/cy_scb_uart.h **** *         code clarity when returning error status code if input parameters
 313:Generated_Source\PSoC6\pdl\drivers/peripheral/scb/cy_scb_uart.h **** *         validation fails.</td>
 314:Generated_Source\PSoC6\pdl\drivers/peripheral/scb/cy_scb_uart.h **** *   </tr>
 315:Generated_Source\PSoC6\pdl\drivers/peripheral/scb/cy_scb_uart.h **** * </table>
 316:Generated_Source\PSoC6\pdl\drivers/peripheral/scb/cy_scb_uart.h **** *
 317:Generated_Source\PSoC6\pdl\drivers/peripheral/scb/cy_scb_uart.h **** * \section group_scb_uart_changelog Changelog
 318:Generated_Source\PSoC6\pdl\drivers/peripheral/scb/cy_scb_uart.h **** * <table class="doxtable">
 319:Generated_Source\PSoC6\pdl\drivers/peripheral/scb/cy_scb_uart.h **** *   <tr><th>Version</th><th>Changes</th><th>Reason for Change</th></tr>
 320:Generated_Source\PSoC6\pdl\drivers/peripheral/scb/cy_scb_uart.h **** *   <tr>
 321:Generated_Source\PSoC6\pdl\drivers/peripheral/scb/cy_scb_uart.h **** *     <td rowspan="2">2.20</td>
 322:Generated_Source\PSoC6\pdl\drivers/peripheral/scb/cy_scb_uart.h **** *     <td>Flattened the organization of the driver source code into the single 
 323:Generated_Source\PSoC6\pdl\drivers/peripheral/scb/cy_scb_uart.h **** *         source directory and the single include directory.
 324:Generated_Source\PSoC6\pdl\drivers/peripheral/scb/cy_scb_uart.h **** *     </td>
 325:Generated_Source\PSoC6\pdl\drivers/peripheral/scb/cy_scb_uart.h **** *     <td>Driver library directory-structure simplification.</td>
 326:Generated_Source\PSoC6\pdl\drivers/peripheral/scb/cy_scb_uart.h **** *   </tr>
 327:Generated_Source\PSoC6\pdl\drivers/peripheral/scb/cy_scb_uart.h **** *   <tr>
 328:Generated_Source\PSoC6\pdl\drivers/peripheral/scb/cy_scb_uart.h **** *     <td>Added register access layer. Use register access macros instead
 329:Generated_Source\PSoC6\pdl\drivers/peripheral/scb/cy_scb_uart.h **** *         of direct register access using dereferenced pointers.</td>
 330:Generated_Source\PSoC6\pdl\drivers/peripheral/scb/cy_scb_uart.h **** *     <td>Makes register access device-independent, so that the PDL does 
 331:Generated_Source\PSoC6\pdl\drivers/peripheral/scb/cy_scb_uart.h **** *         not need to be recompiled for each supported part number.</td>
 332:Generated_Source\PSoC6\pdl\drivers/peripheral/scb/cy_scb_uart.h **** *   </tr>
 333:Generated_Source\PSoC6\pdl\drivers/peripheral/scb/cy_scb_uart.h **** *   <tr>
 334:Generated_Source\PSoC6\pdl\drivers/peripheral/scb/cy_scb_uart.h **** *     <td>2.10</td>
 335:Generated_Source\PSoC6\pdl\drivers/peripheral/scb/cy_scb_uart.h **** *     <td>None.</td>
 336:Generated_Source\PSoC6\pdl\drivers/peripheral/scb/cy_scb_uart.h **** *     <td>SCB I2C driver updated.</td>
 337:Generated_Source\PSoC6\pdl\drivers/peripheral/scb/cy_scb_uart.h **** *   </tr>
 338:Generated_Source\PSoC6\pdl\drivers/peripheral/scb/cy_scb_uart.h **** *   <tr>
 339:Generated_Source\PSoC6\pdl\drivers/peripheral/scb/cy_scb_uart.h **** *     <td rowspan="5">2.0</td>
 340:Generated_Source\PSoC6\pdl\drivers/peripheral/scb/cy_scb_uart.h **** *     <td>Added parameters validation for public API.</td>
 341:Generated_Source\PSoC6\pdl\drivers/peripheral/scb/cy_scb_uart.h **** *     <td></td>
 342:Generated_Source\PSoC6\pdl\drivers/peripheral/scb/cy_scb_uart.h **** *   </tr>
 343:Generated_Source\PSoC6\pdl\drivers/peripheral/scb/cy_scb_uart.h **** *   <tr>
 344:Generated_Source\PSoC6\pdl\drivers/peripheral/scb/cy_scb_uart.h **** *     <td>Replaced variables that have limited range of values with enumerated
 345:Generated_Source\PSoC6\pdl\drivers/peripheral/scb/cy_scb_uart.h **** *         types.</td>
 346:Generated_Source\PSoC6\pdl\drivers/peripheral/scb/cy_scb_uart.h **** *     <td></td>
 347:Generated_Source\PSoC6\pdl\drivers/peripheral/scb/cy_scb_uart.h **** *   </tr>
 348:Generated_Source\PSoC6\pdl\drivers/peripheral/scb/cy_scb_uart.h **** *   <tr>
 349:Generated_Source\PSoC6\pdl\drivers/peripheral/scb/cy_scb_uart.h **** *     <td>Added missing "cy_cb_" to the callback function type names.</td>
 350:Generated_Source\PSoC6\pdl\drivers/peripheral/scb/cy_scb_uart.h **** *     <td></td>
 351:Generated_Source\PSoC6\pdl\drivers/peripheral/scb/cy_scb_uart.h **** *   </tr>
 352:Generated_Source\PSoC6\pdl\drivers/peripheral/scb/cy_scb_uart.h **** *   <tr>
 353:Generated_Source\PSoC6\pdl\drivers/peripheral/scb/cy_scb_uart.h **** *     <td>Added function \ref Cy_SCB_UART_SendBreakBlocking for break condition
 354:Generated_Source\PSoC6\pdl\drivers/peripheral/scb/cy_scb_uart.h **** *         generation.</td>
 355:Generated_Source\PSoC6\pdl\drivers/peripheral/scb/cy_scb_uart.h **** *     <td></td>
 356:Generated_Source\PSoC6\pdl\drivers/peripheral/scb/cy_scb_uart.h **** *   </tr>
 357:Generated_Source\PSoC6\pdl\drivers/peripheral/scb/cy_scb_uart.h **** *   <tr>
 358:Generated_Source\PSoC6\pdl\drivers/peripheral/scb/cy_scb_uart.h **** *     <td>Fixed low power callbacks \ref Cy_SCB_UART_DeepSleepCallback and
 359:Generated_Source\PSoC6\pdl\drivers/peripheral/scb/cy_scb_uart.h **** *         \ref Cy_SCB_UART_HibernateCallback to prevent the device from entering
 360:Generated_Source\PSoC6\pdl\drivers/peripheral/scb/cy_scb_uart.h **** *         low power mode when RX FIFO is not empty.</td>
 361:Generated_Source\PSoC6\pdl\drivers/peripheral/scb/cy_scb_uart.h **** *     <td>The callbacks allowed entering device into low power mode when RX FIFO
ARM GAS  C:\Users\gab_1\AppData\Local\Temp\ccTtYdci.s 			page 35


 362:Generated_Source\PSoC6\pdl\drivers/peripheral/scb/cy_scb_uart.h **** *         had data.</td>
 363:Generated_Source\PSoC6\pdl\drivers/peripheral/scb/cy_scb_uart.h **** *   </tr>
 364:Generated_Source\PSoC6\pdl\drivers/peripheral/scb/cy_scb_uart.h **** *   <tr>
 365:Generated_Source\PSoC6\pdl\drivers/peripheral/scb/cy_scb_uart.h **** *     <td>1.0</td>
 366:Generated_Source\PSoC6\pdl\drivers/peripheral/scb/cy_scb_uart.h **** *     <td>Initial version.</td>
 367:Generated_Source\PSoC6\pdl\drivers/peripheral/scb/cy_scb_uart.h **** *     <td></td>
 368:Generated_Source\PSoC6\pdl\drivers/peripheral/scb/cy_scb_uart.h **** *   </tr>
 369:Generated_Source\PSoC6\pdl\drivers/peripheral/scb/cy_scb_uart.h **** * </table>
 370:Generated_Source\PSoC6\pdl\drivers/peripheral/scb/cy_scb_uart.h **** *
 371:Generated_Source\PSoC6\pdl\drivers/peripheral/scb/cy_scb_uart.h **** * \defgroup group_scb_uart_macros Macros
 372:Generated_Source\PSoC6\pdl\drivers/peripheral/scb/cy_scb_uart.h **** * \defgroup group_scb_uart_functions Functions
 373:Generated_Source\PSoC6\pdl\drivers/peripheral/scb/cy_scb_uart.h **** * \{
 374:Generated_Source\PSoC6\pdl\drivers/peripheral/scb/cy_scb_uart.h **** * \defgroup group_scb_uart_general_functions General
 375:Generated_Source\PSoC6\pdl\drivers/peripheral/scb/cy_scb_uart.h **** * \defgroup group_scb_uart_high_level_functions High-Level
 376:Generated_Source\PSoC6\pdl\drivers/peripheral/scb/cy_scb_uart.h **** * \defgroup group_scb_uart_low_level_functions Low-Level
 377:Generated_Source\PSoC6\pdl\drivers/peripheral/scb/cy_scb_uart.h **** * \defgroup group_scb_uart_interrupt_functions Interrupt
 378:Generated_Source\PSoC6\pdl\drivers/peripheral/scb/cy_scb_uart.h **** * \defgroup group_scb_uart_low_power_functions Low Power Callbacks
 379:Generated_Source\PSoC6\pdl\drivers/peripheral/scb/cy_scb_uart.h **** * \}
 380:Generated_Source\PSoC6\pdl\drivers/peripheral/scb/cy_scb_uart.h **** * \defgroup group_scb_uart_data_structures Data Structures
 381:Generated_Source\PSoC6\pdl\drivers/peripheral/scb/cy_scb_uart.h **** * \defgroup group_scb_uart_enums Enumerated Types
 382:Generated_Source\PSoC6\pdl\drivers/peripheral/scb/cy_scb_uart.h **** */
 383:Generated_Source\PSoC6\pdl\drivers/peripheral/scb/cy_scb_uart.h **** 
 384:Generated_Source\PSoC6\pdl\drivers/peripheral/scb/cy_scb_uart.h **** #if !defined(CY_SCB_UART_H)
 385:Generated_Source\PSoC6\pdl\drivers/peripheral/scb/cy_scb_uart.h **** #define CY_SCB_UART_H
 386:Generated_Source\PSoC6\pdl\drivers/peripheral/scb/cy_scb_uart.h **** 
 387:Generated_Source\PSoC6\pdl\drivers/peripheral/scb/cy_scb_uart.h **** #include "cy_scb_common.h"
 388:Generated_Source\PSoC6\pdl\drivers/peripheral/scb/cy_scb_uart.h **** 
 389:Generated_Source\PSoC6\pdl\drivers/peripheral/scb/cy_scb_uart.h **** #if defined(__cplusplus)
 390:Generated_Source\PSoC6\pdl\drivers/peripheral/scb/cy_scb_uart.h **** extern "C" {
 391:Generated_Source\PSoC6\pdl\drivers/peripheral/scb/cy_scb_uart.h **** #endif
 392:Generated_Source\PSoC6\pdl\drivers/peripheral/scb/cy_scb_uart.h **** 
 393:Generated_Source\PSoC6\pdl\drivers/peripheral/scb/cy_scb_uart.h **** /***************************************
 394:Generated_Source\PSoC6\pdl\drivers/peripheral/scb/cy_scb_uart.h **** *          Enumerated Types
 395:Generated_Source\PSoC6\pdl\drivers/peripheral/scb/cy_scb_uart.h **** ***************************************/
 396:Generated_Source\PSoC6\pdl\drivers/peripheral/scb/cy_scb_uart.h **** 
 397:Generated_Source\PSoC6\pdl\drivers/peripheral/scb/cy_scb_uart.h **** /**
 398:Generated_Source\PSoC6\pdl\drivers/peripheral/scb/cy_scb_uart.h **** * \addtogroup group_scb_uart_enums
 399:Generated_Source\PSoC6\pdl\drivers/peripheral/scb/cy_scb_uart.h **** * \{
 400:Generated_Source\PSoC6\pdl\drivers/peripheral/scb/cy_scb_uart.h **** */
 401:Generated_Source\PSoC6\pdl\drivers/peripheral/scb/cy_scb_uart.h **** 
 402:Generated_Source\PSoC6\pdl\drivers/peripheral/scb/cy_scb_uart.h **** /** UART status codes */
 403:Generated_Source\PSoC6\pdl\drivers/peripheral/scb/cy_scb_uart.h **** typedef enum
 404:Generated_Source\PSoC6\pdl\drivers/peripheral/scb/cy_scb_uart.h **** {
 405:Generated_Source\PSoC6\pdl\drivers/peripheral/scb/cy_scb_uart.h ****     /** Operation completed successfully */
 406:Generated_Source\PSoC6\pdl\drivers/peripheral/scb/cy_scb_uart.h ****     CY_SCB_UART_SUCCESS = 0U,
 407:Generated_Source\PSoC6\pdl\drivers/peripheral/scb/cy_scb_uart.h **** 
 408:Generated_Source\PSoC6\pdl\drivers/peripheral/scb/cy_scb_uart.h ****     /** One or more of input parameters are invalid */
 409:Generated_Source\PSoC6\pdl\drivers/peripheral/scb/cy_scb_uart.h ****     CY_SCB_UART_BAD_PARAM = (CY_SCB_ID | CY_PDL_STATUS_ERROR | CY_SCB_UART_ID | 1U),
 410:Generated_Source\PSoC6\pdl\drivers/peripheral/scb/cy_scb_uart.h **** 
 411:Generated_Source\PSoC6\pdl\drivers/peripheral/scb/cy_scb_uart.h ****     /**
 412:Generated_Source\PSoC6\pdl\drivers/peripheral/scb/cy_scb_uart.h ****     * The UART is busy processing a receive operation.
 413:Generated_Source\PSoC6\pdl\drivers/peripheral/scb/cy_scb_uart.h ****     */
 414:Generated_Source\PSoC6\pdl\drivers/peripheral/scb/cy_scb_uart.h ****     CY_SCB_UART_RECEIVE_BUSY = (CY_SCB_ID | CY_PDL_STATUS_ERROR | CY_SCB_UART_ID | 2U),
 415:Generated_Source\PSoC6\pdl\drivers/peripheral/scb/cy_scb_uart.h **** 
 416:Generated_Source\PSoC6\pdl\drivers/peripheral/scb/cy_scb_uart.h ****     /**
 417:Generated_Source\PSoC6\pdl\drivers/peripheral/scb/cy_scb_uart.h ****     * The UART is busy processing a transmit operation.
 418:Generated_Source\PSoC6\pdl\drivers/peripheral/scb/cy_scb_uart.h ****     */
ARM GAS  C:\Users\gab_1\AppData\Local\Temp\ccTtYdci.s 			page 36


 419:Generated_Source\PSoC6\pdl\drivers/peripheral/scb/cy_scb_uart.h ****     CY_SCB_UART_TRANSMIT_BUSY = (CY_SCB_ID | CY_PDL_STATUS_ERROR | CY_SCB_UART_ID | 3U)
 420:Generated_Source\PSoC6\pdl\drivers/peripheral/scb/cy_scb_uart.h **** } cy_en_scb_uart_status_t;
 421:Generated_Source\PSoC6\pdl\drivers/peripheral/scb/cy_scb_uart.h **** 
 422:Generated_Source\PSoC6\pdl\drivers/peripheral/scb/cy_scb_uart.h **** /** UART Mode */
 423:Generated_Source\PSoC6\pdl\drivers/peripheral/scb/cy_scb_uart.h **** typedef enum
 424:Generated_Source\PSoC6\pdl\drivers/peripheral/scb/cy_scb_uart.h **** {
 425:Generated_Source\PSoC6\pdl\drivers/peripheral/scb/cy_scb_uart.h ****     CY_SCB_UART_STANDARD  = 0U, /**< Configures the SCB for Standard UART operation */
 426:Generated_Source\PSoC6\pdl\drivers/peripheral/scb/cy_scb_uart.h ****     CY_SCB_UART_SMARTCARD = 1U, /**< Configures the SCB for SmartCard operation */
 427:Generated_Source\PSoC6\pdl\drivers/peripheral/scb/cy_scb_uart.h ****     CY_SCB_UART_IRDA      = 2U, /**< Configures the SCB for IrDA operation */
 428:Generated_Source\PSoC6\pdl\drivers/peripheral/scb/cy_scb_uart.h **** } cy_en_scb_uart_mode_t;
 429:Generated_Source\PSoC6\pdl\drivers/peripheral/scb/cy_scb_uart.h **** 
 430:Generated_Source\PSoC6\pdl\drivers/peripheral/scb/cy_scb_uart.h **** /** UART Stop Bits */
 431:Generated_Source\PSoC6\pdl\drivers/peripheral/scb/cy_scb_uart.h **** typedef enum
 432:Generated_Source\PSoC6\pdl\drivers/peripheral/scb/cy_scb_uart.h **** {
 433:Generated_Source\PSoC6\pdl\drivers/peripheral/scb/cy_scb_uart.h ****     CY_SCB_UART_STOP_BITS_1   = 2U,  /**< UART looks for 1 Stop Bit    */
 434:Generated_Source\PSoC6\pdl\drivers/peripheral/scb/cy_scb_uart.h ****     CY_SCB_UART_STOP_BITS_1_5 = 3U,  /**< UART looks for 1.5 Stop Bits */
 435:Generated_Source\PSoC6\pdl\drivers/peripheral/scb/cy_scb_uart.h ****     CY_SCB_UART_STOP_BITS_2   = 4U,  /**< UART looks for 2 Stop Bits   */
 436:Generated_Source\PSoC6\pdl\drivers/peripheral/scb/cy_scb_uart.h ****     CY_SCB_UART_STOP_BITS_2_5 = 5U,  /**< UART looks for 2.5 Stop Bits */
 437:Generated_Source\PSoC6\pdl\drivers/peripheral/scb/cy_scb_uart.h ****     CY_SCB_UART_STOP_BITS_3   = 6U,  /**< UART looks for 3 Stop Bits   */
 438:Generated_Source\PSoC6\pdl\drivers/peripheral/scb/cy_scb_uart.h ****     CY_SCB_UART_STOP_BITS_3_5 = 7U,  /**< UART looks for 3.5 Stop Bits */
 439:Generated_Source\PSoC6\pdl\drivers/peripheral/scb/cy_scb_uart.h ****     CY_SCB_UART_STOP_BITS_4   = 8U,  /**< UART looks for 4 Stop Bits   */
 440:Generated_Source\PSoC6\pdl\drivers/peripheral/scb/cy_scb_uart.h **** } cy_en_scb_uart_stop_bits_t;
 441:Generated_Source\PSoC6\pdl\drivers/peripheral/scb/cy_scb_uart.h **** 
 442:Generated_Source\PSoC6\pdl\drivers/peripheral/scb/cy_scb_uart.h **** /** UART Parity */
 443:Generated_Source\PSoC6\pdl\drivers/peripheral/scb/cy_scb_uart.h **** typedef enum
 444:Generated_Source\PSoC6\pdl\drivers/peripheral/scb/cy_scb_uart.h **** {
 445:Generated_Source\PSoC6\pdl\drivers/peripheral/scb/cy_scb_uart.h ****     CY_SCB_UART_PARITY_NONE = 0U,    /**< UART has no parity check   */
 446:Generated_Source\PSoC6\pdl\drivers/peripheral/scb/cy_scb_uart.h ****     CY_SCB_UART_PARITY_EVEN = 2U,    /**< UART has even parity check */
 447:Generated_Source\PSoC6\pdl\drivers/peripheral/scb/cy_scb_uart.h ****     CY_SCB_UART_PARITY_ODD  = 3U,    /**< UART has odd parity check  */
 448:Generated_Source\PSoC6\pdl\drivers/peripheral/scb/cy_scb_uart.h **** } cy_en_scb_uart_parity_t;
 449:Generated_Source\PSoC6\pdl\drivers/peripheral/scb/cy_scb_uart.h **** 
 450:Generated_Source\PSoC6\pdl\drivers/peripheral/scb/cy_scb_uart.h **** /** UART Polarity */
 451:Generated_Source\PSoC6\pdl\drivers/peripheral/scb/cy_scb_uart.h **** typedef enum
 452:Generated_Source\PSoC6\pdl\drivers/peripheral/scb/cy_scb_uart.h **** {
 453:Generated_Source\PSoC6\pdl\drivers/peripheral/scb/cy_scb_uart.h ****     CY_SCB_UART_ACTIVE_LOW  = 0U,   /**< Signal is active low */
 454:Generated_Source\PSoC6\pdl\drivers/peripheral/scb/cy_scb_uart.h ****     CY_SCB_UART_ACTIVE_HIGH = 1U,   /**< Signal is active high */
 455:Generated_Source\PSoC6\pdl\drivers/peripheral/scb/cy_scb_uart.h **** } cy_en_scb_uart_polarity_t;
 456:Generated_Source\PSoC6\pdl\drivers/peripheral/scb/cy_scb_uart.h **** /** \} group_scb_uart_enums */
 457:Generated_Source\PSoC6\pdl\drivers/peripheral/scb/cy_scb_uart.h **** 
 458:Generated_Source\PSoC6\pdl\drivers/peripheral/scb/cy_scb_uart.h **** 
 459:Generated_Source\PSoC6\pdl\drivers/peripheral/scb/cy_scb_uart.h **** /*******************************************************************************
 460:Generated_Source\PSoC6\pdl\drivers/peripheral/scb/cy_scb_uart.h **** *                           Type Definitions
 461:Generated_Source\PSoC6\pdl\drivers/peripheral/scb/cy_scb_uart.h **** *******************************************************************************/
 462:Generated_Source\PSoC6\pdl\drivers/peripheral/scb/cy_scb_uart.h **** 
 463:Generated_Source\PSoC6\pdl\drivers/peripheral/scb/cy_scb_uart.h **** /**
 464:Generated_Source\PSoC6\pdl\drivers/peripheral/scb/cy_scb_uart.h **** * \addtogroup group_scb_uart_data_structures
 465:Generated_Source\PSoC6\pdl\drivers/peripheral/scb/cy_scb_uart.h **** * \{
 466:Generated_Source\PSoC6\pdl\drivers/peripheral/scb/cy_scb_uart.h **** */
 467:Generated_Source\PSoC6\pdl\drivers/peripheral/scb/cy_scb_uart.h **** 
 468:Generated_Source\PSoC6\pdl\drivers/peripheral/scb/cy_scb_uart.h **** /**
 469:Generated_Source\PSoC6\pdl\drivers/peripheral/scb/cy_scb_uart.h **** * Provides the typedef for the callback function called in the
 470:Generated_Source\PSoC6\pdl\drivers/peripheral/scb/cy_scb_uart.h **** * \ref Cy_SCB_UART_Interrupt to notify the user about occurrences of
 471:Generated_Source\PSoC6\pdl\drivers/peripheral/scb/cy_scb_uart.h **** * \ref group_scb_uart_macros_callback_events.
 472:Generated_Source\PSoC6\pdl\drivers/peripheral/scb/cy_scb_uart.h **** */
 473:Generated_Source\PSoC6\pdl\drivers/peripheral/scb/cy_scb_uart.h **** typedef void (* cy_cb_scb_uart_handle_events_t)(uint32_t event);
 474:Generated_Source\PSoC6\pdl\drivers/peripheral/scb/cy_scb_uart.h **** 
 475:Generated_Source\PSoC6\pdl\drivers/peripheral/scb/cy_scb_uart.h **** /** UART configuration structure */
ARM GAS  C:\Users\gab_1\AppData\Local\Temp\ccTtYdci.s 			page 37


 476:Generated_Source\PSoC6\pdl\drivers/peripheral/scb/cy_scb_uart.h **** typedef struct stc_scb_uart_config
 477:Generated_Source\PSoC6\pdl\drivers/peripheral/scb/cy_scb_uart.h **** {
 478:Generated_Source\PSoC6\pdl\drivers/peripheral/scb/cy_scb_uart.h ****     /** Specifies the UART's mode of operation */
 479:Generated_Source\PSoC6\pdl\drivers/peripheral/scb/cy_scb_uart.h ****     cy_en_scb_uart_mode_t    uartMode;
 480:Generated_Source\PSoC6\pdl\drivers/peripheral/scb/cy_scb_uart.h **** 
 481:Generated_Source\PSoC6\pdl\drivers/peripheral/scb/cy_scb_uart.h ****     /**
 482:Generated_Source\PSoC6\pdl\drivers/peripheral/scb/cy_scb_uart.h ****     * Oversample factor for UART.
 483:Generated_Source\PSoC6\pdl\drivers/peripheral/scb/cy_scb_uart.h ****     * * The UART baud rate is the SCB Clock frequency / oversample
 484:Generated_Source\PSoC6\pdl\drivers/peripheral/scb/cy_scb_uart.h ****     *  (valid range is 8-16).
 485:Generated_Source\PSoC6\pdl\drivers/peripheral/scb/cy_scb_uart.h ****     * * For IrDA, the oversample is always 16, unless
 486:Generated_Source\PSoC6\pdl\drivers/peripheral/scb/cy_scb_uart.h ****     * \ref irdaEnableLowPowerReceiver is enabled. Then the oversample is
 487:Generated_Source\PSoC6\pdl\drivers/peripheral/scb/cy_scb_uart.h ****     * reduced to the \ref group_scb_uart_macros_irda_lp_ovs set.
 488:Generated_Source\PSoC6\pdl\drivers/peripheral/scb/cy_scb_uart.h ****     */
 489:Generated_Source\PSoC6\pdl\drivers/peripheral/scb/cy_scb_uart.h ****     uint32_t    oversample;
 490:Generated_Source\PSoC6\pdl\drivers/peripheral/scb/cy_scb_uart.h **** 
 491:Generated_Source\PSoC6\pdl\drivers/peripheral/scb/cy_scb_uart.h ****     /** The width of UART data (valid range is 5 to 9) */
 492:Generated_Source\PSoC6\pdl\drivers/peripheral/scb/cy_scb_uart.h ****     uint32_t    dataWidth;
 493:Generated_Source\PSoC6\pdl\drivers/peripheral/scb/cy_scb_uart.h **** 
 494:Generated_Source\PSoC6\pdl\drivers/peripheral/scb/cy_scb_uart.h ****     /**
 495:Generated_Source\PSoC6\pdl\drivers/peripheral/scb/cy_scb_uart.h ****     * Enables the hardware to shift out data element MSB first; otherwise,
 496:Generated_Source\PSoC6\pdl\drivers/peripheral/scb/cy_scb_uart.h ****     * LSB first
 497:Generated_Source\PSoC6\pdl\drivers/peripheral/scb/cy_scb_uart.h ****     */
 498:Generated_Source\PSoC6\pdl\drivers/peripheral/scb/cy_scb_uart.h ****     bool        enableMsbFirst;
 499:Generated_Source\PSoC6\pdl\drivers/peripheral/scb/cy_scb_uart.h **** 
 500:Generated_Source\PSoC6\pdl\drivers/peripheral/scb/cy_scb_uart.h ****     /**
 501:Generated_Source\PSoC6\pdl\drivers/peripheral/scb/cy_scb_uart.h ****     * Specifies the number of stop bits in the UART transaction, in half-bit
 502:Generated_Source\PSoC6\pdl\drivers/peripheral/scb/cy_scb_uart.h ****     * increments
 503:Generated_Source\PSoC6\pdl\drivers/peripheral/scb/cy_scb_uart.h ****     */
 504:Generated_Source\PSoC6\pdl\drivers/peripheral/scb/cy_scb_uart.h ****     cy_en_scb_uart_stop_bits_t    stopBits;
 505:Generated_Source\PSoC6\pdl\drivers/peripheral/scb/cy_scb_uart.h **** 
 506:Generated_Source\PSoC6\pdl\drivers/peripheral/scb/cy_scb_uart.h ****     /** Configures the UART parity */
 507:Generated_Source\PSoC6\pdl\drivers/peripheral/scb/cy_scb_uart.h ****     cy_en_scb_uart_parity_t    parity;
 508:Generated_Source\PSoC6\pdl\drivers/peripheral/scb/cy_scb_uart.h **** 
 509:Generated_Source\PSoC6\pdl\drivers/peripheral/scb/cy_scb_uart.h ****     /**
 510:Generated_Source\PSoC6\pdl\drivers/peripheral/scb/cy_scb_uart.h ****     * Enables a digital 3-tap median filter (2 out of 3 voting) to be applied 
 511:Generated_Source\PSoC6\pdl\drivers/peripheral/scb/cy_scb_uart.h ****     * to the input of the RX FIFO to filter glitches on the line (for IrDA, 
 512:Generated_Source\PSoC6\pdl\drivers/peripheral/scb/cy_scb_uart.h ****     * this parameter is ignored)
 513:Generated_Source\PSoC6\pdl\drivers/peripheral/scb/cy_scb_uart.h ****     *
 514:Generated_Source\PSoC6\pdl\drivers/peripheral/scb/cy_scb_uart.h ****     */
 515:Generated_Source\PSoC6\pdl\drivers/peripheral/scb/cy_scb_uart.h ****     bool        enableInputFilter;
 516:Generated_Source\PSoC6\pdl\drivers/peripheral/scb/cy_scb_uart.h **** 
 517:Generated_Source\PSoC6\pdl\drivers/peripheral/scb/cy_scb_uart.h ****     /**
 518:Generated_Source\PSoC6\pdl\drivers/peripheral/scb/cy_scb_uart.h ****     * Enables the hardware to drop data in the RX FIFO when a parity error is
 519:Generated_Source\PSoC6\pdl\drivers/peripheral/scb/cy_scb_uart.h ****     * detected
 520:Generated_Source\PSoC6\pdl\drivers/peripheral/scb/cy_scb_uart.h ****     */
 521:Generated_Source\PSoC6\pdl\drivers/peripheral/scb/cy_scb_uart.h ****     bool        dropOnParityError;
 522:Generated_Source\PSoC6\pdl\drivers/peripheral/scb/cy_scb_uart.h **** 
 523:Generated_Source\PSoC6\pdl\drivers/peripheral/scb/cy_scb_uart.h ****     /**
 524:Generated_Source\PSoC6\pdl\drivers/peripheral/scb/cy_scb_uart.h ****     * Enables the hardware to drop data in the RX FIFO when a frame error is
 525:Generated_Source\PSoC6\pdl\drivers/peripheral/scb/cy_scb_uart.h ****     * detected
 526:Generated_Source\PSoC6\pdl\drivers/peripheral/scb/cy_scb_uart.h ****     */
 527:Generated_Source\PSoC6\pdl\drivers/peripheral/scb/cy_scb_uart.h ****     bool        dropOnFrameError;
 528:Generated_Source\PSoC6\pdl\drivers/peripheral/scb/cy_scb_uart.h **** 
 529:Generated_Source\PSoC6\pdl\drivers/peripheral/scb/cy_scb_uart.h ****     /**
 530:Generated_Source\PSoC6\pdl\drivers/peripheral/scb/cy_scb_uart.h ****     * Enables the UART operation in Multi-Processor mode which requires
 531:Generated_Source\PSoC6\pdl\drivers/peripheral/scb/cy_scb_uart.h ****     * dataWidth to be 9 bits (the 9th bit is used to indicate address byte)
 532:Generated_Source\PSoC6\pdl\drivers/peripheral/scb/cy_scb_uart.h ****     */
ARM GAS  C:\Users\gab_1\AppData\Local\Temp\ccTtYdci.s 			page 38


 533:Generated_Source\PSoC6\pdl\drivers/peripheral/scb/cy_scb_uart.h ****     bool        enableMutliProcessorMode;
 534:Generated_Source\PSoC6\pdl\drivers/peripheral/scb/cy_scb_uart.h **** 
 535:Generated_Source\PSoC6\pdl\drivers/peripheral/scb/cy_scb_uart.h ****     /**
 536:Generated_Source\PSoC6\pdl\drivers/peripheral/scb/cy_scb_uart.h ****     * If Multi Processor mode is enabled, this is the address of the RX
 537:Generated_Source\PSoC6\pdl\drivers/peripheral/scb/cy_scb_uart.h ****     * FIFO. If the address matches, data is accepted into the FIFO. If
 538:Generated_Source\PSoC6\pdl\drivers/peripheral/scb/cy_scb_uart.h ****     * it does not match, the data is ignored.
 539:Generated_Source\PSoC6\pdl\drivers/peripheral/scb/cy_scb_uart.h ****     */
 540:Generated_Source\PSoC6\pdl\drivers/peripheral/scb/cy_scb_uart.h ****     uint32_t    receiverAddress;
 541:Generated_Source\PSoC6\pdl\drivers/peripheral/scb/cy_scb_uart.h **** 
 542:Generated_Source\PSoC6\pdl\drivers/peripheral/scb/cy_scb_uart.h ****     /**
 543:Generated_Source\PSoC6\pdl\drivers/peripheral/scb/cy_scb_uart.h ****     * This is the address mask for the Multi Processor address. 1 indicates
 544:Generated_Source\PSoC6\pdl\drivers/peripheral/scb/cy_scb_uart.h ****     * that the incoming address must match the corresponding bit in the slave
 545:Generated_Source\PSoC6\pdl\drivers/peripheral/scb/cy_scb_uart.h ****     * address. A 0 in the mask indicates that the incoming address does
 546:Generated_Source\PSoC6\pdl\drivers/peripheral/scb/cy_scb_uart.h ****     * not need to match.
 547:Generated_Source\PSoC6\pdl\drivers/peripheral/scb/cy_scb_uart.h ****     */
 548:Generated_Source\PSoC6\pdl\drivers/peripheral/scb/cy_scb_uart.h ****     uint32_t    receiverAddressMask;
 549:Generated_Source\PSoC6\pdl\drivers/peripheral/scb/cy_scb_uart.h **** 
 550:Generated_Source\PSoC6\pdl\drivers/peripheral/scb/cy_scb_uart.h ****     /**
 551:Generated_Source\PSoC6\pdl\drivers/peripheral/scb/cy_scb_uart.h ****     * Enables the hardware to accept the matching address in the RX FIFO.
 552:Generated_Source\PSoC6\pdl\drivers/peripheral/scb/cy_scb_uart.h ****     * This is useful when the device supports more than one address.
 553:Generated_Source\PSoC6\pdl\drivers/peripheral/scb/cy_scb_uart.h ****     */
 554:Generated_Source\PSoC6\pdl\drivers/peripheral/scb/cy_scb_uart.h ****     bool        acceptAddrInFifo;
 555:Generated_Source\PSoC6\pdl\drivers/peripheral/scb/cy_scb_uart.h **** 
 556:Generated_Source\PSoC6\pdl\drivers/peripheral/scb/cy_scb_uart.h ****     /** Inverts the IrDA RX input */
 557:Generated_Source\PSoC6\pdl\drivers/peripheral/scb/cy_scb_uart.h ****     bool        irdaInvertRx;
 558:Generated_Source\PSoC6\pdl\drivers/peripheral/scb/cy_scb_uart.h **** 
 559:Generated_Source\PSoC6\pdl\drivers/peripheral/scb/cy_scb_uart.h ****     /**
 560:Generated_Source\PSoC6\pdl\drivers/peripheral/scb/cy_scb_uart.h ****     * Enables the low-power receive for IrDA mode.
 561:Generated_Source\PSoC6\pdl\drivers/peripheral/scb/cy_scb_uart.h ****     * Note that the transmission must be disabled if this mode is enabled.
 562:Generated_Source\PSoC6\pdl\drivers/peripheral/scb/cy_scb_uart.h ****     */
 563:Generated_Source\PSoC6\pdl\drivers/peripheral/scb/cy_scb_uart.h ****     bool        irdaEnableLowPowerReceiver;
 564:Generated_Source\PSoC6\pdl\drivers/peripheral/scb/cy_scb_uart.h **** 
 565:Generated_Source\PSoC6\pdl\drivers/peripheral/scb/cy_scb_uart.h ****     /**
 566:Generated_Source\PSoC6\pdl\drivers/peripheral/scb/cy_scb_uart.h ****     * Enables retransmission of the frame placed in the TX FIFO when
 567:Generated_Source\PSoC6\pdl\drivers/peripheral/scb/cy_scb_uart.h ****     * NACK is received in SmartCard mode (for Standard and IrDA , this parameter
 568:Generated_Source\PSoC6\pdl\drivers/peripheral/scb/cy_scb_uart.h ****     * is ignored)
 569:Generated_Source\PSoC6\pdl\drivers/peripheral/scb/cy_scb_uart.h ****     */
 570:Generated_Source\PSoC6\pdl\drivers/peripheral/scb/cy_scb_uart.h ****     bool        smartCardRetryOnNack;
 571:Generated_Source\PSoC6\pdl\drivers/peripheral/scb/cy_scb_uart.h **** 
 572:Generated_Source\PSoC6\pdl\drivers/peripheral/scb/cy_scb_uart.h ****     /**
 573:Generated_Source\PSoC6\pdl\drivers/peripheral/scb/cy_scb_uart.h ****     * Enables the usage of the CTS input signal for the transmitter. The
 574:Generated_Source\PSoC6\pdl\drivers/peripheral/scb/cy_scb_uart.h ****     * transmitter waits for CTS to be active before sending data
 575:Generated_Source\PSoC6\pdl\drivers/peripheral/scb/cy_scb_uart.h ****     */
 576:Generated_Source\PSoC6\pdl\drivers/peripheral/scb/cy_scb_uart.h ****     bool        enableCts;
 577:Generated_Source\PSoC6\pdl\drivers/peripheral/scb/cy_scb_uart.h **** 
 578:Generated_Source\PSoC6\pdl\drivers/peripheral/scb/cy_scb_uart.h ****     /** Sets the CTS Polarity */
 579:Generated_Source\PSoC6\pdl\drivers/peripheral/scb/cy_scb_uart.h ****     cy_en_scb_uart_polarity_t    ctsPolarity;
 580:Generated_Source\PSoC6\pdl\drivers/peripheral/scb/cy_scb_uart.h **** 
 581:Generated_Source\PSoC6\pdl\drivers/peripheral/scb/cy_scb_uart.h ****     /**
 582:Generated_Source\PSoC6\pdl\drivers/peripheral/scb/cy_scb_uart.h ****     * When the RX FIFO has fewer entries than rtsRxFifoLevel, the
 583:Generated_Source\PSoC6\pdl\drivers/peripheral/scb/cy_scb_uart.h ****     * RTS signal is active (note to disable RTS, set this field to zero)
 584:Generated_Source\PSoC6\pdl\drivers/peripheral/scb/cy_scb_uart.h ****     */
 585:Generated_Source\PSoC6\pdl\drivers/peripheral/scb/cy_scb_uart.h ****     uint32_t    rtsRxFifoLevel;
 586:Generated_Source\PSoC6\pdl\drivers/peripheral/scb/cy_scb_uart.h **** 
 587:Generated_Source\PSoC6\pdl\drivers/peripheral/scb/cy_scb_uart.h ****     /** Sets the RTS Polarity */
 588:Generated_Source\PSoC6\pdl\drivers/peripheral/scb/cy_scb_uart.h ****     cy_en_scb_uart_polarity_t    rtsPolarity;
 589:Generated_Source\PSoC6\pdl\drivers/peripheral/scb/cy_scb_uart.h **** 
ARM GAS  C:\Users\gab_1\AppData\Local\Temp\ccTtYdci.s 			page 39


 590:Generated_Source\PSoC6\pdl\drivers/peripheral/scb/cy_scb_uart.h ****     /** Specifies the number of bits to detect a break condition */
 591:Generated_Source\PSoC6\pdl\drivers/peripheral/scb/cy_scb_uart.h ****     uint32_t    breakWidth;
 592:Generated_Source\PSoC6\pdl\drivers/peripheral/scb/cy_scb_uart.h **** 
 593:Generated_Source\PSoC6\pdl\drivers/peripheral/scb/cy_scb_uart.h ****     /**
 594:Generated_Source\PSoC6\pdl\drivers/peripheral/scb/cy_scb_uart.h ****     * When there are more entries in the RX FIFO than this level
 595:Generated_Source\PSoC6\pdl\drivers/peripheral/scb/cy_scb_uart.h ****     * the RX trigger output goes high. This output can be connected
 596:Generated_Source\PSoC6\pdl\drivers/peripheral/scb/cy_scb_uart.h ****     * to a DMA channel through a trigger mux.
 597:Generated_Source\PSoC6\pdl\drivers/peripheral/scb/cy_scb_uart.h ****     * Also, it controls the \ref CY_SCB_UART_RX_TRIGGER interrupt source.
 598:Generated_Source\PSoC6\pdl\drivers/peripheral/scb/cy_scb_uart.h ****     */
 599:Generated_Source\PSoC6\pdl\drivers/peripheral/scb/cy_scb_uart.h ****     uint32_t    rxFifoTriggerLevel;
 600:Generated_Source\PSoC6\pdl\drivers/peripheral/scb/cy_scb_uart.h **** 
 601:Generated_Source\PSoC6\pdl\drivers/peripheral/scb/cy_scb_uart.h ****     /**
 602:Generated_Source\PSoC6\pdl\drivers/peripheral/scb/cy_scb_uart.h ****     * The bits set in this mask allow the event to cause an interrupt
 603:Generated_Source\PSoC6\pdl\drivers/peripheral/scb/cy_scb_uart.h ****     * (See \ref group_scb_uart_macros_rx_fifo_status for the set of constants)
 604:Generated_Source\PSoC6\pdl\drivers/peripheral/scb/cy_scb_uart.h ****     */
 605:Generated_Source\PSoC6\pdl\drivers/peripheral/scb/cy_scb_uart.h ****     uint32_t    rxFifoIntEnableMask;
 606:Generated_Source\PSoC6\pdl\drivers/peripheral/scb/cy_scb_uart.h **** 
 607:Generated_Source\PSoC6\pdl\drivers/peripheral/scb/cy_scb_uart.h ****     /**
 608:Generated_Source\PSoC6\pdl\drivers/peripheral/scb/cy_scb_uart.h ****     * When there are fewer entries in the TX FIFO then this level
 609:Generated_Source\PSoC6\pdl\drivers/peripheral/scb/cy_scb_uart.h ****     * the TX trigger output goes high. This output can be connected
 610:Generated_Source\PSoC6\pdl\drivers/peripheral/scb/cy_scb_uart.h ****     * to a DMA channel through a trigger mux.
 611:Generated_Source\PSoC6\pdl\drivers/peripheral/scb/cy_scb_uart.h ****     * Also, it controls \ref CY_SCB_UART_TX_TRIGGER interrupt source.
 612:Generated_Source\PSoC6\pdl\drivers/peripheral/scb/cy_scb_uart.h ****     */
 613:Generated_Source\PSoC6\pdl\drivers/peripheral/scb/cy_scb_uart.h ****     uint32_t    txFifoTriggerLevel;
 614:Generated_Source\PSoC6\pdl\drivers/peripheral/scb/cy_scb_uart.h **** 
 615:Generated_Source\PSoC6\pdl\drivers/peripheral/scb/cy_scb_uart.h ****     /**
 616:Generated_Source\PSoC6\pdl\drivers/peripheral/scb/cy_scb_uart.h ****     * Bits set in this mask allows the event to cause an interrupt
 617:Generated_Source\PSoC6\pdl\drivers/peripheral/scb/cy_scb_uart.h ****     * (See \ref group_scb_uart_macros_tx_fifo_status for the set of constants)
 618:Generated_Source\PSoC6\pdl\drivers/peripheral/scb/cy_scb_uart.h ****     */
 619:Generated_Source\PSoC6\pdl\drivers/peripheral/scb/cy_scb_uart.h ****     uint32_t    txFifoIntEnableMask;
 620:Generated_Source\PSoC6\pdl\drivers/peripheral/scb/cy_scb_uart.h **** } cy_stc_scb_uart_config_t;
 621:Generated_Source\PSoC6\pdl\drivers/peripheral/scb/cy_scb_uart.h **** 
 622:Generated_Source\PSoC6\pdl\drivers/peripheral/scb/cy_scb_uart.h **** /** UART context structure.
 623:Generated_Source\PSoC6\pdl\drivers/peripheral/scb/cy_scb_uart.h **** * All fields for the context structure are internal. Firmware never reads or
 624:Generated_Source\PSoC6\pdl\drivers/peripheral/scb/cy_scb_uart.h **** * writes these values. Firmware allocates the structure and provides the
 625:Generated_Source\PSoC6\pdl\drivers/peripheral/scb/cy_scb_uart.h **** * address of the structure to the driver in function calls. Firmware must
 626:Generated_Source\PSoC6\pdl\drivers/peripheral/scb/cy_scb_uart.h **** * ensure that the defined instance of this structure remains in scope
 627:Generated_Source\PSoC6\pdl\drivers/peripheral/scb/cy_scb_uart.h **** * while the drive is in use.
 628:Generated_Source\PSoC6\pdl\drivers/peripheral/scb/cy_scb_uart.h **** */
 629:Generated_Source\PSoC6\pdl\drivers/peripheral/scb/cy_scb_uart.h **** typedef struct cy_stc_scb_uart_context
 630:Generated_Source\PSoC6\pdl\drivers/peripheral/scb/cy_scb_uart.h **** {
 631:Generated_Source\PSoC6\pdl\drivers/peripheral/scb/cy_scb_uart.h ****     /** \cond INTERNAL */
 632:Generated_Source\PSoC6\pdl\drivers/peripheral/scb/cy_scb_uart.h ****     uint32_t volatile txStatus;         /**< The transmit status */
 633:Generated_Source\PSoC6\pdl\drivers/peripheral/scb/cy_scb_uart.h ****     uint32_t volatile rxStatus;         /**< The receive status */
 634:Generated_Source\PSoC6\pdl\drivers/peripheral/scb/cy_scb_uart.h **** 
 635:Generated_Source\PSoC6\pdl\drivers/peripheral/scb/cy_scb_uart.h ****     void     *rxRingBuf;                /**< The pointer to the ring buffer */
 636:Generated_Source\PSoC6\pdl\drivers/peripheral/scb/cy_scb_uart.h ****     uint32_t  rxRingBufSize;            /**< The ring buffer size */
 637:Generated_Source\PSoC6\pdl\drivers/peripheral/scb/cy_scb_uart.h ****     uint32_t volatile rxRingBufHead;    /**< The ring buffer head index */
 638:Generated_Source\PSoC6\pdl\drivers/peripheral/scb/cy_scb_uart.h ****     uint32_t volatile rxRingBufTail;    /**< The ring buffer tail index */
 639:Generated_Source\PSoC6\pdl\drivers/peripheral/scb/cy_scb_uart.h **** 
 640:Generated_Source\PSoC6\pdl\drivers/peripheral/scb/cy_scb_uart.h ****     void     *rxBuf;                    /**< The pointer to the receive buffer */
 641:Generated_Source\PSoC6\pdl\drivers/peripheral/scb/cy_scb_uart.h ****     uint32_t  rxBufSize;                /**< The receive buffer size */
 642:Generated_Source\PSoC6\pdl\drivers/peripheral/scb/cy_scb_uart.h ****     uint32_t volatile rxBufIdx;         /**< The current location in the receive buffer */
 643:Generated_Source\PSoC6\pdl\drivers/peripheral/scb/cy_scb_uart.h **** 
 644:Generated_Source\PSoC6\pdl\drivers/peripheral/scb/cy_scb_uart.h ****     void     *txBuf;                    /**< The pointer to the transmit buffer */
 645:Generated_Source\PSoC6\pdl\drivers/peripheral/scb/cy_scb_uart.h ****     uint32_t  txBufSize;                /**< The transmit buffer size */
 646:Generated_Source\PSoC6\pdl\drivers/peripheral/scb/cy_scb_uart.h ****     uint32_t volatile txLeftToTransmit; /**< The number of data elements left to be transmitted */
ARM GAS  C:\Users\gab_1\AppData\Local\Temp\ccTtYdci.s 			page 40


 647:Generated_Source\PSoC6\pdl\drivers/peripheral/scb/cy_scb_uart.h **** 
 648:Generated_Source\PSoC6\pdl\drivers/peripheral/scb/cy_scb_uart.h ****     /** The pointer to an event callback that is called when any of
 649:Generated_Source\PSoC6\pdl\drivers/peripheral/scb/cy_scb_uart.h ****     * \ref group_scb_uart_macros_callback_events occurs
 650:Generated_Source\PSoC6\pdl\drivers/peripheral/scb/cy_scb_uart.h ****     */
 651:Generated_Source\PSoC6\pdl\drivers/peripheral/scb/cy_scb_uart.h ****     cy_cb_scb_uart_handle_events_t cbEvents;
 652:Generated_Source\PSoC6\pdl\drivers/peripheral/scb/cy_scb_uart.h **** 
 653:Generated_Source\PSoC6\pdl\drivers/peripheral/scb/cy_scb_uart.h **** #if !defined(NDEBUG)
 654:Generated_Source\PSoC6\pdl\drivers/peripheral/scb/cy_scb_uart.h ****     uint32_t initKey;               /**< Tracks the context initialization */
 655:Generated_Source\PSoC6\pdl\drivers/peripheral/scb/cy_scb_uart.h **** #endif /* !(NDEBUG) */
 656:Generated_Source\PSoC6\pdl\drivers/peripheral/scb/cy_scb_uart.h ****     /** \endcond */
 657:Generated_Source\PSoC6\pdl\drivers/peripheral/scb/cy_scb_uart.h **** } cy_stc_scb_uart_context_t;
 658:Generated_Source\PSoC6\pdl\drivers/peripheral/scb/cy_scb_uart.h **** /** \} group_scb_uart_data_structures */
 659:Generated_Source\PSoC6\pdl\drivers/peripheral/scb/cy_scb_uart.h **** 
 660:Generated_Source\PSoC6\pdl\drivers/peripheral/scb/cy_scb_uart.h **** 
 661:Generated_Source\PSoC6\pdl\drivers/peripheral/scb/cy_scb_uart.h **** /*******************************************************************************
 662:Generated_Source\PSoC6\pdl\drivers/peripheral/scb/cy_scb_uart.h **** *                           Function Prototypes
 663:Generated_Source\PSoC6\pdl\drivers/peripheral/scb/cy_scb_uart.h **** *******************************************************************************/
 664:Generated_Source\PSoC6\pdl\drivers/peripheral/scb/cy_scb_uart.h **** 
 665:Generated_Source\PSoC6\pdl\drivers/peripheral/scb/cy_scb_uart.h **** /**
 666:Generated_Source\PSoC6\pdl\drivers/peripheral/scb/cy_scb_uart.h **** * \addtogroup group_scb_uart_general_functions
 667:Generated_Source\PSoC6\pdl\drivers/peripheral/scb/cy_scb_uart.h **** * \{
 668:Generated_Source\PSoC6\pdl\drivers/peripheral/scb/cy_scb_uart.h **** */
 669:Generated_Source\PSoC6\pdl\drivers/peripheral/scb/cy_scb_uart.h **** cy_en_scb_uart_status_t Cy_SCB_UART_Init(CySCB_Type *base, cy_stc_scb_uart_config_t const *config,
 670:Generated_Source\PSoC6\pdl\drivers/peripheral/scb/cy_scb_uart.h ****                                          cy_stc_scb_uart_context_t *context);
 671:Generated_Source\PSoC6\pdl\drivers/peripheral/scb/cy_scb_uart.h **** void Cy_SCB_UART_DeInit (CySCB_Type *base);
 672:Generated_Source\PSoC6\pdl\drivers/peripheral/scb/cy_scb_uart.h **** __STATIC_INLINE void Cy_SCB_UART_Enable(CySCB_Type *base);
 673:Generated_Source\PSoC6\pdl\drivers/peripheral/scb/cy_scb_uart.h **** void Cy_SCB_UART_Disable(CySCB_Type *base, cy_stc_scb_uart_context_t *context);
 674:Generated_Source\PSoC6\pdl\drivers/peripheral/scb/cy_scb_uart.h **** 
 675:Generated_Source\PSoC6\pdl\drivers/peripheral/scb/cy_scb_uart.h **** __STATIC_INLINE void     Cy_SCB_UART_EnableCts      (CySCB_Type *base);
 676:Generated_Source\PSoC6\pdl\drivers/peripheral/scb/cy_scb_uart.h **** __STATIC_INLINE void     Cy_SCB_UART_DisableCts     (CySCB_Type *base);
 677:Generated_Source\PSoC6\pdl\drivers/peripheral/scb/cy_scb_uart.h **** __STATIC_INLINE void     Cy_SCB_UART_SetRtsFifoLevel(CySCB_Type *base, uint32_t level);
 678:Generated_Source\PSoC6\pdl\drivers/peripheral/scb/cy_scb_uart.h **** __STATIC_INLINE uint32_t Cy_SCB_UART_GetRtsFifoLevel(CySCB_Type const *base);
 679:Generated_Source\PSoC6\pdl\drivers/peripheral/scb/cy_scb_uart.h **** 
 680:Generated_Source\PSoC6\pdl\drivers/peripheral/scb/cy_scb_uart.h **** __STATIC_INLINE void Cy_SCB_UART_EnableSkipStart (CySCB_Type *base);
 681:Generated_Source\PSoC6\pdl\drivers/peripheral/scb/cy_scb_uart.h **** __STATIC_INLINE void Cy_SCB_UART_DisableSkipStart(CySCB_Type *base);
 682:Generated_Source\PSoC6\pdl\drivers/peripheral/scb/cy_scb_uart.h **** /** \} group_scb_uart_general_functions */
 683:Generated_Source\PSoC6\pdl\drivers/peripheral/scb/cy_scb_uart.h **** 
 684:Generated_Source\PSoC6\pdl\drivers/peripheral/scb/cy_scb_uart.h **** /**
 685:Generated_Source\PSoC6\pdl\drivers/peripheral/scb/cy_scb_uart.h **** * \addtogroup group_scb_uart_high_level_functions
 686:Generated_Source\PSoC6\pdl\drivers/peripheral/scb/cy_scb_uart.h **** * \{
 687:Generated_Source\PSoC6\pdl\drivers/peripheral/scb/cy_scb_uart.h **** */
 688:Generated_Source\PSoC6\pdl\drivers/peripheral/scb/cy_scb_uart.h **** void     Cy_SCB_UART_StartRingBuffer   (CySCB_Type *base, void *buffer, uint32_t size,
 689:Generated_Source\PSoC6\pdl\drivers/peripheral/scb/cy_scb_uart.h ****                                         cy_stc_scb_uart_context_t *context);
 690:Generated_Source\PSoC6\pdl\drivers/peripheral/scb/cy_scb_uart.h **** void     Cy_SCB_UART_StopRingBuffer    (CySCB_Type *base, cy_stc_scb_uart_context_t *context);
 691:Generated_Source\PSoC6\pdl\drivers/peripheral/scb/cy_scb_uart.h **** uint32_t Cy_SCB_UART_GetNumInRingBuffer(CySCB_Type const *base, cy_stc_scb_uart_context_t const *co
 692:Generated_Source\PSoC6\pdl\drivers/peripheral/scb/cy_scb_uart.h **** void     Cy_SCB_UART_ClearRingBuffer   (CySCB_Type const *base, cy_stc_scb_uart_context_t *context)
 693:Generated_Source\PSoC6\pdl\drivers/peripheral/scb/cy_scb_uart.h **** 
 694:Generated_Source\PSoC6\pdl\drivers/peripheral/scb/cy_scb_uart.h **** cy_en_scb_uart_status_t Cy_SCB_UART_Receive(CySCB_Type *base, void *buffer, uint32_t size,
 695:Generated_Source\PSoC6\pdl\drivers/peripheral/scb/cy_scb_uart.h ****                                             cy_stc_scb_uart_context_t *context);
 696:Generated_Source\PSoC6\pdl\drivers/peripheral/scb/cy_scb_uart.h **** void     Cy_SCB_UART_AbortReceive    (CySCB_Type *base, cy_stc_scb_uart_context_t *context);
 697:Generated_Source\PSoC6\pdl\drivers/peripheral/scb/cy_scb_uart.h **** uint32_t Cy_SCB_UART_GetReceiveStatus(CySCB_Type const *base, cy_stc_scb_uart_context_t const *cont
 698:Generated_Source\PSoC6\pdl\drivers/peripheral/scb/cy_scb_uart.h **** uint32_t Cy_SCB_UART_GetNumReceived  (CySCB_Type const *base, cy_stc_scb_uart_context_t const *cont
 699:Generated_Source\PSoC6\pdl\drivers/peripheral/scb/cy_scb_uart.h **** 
 700:Generated_Source\PSoC6\pdl\drivers/peripheral/scb/cy_scb_uart.h **** cy_en_scb_uart_status_t Cy_SCB_UART_Transmit(CySCB_Type *base, void *buffer, uint32_t size,
 701:Generated_Source\PSoC6\pdl\drivers/peripheral/scb/cy_scb_uart.h ****                                              cy_stc_scb_uart_context_t *context);
 702:Generated_Source\PSoC6\pdl\drivers/peripheral/scb/cy_scb_uart.h **** void     Cy_SCB_UART_AbortTransmit       (CySCB_Type *base, cy_stc_scb_uart_context_t *context);
 703:Generated_Source\PSoC6\pdl\drivers/peripheral/scb/cy_scb_uart.h **** uint32_t Cy_SCB_UART_GetTransmitStatus   (CySCB_Type const *base, cy_stc_scb_uart_context_t const *
ARM GAS  C:\Users\gab_1\AppData\Local\Temp\ccTtYdci.s 			page 41


 704:Generated_Source\PSoC6\pdl\drivers/peripheral/scb/cy_scb_uart.h **** uint32_t Cy_SCB_UART_GetNumLeftToTransmit(CySCB_Type const *base, cy_stc_scb_uart_context_t const *
 705:Generated_Source\PSoC6\pdl\drivers/peripheral/scb/cy_scb_uart.h **** /** \} group_scb_uart_high_level_functions */
 706:Generated_Source\PSoC6\pdl\drivers/peripheral/scb/cy_scb_uart.h **** 
 707:Generated_Source\PSoC6\pdl\drivers/peripheral/scb/cy_scb_uart.h **** /**
 708:Generated_Source\PSoC6\pdl\drivers/peripheral/scb/cy_scb_uart.h **** * \addtogroup group_scb_uart_low_level_functions
 709:Generated_Source\PSoC6\pdl\drivers/peripheral/scb/cy_scb_uart.h **** * \{
 710:Generated_Source\PSoC6\pdl\drivers/peripheral/scb/cy_scb_uart.h **** */
 711:Generated_Source\PSoC6\pdl\drivers/peripheral/scb/cy_scb_uart.h **** __STATIC_INLINE uint32_t Cy_SCB_UART_Put             (CySCB_Type *base, uint32_t data);
 712:Generated_Source\PSoC6\pdl\drivers/peripheral/scb/cy_scb_uart.h **** __STATIC_INLINE uint32_t Cy_SCB_UART_PutArray        (CySCB_Type *base, void *buffer, uint32_t size
 713:Generated_Source\PSoC6\pdl\drivers/peripheral/scb/cy_scb_uart.h **** __STATIC_INLINE void     Cy_SCB_UART_PutArrayBlocking(CySCB_Type *base, void *buffer, uint32_t size
 714:Generated_Source\PSoC6\pdl\drivers/peripheral/scb/cy_scb_uart.h **** __STATIC_INLINE void     Cy_SCB_UART_PutString       (CySCB_Type *base, char_t const string[]);
 715:Generated_Source\PSoC6\pdl\drivers/peripheral/scb/cy_scb_uart.h **** void Cy_SCB_UART_SendBreakBlocking(CySCB_Type *base, uint32_t breakWidth);
 716:Generated_Source\PSoC6\pdl\drivers/peripheral/scb/cy_scb_uart.h **** 
 717:Generated_Source\PSoC6\pdl\drivers/peripheral/scb/cy_scb_uart.h **** __STATIC_INLINE uint32_t Cy_SCB_UART_Get             (CySCB_Type const *base);
 718:Generated_Source\PSoC6\pdl\drivers/peripheral/scb/cy_scb_uart.h **** __STATIC_INLINE uint32_t Cy_SCB_UART_GetArray        (CySCB_Type const *base, void *buffer, uint32_
 719:Generated_Source\PSoC6\pdl\drivers/peripheral/scb/cy_scb_uart.h **** __STATIC_INLINE void     Cy_SCB_UART_GetArrayBlocking(CySCB_Type const *base, void *buffer, uint32_
 720:Generated_Source\PSoC6\pdl\drivers/peripheral/scb/cy_scb_uart.h **** 
 721:Generated_Source\PSoC6\pdl\drivers/peripheral/scb/cy_scb_uart.h **** __STATIC_INLINE uint32_t Cy_SCB_UART_GetTxFifoStatus  (CySCB_Type const *base);
 722:Generated_Source\PSoC6\pdl\drivers/peripheral/scb/cy_scb_uart.h **** __STATIC_INLINE void     Cy_SCB_UART_ClearTxFifoStatus(CySCB_Type *base, uint32_t clearMask);
 723:Generated_Source\PSoC6\pdl\drivers/peripheral/scb/cy_scb_uart.h **** 
 724:Generated_Source\PSoC6\pdl\drivers/peripheral/scb/cy_scb_uart.h **** __STATIC_INLINE uint32_t Cy_SCB_UART_GetRxFifoStatus  (CySCB_Type const *base);
 725:Generated_Source\PSoC6\pdl\drivers/peripheral/scb/cy_scb_uart.h **** __STATIC_INLINE void     Cy_SCB_UART_ClearRxFifoStatus(CySCB_Type *base, uint32_t clearMask);
 726:Generated_Source\PSoC6\pdl\drivers/peripheral/scb/cy_scb_uart.h **** 
 727:Generated_Source\PSoC6\pdl\drivers/peripheral/scb/cy_scb_uart.h **** __STATIC_INLINE uint32_t Cy_SCB_UART_GetNumInTxFifo   (CySCB_Type const *base);
 728:Generated_Source\PSoC6\pdl\drivers/peripheral/scb/cy_scb_uart.h **** __STATIC_INLINE bool     Cy_SCB_UART_IsTxComplete     (CySCB_Type const *base);
 729:Generated_Source\PSoC6\pdl\drivers/peripheral/scb/cy_scb_uart.h **** 
 730:Generated_Source\PSoC6\pdl\drivers/peripheral/scb/cy_scb_uart.h **** __STATIC_INLINE uint32_t Cy_SCB_UART_GetNumInRxFifo   (CySCB_Type const *base);
 731:Generated_Source\PSoC6\pdl\drivers/peripheral/scb/cy_scb_uart.h **** 
 732:Generated_Source\PSoC6\pdl\drivers/peripheral/scb/cy_scb_uart.h **** __STATIC_INLINE void     Cy_SCB_UART_ClearRxFifo      (CySCB_Type *base);
 733:Generated_Source\PSoC6\pdl\drivers/peripheral/scb/cy_scb_uart.h **** __STATIC_INLINE void     Cy_SCB_UART_ClearTxFifo      (CySCB_Type *base);
 734:Generated_Source\PSoC6\pdl\drivers/peripheral/scb/cy_scb_uart.h **** /** \} group_scb_uart_low_level_functions */
 735:Generated_Source\PSoC6\pdl\drivers/peripheral/scb/cy_scb_uart.h **** 
 736:Generated_Source\PSoC6\pdl\drivers/peripheral/scb/cy_scb_uart.h **** /**
 737:Generated_Source\PSoC6\pdl\drivers/peripheral/scb/cy_scb_uart.h **** * \addtogroup group_scb_uart_interrupt_functions
 738:Generated_Source\PSoC6\pdl\drivers/peripheral/scb/cy_scb_uart.h **** * \{
 739:Generated_Source\PSoC6\pdl\drivers/peripheral/scb/cy_scb_uart.h **** */
 740:Generated_Source\PSoC6\pdl\drivers/peripheral/scb/cy_scb_uart.h **** void Cy_SCB_UART_Interrupt(CySCB_Type *base, cy_stc_scb_uart_context_t *context);
 741:Generated_Source\PSoC6\pdl\drivers/peripheral/scb/cy_scb_uart.h **** 
 742:Generated_Source\PSoC6\pdl\drivers/peripheral/scb/cy_scb_uart.h **** __STATIC_INLINE void Cy_SCB_UART_RegisterCallback(CySCB_Type const *base, cy_cb_scb_uart_handle_eve
 743:Generated_Source\PSoC6\pdl\drivers/peripheral/scb/cy_scb_uart.h ****                                                   cy_stc_scb_uart_context_t *context);
 744:Generated_Source\PSoC6\pdl\drivers/peripheral/scb/cy_scb_uart.h **** /** \} group_scb_uart_interrupt_functions */
 745:Generated_Source\PSoC6\pdl\drivers/peripheral/scb/cy_scb_uart.h **** 
 746:Generated_Source\PSoC6\pdl\drivers/peripheral/scb/cy_scb_uart.h **** /**
 747:Generated_Source\PSoC6\pdl\drivers/peripheral/scb/cy_scb_uart.h **** * \addtogroup group_scb_uart_low_power_functions
 748:Generated_Source\PSoC6\pdl\drivers/peripheral/scb/cy_scb_uart.h **** * \{
 749:Generated_Source\PSoC6\pdl\drivers/peripheral/scb/cy_scb_uart.h **** */
 750:Generated_Source\PSoC6\pdl\drivers/peripheral/scb/cy_scb_uart.h **** cy_en_syspm_status_t Cy_SCB_UART_DeepSleepCallback(cy_stc_syspm_callback_params_t *callbackParams, 
 751:Generated_Source\PSoC6\pdl\drivers/peripheral/scb/cy_scb_uart.h **** cy_en_syspm_status_t Cy_SCB_UART_HibernateCallback(cy_stc_syspm_callback_params_t *callbackParams, 
 752:Generated_Source\PSoC6\pdl\drivers/peripheral/scb/cy_scb_uart.h **** /** \} group_scb_uart_low_power_functions */
 753:Generated_Source\PSoC6\pdl\drivers/peripheral/scb/cy_scb_uart.h **** 
 754:Generated_Source\PSoC6\pdl\drivers/peripheral/scb/cy_scb_uart.h **** 
 755:Generated_Source\PSoC6\pdl\drivers/peripheral/scb/cy_scb_uart.h **** /*******************************************************************************
 756:Generated_Source\PSoC6\pdl\drivers/peripheral/scb/cy_scb_uart.h **** *                               API Constants
 757:Generated_Source\PSoC6\pdl\drivers/peripheral/scb/cy_scb_uart.h **** *******************************************************************************/
 758:Generated_Source\PSoC6\pdl\drivers/peripheral/scb/cy_scb_uart.h **** 
 759:Generated_Source\PSoC6\pdl\drivers/peripheral/scb/cy_scb_uart.h **** /**
 760:Generated_Source\PSoC6\pdl\drivers/peripheral/scb/cy_scb_uart.h **** * \addtogroup group_scb_uart_macros
ARM GAS  C:\Users\gab_1\AppData\Local\Temp\ccTtYdci.s 			page 42


 761:Generated_Source\PSoC6\pdl\drivers/peripheral/scb/cy_scb_uart.h **** * \{
 762:Generated_Source\PSoC6\pdl\drivers/peripheral/scb/cy_scb_uart.h **** */
 763:Generated_Source\PSoC6\pdl\drivers/peripheral/scb/cy_scb_uart.h **** 
 764:Generated_Source\PSoC6\pdl\drivers/peripheral/scb/cy_scb_uart.h **** /**
 765:Generated_Source\PSoC6\pdl\drivers/peripheral/scb/cy_scb_uart.h **** * \defgroup group_scb_uart_macros_irda_lp_ovs UART IRDA Low Power Oversample factors
 766:Generated_Source\PSoC6\pdl\drivers/peripheral/scb/cy_scb_uart.h **** * \{
 767:Generated_Source\PSoC6\pdl\drivers/peripheral/scb/cy_scb_uart.h **** */
 768:Generated_Source\PSoC6\pdl\drivers/peripheral/scb/cy_scb_uart.h **** #define CY_SCB_UART_IRDA_LP_OVS16      (1UL)   /**< IrDA in low-power mode oversampled by 16   */
 769:Generated_Source\PSoC6\pdl\drivers/peripheral/scb/cy_scb_uart.h **** #define CY_SCB_UART_IRDA_LP_OVS32      (2UL)   /**< IrDA in low-power mode oversampled by 32   */
 770:Generated_Source\PSoC6\pdl\drivers/peripheral/scb/cy_scb_uart.h **** #define CY_SCB_UART_IRDA_LP_OVS48      (3UL)   /**< IrDA in low-power mode oversampled by 48   */
 771:Generated_Source\PSoC6\pdl\drivers/peripheral/scb/cy_scb_uart.h **** #define CY_SCB_UART_IRDA_LP_OVS96      (4UL)   /**< IrDA in low-power mode oversampled by 96   */
 772:Generated_Source\PSoC6\pdl\drivers/peripheral/scb/cy_scb_uart.h **** #define CY_SCB_UART_IRDA_LP_OVS192     (5UL)   /**< IrDA in low-power mode oversampled by 192  */
 773:Generated_Source\PSoC6\pdl\drivers/peripheral/scb/cy_scb_uart.h **** #define CY_SCB_UART_IRDA_LP_OVS768     (6UL)   /**< IrDA in low-power mode oversampled by 768  */
 774:Generated_Source\PSoC6\pdl\drivers/peripheral/scb/cy_scb_uart.h **** #define CY_SCB_UART_IRDA_LP_OVS1536    (7UL)   /**< IrDA in low-power mode oversampled by 1536 */
 775:Generated_Source\PSoC6\pdl\drivers/peripheral/scb/cy_scb_uart.h **** /** \} group_scb_uart_macros_irda_lp_ovs */
 776:Generated_Source\PSoC6\pdl\drivers/peripheral/scb/cy_scb_uart.h **** 
 777:Generated_Source\PSoC6\pdl\drivers/peripheral/scb/cy_scb_uart.h **** /**
 778:Generated_Source\PSoC6\pdl\drivers/peripheral/scb/cy_scb_uart.h **** * \defgroup group_scb_uart_macros_rx_fifo_status UART RX FIFO status.
 779:Generated_Source\PSoC6\pdl\drivers/peripheral/scb/cy_scb_uart.h **** * \{
 780:Generated_Source\PSoC6\pdl\drivers/peripheral/scb/cy_scb_uart.h **** * Macros to check UART RX FIFO status returned by \ref Cy_SCB_UART_GetRxFifoStatus
 781:Generated_Source\PSoC6\pdl\drivers/peripheral/scb/cy_scb_uart.h **** * function or assign mask for \ref Cy_SCB_UART_ClearRxFifoStatus function.
 782:Generated_Source\PSoC6\pdl\drivers/peripheral/scb/cy_scb_uart.h **** * Each UART RX FIFO status is encoded in a separate bit, therefore multiple
 783:Generated_Source\PSoC6\pdl\drivers/peripheral/scb/cy_scb_uart.h **** * bits may be set to indicate the current status.
 784:Generated_Source\PSoC6\pdl\drivers/peripheral/scb/cy_scb_uart.h **** */
 785:Generated_Source\PSoC6\pdl\drivers/peripheral/scb/cy_scb_uart.h **** 
 786:Generated_Source\PSoC6\pdl\drivers/peripheral/scb/cy_scb_uart.h **** /** The number of entries in the RX FIFO is more than the RX FIFO trigger level
 787:Generated_Source\PSoC6\pdl\drivers/peripheral/scb/cy_scb_uart.h **** * value
 788:Generated_Source\PSoC6\pdl\drivers/peripheral/scb/cy_scb_uart.h **** */
 789:Generated_Source\PSoC6\pdl\drivers/peripheral/scb/cy_scb_uart.h **** #define CY_SCB_UART_RX_TRIGGER         (SCB_INTR_RX_TRIGGER_Msk)
 790:Generated_Source\PSoC6\pdl\drivers/peripheral/scb/cy_scb_uart.h **** 
 791:Generated_Source\PSoC6\pdl\drivers/peripheral/scb/cy_scb_uart.h **** /** The RX FIFO is not empty, there is data to read */
 792:Generated_Source\PSoC6\pdl\drivers/peripheral/scb/cy_scb_uart.h **** #define CY_SCB_UART_RX_NOT_EMPTY       (SCB_INTR_RX_NOT_EMPTY_Msk)
 793:Generated_Source\PSoC6\pdl\drivers/peripheral/scb/cy_scb_uart.h **** 
 794:Generated_Source\PSoC6\pdl\drivers/peripheral/scb/cy_scb_uart.h **** /**
 795:Generated_Source\PSoC6\pdl\drivers/peripheral/scb/cy_scb_uart.h **** * The RX FIFO is full, there is no more space for additional data, and
 796:Generated_Source\PSoC6\pdl\drivers/peripheral/scb/cy_scb_uart.h **** * any additional data will be dropped
 797:Generated_Source\PSoC6\pdl\drivers/peripheral/scb/cy_scb_uart.h **** */
 798:Generated_Source\PSoC6\pdl\drivers/peripheral/scb/cy_scb_uart.h **** #define CY_SCB_UART_RX_FULL            (SCB_INTR_RX_FULL_Msk)
 799:Generated_Source\PSoC6\pdl\drivers/peripheral/scb/cy_scb_uart.h **** 
 800:Generated_Source\PSoC6\pdl\drivers/peripheral/scb/cy_scb_uart.h **** /**
 801:Generated_Source\PSoC6\pdl\drivers/peripheral/scb/cy_scb_uart.h **** * The RX FIFO was full and there was an attempt to write to it.
 802:Generated_Source\PSoC6\pdl\drivers/peripheral/scb/cy_scb_uart.h **** * That additional data was dropped.
 803:Generated_Source\PSoC6\pdl\drivers/peripheral/scb/cy_scb_uart.h **** */
 804:Generated_Source\PSoC6\pdl\drivers/peripheral/scb/cy_scb_uart.h **** #define CY_SCB_UART_RX_OVERFLOW        (SCB_INTR_RX_OVERFLOW_Msk)
 805:Generated_Source\PSoC6\pdl\drivers/peripheral/scb/cy_scb_uart.h **** 
 806:Generated_Source\PSoC6\pdl\drivers/peripheral/scb/cy_scb_uart.h **** /** An attempt to read from an empty RX FIFO */
 807:Generated_Source\PSoC6\pdl\drivers/peripheral/scb/cy_scb_uart.h **** #define CY_SCB_UART_RX_UNDERFLOW       (SCB_INTR_RX_UNDERFLOW_Msk)
 808:Generated_Source\PSoC6\pdl\drivers/peripheral/scb/cy_scb_uart.h **** 
 809:Generated_Source\PSoC6\pdl\drivers/peripheral/scb/cy_scb_uart.h **** /** The RX FIFO detected a frame error, either a stop or stop-bit error */
 810:Generated_Source\PSoC6\pdl\drivers/peripheral/scb/cy_scb_uart.h **** #define CY_SCB_UART_RX_ERR_FRAME       (SCB_INTR_RX_FRAME_ERROR_Msk)
 811:Generated_Source\PSoC6\pdl\drivers/peripheral/scb/cy_scb_uart.h **** 
 812:Generated_Source\PSoC6\pdl\drivers/peripheral/scb/cy_scb_uart.h **** /** The RX FIFO detected a parity error */
 813:Generated_Source\PSoC6\pdl\drivers/peripheral/scb/cy_scb_uart.h **** #define CY_SCB_UART_RX_ERR_PARITY      (SCB_INTR_RX_PARITY_ERROR_Msk)
 814:Generated_Source\PSoC6\pdl\drivers/peripheral/scb/cy_scb_uart.h **** 
 815:Generated_Source\PSoC6\pdl\drivers/peripheral/scb/cy_scb_uart.h **** /** The RX FIFO detected a break transmission from the transmitter */
 816:Generated_Source\PSoC6\pdl\drivers/peripheral/scb/cy_scb_uart.h **** #define CY_SCB_UART_RX_BREAK_DETECT    (SCB_INTR_RX_BREAK_DETECT_Msk)
 817:Generated_Source\PSoC6\pdl\drivers/peripheral/scb/cy_scb_uart.h **** /** \} group_scb_uart_macros_rx_fifo_status */
ARM GAS  C:\Users\gab_1\AppData\Local\Temp\ccTtYdci.s 			page 43


 818:Generated_Source\PSoC6\pdl\drivers/peripheral/scb/cy_scb_uart.h **** 
 819:Generated_Source\PSoC6\pdl\drivers/peripheral/scb/cy_scb_uart.h **** /**
 820:Generated_Source\PSoC6\pdl\drivers/peripheral/scb/cy_scb_uart.h **** * \defgroup group_scb_uart_macros_tx_fifo_status UART TX FIFO Statuses
 821:Generated_Source\PSoC6\pdl\drivers/peripheral/scb/cy_scb_uart.h **** * \{
 822:Generated_Source\PSoC6\pdl\drivers/peripheral/scb/cy_scb_uart.h **** * Macros to check UART TX FIFO status returned by \ref Cy_SCB_UART_GetTxFifoStatus
 823:Generated_Source\PSoC6\pdl\drivers/peripheral/scb/cy_scb_uart.h **** * function or assign mask for \ref Cy_SCB_UART_ClearTxFifoStatus function.
 824:Generated_Source\PSoC6\pdl\drivers/peripheral/scb/cy_scb_uart.h **** * Each UART TX FIFO status is encoded in a separate bit, therefore multiple bits
 825:Generated_Source\PSoC6\pdl\drivers/peripheral/scb/cy_scb_uart.h **** * may be set to indicate the current status.
 826:Generated_Source\PSoC6\pdl\drivers/peripheral/scb/cy_scb_uart.h **** */
 827:Generated_Source\PSoC6\pdl\drivers/peripheral/scb/cy_scb_uart.h **** 
 828:Generated_Source\PSoC6\pdl\drivers/peripheral/scb/cy_scb_uart.h **** /** The number of entries in the TX FIFO is less than the TX FIFO trigger level
 829:Generated_Source\PSoC6\pdl\drivers/peripheral/scb/cy_scb_uart.h **** * value
 830:Generated_Source\PSoC6\pdl\drivers/peripheral/scb/cy_scb_uart.h **** */
 831:Generated_Source\PSoC6\pdl\drivers/peripheral/scb/cy_scb_uart.h **** #define CY_SCB_UART_TX_TRIGGER     (SCB_INTR_TX_TRIGGER_Msk)
 832:Generated_Source\PSoC6\pdl\drivers/peripheral/scb/cy_scb_uart.h **** 
 833:Generated_Source\PSoC6\pdl\drivers/peripheral/scb/cy_scb_uart.h **** /** The TX FIFO is not full, there is a space for more data */
 834:Generated_Source\PSoC6\pdl\drivers/peripheral/scb/cy_scb_uart.h **** #define CY_SCB_UART_TX_NOT_FULL    (SCB_INTR_TX_NOT_FULL_Msk)
 835:Generated_Source\PSoC6\pdl\drivers/peripheral/scb/cy_scb_uart.h **** 
 836:Generated_Source\PSoC6\pdl\drivers/peripheral/scb/cy_scb_uart.h **** /** The TX FIFO is empty, note there may still be data in the shift register.*/
 837:Generated_Source\PSoC6\pdl\drivers/peripheral/scb/cy_scb_uart.h **** #define CY_SCB_UART_TX_EMPTY       (SCB_INTR_TX_EMPTY_Msk)
 838:Generated_Source\PSoC6\pdl\drivers/peripheral/scb/cy_scb_uart.h **** 
 839:Generated_Source\PSoC6\pdl\drivers/peripheral/scb/cy_scb_uart.h **** /** An attempt to write to the full TX FIFO */
 840:Generated_Source\PSoC6\pdl\drivers/peripheral/scb/cy_scb_uart.h **** #define CY_SCB_UART_TX_OVERFLOW    (SCB_INTR_TX_OVERFLOW_Msk)
 841:Generated_Source\PSoC6\pdl\drivers/peripheral/scb/cy_scb_uart.h **** 
 842:Generated_Source\PSoC6\pdl\drivers/peripheral/scb/cy_scb_uart.h **** /** An attempt to read from an empty transmitter FIFO (hardware reads). */
 843:Generated_Source\PSoC6\pdl\drivers/peripheral/scb/cy_scb_uart.h **** #define CY_SCB_UART_TX_UNDERFLOW (SCB_INTR_TX_UNDERFLOW_Msk)
 844:Generated_Source\PSoC6\pdl\drivers/peripheral/scb/cy_scb_uart.h **** 
 845:Generated_Source\PSoC6\pdl\drivers/peripheral/scb/cy_scb_uart.h **** /** All data has been transmitted out of the FIFO, including shifter */
 846:Generated_Source\PSoC6\pdl\drivers/peripheral/scb/cy_scb_uart.h **** #define CY_SCB_UART_TX_DONE        (SCB_INTR_TX_UART_DONE_Msk)
 847:Generated_Source\PSoC6\pdl\drivers/peripheral/scb/cy_scb_uart.h **** 
 848:Generated_Source\PSoC6\pdl\drivers/peripheral/scb/cy_scb_uart.h **** /** SmartCard only: the transmitter received a NACK */
 849:Generated_Source\PSoC6\pdl\drivers/peripheral/scb/cy_scb_uart.h **** #define CY_SCB_UART_TX_NACK        (SCB_INTR_TX_UART_NACK_Msk)
 850:Generated_Source\PSoC6\pdl\drivers/peripheral/scb/cy_scb_uart.h **** 
 851:Generated_Source\PSoC6\pdl\drivers/peripheral/scb/cy_scb_uart.h **** /** SmartCard only: the transmitter lost arbitration */
 852:Generated_Source\PSoC6\pdl\drivers/peripheral/scb/cy_scb_uart.h **** #define CY_SCB_UART_TX_ARB_LOST    (SCB_INTR_TX_UART_ARB_LOST_Msk)
 853:Generated_Source\PSoC6\pdl\drivers/peripheral/scb/cy_scb_uart.h **** /** \} group_scb_uart_macros_tx_fifo_status */
 854:Generated_Source\PSoC6\pdl\drivers/peripheral/scb/cy_scb_uart.h **** 
 855:Generated_Source\PSoC6\pdl\drivers/peripheral/scb/cy_scb_uart.h **** /**
 856:Generated_Source\PSoC6\pdl\drivers/peripheral/scb/cy_scb_uart.h **** * \defgroup group_scb_uart_macros_receive_status UART Receive Statuses
 857:Generated_Source\PSoC6\pdl\drivers/peripheral/scb/cy_scb_uart.h **** * \{
 858:Generated_Source\PSoC6\pdl\drivers/peripheral/scb/cy_scb_uart.h **** * Macros to check current UART receive status returned by 
 859:Generated_Source\PSoC6\pdl\drivers/peripheral/scb/cy_scb_uart.h **** * \ref Cy_SCB_UART_GetReceiveStatus function. 
 860:Generated_Source\PSoC6\pdl\drivers/peripheral/scb/cy_scb_uart.h **** * Each UART receive status is encoded in a separate bit, therefore multiple bits
 861:Generated_Source\PSoC6\pdl\drivers/peripheral/scb/cy_scb_uart.h **** * may be set to indicate the current status.
 862:Generated_Source\PSoC6\pdl\drivers/peripheral/scb/cy_scb_uart.h **** */
 863:Generated_Source\PSoC6\pdl\drivers/peripheral/scb/cy_scb_uart.h **** /** The receive operation started by \ref Cy_SCB_UART_Receive is in progress */
 864:Generated_Source\PSoC6\pdl\drivers/peripheral/scb/cy_scb_uart.h **** #define CY_SCB_UART_RECEIVE_ACTIVE         (0x01UL)
 865:Generated_Source\PSoC6\pdl\drivers/peripheral/scb/cy_scb_uart.h **** 
 866:Generated_Source\PSoC6\pdl\drivers/peripheral/scb/cy_scb_uart.h **** /**
 867:Generated_Source\PSoC6\pdl\drivers/peripheral/scb/cy_scb_uart.h **** * The hardware RX FIFO was full and there was an attempt to write to it.
 868:Generated_Source\PSoC6\pdl\drivers/peripheral/scb/cy_scb_uart.h **** * That additional data was dropped.
 869:Generated_Source\PSoC6\pdl\drivers/peripheral/scb/cy_scb_uart.h **** */
 870:Generated_Source\PSoC6\pdl\drivers/peripheral/scb/cy_scb_uart.h **** #define CY_SCB_UART_RECEIVE_OVERFLOW       (SCB_INTR_RX_OVERFLOW_Msk)
 871:Generated_Source\PSoC6\pdl\drivers/peripheral/scb/cy_scb_uart.h **** 
 872:Generated_Source\PSoC6\pdl\drivers/peripheral/scb/cy_scb_uart.h **** /** The receive hardware detected a frame error, either a start or
 873:Generated_Source\PSoC6\pdl\drivers/peripheral/scb/cy_scb_uart.h **** * stop bit error
 874:Generated_Source\PSoC6\pdl\drivers/peripheral/scb/cy_scb_uart.h **** */
ARM GAS  C:\Users\gab_1\AppData\Local\Temp\ccTtYdci.s 			page 44


 875:Generated_Source\PSoC6\pdl\drivers/peripheral/scb/cy_scb_uart.h **** #define CY_SCB_UART_RECEIVE_ERR_FRAME      (SCB_INTR_RX_FRAME_ERROR_Msk)
 876:Generated_Source\PSoC6\pdl\drivers/peripheral/scb/cy_scb_uart.h **** 
 877:Generated_Source\PSoC6\pdl\drivers/peripheral/scb/cy_scb_uart.h **** /** The receive hardware detected a parity error */
 878:Generated_Source\PSoC6\pdl\drivers/peripheral/scb/cy_scb_uart.h **** #define CY_SCB_UART_RECEIVE_ERR_PARITY     (SCB_INTR_RX_PARITY_ERROR_Msk)
 879:Generated_Source\PSoC6\pdl\drivers/peripheral/scb/cy_scb_uart.h **** 
 880:Generated_Source\PSoC6\pdl\drivers/peripheral/scb/cy_scb_uart.h **** /** The receive hardware detected a break transmission from transmitter */
 881:Generated_Source\PSoC6\pdl\drivers/peripheral/scb/cy_scb_uart.h **** #define CY_SCB_UART_RECEIVE_BREAK_DETECT   (SCB_INTR_RX_BREAK_DETECT_Msk)
 882:Generated_Source\PSoC6\pdl\drivers/peripheral/scb/cy_scb_uart.h **** /** \} group_scb_uart_macros_receive_status */
 883:Generated_Source\PSoC6\pdl\drivers/peripheral/scb/cy_scb_uart.h **** 
 884:Generated_Source\PSoC6\pdl\drivers/peripheral/scb/cy_scb_uart.h **** /**
 885:Generated_Source\PSoC6\pdl\drivers/peripheral/scb/cy_scb_uart.h **** * \defgroup group_scb_uart_macros_transmit_status UART Transmit Status
 886:Generated_Source\PSoC6\pdl\drivers/peripheral/scb/cy_scb_uart.h **** * \{
 887:Generated_Source\PSoC6\pdl\drivers/peripheral/scb/cy_scb_uart.h **** * Macros to check current UART transmit status returned by 
 888:Generated_Source\PSoC6\pdl\drivers/peripheral/scb/cy_scb_uart.h **** * \ref Cy_SCB_UART_GetTransmitStatus function. 
 889:Generated_Source\PSoC6\pdl\drivers/peripheral/scb/cy_scb_uart.h **** * Each UART transmit status is encoded in a separate bit, therefore multiple bits
 890:Generated_Source\PSoC6\pdl\drivers/peripheral/scb/cy_scb_uart.h **** * may be set to indicate the current status.
 891:Generated_Source\PSoC6\pdl\drivers/peripheral/scb/cy_scb_uart.h **** */
 892:Generated_Source\PSoC6\pdl\drivers/peripheral/scb/cy_scb_uart.h **** 
 893:Generated_Source\PSoC6\pdl\drivers/peripheral/scb/cy_scb_uart.h **** /** The transmit operation started by \ref Cy_SCB_UART_Transmit is in progress */
 894:Generated_Source\PSoC6\pdl\drivers/peripheral/scb/cy_scb_uart.h **** #define CY_SCB_UART_TRANSMIT_ACTIVE    (0x01UL)
 895:Generated_Source\PSoC6\pdl\drivers/peripheral/scb/cy_scb_uart.h **** 
 896:Generated_Source\PSoC6\pdl\drivers/peripheral/scb/cy_scb_uart.h **** /**
 897:Generated_Source\PSoC6\pdl\drivers/peripheral/scb/cy_scb_uart.h **** * All data elements specified by \ref Cy_SCB_UART_Transmit have been loaded
 898:Generated_Source\PSoC6\pdl\drivers/peripheral/scb/cy_scb_uart.h **** * into the TX FIFO
 899:Generated_Source\PSoC6\pdl\drivers/peripheral/scb/cy_scb_uart.h **** */
 900:Generated_Source\PSoC6\pdl\drivers/peripheral/scb/cy_scb_uart.h **** #define CY_SCB_UART_TRANSMIT_IN_FIFO   (0x02UL)
 901:Generated_Source\PSoC6\pdl\drivers/peripheral/scb/cy_scb_uart.h **** 
 902:Generated_Source\PSoC6\pdl\drivers/peripheral/scb/cy_scb_uart.h **** /** SmartCard only: the transmitter received a NACK */
 903:Generated_Source\PSoC6\pdl\drivers/peripheral/scb/cy_scb_uart.h **** #define CY_SCB_UART_TRANSMIT_NACK      (SCB_INTR_TX_UART_NACK_Msk)
 904:Generated_Source\PSoC6\pdl\drivers/peripheral/scb/cy_scb_uart.h **** 
 905:Generated_Source\PSoC6\pdl\drivers/peripheral/scb/cy_scb_uart.h **** /** SmartCard only: the transmitter lost arbitration */
 906:Generated_Source\PSoC6\pdl\drivers/peripheral/scb/cy_scb_uart.h **** #define CY_SCB_UART_TRANSMIT_ARB_LOST  (SCB_INTR_TX_UART_ARB_LOST_Msk)
 907:Generated_Source\PSoC6\pdl\drivers/peripheral/scb/cy_scb_uart.h **** /** \} group_scb_uart_macros_transmit_status */
 908:Generated_Source\PSoC6\pdl\drivers/peripheral/scb/cy_scb_uart.h **** 
 909:Generated_Source\PSoC6\pdl\drivers/peripheral/scb/cy_scb_uart.h **** /**
 910:Generated_Source\PSoC6\pdl\drivers/peripheral/scb/cy_scb_uart.h **** * \defgroup group_scb_uart_macros_callback_events UART Callback Events
 911:Generated_Source\PSoC6\pdl\drivers/peripheral/scb/cy_scb_uart.h **** * \{
 912:Generated_Source\PSoC6\pdl\drivers/peripheral/scb/cy_scb_uart.h **** * Macros to check UART events passed by \ref cy_cb_scb_uart_handle_events_t callback.
 913:Generated_Source\PSoC6\pdl\drivers/peripheral/scb/cy_scb_uart.h **** * Note that only single event is notified by the callback when it is called.
 914:Generated_Source\PSoC6\pdl\drivers/peripheral/scb/cy_scb_uart.h **** */
 915:Generated_Source\PSoC6\pdl\drivers/peripheral/scb/cy_scb_uart.h **** 
 916:Generated_Source\PSoC6\pdl\drivers/peripheral/scb/cy_scb_uart.h **** /**
 917:Generated_Source\PSoC6\pdl\drivers/peripheral/scb/cy_scb_uart.h **** * All data elements specified by \ref Cy_SCB_UART_Transmit have been loaded
 918:Generated_Source\PSoC6\pdl\drivers/peripheral/scb/cy_scb_uart.h **** * into the TX FIFO
 919:Generated_Source\PSoC6\pdl\drivers/peripheral/scb/cy_scb_uart.h **** */
 920:Generated_Source\PSoC6\pdl\drivers/peripheral/scb/cy_scb_uart.h **** #define CY_SCB_UART_TRANSMIT_IN_FIFO_EVENT (0x01UL)
 921:Generated_Source\PSoC6\pdl\drivers/peripheral/scb/cy_scb_uart.h **** 
 922:Generated_Source\PSoC6\pdl\drivers/peripheral/scb/cy_scb_uart.h **** /** The transmit operation started by \ref Cy_SCB_UART_Transmit is complete */
 923:Generated_Source\PSoC6\pdl\drivers/peripheral/scb/cy_scb_uart.h **** #define CY_SCB_UART_TRANSMIT_DONE_EVENT    (0x02UL)
 924:Generated_Source\PSoC6\pdl\drivers/peripheral/scb/cy_scb_uart.h **** 
 925:Generated_Source\PSoC6\pdl\drivers/peripheral/scb/cy_scb_uart.h **** /** The receive operation started by \ref Cy_SCB_UART_Receive is complete */
 926:Generated_Source\PSoC6\pdl\drivers/peripheral/scb/cy_scb_uart.h **** #define CY_SCB_UART_RECEIVE_DONE_EVENT     (0x04UL)
 927:Generated_Source\PSoC6\pdl\drivers/peripheral/scb/cy_scb_uart.h **** 
 928:Generated_Source\PSoC6\pdl\drivers/peripheral/scb/cy_scb_uart.h **** /**
 929:Generated_Source\PSoC6\pdl\drivers/peripheral/scb/cy_scb_uart.h **** * The ring buffer is full, there is no more space for additional data.
 930:Generated_Source\PSoC6\pdl\drivers/peripheral/scb/cy_scb_uart.h **** * Additional data is stored in the RX FIFO until it becomes full, at which
 931:Generated_Source\PSoC6\pdl\drivers/peripheral/scb/cy_scb_uart.h **** * point data is dropped.
ARM GAS  C:\Users\gab_1\AppData\Local\Temp\ccTtYdci.s 			page 45


 932:Generated_Source\PSoC6\pdl\drivers/peripheral/scb/cy_scb_uart.h **** */
 933:Generated_Source\PSoC6\pdl\drivers/peripheral/scb/cy_scb_uart.h **** #define CY_SCB_UART_RB_FULL_EVENT          (0x08UL)
 934:Generated_Source\PSoC6\pdl\drivers/peripheral/scb/cy_scb_uart.h **** 
 935:Generated_Source\PSoC6\pdl\drivers/peripheral/scb/cy_scb_uart.h **** /**
 936:Generated_Source\PSoC6\pdl\drivers/peripheral/scb/cy_scb_uart.h **** * An error was detected during the receive operation. This includes overflow,
 937:Generated_Source\PSoC6\pdl\drivers/peripheral/scb/cy_scb_uart.h **** * frame error, or parity error. Check \ref Cy_SCB_UART_GetReceiveStatus to
 938:Generated_Source\PSoC6\pdl\drivers/peripheral/scb/cy_scb_uart.h **** * determine the source of the error.
 939:Generated_Source\PSoC6\pdl\drivers/peripheral/scb/cy_scb_uart.h **** */
 940:Generated_Source\PSoC6\pdl\drivers/peripheral/scb/cy_scb_uart.h **** #define CY_SCB_UART_RECEIVE_ERR_EVENT      (0x10UL)
 941:Generated_Source\PSoC6\pdl\drivers/peripheral/scb/cy_scb_uart.h **** 
 942:Generated_Source\PSoC6\pdl\drivers/peripheral/scb/cy_scb_uart.h **** /**
 943:Generated_Source\PSoC6\pdl\drivers/peripheral/scb/cy_scb_uart.h **** * An error was detected during the transmit operation. This includes a NACK
 944:Generated_Source\PSoC6\pdl\drivers/peripheral/scb/cy_scb_uart.h **** * or lost arbitration. Check \ref Cy_SCB_UART_GetTransmitStatus to determine
 945:Generated_Source\PSoC6\pdl\drivers/peripheral/scb/cy_scb_uart.h **** * the source of the error
 946:Generated_Source\PSoC6\pdl\drivers/peripheral/scb/cy_scb_uart.h **** */
 947:Generated_Source\PSoC6\pdl\drivers/peripheral/scb/cy_scb_uart.h **** #define CY_SCB_UART_TRANSMIT_ERR_EVENT     (0x20UL)
 948:Generated_Source\PSoC6\pdl\drivers/peripheral/scb/cy_scb_uart.h **** /** \} group_scb_uart_macros_callback_events */
 949:Generated_Source\PSoC6\pdl\drivers/peripheral/scb/cy_scb_uart.h **** 
 950:Generated_Source\PSoC6\pdl\drivers/peripheral/scb/cy_scb_uart.h **** /** Data returned by the hardware when an empty RX FIFO is read */
 951:Generated_Source\PSoC6\pdl\drivers/peripheral/scb/cy_scb_uart.h **** #define CY_SCB_UART_RX_NO_DATA         (0xFFFFFFFFUL)
 952:Generated_Source\PSoC6\pdl\drivers/peripheral/scb/cy_scb_uart.h **** 
 953:Generated_Source\PSoC6\pdl\drivers/peripheral/scb/cy_scb_uart.h **** 
 954:Generated_Source\PSoC6\pdl\drivers/peripheral/scb/cy_scb_uart.h **** /*******************************************************************************
 955:Generated_Source\PSoC6\pdl\drivers/peripheral/scb/cy_scb_uart.h **** *                            Internal Constants
 956:Generated_Source\PSoC6\pdl\drivers/peripheral/scb/cy_scb_uart.h **** *******************************************************************************/
 957:Generated_Source\PSoC6\pdl\drivers/peripheral/scb/cy_scb_uart.h **** 
 958:Generated_Source\PSoC6\pdl\drivers/peripheral/scb/cy_scb_uart.h **** /** \cond INTERNAL */
 959:Generated_Source\PSoC6\pdl\drivers/peripheral/scb/cy_scb_uart.h **** #define CY_SCB_UART_TX_INTR_MASK    (CY_SCB_UART_TX_TRIGGER  | CY_SCB_UART_TX_NOT_FULL  | CY_SCB_UA
 960:Generated_Source\PSoC6\pdl\drivers/peripheral/scb/cy_scb_uart.h ****                                      CY_SCB_UART_TX_OVERFLOW | CY_SCB_UART_TX_UNDERFLOW | CY_SCB_UA
 961:Generated_Source\PSoC6\pdl\drivers/peripheral/scb/cy_scb_uart.h ****                                      CY_SCB_UART_TX_NACK     | CY_SCB_UART_TX_ARB_LOST)
 962:Generated_Source\PSoC6\pdl\drivers/peripheral/scb/cy_scb_uart.h **** 
 963:Generated_Source\PSoC6\pdl\drivers/peripheral/scb/cy_scb_uart.h **** #define CY_SCB_UART_RX_INTR_MASK    (CY_SCB_UART_RX_TRIGGER    | CY_SCB_UART_RX_NOT_EMPTY | CY_SCB_
 964:Generated_Source\PSoC6\pdl\drivers/peripheral/scb/cy_scb_uart.h ****                                      CY_SCB_UART_RX_OVERFLOW   | CY_SCB_UART_RX_UNDERFLOW | CY_SCB_
 965:Generated_Source\PSoC6\pdl\drivers/peripheral/scb/cy_scb_uart.h ****                                      CY_SCB_UART_RX_ERR_PARITY | CY_SCB_UART_RX_BREAK_DETECT)
 966:Generated_Source\PSoC6\pdl\drivers/peripheral/scb/cy_scb_uart.h **** 
 967:Generated_Source\PSoC6\pdl\drivers/peripheral/scb/cy_scb_uart.h **** #define CY_SCB_UART_TX_INTR        (CY_SCB_TX_INTR_LEVEL | CY_SCB_TX_INTR_UART_NACK | CY_SCB_TX_INT
 968:Generated_Source\PSoC6\pdl\drivers/peripheral/scb/cy_scb_uart.h **** 
 969:Generated_Source\PSoC6\pdl\drivers/peripheral/scb/cy_scb_uart.h **** #define CY_SCB_UART_RX_INTR        (CY_SCB_RX_INTR_LEVEL | CY_SCB_RX_INTR_OVERFLOW | CY_SCB_RX_INTR
 970:Generated_Source\PSoC6\pdl\drivers/peripheral/scb/cy_scb_uart.h ****                                     CY_SCB_RX_INTR_UART_PARITY_ERROR | CY_SCB_RX_INTR_UART_BREAK_DE
 971:Generated_Source\PSoC6\pdl\drivers/peripheral/scb/cy_scb_uart.h **** 
 972:Generated_Source\PSoC6\pdl\drivers/peripheral/scb/cy_scb_uart.h **** #define CY_SCB_UART_RECEIVE_ERR    (CY_SCB_RX_INTR_OVERFLOW | CY_SCB_RX_INTR_UART_FRAME_ERROR | \
 973:Generated_Source\PSoC6\pdl\drivers/peripheral/scb/cy_scb_uart.h ****                                     CY_SCB_RX_INTR_UART_PARITY_ERROR)
 974:Generated_Source\PSoC6\pdl\drivers/peripheral/scb/cy_scb_uart.h **** 
 975:Generated_Source\PSoC6\pdl\drivers/peripheral/scb/cy_scb_uart.h **** #define CY_SCB_UART_TRANSMIT_ERR   (CY_SCB_TX_INTR_UART_NACK | CY_SCB_TX_INTR_UART_ARB_LOST)
 976:Generated_Source\PSoC6\pdl\drivers/peripheral/scb/cy_scb_uart.h **** 
 977:Generated_Source\PSoC6\pdl\drivers/peripheral/scb/cy_scb_uart.h **** #define CY_SCB_UART_INIT_KEY       (0x00ABCDEFUL)
 978:Generated_Source\PSoC6\pdl\drivers/peripheral/scb/cy_scb_uart.h **** 
 979:Generated_Source\PSoC6\pdl\drivers/peripheral/scb/cy_scb_uart.h **** #define CY_SCB_UART_IS_MODE_VALID(mode)     ( (CY_SCB_UART_STANDARD  == (mode)) || \
 980:Generated_Source\PSoC6\pdl\drivers/peripheral/scb/cy_scb_uart.h ****                                               (CY_SCB_UART_SMARTCARD == (mode)) || \
 981:Generated_Source\PSoC6\pdl\drivers/peripheral/scb/cy_scb_uart.h ****                                               (CY_SCB_UART_IRDA      == (mode)) )
 982:Generated_Source\PSoC6\pdl\drivers/peripheral/scb/cy_scb_uart.h **** 
 983:Generated_Source\PSoC6\pdl\drivers/peripheral/scb/cy_scb_uart.h **** #define CY_SCB_UART_IS_STOP_BITS_VALID(stopBits)    ( (CY_SCB_UART_STOP_BITS_1   == (stopBits)) || 
 984:Generated_Source\PSoC6\pdl\drivers/peripheral/scb/cy_scb_uart.h ****                                                       (CY_SCB_UART_STOP_BITS_1_5 == (stopBits)) || 
 985:Generated_Source\PSoC6\pdl\drivers/peripheral/scb/cy_scb_uart.h ****                                                       (CY_SCB_UART_STOP_BITS_2   == (stopBits)) || 
 986:Generated_Source\PSoC6\pdl\drivers/peripheral/scb/cy_scb_uart.h ****                                                       (CY_SCB_UART_STOP_BITS_2_5 == (stopBits)) || 
 987:Generated_Source\PSoC6\pdl\drivers/peripheral/scb/cy_scb_uart.h ****                                                       (CY_SCB_UART_STOP_BITS_3   == (stopBits)) || 
 988:Generated_Source\PSoC6\pdl\drivers/peripheral/scb/cy_scb_uart.h ****                                                       (CY_SCB_UART_STOP_BITS_3_5 == (stopBits)) || 
ARM GAS  C:\Users\gab_1\AppData\Local\Temp\ccTtYdci.s 			page 46


 989:Generated_Source\PSoC6\pdl\drivers/peripheral/scb/cy_scb_uart.h ****                                                       (CY_SCB_UART_STOP_BITS_4   == (stopBits)) )
 990:Generated_Source\PSoC6\pdl\drivers/peripheral/scb/cy_scb_uart.h **** 
 991:Generated_Source\PSoC6\pdl\drivers/peripheral/scb/cy_scb_uart.h **** #define CY_SCB_UART_IS_PARITY_VALID(parity)         ( (CY_SCB_UART_PARITY_NONE == (parity)) || \
 992:Generated_Source\PSoC6\pdl\drivers/peripheral/scb/cy_scb_uart.h ****                                                       (CY_SCB_UART_PARITY_EVEN == (parity)) || \
 993:Generated_Source\PSoC6\pdl\drivers/peripheral/scb/cy_scb_uart.h ****                                                       (CY_SCB_UART_PARITY_ODD  == (parity)) )
 994:Generated_Source\PSoC6\pdl\drivers/peripheral/scb/cy_scb_uart.h **** 
 995:Generated_Source\PSoC6\pdl\drivers/peripheral/scb/cy_scb_uart.h **** #define CY_SCB_UART_IS_POLARITY_VALID(polarity)     ( (CY_SCB_UART_ACTIVE_LOW  == (polarity)) || \
 996:Generated_Source\PSoC6\pdl\drivers/peripheral/scb/cy_scb_uart.h ****                                                       (CY_SCB_UART_ACTIVE_HIGH == (polarity)) )
 997:Generated_Source\PSoC6\pdl\drivers/peripheral/scb/cy_scb_uart.h **** 
 998:Generated_Source\PSoC6\pdl\drivers/peripheral/scb/cy_scb_uart.h **** #define CY_SCB_UART_IS_IRDA_LP_OVS_VALID(ovs)       ( (CY_SCB_UART_IRDA_LP_OVS16   == (ovs)) || \
 999:Generated_Source\PSoC6\pdl\drivers/peripheral/scb/cy_scb_uart.h ****                                                       (CY_SCB_UART_IRDA_LP_OVS32   == (ovs)) || \
1000:Generated_Source\PSoC6\pdl\drivers/peripheral/scb/cy_scb_uart.h ****                                                       (CY_SCB_UART_IRDA_LP_OVS48   == (ovs)) || \
1001:Generated_Source\PSoC6\pdl\drivers/peripheral/scb/cy_scb_uart.h ****                                                       (CY_SCB_UART_IRDA_LP_OVS96   == (ovs)) || \
1002:Generated_Source\PSoC6\pdl\drivers/peripheral/scb/cy_scb_uart.h ****                                                       (CY_SCB_UART_IRDA_LP_OVS192  == (ovs)) || \
1003:Generated_Source\PSoC6\pdl\drivers/peripheral/scb/cy_scb_uart.h ****                                                       (CY_SCB_UART_IRDA_LP_OVS768  == (ovs)) || \
1004:Generated_Source\PSoC6\pdl\drivers/peripheral/scb/cy_scb_uart.h ****                                                       (CY_SCB_UART_IRDA_LP_OVS1536 == (ovs)) )
1005:Generated_Source\PSoC6\pdl\drivers/peripheral/scb/cy_scb_uart.h **** 
1006:Generated_Source\PSoC6\pdl\drivers/peripheral/scb/cy_scb_uart.h **** #define CY_SCB_UART_IS_ADDRESS_VALID(addr)          ((addr) <= 0xFFUL)
1007:Generated_Source\PSoC6\pdl\drivers/peripheral/scb/cy_scb_uart.h **** #define CY_SCB_UART_IS_ADDRESS_MASK_VALID(mask)     ((mask) <= 0xFFUL)
1008:Generated_Source\PSoC6\pdl\drivers/peripheral/scb/cy_scb_uart.h **** #define CY_SCB_UART_IS_DATA_WIDTH_VALID(width)      ( ((width) >= 5UL) && ((width) <= 9UL) )
1009:Generated_Source\PSoC6\pdl\drivers/peripheral/scb/cy_scb_uart.h **** #define CY_SCB_UART_IS_OVERSAMPLE_VALID(ovs, mode, lpRx)    ( ((CY_SCB_UART_STANDARD  == (mode)) ||
1010:Generated_Source\PSoC6\pdl\drivers/peripheral/scb/cy_scb_uart.h ****                                                               (((ovs) >= 8UL) && ((ovs) <= 16UL)) :
1011:Generated_Source\PSoC6\pdl\drivers/peripheral/scb/cy_scb_uart.h ****                                                               ((lpRx) ? CY_SCB_UART_IS_IRDA_LP_OVS_
1012:Generated_Source\PSoC6\pdl\drivers/peripheral/scb/cy_scb_uart.h **** 
1013:Generated_Source\PSoC6\pdl\drivers/peripheral/scb/cy_scb_uart.h **** #define CY_SCB_UART_IS_RX_BREAK_WIDTH_VALID(base, width)    ( ((width) >= (_FLD2VAL(SCB_RX_CTRL_DAT
1014:Generated_Source\PSoC6\pdl\drivers/peripheral/scb/cy_scb_uart.h ****                                                               ((width) <= 16UL) )
1015:Generated_Source\PSoC6\pdl\drivers/peripheral/scb/cy_scb_uart.h **** #define CY_SCB_UART_IS_TX_BREAK_WIDTH_VALID(width)          ( ((width) >= 4UL) && ((width) <= 16UL)
1016:Generated_Source\PSoC6\pdl\drivers/peripheral/scb/cy_scb_uart.h **** 
1017:Generated_Source\PSoC6\pdl\drivers/peripheral/scb/cy_scb_uart.h **** #define CY_SCB_UART_IS_MUTLI_PROC_VALID(mp, mode, width, parity)    ( (mp) ? ((CY_SCB_UART_STANDARD
1018:Generated_Source\PSoC6\pdl\drivers/peripheral/scb/cy_scb_uart.h ****                                                                               (CY_SCB_UART_PARITY_N
1019:Generated_Source\PSoC6\pdl\drivers/peripheral/scb/cy_scb_uart.h **** /** \endcond */
1020:Generated_Source\PSoC6\pdl\drivers/peripheral/scb/cy_scb_uart.h **** 
1021:Generated_Source\PSoC6\pdl\drivers/peripheral/scb/cy_scb_uart.h **** /** \} group_scb_uart_macros */
1022:Generated_Source\PSoC6\pdl\drivers/peripheral/scb/cy_scb_uart.h **** 
1023:Generated_Source\PSoC6\pdl\drivers/peripheral/scb/cy_scb_uart.h **** 
1024:Generated_Source\PSoC6\pdl\drivers/peripheral/scb/cy_scb_uart.h **** /*******************************************************************************
1025:Generated_Source\PSoC6\pdl\drivers/peripheral/scb/cy_scb_uart.h **** *                    In-line Function Implementation
1026:Generated_Source\PSoC6\pdl\drivers/peripheral/scb/cy_scb_uart.h **** *******************************************************************************/
1027:Generated_Source\PSoC6\pdl\drivers/peripheral/scb/cy_scb_uart.h **** 
1028:Generated_Source\PSoC6\pdl\drivers/peripheral/scb/cy_scb_uart.h **** /**
1029:Generated_Source\PSoC6\pdl\drivers/peripheral/scb/cy_scb_uart.h **** * \addtogroup group_scb_uart_general_functions
1030:Generated_Source\PSoC6\pdl\drivers/peripheral/scb/cy_scb_uart.h **** * \{
1031:Generated_Source\PSoC6\pdl\drivers/peripheral/scb/cy_scb_uart.h **** */
1032:Generated_Source\PSoC6\pdl\drivers/peripheral/scb/cy_scb_uart.h **** 
1033:Generated_Source\PSoC6\pdl\drivers/peripheral/scb/cy_scb_uart.h **** /*******************************************************************************
1034:Generated_Source\PSoC6\pdl\drivers/peripheral/scb/cy_scb_uart.h **** * Function Name: Cy_SCB_UART_Enable
1035:Generated_Source\PSoC6\pdl\drivers/peripheral/scb/cy_scb_uart.h **** ****************************************************************************//**
1036:Generated_Source\PSoC6\pdl\drivers/peripheral/scb/cy_scb_uart.h **** *
1037:Generated_Source\PSoC6\pdl\drivers/peripheral/scb/cy_scb_uart.h **** * Enables the SCB block for the UART operation.
1038:Generated_Source\PSoC6\pdl\drivers/peripheral/scb/cy_scb_uart.h **** *
1039:Generated_Source\PSoC6\pdl\drivers/peripheral/scb/cy_scb_uart.h **** * \param base
1040:Generated_Source\PSoC6\pdl\drivers/peripheral/scb/cy_scb_uart.h **** * The pointer to the UART SCB instance.
1041:Generated_Source\PSoC6\pdl\drivers/peripheral/scb/cy_scb_uart.h **** *
1042:Generated_Source\PSoC6\pdl\drivers/peripheral/scb/cy_scb_uart.h **** *******************************************************************************/
1043:Generated_Source\PSoC6\pdl\drivers/peripheral/scb/cy_scb_uart.h **** __STATIC_INLINE void Cy_SCB_UART_Enable(CySCB_Type *base)
1044:Generated_Source\PSoC6\pdl\drivers/peripheral/scb/cy_scb_uart.h **** {
1045:Generated_Source\PSoC6\pdl\drivers/peripheral/scb/cy_scb_uart.h ****     SCB_CTRL(base) |= SCB_CTRL_ENABLED_Msk;
ARM GAS  C:\Users\gab_1\AppData\Local\Temp\ccTtYdci.s 			page 47


1046:Generated_Source\PSoC6\pdl\drivers/peripheral/scb/cy_scb_uart.h **** }
1047:Generated_Source\PSoC6\pdl\drivers/peripheral/scb/cy_scb_uart.h **** 
1048:Generated_Source\PSoC6\pdl\drivers/peripheral/scb/cy_scb_uart.h **** 
1049:Generated_Source\PSoC6\pdl\drivers/peripheral/scb/cy_scb_uart.h **** /*******************************************************************************
1050:Generated_Source\PSoC6\pdl\drivers/peripheral/scb/cy_scb_uart.h **** * Function Name: Cy_SCB_UART_EnableCts
1051:Generated_Source\PSoC6\pdl\drivers/peripheral/scb/cy_scb_uart.h **** ****************************************************************************//**
1052:Generated_Source\PSoC6\pdl\drivers/peripheral/scb/cy_scb_uart.h **** *
1053:Generated_Source\PSoC6\pdl\drivers/peripheral/scb/cy_scb_uart.h **** * Enables the Clear to Send (CTS) input for the UART. The UART will not transmit
1054:Generated_Source\PSoC6\pdl\drivers/peripheral/scb/cy_scb_uart.h **** * data while this signal is inactive.
1055:Generated_Source\PSoC6\pdl\drivers/peripheral/scb/cy_scb_uart.h **** *
1056:Generated_Source\PSoC6\pdl\drivers/peripheral/scb/cy_scb_uart.h **** * \param base
1057:Generated_Source\PSoC6\pdl\drivers/peripheral/scb/cy_scb_uart.h **** * The pointer to the UART SCB instance.
1058:Generated_Source\PSoC6\pdl\drivers/peripheral/scb/cy_scb_uart.h **** *
1059:Generated_Source\PSoC6\pdl\drivers/peripheral/scb/cy_scb_uart.h **** *******************************************************************************/
1060:Generated_Source\PSoC6\pdl\drivers/peripheral/scb/cy_scb_uart.h **** __STATIC_INLINE void Cy_SCB_UART_EnableCts(CySCB_Type *base)
1061:Generated_Source\PSoC6\pdl\drivers/peripheral/scb/cy_scb_uart.h **** {
1062:Generated_Source\PSoC6\pdl\drivers/peripheral/scb/cy_scb_uart.h ****     SCB_UART_FLOW_CTRL(base) |= SCB_UART_FLOW_CTRL_CTS_ENABLED_Msk;
1063:Generated_Source\PSoC6\pdl\drivers/peripheral/scb/cy_scb_uart.h **** }
1064:Generated_Source\PSoC6\pdl\drivers/peripheral/scb/cy_scb_uart.h **** 
1065:Generated_Source\PSoC6\pdl\drivers/peripheral/scb/cy_scb_uart.h **** 
1066:Generated_Source\PSoC6\pdl\drivers/peripheral/scb/cy_scb_uart.h **** /*******************************************************************************
1067:Generated_Source\PSoC6\pdl\drivers/peripheral/scb/cy_scb_uart.h **** * Function Name: Cy_SCB_UART_DisableCts
1068:Generated_Source\PSoC6\pdl\drivers/peripheral/scb/cy_scb_uart.h **** ****************************************************************************//**
1069:Generated_Source\PSoC6\pdl\drivers/peripheral/scb/cy_scb_uart.h **** *
1070:Generated_Source\PSoC6\pdl\drivers/peripheral/scb/cy_scb_uart.h **** * Disables the Clear to Send (CTS) input for the UART.
1071:Generated_Source\PSoC6\pdl\drivers/peripheral/scb/cy_scb_uart.h **** * See \ref Cy_SCB_UART_EnableCts for the details.
1072:Generated_Source\PSoC6\pdl\drivers/peripheral/scb/cy_scb_uart.h **** *
1073:Generated_Source\PSoC6\pdl\drivers/peripheral/scb/cy_scb_uart.h **** * \param base
1074:Generated_Source\PSoC6\pdl\drivers/peripheral/scb/cy_scb_uart.h **** * The pointer to the UART SCB instance.
1075:Generated_Source\PSoC6\pdl\drivers/peripheral/scb/cy_scb_uart.h **** *
1076:Generated_Source\PSoC6\pdl\drivers/peripheral/scb/cy_scb_uart.h **** *******************************************************************************/
1077:Generated_Source\PSoC6\pdl\drivers/peripheral/scb/cy_scb_uart.h **** __STATIC_INLINE void Cy_SCB_UART_DisableCts(CySCB_Type *base)
1078:Generated_Source\PSoC6\pdl\drivers/peripheral/scb/cy_scb_uart.h **** {
1079:Generated_Source\PSoC6\pdl\drivers/peripheral/scb/cy_scb_uart.h ****     SCB_UART_FLOW_CTRL(base) &= (uint32_t) ~SCB_UART_FLOW_CTRL_CTS_ENABLED_Msk;
1080:Generated_Source\PSoC6\pdl\drivers/peripheral/scb/cy_scb_uart.h **** }
1081:Generated_Source\PSoC6\pdl\drivers/peripheral/scb/cy_scb_uart.h **** 
1082:Generated_Source\PSoC6\pdl\drivers/peripheral/scb/cy_scb_uart.h **** 
1083:Generated_Source\PSoC6\pdl\drivers/peripheral/scb/cy_scb_uart.h **** /*******************************************************************************
1084:Generated_Source\PSoC6\pdl\drivers/peripheral/scb/cy_scb_uart.h **** * Function Name: Cy_SCB_UART_SetRtsFifoLevel
1085:Generated_Source\PSoC6\pdl\drivers/peripheral/scb/cy_scb_uart.h **** ****************************************************************************//**
1086:Generated_Source\PSoC6\pdl\drivers/peripheral/scb/cy_scb_uart.h **** *
1087:Generated_Source\PSoC6\pdl\drivers/peripheral/scb/cy_scb_uart.h **** * Sets a level for the Ready To Send (RTS) signal activation.
1088:Generated_Source\PSoC6\pdl\drivers/peripheral/scb/cy_scb_uart.h **** * When the number of data elements in the receive FIFO is below this level,
1089:Generated_Source\PSoC6\pdl\drivers/peripheral/scb/cy_scb_uart.h **** * then the RTS output is active. Otherwise, the RTS signal is inactive.
1090:Generated_Source\PSoC6\pdl\drivers/peripheral/scb/cy_scb_uart.h **** * To disable the RTS signal generation, set this level to zero.
1091:Generated_Source\PSoC6\pdl\drivers/peripheral/scb/cy_scb_uart.h **** *
1092:Generated_Source\PSoC6\pdl\drivers/peripheral/scb/cy_scb_uart.h **** * \param base
1093:Generated_Source\PSoC6\pdl\drivers/peripheral/scb/cy_scb_uart.h **** * The pointer to the UART SCB instance.
1094:Generated_Source\PSoC6\pdl\drivers/peripheral/scb/cy_scb_uart.h **** *
1095:Generated_Source\PSoC6\pdl\drivers/peripheral/scb/cy_scb_uart.h **** * \param level
1096:Generated_Source\PSoC6\pdl\drivers/peripheral/scb/cy_scb_uart.h **** * The level in the RX FIFO for RTS signal activation.
1097:Generated_Source\PSoC6\pdl\drivers/peripheral/scb/cy_scb_uart.h **** *
1098:Generated_Source\PSoC6\pdl\drivers/peripheral/scb/cy_scb_uart.h **** *******************************************************************************/
1099:Generated_Source\PSoC6\pdl\drivers/peripheral/scb/cy_scb_uart.h **** __STATIC_INLINE void Cy_SCB_UART_SetRtsFifoLevel(CySCB_Type *base, uint32_t level)
1100:Generated_Source\PSoC6\pdl\drivers/peripheral/scb/cy_scb_uart.h **** {
1101:Generated_Source\PSoC6\pdl\drivers/peripheral/scb/cy_scb_uart.h ****     CY_ASSERT_L2(CY_SCB_IS_TRIGGER_LEVEL_VALID(base, level));
1102:Generated_Source\PSoC6\pdl\drivers/peripheral/scb/cy_scb_uart.h **** 
ARM GAS  C:\Users\gab_1\AppData\Local\Temp\ccTtYdci.s 			page 48


1103:Generated_Source\PSoC6\pdl\drivers/peripheral/scb/cy_scb_uart.h ****     CY_REG32_CLR_SET(SCB_UART_FLOW_CTRL(base), SCB_UART_FLOW_CTRL_TRIGGER_LEVEL, level);
1104:Generated_Source\PSoC6\pdl\drivers/peripheral/scb/cy_scb_uart.h **** }
1105:Generated_Source\PSoC6\pdl\drivers/peripheral/scb/cy_scb_uart.h **** 
1106:Generated_Source\PSoC6\pdl\drivers/peripheral/scb/cy_scb_uart.h **** 
1107:Generated_Source\PSoC6\pdl\drivers/peripheral/scb/cy_scb_uart.h **** /*******************************************************************************
1108:Generated_Source\PSoC6\pdl\drivers/peripheral/scb/cy_scb_uart.h **** * Function Name: Cy_SCB_UART_GetRtsFifoLevel
1109:Generated_Source\PSoC6\pdl\drivers/peripheral/scb/cy_scb_uart.h **** ****************************************************************************//**
1110:Generated_Source\PSoC6\pdl\drivers/peripheral/scb/cy_scb_uart.h **** *
1111:Generated_Source\PSoC6\pdl\drivers/peripheral/scb/cy_scb_uart.h **** * Returns the level in the RX FIFO for the RTS signal activation.
1112:Generated_Source\PSoC6\pdl\drivers/peripheral/scb/cy_scb_uart.h **** *
1113:Generated_Source\PSoC6\pdl\drivers/peripheral/scb/cy_scb_uart.h **** * \param base
1114:Generated_Source\PSoC6\pdl\drivers/peripheral/scb/cy_scb_uart.h **** * The pointer to the UART SCB instance.
1115:Generated_Source\PSoC6\pdl\drivers/peripheral/scb/cy_scb_uart.h **** *
1116:Generated_Source\PSoC6\pdl\drivers/peripheral/scb/cy_scb_uart.h **** * \return
1117:Generated_Source\PSoC6\pdl\drivers/peripheral/scb/cy_scb_uart.h **** * The level in the RX FIFO for RTS signal activation.
1118:Generated_Source\PSoC6\pdl\drivers/peripheral/scb/cy_scb_uart.h **** *
1119:Generated_Source\PSoC6\pdl\drivers/peripheral/scb/cy_scb_uart.h **** *******************************************************************************/
1120:Generated_Source\PSoC6\pdl\drivers/peripheral/scb/cy_scb_uart.h **** __STATIC_INLINE uint32_t Cy_SCB_UART_GetRtsFifoLevel(CySCB_Type const *base)
1121:Generated_Source\PSoC6\pdl\drivers/peripheral/scb/cy_scb_uart.h **** {
1122:Generated_Source\PSoC6\pdl\drivers/peripheral/scb/cy_scb_uart.h ****     return _FLD2VAL(SCB_UART_FLOW_CTRL_TRIGGER_LEVEL, SCB_UART_FLOW_CTRL(base));
1123:Generated_Source\PSoC6\pdl\drivers/peripheral/scb/cy_scb_uart.h **** }
1124:Generated_Source\PSoC6\pdl\drivers/peripheral/scb/cy_scb_uart.h **** 
1125:Generated_Source\PSoC6\pdl\drivers/peripheral/scb/cy_scb_uart.h **** 
1126:Generated_Source\PSoC6\pdl\drivers/peripheral/scb/cy_scb_uart.h **** /*******************************************************************************
1127:Generated_Source\PSoC6\pdl\drivers/peripheral/scb/cy_scb_uart.h **** * Function Name: Cy_SCB_UART_EnableSkipStart
1128:Generated_Source\PSoC6\pdl\drivers/peripheral/scb/cy_scb_uart.h **** ****************************************************************************//**
1129:Generated_Source\PSoC6\pdl\drivers/peripheral/scb/cy_scb_uart.h **** *
1130:Generated_Source\PSoC6\pdl\drivers/peripheral/scb/cy_scb_uart.h **** * Enables the skip start-bit functionality.
1131:Generated_Source\PSoC6\pdl\drivers/peripheral/scb/cy_scb_uart.h **** * When skip start is enabled the UART hardware does not synchronize to a 
1132:Generated_Source\PSoC6\pdl\drivers/peripheral/scb/cy_scb_uart.h **** * start bit but synchronizes to the first rising edge. To create a rising edge, 
1133:Generated_Source\PSoC6\pdl\drivers/peripheral/scb/cy_scb_uart.h **** * the first data bit must be a 1. This feature is useful when the start bit 
1134:Generated_Source\PSoC6\pdl\drivers/peripheral/scb/cy_scb_uart.h **** * falling edge is used to wake the device through a GPIO interrupt.
1135:Generated_Source\PSoC6\pdl\drivers/peripheral/scb/cy_scb_uart.h **** *
1136:Generated_Source\PSoC6\pdl\drivers/peripheral/scb/cy_scb_uart.h **** * \param base
1137:Generated_Source\PSoC6\pdl\drivers/peripheral/scb/cy_scb_uart.h **** * The pointer to the UART SCB instance.
1138:Generated_Source\PSoC6\pdl\drivers/peripheral/scb/cy_scb_uart.h **** *
1139:Generated_Source\PSoC6\pdl\drivers/peripheral/scb/cy_scb_uart.h **** * \note
1140:Generated_Source\PSoC6\pdl\drivers/peripheral/scb/cy_scb_uart.h **** * When skip start-bit feature is enabled, it is applied (UART synchronizes 
1141:Generated_Source\PSoC6\pdl\drivers/peripheral/scb/cy_scb_uart.h **** * to the first rising edge after start bit) whenever the SCB is enabled. 
1142:Generated_Source\PSoC6\pdl\drivers/peripheral/scb/cy_scb_uart.h **** * This can cause incorrect UART synchronization and data reception when 
1143:Generated_Source\PSoC6\pdl\drivers/peripheral/scb/cy_scb_uart.h **** * the first data bit is not a 1. Therefore, disable the skip start-bit 
1144:Generated_Source\PSoC6\pdl\drivers/peripheral/scb/cy_scb_uart.h **** * when it should not be applied.
1145:Generated_Source\PSoC6\pdl\drivers/peripheral/scb/cy_scb_uart.h **** * Note that SCB is disabled before enter Deep Sleep mode or after calling 
1146:Generated_Source\PSoC6\pdl\drivers/peripheral/scb/cy_scb_uart.h **** * \ref Cy_SCB_UART_Disable.
1147:Generated_Source\PSoC6\pdl\drivers/peripheral/scb/cy_scb_uart.h **** *
1148:Generated_Source\PSoC6\pdl\drivers/peripheral/scb/cy_scb_uart.h **** *******************************************************************************/
1149:Generated_Source\PSoC6\pdl\drivers/peripheral/scb/cy_scb_uart.h **** __STATIC_INLINE void Cy_SCB_UART_EnableSkipStart(CySCB_Type *base)
1150:Generated_Source\PSoC6\pdl\drivers/peripheral/scb/cy_scb_uart.h **** {
1151:Generated_Source\PSoC6\pdl\drivers/peripheral/scb/cy_scb_uart.h ****     SCB_UART_RX_CTRL(base) |= SCB_UART_RX_CTRL_SKIP_START_Msk;
1152:Generated_Source\PSoC6\pdl\drivers/peripheral/scb/cy_scb_uart.h **** }
1153:Generated_Source\PSoC6\pdl\drivers/peripheral/scb/cy_scb_uart.h **** 
1154:Generated_Source\PSoC6\pdl\drivers/peripheral/scb/cy_scb_uart.h **** 
1155:Generated_Source\PSoC6\pdl\drivers/peripheral/scb/cy_scb_uart.h **** /*******************************************************************************
1156:Generated_Source\PSoC6\pdl\drivers/peripheral/scb/cy_scb_uart.h **** * Function Name: Cy_SCB_UART_DisableSkipStart
1157:Generated_Source\PSoC6\pdl\drivers/peripheral/scb/cy_scb_uart.h **** ****************************************************************************//**
1158:Generated_Source\PSoC6\pdl\drivers/peripheral/scb/cy_scb_uart.h **** *
1159:Generated_Source\PSoC6\pdl\drivers/peripheral/scb/cy_scb_uart.h **** * Disable the skip start-bit functionality.
ARM GAS  C:\Users\gab_1\AppData\Local\Temp\ccTtYdci.s 			page 49


1160:Generated_Source\PSoC6\pdl\drivers/peripheral/scb/cy_scb_uart.h **** * See \ref Cy_SCB_UART_EnableSkipStart for the details.
1161:Generated_Source\PSoC6\pdl\drivers/peripheral/scb/cy_scb_uart.h **** *
1162:Generated_Source\PSoC6\pdl\drivers/peripheral/scb/cy_scb_uart.h **** * \param base
1163:Generated_Source\PSoC6\pdl\drivers/peripheral/scb/cy_scb_uart.h **** * The pointer to the UART SCB instance.
1164:Generated_Source\PSoC6\pdl\drivers/peripheral/scb/cy_scb_uart.h **** *
1165:Generated_Source\PSoC6\pdl\drivers/peripheral/scb/cy_scb_uart.h **** *******************************************************************************/
1166:Generated_Source\PSoC6\pdl\drivers/peripheral/scb/cy_scb_uart.h **** __STATIC_INLINE void Cy_SCB_UART_DisableSkipStart(CySCB_Type *base)
1167:Generated_Source\PSoC6\pdl\drivers/peripheral/scb/cy_scb_uart.h **** {
1168:Generated_Source\PSoC6\pdl\drivers/peripheral/scb/cy_scb_uart.h ****     SCB_UART_RX_CTRL(base) &= (uint32_t) ~SCB_UART_RX_CTRL_SKIP_START_Msk;
1169:Generated_Source\PSoC6\pdl\drivers/peripheral/scb/cy_scb_uart.h **** }
1170:Generated_Source\PSoC6\pdl\drivers/peripheral/scb/cy_scb_uart.h **** /** \} group_scb_uart_general_functions */
1171:Generated_Source\PSoC6\pdl\drivers/peripheral/scb/cy_scb_uart.h **** 
1172:Generated_Source\PSoC6\pdl\drivers/peripheral/scb/cy_scb_uart.h **** 
1173:Generated_Source\PSoC6\pdl\drivers/peripheral/scb/cy_scb_uart.h **** /**
1174:Generated_Source\PSoC6\pdl\drivers/peripheral/scb/cy_scb_uart.h **** * \addtogroup group_scb_uart_low_level_functions
1175:Generated_Source\PSoC6\pdl\drivers/peripheral/scb/cy_scb_uart.h **** * \{
1176:Generated_Source\PSoC6\pdl\drivers/peripheral/scb/cy_scb_uart.h **** */
1177:Generated_Source\PSoC6\pdl\drivers/peripheral/scb/cy_scb_uart.h **** /*******************************************************************************
1178:Generated_Source\PSoC6\pdl\drivers/peripheral/scb/cy_scb_uart.h **** * Function Name: Cy_SCB_UART_Get
1179:Generated_Source\PSoC6\pdl\drivers/peripheral/scb/cy_scb_uart.h **** ****************************************************************************//**
1180:Generated_Source\PSoC6\pdl\drivers/peripheral/scb/cy_scb_uart.h **** *
1181:Generated_Source\PSoC6\pdl\drivers/peripheral/scb/cy_scb_uart.h **** * Reads a single data element from the UART RX FIFO.
1182:Generated_Source\PSoC6\pdl\drivers/peripheral/scb/cy_scb_uart.h **** * This function does not check whether the RX FIFO has data before reading it.
1183:Generated_Source\PSoC6\pdl\drivers/peripheral/scb/cy_scb_uart.h **** * If the RX FIFO is empty, the function returns \ref CY_SCB_UART_RX_NO_DATA.
1184:Generated_Source\PSoC6\pdl\drivers/peripheral/scb/cy_scb_uart.h **** *
1185:Generated_Source\PSoC6\pdl\drivers/peripheral/scb/cy_scb_uart.h **** * \param base
1186:Generated_Source\PSoC6\pdl\drivers/peripheral/scb/cy_scb_uart.h **** * The pointer to the UART SCB instance.
1187:Generated_Source\PSoC6\pdl\drivers/peripheral/scb/cy_scb_uart.h **** *
1188:Generated_Source\PSoC6\pdl\drivers/peripheral/scb/cy_scb_uart.h **** * \return
1189:Generated_Source\PSoC6\pdl\drivers/peripheral/scb/cy_scb_uart.h **** * Data from the RX FIFO.
1190:Generated_Source\PSoC6\pdl\drivers/peripheral/scb/cy_scb_uart.h **** * The data element size is defined by the configured data width.
1191:Generated_Source\PSoC6\pdl\drivers/peripheral/scb/cy_scb_uart.h **** *
1192:Generated_Source\PSoC6\pdl\drivers/peripheral/scb/cy_scb_uart.h **** *******************************************************************************/
1193:Generated_Source\PSoC6\pdl\drivers/peripheral/scb/cy_scb_uart.h **** __STATIC_INLINE uint32_t Cy_SCB_UART_Get(CySCB_Type const *base)
1194:Generated_Source\PSoC6\pdl\drivers/peripheral/scb/cy_scb_uart.h **** {
1195:Generated_Source\PSoC6\pdl\drivers/peripheral/scb/cy_scb_uart.h ****     return Cy_SCB_ReadRxFifo(base);
1196:Generated_Source\PSoC6\pdl\drivers/peripheral/scb/cy_scb_uart.h **** }
1197:Generated_Source\PSoC6\pdl\drivers/peripheral/scb/cy_scb_uart.h **** 
1198:Generated_Source\PSoC6\pdl\drivers/peripheral/scb/cy_scb_uart.h **** 
1199:Generated_Source\PSoC6\pdl\drivers/peripheral/scb/cy_scb_uart.h **** /*******************************************************************************
1200:Generated_Source\PSoC6\pdl\drivers/peripheral/scb/cy_scb_uart.h **** * Function Name: Cy_SCB_UART_GetArray
1201:Generated_Source\PSoC6\pdl\drivers/peripheral/scb/cy_scb_uart.h **** ****************************************************************************//**
1202:Generated_Source\PSoC6\pdl\drivers/peripheral/scb/cy_scb_uart.h **** *
1203:Generated_Source\PSoC6\pdl\drivers/peripheral/scb/cy_scb_uart.h **** * Reads an array of data out of the UART RX FIFO.
1204:Generated_Source\PSoC6\pdl\drivers/peripheral/scb/cy_scb_uart.h **** * This function does not block. It returns how many data elements were read
1205:Generated_Source\PSoC6\pdl\drivers/peripheral/scb/cy_scb_uart.h **** * from the RX FIFO.
1206:Generated_Source\PSoC6\pdl\drivers/peripheral/scb/cy_scb_uart.h **** *
1207:Generated_Source\PSoC6\pdl\drivers/peripheral/scb/cy_scb_uart.h **** * \param base
1208:Generated_Source\PSoC6\pdl\drivers/peripheral/scb/cy_scb_uart.h **** * The pointer to the UART SCB instance.
1209:Generated_Source\PSoC6\pdl\drivers/peripheral/scb/cy_scb_uart.h **** *
1210:Generated_Source\PSoC6\pdl\drivers/peripheral/scb/cy_scb_uart.h **** * \param buffer
1211:Generated_Source\PSoC6\pdl\drivers/peripheral/scb/cy_scb_uart.h **** * The pointer to the location to place the data read from the RX FIFO.
1212:Generated_Source\PSoC6\pdl\drivers/peripheral/scb/cy_scb_uart.h **** * The element size is defined by the data type, which depends on the configured
1213:Generated_Source\PSoC6\pdl\drivers/peripheral/scb/cy_scb_uart.h **** * data width.
1214:Generated_Source\PSoC6\pdl\drivers/peripheral/scb/cy_scb_uart.h **** *
1215:Generated_Source\PSoC6\pdl\drivers/peripheral/scb/cy_scb_uart.h **** * \param size
1216:Generated_Source\PSoC6\pdl\drivers/peripheral/scb/cy_scb_uart.h **** * The number of data elements to read from the RX FIFO.
ARM GAS  C:\Users\gab_1\AppData\Local\Temp\ccTtYdci.s 			page 50


1217:Generated_Source\PSoC6\pdl\drivers/peripheral/scb/cy_scb_uart.h **** *
1218:Generated_Source\PSoC6\pdl\drivers/peripheral/scb/cy_scb_uart.h **** * \return
1219:Generated_Source\PSoC6\pdl\drivers/peripheral/scb/cy_scb_uart.h **** * The number of data elements read from the RX FIFO.
1220:Generated_Source\PSoC6\pdl\drivers/peripheral/scb/cy_scb_uart.h **** *
1221:Generated_Source\PSoC6\pdl\drivers/peripheral/scb/cy_scb_uart.h **** *******************************************************************************/
1222:Generated_Source\PSoC6\pdl\drivers/peripheral/scb/cy_scb_uart.h **** __STATIC_INLINE uint32_t Cy_SCB_UART_GetArray(CySCB_Type const *base, void *buffer, uint32_t size)
1223:Generated_Source\PSoC6\pdl\drivers/peripheral/scb/cy_scb_uart.h **** {
1224:Generated_Source\PSoC6\pdl\drivers/peripheral/scb/cy_scb_uart.h ****     CY_ASSERT_L1(CY_SCB_IS_BUFFER_VALID(buffer, size));
1225:Generated_Source\PSoC6\pdl\drivers/peripheral/scb/cy_scb_uart.h **** 
1226:Generated_Source\PSoC6\pdl\drivers/peripheral/scb/cy_scb_uart.h ****     return Cy_SCB_ReadArray(base, buffer, size);
1227:Generated_Source\PSoC6\pdl\drivers/peripheral/scb/cy_scb_uart.h **** }
1228:Generated_Source\PSoC6\pdl\drivers/peripheral/scb/cy_scb_uart.h **** 
1229:Generated_Source\PSoC6\pdl\drivers/peripheral/scb/cy_scb_uart.h **** 
1230:Generated_Source\PSoC6\pdl\drivers/peripheral/scb/cy_scb_uart.h **** /*******************************************************************************
1231:Generated_Source\PSoC6\pdl\drivers/peripheral/scb/cy_scb_uart.h **** * Function Name: Cy_SCB_UART_GetArrayBlocking
1232:Generated_Source\PSoC6\pdl\drivers/peripheral/scb/cy_scb_uart.h **** ****************************************************************************//**
1233:Generated_Source\PSoC6\pdl\drivers/peripheral/scb/cy_scb_uart.h **** *
1234:Generated_Source\PSoC6\pdl\drivers/peripheral/scb/cy_scb_uart.h **** * Reads an array of data out of the UART RX FIFO.
1235:Generated_Source\PSoC6\pdl\drivers/peripheral/scb/cy_scb_uart.h **** * This function blocks until the number of data elements specified by the
1236:Generated_Source\PSoC6\pdl\drivers/peripheral/scb/cy_scb_uart.h **** * size has been read from the RX FIFO.
1237:Generated_Source\PSoC6\pdl\drivers/peripheral/scb/cy_scb_uart.h **** *
1238:Generated_Source\PSoC6\pdl\drivers/peripheral/scb/cy_scb_uart.h **** * \param base
1239:Generated_Source\PSoC6\pdl\drivers/peripheral/scb/cy_scb_uart.h **** * The pointer to the UART SCB instance.
1240:Generated_Source\PSoC6\pdl\drivers/peripheral/scb/cy_scb_uart.h **** *
1241:Generated_Source\PSoC6\pdl\drivers/peripheral/scb/cy_scb_uart.h **** * \param buffer
1242:Generated_Source\PSoC6\pdl\drivers/peripheral/scb/cy_scb_uart.h **** * The pointer to the location to place the data read from the RX FIFO.
1243:Generated_Source\PSoC6\pdl\drivers/peripheral/scb/cy_scb_uart.h **** * The element size is defined by the data type, which depends on the configured
1244:Generated_Source\PSoC6\pdl\drivers/peripheral/scb/cy_scb_uart.h **** * data width.
1245:Generated_Source\PSoC6\pdl\drivers/peripheral/scb/cy_scb_uart.h **** *
1246:Generated_Source\PSoC6\pdl\drivers/peripheral/scb/cy_scb_uart.h **** * \param size
1247:Generated_Source\PSoC6\pdl\drivers/peripheral/scb/cy_scb_uart.h **** * The number of data elements to read from the RX FIFO.
1248:Generated_Source\PSoC6\pdl\drivers/peripheral/scb/cy_scb_uart.h **** *
1249:Generated_Source\PSoC6\pdl\drivers/peripheral/scb/cy_scb_uart.h **** *******************************************************************************/
1250:Generated_Source\PSoC6\pdl\drivers/peripheral/scb/cy_scb_uart.h **** __STATIC_INLINE void Cy_SCB_UART_GetArrayBlocking(CySCB_Type const *base, void *buffer, uint32_t si
1251:Generated_Source\PSoC6\pdl\drivers/peripheral/scb/cy_scb_uart.h **** {
1252:Generated_Source\PSoC6\pdl\drivers/peripheral/scb/cy_scb_uart.h ****     CY_ASSERT_L1(CY_SCB_IS_BUFFER_VALID(buffer, size));
1253:Generated_Source\PSoC6\pdl\drivers/peripheral/scb/cy_scb_uart.h **** 
1254:Generated_Source\PSoC6\pdl\drivers/peripheral/scb/cy_scb_uart.h ****     Cy_SCB_ReadArrayBlocking(base, buffer, size);
1255:Generated_Source\PSoC6\pdl\drivers/peripheral/scb/cy_scb_uart.h **** }
1256:Generated_Source\PSoC6\pdl\drivers/peripheral/scb/cy_scb_uart.h **** 
1257:Generated_Source\PSoC6\pdl\drivers/peripheral/scb/cy_scb_uart.h **** 
1258:Generated_Source\PSoC6\pdl\drivers/peripheral/scb/cy_scb_uart.h **** /*******************************************************************************
1259:Generated_Source\PSoC6\pdl\drivers/peripheral/scb/cy_scb_uart.h **** * Function Name: Cy_SCB_UART_GetRxFifoStatus
1260:Generated_Source\PSoC6\pdl\drivers/peripheral/scb/cy_scb_uart.h **** ****************************************************************************//**
1261:Generated_Source\PSoC6\pdl\drivers/peripheral/scb/cy_scb_uart.h **** *
1262:Generated_Source\PSoC6\pdl\drivers/peripheral/scb/cy_scb_uart.h **** * Returns the current status of the RX FIFO.
1263:Generated_Source\PSoC6\pdl\drivers/peripheral/scb/cy_scb_uart.h **** *
1264:Generated_Source\PSoC6\pdl\drivers/peripheral/scb/cy_scb_uart.h **** * \param base
1265:Generated_Source\PSoC6\pdl\drivers/peripheral/scb/cy_scb_uart.h **** * The pointer to the UART SCB instance.
1266:Generated_Source\PSoC6\pdl\drivers/peripheral/scb/cy_scb_uart.h **** *
1267:Generated_Source\PSoC6\pdl\drivers/peripheral/scb/cy_scb_uart.h **** * \return
1268:Generated_Source\PSoC6\pdl\drivers/peripheral/scb/cy_scb_uart.h **** * \ref group_scb_uart_macros_rx_fifo_status
1269:Generated_Source\PSoC6\pdl\drivers/peripheral/scb/cy_scb_uart.h **** *
1270:Generated_Source\PSoC6\pdl\drivers/peripheral/scb/cy_scb_uart.h **** *******************************************************************************/
1271:Generated_Source\PSoC6\pdl\drivers/peripheral/scb/cy_scb_uart.h **** __STATIC_INLINE uint32_t Cy_SCB_UART_GetRxFifoStatus(CySCB_Type const *base)
1272:Generated_Source\PSoC6\pdl\drivers/peripheral/scb/cy_scb_uart.h **** {
1273:Generated_Source\PSoC6\pdl\drivers/peripheral/scb/cy_scb_uart.h ****     return (Cy_SCB_GetRxInterruptStatus(base) & CY_SCB_UART_RX_INTR_MASK);
ARM GAS  C:\Users\gab_1\AppData\Local\Temp\ccTtYdci.s 			page 51


1274:Generated_Source\PSoC6\pdl\drivers/peripheral/scb/cy_scb_uart.h **** }
1275:Generated_Source\PSoC6\pdl\drivers/peripheral/scb/cy_scb_uart.h **** 
1276:Generated_Source\PSoC6\pdl\drivers/peripheral/scb/cy_scb_uart.h **** 
1277:Generated_Source\PSoC6\pdl\drivers/peripheral/scb/cy_scb_uart.h **** /*******************************************************************************
1278:Generated_Source\PSoC6\pdl\drivers/peripheral/scb/cy_scb_uart.h **** * Function Name: Cy_SCB_UART_ClearRxFifoStatus
1279:Generated_Source\PSoC6\pdl\drivers/peripheral/scb/cy_scb_uart.h **** ****************************************************************************//**
1280:Generated_Source\PSoC6\pdl\drivers/peripheral/scb/cy_scb_uart.h **** *
1281:Generated_Source\PSoC6\pdl\drivers/peripheral/scb/cy_scb_uart.h **** * Clears the selected statuses of the RX FIFO.
1282:Generated_Source\PSoC6\pdl\drivers/peripheral/scb/cy_scb_uart.h **** *
1283:Generated_Source\PSoC6\pdl\drivers/peripheral/scb/cy_scb_uart.h **** * \param base
1284:Generated_Source\PSoC6\pdl\drivers/peripheral/scb/cy_scb_uart.h **** * The pointer to the UART SCB instance.
1285:Generated_Source\PSoC6\pdl\drivers/peripheral/scb/cy_scb_uart.h **** *
1286:Generated_Source\PSoC6\pdl\drivers/peripheral/scb/cy_scb_uart.h **** * \param clearMask
1287:Generated_Source\PSoC6\pdl\drivers/peripheral/scb/cy_scb_uart.h **** * The mask whose statuses to clear.
1288:Generated_Source\PSoC6\pdl\drivers/peripheral/scb/cy_scb_uart.h **** * See \ref group_scb_uart_macros_rx_fifo_status for the set of constants.
1289:Generated_Source\PSoC6\pdl\drivers/peripheral/scb/cy_scb_uart.h **** *
1290:Generated_Source\PSoC6\pdl\drivers/peripheral/scb/cy_scb_uart.h **** * \note
1291:Generated_Source\PSoC6\pdl\drivers/peripheral/scb/cy_scb_uart.h **** * * This status is also used for interrupt generation, so clearing it also
1292:Generated_Source\PSoC6\pdl\drivers/peripheral/scb/cy_scb_uart.h **** *   clears the interrupt sources.
1293:Generated_Source\PSoC6\pdl\drivers/peripheral/scb/cy_scb_uart.h **** * * Level-sensitive statuses such as \ref CY_SCB_UART_RX_TRIGGER,
1294:Generated_Source\PSoC6\pdl\drivers/peripheral/scb/cy_scb_uart.h **** *   \ref CY_SCB_UART_RX_NOT_EMPTY and \ref CY_SCB_UART_RX_FULL are set high again after
1295:Generated_Source\PSoC6\pdl\drivers/peripheral/scb/cy_scb_uart.h **** *   being cleared if the condition remains true.
1296:Generated_Source\PSoC6\pdl\drivers/peripheral/scb/cy_scb_uart.h **** *
1297:Generated_Source\PSoC6\pdl\drivers/peripheral/scb/cy_scb_uart.h **** *******************************************************************************/
1298:Generated_Source\PSoC6\pdl\drivers/peripheral/scb/cy_scb_uart.h **** __STATIC_INLINE void Cy_SCB_UART_ClearRxFifoStatus(CySCB_Type *base, uint32_t clearMask)
1299:Generated_Source\PSoC6\pdl\drivers/peripheral/scb/cy_scb_uart.h **** {
1300:Generated_Source\PSoC6\pdl\drivers/peripheral/scb/cy_scb_uart.h ****     CY_ASSERT_L2(CY_SCB_IS_INTR_VALID(clearMask, CY_SCB_UART_RX_INTR_MASK));
1301:Generated_Source\PSoC6\pdl\drivers/peripheral/scb/cy_scb_uart.h **** 
1302:Generated_Source\PSoC6\pdl\drivers/peripheral/scb/cy_scb_uart.h ****     Cy_SCB_ClearRxInterrupt(base, clearMask);
1303:Generated_Source\PSoC6\pdl\drivers/peripheral/scb/cy_scb_uart.h **** }
1304:Generated_Source\PSoC6\pdl\drivers/peripheral/scb/cy_scb_uart.h **** 
1305:Generated_Source\PSoC6\pdl\drivers/peripheral/scb/cy_scb_uart.h **** 
1306:Generated_Source\PSoC6\pdl\drivers/peripheral/scb/cy_scb_uart.h **** /*******************************************************************************
1307:Generated_Source\PSoC6\pdl\drivers/peripheral/scb/cy_scb_uart.h **** * Function Name: Cy_SCB_UART_GetNumInRxFifo
1308:Generated_Source\PSoC6\pdl\drivers/peripheral/scb/cy_scb_uart.h **** ****************************************************************************//**
1309:Generated_Source\PSoC6\pdl\drivers/peripheral/scb/cy_scb_uart.h **** *
1310:Generated_Source\PSoC6\pdl\drivers/peripheral/scb/cy_scb_uart.h **** * Returns the number of data elements in the UART RX FIFO.
1311:Generated_Source\PSoC6\pdl\drivers/peripheral/scb/cy_scb_uart.h **** *
1312:Generated_Source\PSoC6\pdl\drivers/peripheral/scb/cy_scb_uart.h **** * \param base
1313:Generated_Source\PSoC6\pdl\drivers/peripheral/scb/cy_scb_uart.h **** * The pointer to the UART SCB instance.
1314:Generated_Source\PSoC6\pdl\drivers/peripheral/scb/cy_scb_uart.h **** *
1315:Generated_Source\PSoC6\pdl\drivers/peripheral/scb/cy_scb_uart.h **** * \return
1316:Generated_Source\PSoC6\pdl\drivers/peripheral/scb/cy_scb_uart.h **** * The number of data elements in the RX FIFO.
1317:Generated_Source\PSoC6\pdl\drivers/peripheral/scb/cy_scb_uart.h **** * The size of date element defined by the configured data width.
1318:Generated_Source\PSoC6\pdl\drivers/peripheral/scb/cy_scb_uart.h **** *
1319:Generated_Source\PSoC6\pdl\drivers/peripheral/scb/cy_scb_uart.h **** *******************************************************************************/
1320:Generated_Source\PSoC6\pdl\drivers/peripheral/scb/cy_scb_uart.h **** __STATIC_INLINE uint32_t Cy_SCB_UART_GetNumInRxFifo(CySCB_Type const *base)
1321:Generated_Source\PSoC6\pdl\drivers/peripheral/scb/cy_scb_uart.h **** {
1322:Generated_Source\PSoC6\pdl\drivers/peripheral/scb/cy_scb_uart.h ****     return Cy_SCB_GetNumInRxFifo(base);
1323:Generated_Source\PSoC6\pdl\drivers/peripheral/scb/cy_scb_uart.h **** }
1324:Generated_Source\PSoC6\pdl\drivers/peripheral/scb/cy_scb_uart.h **** 
1325:Generated_Source\PSoC6\pdl\drivers/peripheral/scb/cy_scb_uart.h **** /*******************************************************************************
1326:Generated_Source\PSoC6\pdl\drivers/peripheral/scb/cy_scb_uart.h **** * Function Name: Cy_SCB_UART_ClearRxFifo
1327:Generated_Source\PSoC6\pdl\drivers/peripheral/scb/cy_scb_uart.h **** ****************************************************************************//**
1328:Generated_Source\PSoC6\pdl\drivers/peripheral/scb/cy_scb_uart.h **** *
1329:Generated_Source\PSoC6\pdl\drivers/peripheral/scb/cy_scb_uart.h **** * Clears all data out of the UART RX FIFO.
1330:Generated_Source\PSoC6\pdl\drivers/peripheral/scb/cy_scb_uart.h **** *
ARM GAS  C:\Users\gab_1\AppData\Local\Temp\ccTtYdci.s 			page 52


1331:Generated_Source\PSoC6\pdl\drivers/peripheral/scb/cy_scb_uart.h **** * \param base
1332:Generated_Source\PSoC6\pdl\drivers/peripheral/scb/cy_scb_uart.h **** * The pointer to the UART SCB instance.
1333:Generated_Source\PSoC6\pdl\drivers/peripheral/scb/cy_scb_uart.h **** *
1334:Generated_Source\PSoC6\pdl\drivers/peripheral/scb/cy_scb_uart.h **** * \sideeffect
1335:Generated_Source\PSoC6\pdl\drivers/peripheral/scb/cy_scb_uart.h **** * Any data currently in the shifter is cleared and lost.
1336:Generated_Source\PSoC6\pdl\drivers/peripheral/scb/cy_scb_uart.h **** *
1337:Generated_Source\PSoC6\pdl\drivers/peripheral/scb/cy_scb_uart.h **** *******************************************************************************/
1338:Generated_Source\PSoC6\pdl\drivers/peripheral/scb/cy_scb_uart.h **** __STATIC_INLINE void Cy_SCB_UART_ClearRxFifo(CySCB_Type *base)
1339:Generated_Source\PSoC6\pdl\drivers/peripheral/scb/cy_scb_uart.h **** {
1340:Generated_Source\PSoC6\pdl\drivers/peripheral/scb/cy_scb_uart.h ****     Cy_SCB_ClearRxFifo(base);
1341:Generated_Source\PSoC6\pdl\drivers/peripheral/scb/cy_scb_uart.h **** }
1342:Generated_Source\PSoC6\pdl\drivers/peripheral/scb/cy_scb_uart.h **** 
1343:Generated_Source\PSoC6\pdl\drivers/peripheral/scb/cy_scb_uart.h **** 
1344:Generated_Source\PSoC6\pdl\drivers/peripheral/scb/cy_scb_uart.h **** /*******************************************************************************
1345:Generated_Source\PSoC6\pdl\drivers/peripheral/scb/cy_scb_uart.h **** * Function Name: Cy_SCB_UART_Put
1346:Generated_Source\PSoC6\pdl\drivers/peripheral/scb/cy_scb_uart.h **** ****************************************************************************//**
1347:Generated_Source\PSoC6\pdl\drivers/peripheral/scb/cy_scb_uart.h **** *
1348:Generated_Source\PSoC6\pdl\drivers/peripheral/scb/cy_scb_uart.h **** * Places a single data element in the UART TX FIFO.
1349:Generated_Source\PSoC6\pdl\drivers/peripheral/scb/cy_scb_uart.h **** * This function does not block and returns how many data elements were placed
1350:Generated_Source\PSoC6\pdl\drivers/peripheral/scb/cy_scb_uart.h **** * in the TX FIFO.
1351:Generated_Source\PSoC6\pdl\drivers/peripheral/scb/cy_scb_uart.h **** *
1352:Generated_Source\PSoC6\pdl\drivers/peripheral/scb/cy_scb_uart.h **** * \param base
1353:Generated_Source\PSoC6\pdl\drivers/peripheral/scb/cy_scb_uart.h **** * The pointer to the UART SCB instance.
1354:Generated_Source\PSoC6\pdl\drivers/peripheral/scb/cy_scb_uart.h **** *
1355:Generated_Source\PSoC6\pdl\drivers/peripheral/scb/cy_scb_uart.h **** * \param data
1356:Generated_Source\PSoC6\pdl\drivers/peripheral/scb/cy_scb_uart.h **** * Data to put in the TX FIFO.
1357:Generated_Source\PSoC6\pdl\drivers/peripheral/scb/cy_scb_uart.h **** * The element size is defined by the data type, which depends on the configured
1358:Generated_Source\PSoC6\pdl\drivers/peripheral/scb/cy_scb_uart.h **** * data width.
1359:Generated_Source\PSoC6\pdl\drivers/peripheral/scb/cy_scb_uart.h **** *
1360:Generated_Source\PSoC6\pdl\drivers/peripheral/scb/cy_scb_uart.h **** * \return
1361:Generated_Source\PSoC6\pdl\drivers/peripheral/scb/cy_scb_uart.h **** * The number of data elements placed in the TX FIFO: 0 or 1.
1362:Generated_Source\PSoC6\pdl\drivers/peripheral/scb/cy_scb_uart.h **** *
1363:Generated_Source\PSoC6\pdl\drivers/peripheral/scb/cy_scb_uart.h **** *******************************************************************************/
1364:Generated_Source\PSoC6\pdl\drivers/peripheral/scb/cy_scb_uart.h **** __STATIC_INLINE uint32_t Cy_SCB_UART_Put(CySCB_Type *base, uint32_t data)
1365:Generated_Source\PSoC6\pdl\drivers/peripheral/scb/cy_scb_uart.h **** {
1366:Generated_Source\PSoC6\pdl\drivers/peripheral/scb/cy_scb_uart.h ****     return Cy_SCB_Write(base, data);
1367:Generated_Source\PSoC6\pdl\drivers/peripheral/scb/cy_scb_uart.h **** }
1368:Generated_Source\PSoC6\pdl\drivers/peripheral/scb/cy_scb_uart.h **** 
1369:Generated_Source\PSoC6\pdl\drivers/peripheral/scb/cy_scb_uart.h **** 
1370:Generated_Source\PSoC6\pdl\drivers/peripheral/scb/cy_scb_uart.h **** /*******************************************************************************
1371:Generated_Source\PSoC6\pdl\drivers/peripheral/scb/cy_scb_uart.h **** * Function Name: Cy_SCB_UART_PutArray
1372:Generated_Source\PSoC6\pdl\drivers/peripheral/scb/cy_scb_uart.h **** ****************************************************************************//**
1373:Generated_Source\PSoC6\pdl\drivers/peripheral/scb/cy_scb_uart.h **** *
1374:Generated_Source\PSoC6\pdl\drivers/peripheral/scb/cy_scb_uart.h **** * Places an array of data in the UART TX FIFO.
1375:Generated_Source\PSoC6\pdl\drivers/peripheral/scb/cy_scb_uart.h **** * This function does not block. It returns how many data elements were
1376:Generated_Source\PSoC6\pdl\drivers/peripheral/scb/cy_scb_uart.h **** * placed in the TX FIFO.
1377:Generated_Source\PSoC6\pdl\drivers/peripheral/scb/cy_scb_uart.h **** *
1378:Generated_Source\PSoC6\pdl\drivers/peripheral/scb/cy_scb_uart.h **** * \param base
1379:Generated_Source\PSoC6\pdl\drivers/peripheral/scb/cy_scb_uart.h **** * The pointer to the UART SCB instance.
1380:Generated_Source\PSoC6\pdl\drivers/peripheral/scb/cy_scb_uart.h **** *
1381:Generated_Source\PSoC6\pdl\drivers/peripheral/scb/cy_scb_uart.h **** * \param buffer
1382:Generated_Source\PSoC6\pdl\drivers/peripheral/scb/cy_scb_uart.h **** * The pointer to data to place in the TX FIFO.
1383:Generated_Source\PSoC6\pdl\drivers/peripheral/scb/cy_scb_uart.h **** * The element size is defined by the data type, which depends on the configured
1384:Generated_Source\PSoC6\pdl\drivers/peripheral/scb/cy_scb_uart.h **** * TX data width.
1385:Generated_Source\PSoC6\pdl\drivers/peripheral/scb/cy_scb_uart.h **** *
1386:Generated_Source\PSoC6\pdl\drivers/peripheral/scb/cy_scb_uart.h **** * \param size
1387:Generated_Source\PSoC6\pdl\drivers/peripheral/scb/cy_scb_uart.h **** * The number of data elements to TX.
ARM GAS  C:\Users\gab_1\AppData\Local\Temp\ccTtYdci.s 			page 53


1388:Generated_Source\PSoC6\pdl\drivers/peripheral/scb/cy_scb_uart.h **** *
1389:Generated_Source\PSoC6\pdl\drivers/peripheral/scb/cy_scb_uart.h **** * \return
1390:Generated_Source\PSoC6\pdl\drivers/peripheral/scb/cy_scb_uart.h **** * The number of data elements placed in the TX FIFO.
1391:Generated_Source\PSoC6\pdl\drivers/peripheral/scb/cy_scb_uart.h **** *
1392:Generated_Source\PSoC6\pdl\drivers/peripheral/scb/cy_scb_uart.h **** *******************************************************************************/
1393:Generated_Source\PSoC6\pdl\drivers/peripheral/scb/cy_scb_uart.h **** __STATIC_INLINE uint32_t Cy_SCB_UART_PutArray(CySCB_Type *base, void *buffer, uint32_t size)
1394:Generated_Source\PSoC6\pdl\drivers/peripheral/scb/cy_scb_uart.h **** {
1395:Generated_Source\PSoC6\pdl\drivers/peripheral/scb/cy_scb_uart.h ****     CY_ASSERT_L1(CY_SCB_IS_BUFFER_VALID(buffer, size));
1396:Generated_Source\PSoC6\pdl\drivers/peripheral/scb/cy_scb_uart.h **** 
1397:Generated_Source\PSoC6\pdl\drivers/peripheral/scb/cy_scb_uart.h ****     return Cy_SCB_WriteArray(base, buffer, size);
1398:Generated_Source\PSoC6\pdl\drivers/peripheral/scb/cy_scb_uart.h **** }
1399:Generated_Source\PSoC6\pdl\drivers/peripheral/scb/cy_scb_uart.h **** 
1400:Generated_Source\PSoC6\pdl\drivers/peripheral/scb/cy_scb_uart.h **** 
1401:Generated_Source\PSoC6\pdl\drivers/peripheral/scb/cy_scb_uart.h **** /*******************************************************************************
1402:Generated_Source\PSoC6\pdl\drivers/peripheral/scb/cy_scb_uart.h **** * Function Name: Cy_SCB_UART_PutArrayBlocking
1403:Generated_Source\PSoC6\pdl\drivers/peripheral/scb/cy_scb_uart.h **** ****************************************************************************//**
1404:Generated_Source\PSoC6\pdl\drivers/peripheral/scb/cy_scb_uart.h **** *
1405:Generated_Source\PSoC6\pdl\drivers/peripheral/scb/cy_scb_uart.h **** * Places an array of data in the UART TX FIFO.
1406:Generated_Source\PSoC6\pdl\drivers/peripheral/scb/cy_scb_uart.h **** * This function blocks until the number of data elements specified by the size
1407:Generated_Source\PSoC6\pdl\drivers/peripheral/scb/cy_scb_uart.h **** * is placed in the TX FIFO.
1408:Generated_Source\PSoC6\pdl\drivers/peripheral/scb/cy_scb_uart.h **** *
1409:Generated_Source\PSoC6\pdl\drivers/peripheral/scb/cy_scb_uart.h **** * \param base
1410:Generated_Source\PSoC6\pdl\drivers/peripheral/scb/cy_scb_uart.h **** * The pointer to the UART SCB instance.
1411:Generated_Source\PSoC6\pdl\drivers/peripheral/scb/cy_scb_uart.h **** *
1412:Generated_Source\PSoC6\pdl\drivers/peripheral/scb/cy_scb_uart.h **** * \param buffer
1413:Generated_Source\PSoC6\pdl\drivers/peripheral/scb/cy_scb_uart.h **** * The pointer to data to place in the TX FIFO.
1414:Generated_Source\PSoC6\pdl\drivers/peripheral/scb/cy_scb_uart.h **** * The element size is defined by the data type, which depends on the configured
1415:Generated_Source\PSoC6\pdl\drivers/peripheral/scb/cy_scb_uart.h **** * data width.
1416:Generated_Source\PSoC6\pdl\drivers/peripheral/scb/cy_scb_uart.h **** *
1417:Generated_Source\PSoC6\pdl\drivers/peripheral/scb/cy_scb_uart.h **** * \param size
1418:Generated_Source\PSoC6\pdl\drivers/peripheral/scb/cy_scb_uart.h **** * The number of data elements to write into the TX FIFO.
1419:Generated_Source\PSoC6\pdl\drivers/peripheral/scb/cy_scb_uart.h **** *
1420:Generated_Source\PSoC6\pdl\drivers/peripheral/scb/cy_scb_uart.h **** *******************************************************************************/
1421:Generated_Source\PSoC6\pdl\drivers/peripheral/scb/cy_scb_uart.h **** __STATIC_INLINE void Cy_SCB_UART_PutArrayBlocking(CySCB_Type *base, void *buffer, uint32_t size)
1422:Generated_Source\PSoC6\pdl\drivers/peripheral/scb/cy_scb_uart.h **** {
1423:Generated_Source\PSoC6\pdl\drivers/peripheral/scb/cy_scb_uart.h ****     CY_ASSERT_L1(CY_SCB_IS_BUFFER_VALID(buffer, size));
1424:Generated_Source\PSoC6\pdl\drivers/peripheral/scb/cy_scb_uart.h **** 
1425:Generated_Source\PSoC6\pdl\drivers/peripheral/scb/cy_scb_uart.h ****     Cy_SCB_WriteArrayBlocking(base, buffer, size);
1426:Generated_Source\PSoC6\pdl\drivers/peripheral/scb/cy_scb_uart.h **** }
1427:Generated_Source\PSoC6\pdl\drivers/peripheral/scb/cy_scb_uart.h **** 
1428:Generated_Source\PSoC6\pdl\drivers/peripheral/scb/cy_scb_uart.h **** 
1429:Generated_Source\PSoC6\pdl\drivers/peripheral/scb/cy_scb_uart.h **** /*******************************************************************************
1430:Generated_Source\PSoC6\pdl\drivers/peripheral/scb/cy_scb_uart.h **** * Function Name: Cy_SCB_UART_PutString
1431:Generated_Source\PSoC6\pdl\drivers/peripheral/scb/cy_scb_uart.h **** ****************************************************************************//**
1432:Generated_Source\PSoC6\pdl\drivers/peripheral/scb/cy_scb_uart.h **** *
1433:Generated_Source\PSoC6\pdl\drivers/peripheral/scb/cy_scb_uart.h **** * Places a NULL terminated string in the UART TX FIFO.
1434:Generated_Source\PSoC6\pdl\drivers/peripheral/scb/cy_scb_uart.h **** * This function blocks until the entire string is placed in the TX FIFO.
1435:Generated_Source\PSoC6\pdl\drivers/peripheral/scb/cy_scb_uart.h **** *
1436:Generated_Source\PSoC6\pdl\drivers/peripheral/scb/cy_scb_uart.h **** * \param base
1437:Generated_Source\PSoC6\pdl\drivers/peripheral/scb/cy_scb_uart.h **** * The pointer to the UART SCB instance.
1438:Generated_Source\PSoC6\pdl\drivers/peripheral/scb/cy_scb_uart.h **** *
1439:Generated_Source\PSoC6\pdl\drivers/peripheral/scb/cy_scb_uart.h **** * \param string
1440:Generated_Source\PSoC6\pdl\drivers/peripheral/scb/cy_scb_uart.h **** * The pointer to the null terminated string array.
1441:Generated_Source\PSoC6\pdl\drivers/peripheral/scb/cy_scb_uart.h **** *
1442:Generated_Source\PSoC6\pdl\drivers/peripheral/scb/cy_scb_uart.h **** *******************************************************************************/
1443:Generated_Source\PSoC6\pdl\drivers/peripheral/scb/cy_scb_uart.h **** __STATIC_INLINE void Cy_SCB_UART_PutString(CySCB_Type *base, char_t const string[])
1444:Generated_Source\PSoC6\pdl\drivers/peripheral/scb/cy_scb_uart.h **** {
ARM GAS  C:\Users\gab_1\AppData\Local\Temp\ccTtYdci.s 			page 54


1445:Generated_Source\PSoC6\pdl\drivers/peripheral/scb/cy_scb_uart.h ****     CY_ASSERT_L1(CY_SCB_IS_BUFFER_VALID(string, 1UL));
1446:Generated_Source\PSoC6\pdl\drivers/peripheral/scb/cy_scb_uart.h **** 
1447:Generated_Source\PSoC6\pdl\drivers/peripheral/scb/cy_scb_uart.h ****     Cy_SCB_WriteString(base, string);
 675              		.loc 4 1447 0
 676 0012 1049     		ldr	r1, .L35
 677 0014 1048     		ldr	r0, .L35+4
 678 0016 FFF7FEFF 		bl	Cy_SCB_WriteString
 679              	.LVL75:
 680              	.LBE107:
 681              	.LBE106:
 682              	.LBE105:
 146:main_cm4.c    ****     
 147:main_cm4.c    ****     UART_1_PutString("Burst Read ");
 148:main_cm4.c    ****     
 149:main_cm4.c    ****     *bufferR = ((buffer[0]&0b00000011)<<16) + (buffer[1]<<8) + buffer[2];
 683              		.loc 2 149 0
 684 001a 9DF80030 		ldrb	r3, [sp]	@ zero_extendqisi2
 685 001e 1B04     		lsls	r3, r3, #16
 686 0020 03F44033 		and	r3, r3, #196608
 687 0024 9DF80120 		ldrb	r2, [sp, #1]	@ zero_extendqisi2
 688 0028 03EB0223 		add	r3, r3, r2, lsl #8
 689 002c 9DF80220 		ldrb	r2, [sp, #2]	@ zero_extendqisi2
 690 0030 1344     		add	r3, r3, r2
 691 0032 2B60     		str	r3, [r5]
 150:main_cm4.c    ****     
 151:main_cm4.c    ****     *bufferIR = ((buffer[3]&0b00000011)<<16) + (buffer[4]<<8) + buffer[5];
 692              		.loc 2 151 0
 693 0034 9DF80330 		ldrb	r3, [sp, #3]	@ zero_extendqisi2
 694 0038 1B04     		lsls	r3, r3, #16
 695 003a 03F44033 		and	r3, r3, #196608
 696 003e 9DF80420 		ldrb	r2, [sp, #4]	@ zero_extendqisi2
 697 0042 03EB0223 		add	r3, r3, r2, lsl #8
 698 0046 9DF80520 		ldrb	r2, [sp, #5]	@ zero_extendqisi2
 699 004a 1344     		add	r3, r3, r2
 700 004c 2360     		str	r3, [r4]
 152:main_cm4.c    **** }
 701              		.loc 2 152 0
 702 004e 03B0     		add	sp, sp, #12
 703              		.cfi_def_cfa_offset 12
 704              		@ sp needed
 705 0050 30BD     		pop	{r4, r5, pc}
 706              	.LVL76:
 707              	.L36:
 708 0052 00BF     		.align	2
 709              	.L35:
 710 0054 38000000 		.word	.LC2
 711 0058 00006640 		.word	1080426496
 712              		.cfi_endproc
 713              	.LFE700:
 714              		.size	read_FIFO_DATA, .-read_FIFO_DATA
 715              		.section	.text.maxim_max30102_init,"ax",%progbits
 716              		.align	2
 717              		.global	maxim_max30102_init
 718              		.thumb
 719              		.thumb_func
 720              		.type	maxim_max30102_init, %function
 721              	maxim_max30102_init:
ARM GAS  C:\Users\gab_1\AppData\Local\Temp\ccTtYdci.s 			page 55


 722              	.LFB702:
 153:main_cm4.c    **** 
 154:main_cm4.c    **** /*--- ACQUISITION DES DONNÉES DU MAX30102---*/
 155:main_cm4.c    **** void interrupt_MAX30102(void){
 156:main_cm4.c    ****     
 157:main_cm4.c    **** //    Cy_GPIO_ClearInterrupt(BOUTON1_0_PORT,BOUTON1_0_NUM);
 158:main_cm4.c    **** //    NVIC_ClearPendingIRQ(dataCapteur_cfg.intrSrc);
 159:main_cm4.c    **** //    __NVIC_EnableIRQ(dataCapteur_cfg.intrSrc);
 160:main_cm4.c    ****        
 161:main_cm4.c    ****     
 162:main_cm4.c    ****     UART_1_PutString("interrupt ");
 163:main_cm4.c    ****     
 164:main_cm4.c    ****     read_FIFO_DATA(&bufferROUGE[indice], &bufferINFRAROUGE[indice]);
 165:main_cm4.c    ****     UART_1_PutString("Reading done ");
 166:main_cm4.c    ****     char OutPutStream[150];
 167:main_cm4.c    ****     
 168:main_cm4.c    ****     sprintf(OutPutStream, "%lu :: %lu \r\n",(unsigned long)bufferROUGE[indice],(unsigned long) buff
 169:main_cm4.c    ****     
 170:main_cm4.c    ****     UART_1_PutString(OutPutStream);
 171:main_cm4.c    ****     
 172:main_cm4.c    ****     indice++;
 173:main_cm4.c    ****     
 174:main_cm4.c    ****     if(indice==1000){ 
 175:main_cm4.c    ****        
 176:main_cm4.c    ****         saturation(pointeurIr, pointeurRed);
 177:main_cm4.c    ****         indice=0;}
 178:main_cm4.c    ****     
 179:main_cm4.c    ****     
 180:main_cm4.c    ****     void motionTask();
 181:main_cm4.c    ****     
 182:main_cm4.c    ****     UART_1_PutString("hello6\r\n");     
 183:main_cm4.c    **** }
 184:main_cm4.c    **** 
 185:main_cm4.c    **** /*---AJUSTEMENT DES REGISTRES DU MAX30102---*/
 186:main_cm4.c    **** bool maxim_max30102_init()
 187:main_cm4.c    **** {
 723              		.loc 2 187 0
 724              		.cfi_startproc
 725              		@ args = 0, pretend = 0, frame = 0
 726              		@ frame_needed = 0, uses_anonymous_args = 0
 727 0000 70B5     		push	{r4, r5, r6, lr}
 728              		.cfi_def_cfa_offset 16
 729              		.cfi_offset 4, -16
 730              		.cfi_offset 5, -12
 731              		.cfi_offset 6, -8
 732              		.cfi_offset 14, -4
 733              	.LVL77:
 734              	.LBB118:
 735              	.LBB119:
 736              		.file 5 "Generated_Source\\PSoC6\\pdl\\drivers/peripheral/gpio/cy_gpio.h"
   1:Generated_Source\PSoC6\pdl\drivers/peripheral/gpio/cy_gpio.h **** /***************************************************************************//**
   2:Generated_Source\PSoC6\pdl\drivers/peripheral/gpio/cy_gpio.h **** * \file cy_gpio.h
   3:Generated_Source\PSoC6\pdl\drivers/peripheral/gpio/cy_gpio.h **** * \version 1.20
   4:Generated_Source\PSoC6\pdl\drivers/peripheral/gpio/cy_gpio.h **** *
   5:Generated_Source\PSoC6\pdl\drivers/peripheral/gpio/cy_gpio.h **** * Provides an API declaration of the GPIO driver
   6:Generated_Source\PSoC6\pdl\drivers/peripheral/gpio/cy_gpio.h **** *
   7:Generated_Source\PSoC6\pdl\drivers/peripheral/gpio/cy_gpio.h **** ********************************************************************************
ARM GAS  C:\Users\gab_1\AppData\Local\Temp\ccTtYdci.s 			page 56


   8:Generated_Source\PSoC6\pdl\drivers/peripheral/gpio/cy_gpio.h **** * \copyright
   9:Generated_Source\PSoC6\pdl\drivers/peripheral/gpio/cy_gpio.h **** * Copyright 2016-2018, Cypress Semiconductor Corporation. All rights reserved.
  10:Generated_Source\PSoC6\pdl\drivers/peripheral/gpio/cy_gpio.h **** * You may use this file only in accordance with the license, terms, conditions,
  11:Generated_Source\PSoC6\pdl\drivers/peripheral/gpio/cy_gpio.h **** * disclaimers, and limitations in the end user license agreement accompanying
  12:Generated_Source\PSoC6\pdl\drivers/peripheral/gpio/cy_gpio.h **** * the software package with which this file was provided.
  13:Generated_Source\PSoC6\pdl\drivers/peripheral/gpio/cy_gpio.h **** *******************************************************************************/
  14:Generated_Source\PSoC6\pdl\drivers/peripheral/gpio/cy_gpio.h **** 
  15:Generated_Source\PSoC6\pdl\drivers/peripheral/gpio/cy_gpio.h **** /**
  16:Generated_Source\PSoC6\pdl\drivers/peripheral/gpio/cy_gpio.h **** * \addtogroup group_gpio
  17:Generated_Source\PSoC6\pdl\drivers/peripheral/gpio/cy_gpio.h **** * \{
  18:Generated_Source\PSoC6\pdl\drivers/peripheral/gpio/cy_gpio.h **** * The GPIO driver provides an API to configure and access device Input/Output pins.
  19:Generated_Source\PSoC6\pdl\drivers/peripheral/gpio/cy_gpio.h **** *
  20:Generated_Source\PSoC6\pdl\drivers/peripheral/gpio/cy_gpio.h **** * The functions and other declarations used in this driver are in cy_gpio.h. 
  21:Generated_Source\PSoC6\pdl\drivers/peripheral/gpio/cy_gpio.h **** * You can include cy_pdl.h (ModusToolbox only) to get access to all functions 
  22:Generated_Source\PSoC6\pdl\drivers/peripheral/gpio/cy_gpio.h **** * and declarations in the PDL.
  23:Generated_Source\PSoC6\pdl\drivers/peripheral/gpio/cy_gpio.h **** *
  24:Generated_Source\PSoC6\pdl\drivers/peripheral/gpio/cy_gpio.h **** * IO pins include all general purpose types such as GPIO, SIO, HSIO, AUXIO, and
  25:Generated_Source\PSoC6\pdl\drivers/peripheral/gpio/cy_gpio.h **** * their variants.
  26:Generated_Source\PSoC6\pdl\drivers/peripheral/gpio/cy_gpio.h **** *
  27:Generated_Source\PSoC6\pdl\drivers/peripheral/gpio/cy_gpio.h **** * Initialization can be performed either at the port level or by configuring the
  28:Generated_Source\PSoC6\pdl\drivers/peripheral/gpio/cy_gpio.h **** * individual pins. For efficient use of code space, port
  29:Generated_Source\PSoC6\pdl\drivers/peripheral/gpio/cy_gpio.h **** * configuration should be used in the field. Refer to the product device header files 
  30:Generated_Source\PSoC6\pdl\drivers/peripheral/gpio/cy_gpio.h **** * for the list of supported ports and pins.
  31:Generated_Source\PSoC6\pdl\drivers/peripheral/gpio/cy_gpio.h **** * 
  32:Generated_Source\PSoC6\pdl\drivers/peripheral/gpio/cy_gpio.h **** * - Single pin configuration is performed by using \ref Cy_GPIO_Pin_FastInit 
  33:Generated_Source\PSoC6\pdl\drivers/peripheral/gpio/cy_gpio.h **** *   (provide specific values) or \ref Cy_GPIO_Pin_Init (provide a filled
  34:Generated_Source\PSoC6\pdl\drivers/peripheral/gpio/cy_gpio.h **** *   cy_stc_gpio_pin_config_t structure).
  35:Generated_Source\PSoC6\pdl\drivers/peripheral/gpio/cy_gpio.h **** * - An entire port can be configured using \ref Cy_GPIO_Port_Init. Provide a filled 
  36:Generated_Source\PSoC6\pdl\drivers/peripheral/gpio/cy_gpio.h **** *   cy_stc_gpio_prt_config_t structure. The values in the structure are 
  37:Generated_Source\PSoC6\pdl\drivers/peripheral/gpio/cy_gpio.h **** *   bitfields representing the desired value for each pin in the port.
  38:Generated_Source\PSoC6\pdl\drivers/peripheral/gpio/cy_gpio.h **** * - Pin configuration and management is based on the port address and pin number.
  39:Generated_Source\PSoC6\pdl\drivers/peripheral/gpio/cy_gpio.h **** *   \ref Cy_GPIO_PortToAddr function can optionally be used to calculate the port
  40:Generated_Source\PSoC6\pdl\drivers/peripheral/gpio/cy_gpio.h **** *   address from the port number at run-time.
  41:Generated_Source\PSoC6\pdl\drivers/peripheral/gpio/cy_gpio.h **** *
  42:Generated_Source\PSoC6\pdl\drivers/peripheral/gpio/cy_gpio.h **** * Once the pin/port initialization is complete, each pin can be accessed by 
  43:Generated_Source\PSoC6\pdl\drivers/peripheral/gpio/cy_gpio.h **** * specifying the port (GPIO_PRT_Type) and the pin (0-7) in the provided API 
  44:Generated_Source\PSoC6\pdl\drivers/peripheral/gpio/cy_gpio.h **** * functions.
  45:Generated_Source\PSoC6\pdl\drivers/peripheral/gpio/cy_gpio.h **** *
  46:Generated_Source\PSoC6\pdl\drivers/peripheral/gpio/cy_gpio.h **** * \section group_gpio_configuration Configuration Considerations
  47:Generated_Source\PSoC6\pdl\drivers/peripheral/gpio/cy_gpio.h **** *
  48:Generated_Source\PSoC6\pdl\drivers/peripheral/gpio/cy_gpio.h **** * 1. Pin multiplexing is controlled through the High-Speed IO Matrix (HSIOM) selection.
  49:Generated_Source\PSoC6\pdl\drivers/peripheral/gpio/cy_gpio.h **** *    This allows the pin to connect to signal sources/sinks throughout the device,
  50:Generated_Source\PSoC6\pdl\drivers/peripheral/gpio/cy_gpio.h **** *    as defined by the pin HSIOM selection options (en_hsiom_sel_t).
  51:Generated_Source\PSoC6\pdl\drivers/peripheral/gpio/cy_gpio.h **** * 2. All pins are initialized to High-Z drive mode with HSIOM connected to CPU (SW
  52:Generated_Source\PSoC6\pdl\drivers/peripheral/gpio/cy_gpio.h **** *    control digital pin only) at Power-On-Reset(POR).
  53:Generated_Source\PSoC6\pdl\drivers/peripheral/gpio/cy_gpio.h **** * 3. Some API functions perform read-modify-write operations on shared port
  54:Generated_Source\PSoC6\pdl\drivers/peripheral/gpio/cy_gpio.h **** *    registers. These functions are not thread safe and care must be taken when
  55:Generated_Source\PSoC6\pdl\drivers/peripheral/gpio/cy_gpio.h **** *    called by the application.
  56:Generated_Source\PSoC6\pdl\drivers/peripheral/gpio/cy_gpio.h **** * 4. Digital input buffer provides a high-impedance buffer for the external 
  57:Generated_Source\PSoC6\pdl\drivers/peripheral/gpio/cy_gpio.h **** *    digital input. The input buffer is connected to the HSIOM for routing to 
  58:Generated_Source\PSoC6\pdl\drivers/peripheral/gpio/cy_gpio.h **** *    the CPU port registers and selected peripheral. Enabling the input 
  59:Generated_Source\PSoC6\pdl\drivers/peripheral/gpio/cy_gpio.h **** *    buffer provides possibility to read the pin state via the CPU.
  60:Generated_Source\PSoC6\pdl\drivers/peripheral/gpio/cy_gpio.h **** *    If pin is connected to an analog signal, the input buffer should be 
  61:Generated_Source\PSoC6\pdl\drivers/peripheral/gpio/cy_gpio.h **** *    disabled to avoid crowbar currents. For more information refer to device 
  62:Generated_Source\PSoC6\pdl\drivers/peripheral/gpio/cy_gpio.h **** *    TRM and the device datasheet.
  63:Generated_Source\PSoC6\pdl\drivers/peripheral/gpio/cy_gpio.h **** *
  64:Generated_Source\PSoC6\pdl\drivers/peripheral/gpio/cy_gpio.h **** * Multiple pins on a port can be updated using direct port register writes with an
ARM GAS  C:\Users\gab_1\AppData\Local\Temp\ccTtYdci.s 			page 57


  65:Generated_Source\PSoC6\pdl\drivers/peripheral/gpio/cy_gpio.h **** * appropriate port mask. An example is shown below, highlighting the different ways of 
  66:Generated_Source\PSoC6\pdl\drivers/peripheral/gpio/cy_gpio.h **** * configuring Port 1 pins using:
  67:Generated_Source\PSoC6\pdl\drivers/peripheral/gpio/cy_gpio.h **** * 
  68:Generated_Source\PSoC6\pdl\drivers/peripheral/gpio/cy_gpio.h **** * - Port output data register
  69:Generated_Source\PSoC6\pdl\drivers/peripheral/gpio/cy_gpio.h **** * - Port output data set register
  70:Generated_Source\PSoC6\pdl\drivers/peripheral/gpio/cy_gpio.h **** * - Port output data clear register
  71:Generated_Source\PSoC6\pdl\drivers/peripheral/gpio/cy_gpio.h **** *
  72:Generated_Source\PSoC6\pdl\drivers/peripheral/gpio/cy_gpio.h **** * \snippet gpio/gpio_v1_10_sut_01.cydsn/main_cm4.c Cy_GPIO_Snippet
  73:Generated_Source\PSoC6\pdl\drivers/peripheral/gpio/cy_gpio.h **** *
  74:Generated_Source\PSoC6\pdl\drivers/peripheral/gpio/cy_gpio.h **** * \section group_gpio_more_information More Information
  75:Generated_Source\PSoC6\pdl\drivers/peripheral/gpio/cy_gpio.h **** *
  76:Generated_Source\PSoC6\pdl\drivers/peripheral/gpio/cy_gpio.h **** * Refer to the technical reference manual (TRM) and the device datasheet.
  77:Generated_Source\PSoC6\pdl\drivers/peripheral/gpio/cy_gpio.h **** *
  78:Generated_Source\PSoC6\pdl\drivers/peripheral/gpio/cy_gpio.h **** * \section group_gpio_MISRA MISRA-C Compliance
  79:Generated_Source\PSoC6\pdl\drivers/peripheral/gpio/cy_gpio.h **** * The GPIO driver has the following specific deviations:
  80:Generated_Source\PSoC6\pdl\drivers/peripheral/gpio/cy_gpio.h **** *
  81:Generated_Source\PSoC6\pdl\drivers/peripheral/gpio/cy_gpio.h **** * <table class="doxtable">
  82:Generated_Source\PSoC6\pdl\drivers/peripheral/gpio/cy_gpio.h **** *   <tr>
  83:Generated_Source\PSoC6\pdl\drivers/peripheral/gpio/cy_gpio.h **** *     <th>MISRA Rule</th>
  84:Generated_Source\PSoC6\pdl\drivers/peripheral/gpio/cy_gpio.h **** *     <th>Rule Class (Required/Advisory)</th>
  85:Generated_Source\PSoC6\pdl\drivers/peripheral/gpio/cy_gpio.h **** *     <th>Rule Description</th>
  86:Generated_Source\PSoC6\pdl\drivers/peripheral/gpio/cy_gpio.h **** *     <th>Description of Deviation(s)</th>
  87:Generated_Source\PSoC6\pdl\drivers/peripheral/gpio/cy_gpio.h **** *   </tr>
  88:Generated_Source\PSoC6\pdl\drivers/peripheral/gpio/cy_gpio.h **** *   <tr>
  89:Generated_Source\PSoC6\pdl\drivers/peripheral/gpio/cy_gpio.h **** *     <td>11.4</td>
  90:Generated_Source\PSoC6\pdl\drivers/peripheral/gpio/cy_gpio.h **** *     <td>A</td>
  91:Generated_Source\PSoC6\pdl\drivers/peripheral/gpio/cy_gpio.h **** *     <td>A cast should not be performed between a pointer to object type and
  92:Generated_Source\PSoC6\pdl\drivers/peripheral/gpio/cy_gpio.h **** *         a different pointer to object type.</td>
  93:Generated_Source\PSoC6\pdl\drivers/peripheral/gpio/cy_gpio.h **** *     <td> This code is safe because the elements of both GPIO_PRT_V1_Type and GPIO_PRT_V2_Type 
  94:Generated_Source\PSoC6\pdl\drivers/peripheral/gpio/cy_gpio.h **** *          types have identical alignment.</td>
  95:Generated_Source\PSoC6\pdl\drivers/peripheral/gpio/cy_gpio.h **** *   </tr>
  96:Generated_Source\PSoC6\pdl\drivers/peripheral/gpio/cy_gpio.h **** *   <tr>
  97:Generated_Source\PSoC6\pdl\drivers/peripheral/gpio/cy_gpio.h **** *     <td>16.7</td>
  98:Generated_Source\PSoC6\pdl\drivers/peripheral/gpio/cy_gpio.h **** *     <td>A</td>
  99:Generated_Source\PSoC6\pdl\drivers/peripheral/gpio/cy_gpio.h **** *     <td>A pointer parameter in a function prototype should be declared as pointer 
 100:Generated_Source\PSoC6\pdl\drivers/peripheral/gpio/cy_gpio.h **** *         to const if the pointer is not used to modify the addressed object.</td>
 101:Generated_Source\PSoC6\pdl\drivers/peripheral/gpio/cy_gpio.h **** *     <td>The objects pointed to by the base addresses of the GPIO port are not always modified.
 102:Generated_Source\PSoC6\pdl\drivers/peripheral/gpio/cy_gpio.h **** *         While a const qualifier can be used in select scenarios, it brings little benefit
 103:Generated_Source\PSoC6\pdl\drivers/peripheral/gpio/cy_gpio.h **** *         in adding this to the affected functions. </td>
 104:Generated_Source\PSoC6\pdl\drivers/peripheral/gpio/cy_gpio.h **** *   </tr>
 105:Generated_Source\PSoC6\pdl\drivers/peripheral/gpio/cy_gpio.h **** * </table>
 106:Generated_Source\PSoC6\pdl\drivers/peripheral/gpio/cy_gpio.h **** *
 107:Generated_Source\PSoC6\pdl\drivers/peripheral/gpio/cy_gpio.h **** * \section group_gpio_changelog Changelog
 108:Generated_Source\PSoC6\pdl\drivers/peripheral/gpio/cy_gpio.h **** * <table class="doxtable">
 109:Generated_Source\PSoC6\pdl\drivers/peripheral/gpio/cy_gpio.h **** *   <tr><th>Version</th><th>Changes</th><th>Reason for Change</th></tr>
 110:Generated_Source\PSoC6\pdl\drivers/peripheral/gpio/cy_gpio.h **** *   <tr>
 111:Generated_Source\PSoC6\pdl\drivers/peripheral/gpio/cy_gpio.h **** *     <td rowspan="3">1.20</td>
 112:Generated_Source\PSoC6\pdl\drivers/peripheral/gpio/cy_gpio.h **** *     <td>Flattened the organization of the driver source code into the single source directory and
 113:Generated_Source\PSoC6\pdl\drivers/peripheral/gpio/cy_gpio.h **** *     <td>Driver library directory-structure simplification.</td>
 114:Generated_Source\PSoC6\pdl\drivers/peripheral/gpio/cy_gpio.h **** *   </tr>
 115:Generated_Source\PSoC6\pdl\drivers/peripheral/gpio/cy_gpio.h **** *   <tr>
 116:Generated_Source\PSoC6\pdl\drivers/peripheral/gpio/cy_gpio.h **** *     <td>Added the functions for configuring the AMux bus splitter switch cells:
 117:Generated_Source\PSoC6\pdl\drivers/peripheral/gpio/cy_gpio.h **** *     - \ref Cy_GPIO_SetAmuxSplit
 118:Generated_Source\PSoC6\pdl\drivers/peripheral/gpio/cy_gpio.h **** *     - \ref Cy_GPIO_GetAmuxSplit
 119:Generated_Source\PSoC6\pdl\drivers/peripheral/gpio/cy_gpio.h **** *     </td>
 120:Generated_Source\PSoC6\pdl\drivers/peripheral/gpio/cy_gpio.h **** *     <td>Added a new functionality related to AMux bus.</td>
 121:Generated_Source\PSoC6\pdl\drivers/peripheral/gpio/cy_gpio.h **** *   </tr>
ARM GAS  C:\Users\gab_1\AppData\Local\Temp\ccTtYdci.s 			page 58


 122:Generated_Source\PSoC6\pdl\drivers/peripheral/gpio/cy_gpio.h **** *   <tr>
 123:Generated_Source\PSoC6\pdl\drivers/peripheral/gpio/cy_gpio.h **** *     <td>Added register access layer. Use register access macros instead
 124:Generated_Source\PSoC6\pdl\drivers/peripheral/gpio/cy_gpio.h **** *         of direct register access using dereferenced pointers.</td>
 125:Generated_Source\PSoC6\pdl\drivers/peripheral/gpio/cy_gpio.h **** *     <td>Makes register access device-independent, so that the PDL does 
 126:Generated_Source\PSoC6\pdl\drivers/peripheral/gpio/cy_gpio.h **** *         not need to be recompiled for each supported part number.</td>
 127:Generated_Source\PSoC6\pdl\drivers/peripheral/gpio/cy_gpio.h **** *   </tr>
 128:Generated_Source\PSoC6\pdl\drivers/peripheral/gpio/cy_gpio.h **** *   <tr>
 129:Generated_Source\PSoC6\pdl\drivers/peripheral/gpio/cy_gpio.h **** *     <td>1.10.1</td>
 130:Generated_Source\PSoC6\pdl\drivers/peripheral/gpio/cy_gpio.h **** *     <td>Updated description for the functions: \ref Cy_GPIO_GetInterruptStatus, 
 131:Generated_Source\PSoC6\pdl\drivers/peripheral/gpio/cy_gpio.h **** *         \ref Cy_GPIO_GetInterruptMask, \ref Cy_GPIO_GetInterruptStatusMasked.
 132:Generated_Source\PSoC6\pdl\drivers/peripheral/gpio/cy_gpio.h **** *
 133:Generated_Source\PSoC6\pdl\drivers/peripheral/gpio/cy_gpio.h **** *         Minor documentation edits.
 134:Generated_Source\PSoC6\pdl\drivers/peripheral/gpio/cy_gpio.h **** *     </td>
 135:Generated_Source\PSoC6\pdl\drivers/peripheral/gpio/cy_gpio.h **** *     <td>Documentation update and clarification</td>
 136:Generated_Source\PSoC6\pdl\drivers/peripheral/gpio/cy_gpio.h **** *   </tr>
 137:Generated_Source\PSoC6\pdl\drivers/peripheral/gpio/cy_gpio.h **** *   <tr>
 138:Generated_Source\PSoC6\pdl\drivers/peripheral/gpio/cy_gpio.h **** *     <td>1.10</td>
 139:Generated_Source\PSoC6\pdl\drivers/peripheral/gpio/cy_gpio.h **** *     <td>Added input parameter validation to the API functions</td>
 140:Generated_Source\PSoC6\pdl\drivers/peripheral/gpio/cy_gpio.h **** *     <td></td>
 141:Generated_Source\PSoC6\pdl\drivers/peripheral/gpio/cy_gpio.h **** *   </tr>
 142:Generated_Source\PSoC6\pdl\drivers/peripheral/gpio/cy_gpio.h **** *   <tr>
 143:Generated_Source\PSoC6\pdl\drivers/peripheral/gpio/cy_gpio.h **** *     <td>1.0</td>
 144:Generated_Source\PSoC6\pdl\drivers/peripheral/gpio/cy_gpio.h **** *     <td>Initial version</td>
 145:Generated_Source\PSoC6\pdl\drivers/peripheral/gpio/cy_gpio.h **** *     <td></td>
 146:Generated_Source\PSoC6\pdl\drivers/peripheral/gpio/cy_gpio.h **** *   </tr>
 147:Generated_Source\PSoC6\pdl\drivers/peripheral/gpio/cy_gpio.h **** * </table>
 148:Generated_Source\PSoC6\pdl\drivers/peripheral/gpio/cy_gpio.h **** *
 149:Generated_Source\PSoC6\pdl\drivers/peripheral/gpio/cy_gpio.h **** * \defgroup group_gpio_macros Macros
 150:Generated_Source\PSoC6\pdl\drivers/peripheral/gpio/cy_gpio.h **** * \defgroup group_gpio_functions Functions
 151:Generated_Source\PSoC6\pdl\drivers/peripheral/gpio/cy_gpio.h **** * \{
 152:Generated_Source\PSoC6\pdl\drivers/peripheral/gpio/cy_gpio.h **** *   \defgroup group_gpio_functions_init       Initialization Functions
 153:Generated_Source\PSoC6\pdl\drivers/peripheral/gpio/cy_gpio.h **** *   \defgroup group_gpio_functions_gpio       GPIO Functions
 154:Generated_Source\PSoC6\pdl\drivers/peripheral/gpio/cy_gpio.h **** *   \defgroup group_gpio_functions_sio        SIO Functions
 155:Generated_Source\PSoC6\pdl\drivers/peripheral/gpio/cy_gpio.h **** *   \defgroup group_gpio_functions_interrupt  Port Interrupt Functions
 156:Generated_Source\PSoC6\pdl\drivers/peripheral/gpio/cy_gpio.h **** * \}
 157:Generated_Source\PSoC6\pdl\drivers/peripheral/gpio/cy_gpio.h **** * \defgroup group_gpio_data_structures Data Structures
 158:Generated_Source\PSoC6\pdl\drivers/peripheral/gpio/cy_gpio.h **** * \defgroup group_gpio_enums Enumerated Types
 159:Generated_Source\PSoC6\pdl\drivers/peripheral/gpio/cy_gpio.h **** */
 160:Generated_Source\PSoC6\pdl\drivers/peripheral/gpio/cy_gpio.h **** 
 161:Generated_Source\PSoC6\pdl\drivers/peripheral/gpio/cy_gpio.h **** #if !defined(CY_GPIO_H)
 162:Generated_Source\PSoC6\pdl\drivers/peripheral/gpio/cy_gpio.h **** #define CY_GPIO_H
 163:Generated_Source\PSoC6\pdl\drivers/peripheral/gpio/cy_gpio.h **** 
 164:Generated_Source\PSoC6\pdl\drivers/peripheral/gpio/cy_gpio.h **** #include <stddef.h>
 165:Generated_Source\PSoC6\pdl\drivers/peripheral/gpio/cy_gpio.h **** #include "cy_device.h"
 166:Generated_Source\PSoC6\pdl\drivers/peripheral/gpio/cy_gpio.h **** #include "cy_device_headers.h"
 167:Generated_Source\PSoC6\pdl\drivers/peripheral/gpio/cy_gpio.h **** #include "cy_syslib.h"
 168:Generated_Source\PSoC6\pdl\drivers/peripheral/gpio/cy_gpio.h **** 
 169:Generated_Source\PSoC6\pdl\drivers/peripheral/gpio/cy_gpio.h **** #if defined(__cplusplus)
 170:Generated_Source\PSoC6\pdl\drivers/peripheral/gpio/cy_gpio.h **** extern "C" {
 171:Generated_Source\PSoC6\pdl\drivers/peripheral/gpio/cy_gpio.h **** #endif
 172:Generated_Source\PSoC6\pdl\drivers/peripheral/gpio/cy_gpio.h **** 
 173:Generated_Source\PSoC6\pdl\drivers/peripheral/gpio/cy_gpio.h **** /** \addtogroup group_gpio_macros
 174:Generated_Source\PSoC6\pdl\drivers/peripheral/gpio/cy_gpio.h **** * \{
 175:Generated_Source\PSoC6\pdl\drivers/peripheral/gpio/cy_gpio.h **** */
 176:Generated_Source\PSoC6\pdl\drivers/peripheral/gpio/cy_gpio.h **** 
 177:Generated_Source\PSoC6\pdl\drivers/peripheral/gpio/cy_gpio.h **** /** Driver major version */
 178:Generated_Source\PSoC6\pdl\drivers/peripheral/gpio/cy_gpio.h **** #define CY_GPIO_DRV_VERSION_MAJOR       1
ARM GAS  C:\Users\gab_1\AppData\Local\Temp\ccTtYdci.s 			page 59


 179:Generated_Source\PSoC6\pdl\drivers/peripheral/gpio/cy_gpio.h **** 
 180:Generated_Source\PSoC6\pdl\drivers/peripheral/gpio/cy_gpio.h **** /** Driver minor version */
 181:Generated_Source\PSoC6\pdl\drivers/peripheral/gpio/cy_gpio.h **** #define CY_GPIO_DRV_VERSION_MINOR       20
 182:Generated_Source\PSoC6\pdl\drivers/peripheral/gpio/cy_gpio.h **** 
 183:Generated_Source\PSoC6\pdl\drivers/peripheral/gpio/cy_gpio.h **** /** GPIO driver ID */
 184:Generated_Source\PSoC6\pdl\drivers/peripheral/gpio/cy_gpio.h **** #define CY_GPIO_ID CY_PDL_DRV_ID(0x16U)
 185:Generated_Source\PSoC6\pdl\drivers/peripheral/gpio/cy_gpio.h **** 
 186:Generated_Source\PSoC6\pdl\drivers/peripheral/gpio/cy_gpio.h **** /** \} group_gpio_macros */
 187:Generated_Source\PSoC6\pdl\drivers/peripheral/gpio/cy_gpio.h **** 
 188:Generated_Source\PSoC6\pdl\drivers/peripheral/gpio/cy_gpio.h **** 
 189:Generated_Source\PSoC6\pdl\drivers/peripheral/gpio/cy_gpio.h **** /***************************************
 190:Generated_Source\PSoC6\pdl\drivers/peripheral/gpio/cy_gpio.h **** *       Enumerations
 191:Generated_Source\PSoC6\pdl\drivers/peripheral/gpio/cy_gpio.h **** ***************************************/
 192:Generated_Source\PSoC6\pdl\drivers/peripheral/gpio/cy_gpio.h **** /**
 193:Generated_Source\PSoC6\pdl\drivers/peripheral/gpio/cy_gpio.h **** * \addtogroup group_gpio_enums
 194:Generated_Source\PSoC6\pdl\drivers/peripheral/gpio/cy_gpio.h **** * \{
 195:Generated_Source\PSoC6\pdl\drivers/peripheral/gpio/cy_gpio.h **** */
 196:Generated_Source\PSoC6\pdl\drivers/peripheral/gpio/cy_gpio.h **** 
 197:Generated_Source\PSoC6\pdl\drivers/peripheral/gpio/cy_gpio.h **** /** GPIO Driver error codes */
 198:Generated_Source\PSoC6\pdl\drivers/peripheral/gpio/cy_gpio.h **** typedef enum 
 199:Generated_Source\PSoC6\pdl\drivers/peripheral/gpio/cy_gpio.h **** {
 200:Generated_Source\PSoC6\pdl\drivers/peripheral/gpio/cy_gpio.h ****     CY_GPIO_SUCCESS   = 0x00U,                                    /**< Returned successful */
 201:Generated_Source\PSoC6\pdl\drivers/peripheral/gpio/cy_gpio.h ****     CY_GPIO_BAD_PARAM = CY_GPIO_ID | CY_PDL_STATUS_ERROR | 0x01U, /**< Bad parameter was passed */
 202:Generated_Source\PSoC6\pdl\drivers/peripheral/gpio/cy_gpio.h **** } cy_en_gpio_status_t;
 203:Generated_Source\PSoC6\pdl\drivers/peripheral/gpio/cy_gpio.h **** 
 204:Generated_Source\PSoC6\pdl\drivers/peripheral/gpio/cy_gpio.h **** /** AMux switch open/close config */
 205:Generated_Source\PSoC6\pdl\drivers/peripheral/gpio/cy_gpio.h **** typedef enum
 206:Generated_Source\PSoC6\pdl\drivers/peripheral/gpio/cy_gpio.h **** {
 207:Generated_Source\PSoC6\pdl\drivers/peripheral/gpio/cy_gpio.h ****     CY_GPIO_AMUX_OPENALL,   /**< Open ground switch. Open right switch. Open left switch */
 208:Generated_Source\PSoC6\pdl\drivers/peripheral/gpio/cy_gpio.h ****     CY_GPIO_AMUX_L,         /**< Open ground switch. Open right switch. Close left switch */
 209:Generated_Source\PSoC6\pdl\drivers/peripheral/gpio/cy_gpio.h ****     CY_GPIO_AMUX_R,         /**< Open ground switch. Close right switch. Open left switch */
 210:Generated_Source\PSoC6\pdl\drivers/peripheral/gpio/cy_gpio.h ****     CY_GPIO_AMUX_LR,        /**< Open ground switch. Close right switch. Close left switch */
 211:Generated_Source\PSoC6\pdl\drivers/peripheral/gpio/cy_gpio.h ****     CY_GPIO_AMUX_G,         /**< Close ground switch. Open right switch. Open left switch */
 212:Generated_Source\PSoC6\pdl\drivers/peripheral/gpio/cy_gpio.h ****     CY_GPIO_AMUX_GL,        /**< Close ground switch. Open right switch. Close left switch */
 213:Generated_Source\PSoC6\pdl\drivers/peripheral/gpio/cy_gpio.h ****     CY_GPIO_AMUX_GR,        /**< Close ground switch. Close right switch. Open left switch */
 214:Generated_Source\PSoC6\pdl\drivers/peripheral/gpio/cy_gpio.h ****     CY_GPIO_AMUX_GLR,       /**< Close ground switch. Close right switch. Close left switch */
 215:Generated_Source\PSoC6\pdl\drivers/peripheral/gpio/cy_gpio.h **** }cy_en_gpio_amuxconnect_t;
 216:Generated_Source\PSoC6\pdl\drivers/peripheral/gpio/cy_gpio.h **** 
 217:Generated_Source\PSoC6\pdl\drivers/peripheral/gpio/cy_gpio.h **** /**
 218:Generated_Source\PSoC6\pdl\drivers/peripheral/gpio/cy_gpio.h **** * AMux Bus selection
 219:Generated_Source\PSoC6\pdl\drivers/peripheral/gpio/cy_gpio.h **** */
 220:Generated_Source\PSoC6\pdl\drivers/peripheral/gpio/cy_gpio.h **** typedef enum
 221:Generated_Source\PSoC6\pdl\drivers/peripheral/gpio/cy_gpio.h **** {
 222:Generated_Source\PSoC6\pdl\drivers/peripheral/gpio/cy_gpio.h ****     CY_GPIO_AMUXBUSA,       /**< AMuxBus A */
 223:Generated_Source\PSoC6\pdl\drivers/peripheral/gpio/cy_gpio.h ****     CY_GPIO_AMUXBUSB        /**< AMuxBus B */
 224:Generated_Source\PSoC6\pdl\drivers/peripheral/gpio/cy_gpio.h **** }cy_en_gpio_amuxselect_t;
 225:Generated_Source\PSoC6\pdl\drivers/peripheral/gpio/cy_gpio.h **** 
 226:Generated_Source\PSoC6\pdl\drivers/peripheral/gpio/cy_gpio.h **** /** \} group_gpio_enums */
 227:Generated_Source\PSoC6\pdl\drivers/peripheral/gpio/cy_gpio.h **** 
 228:Generated_Source\PSoC6\pdl\drivers/peripheral/gpio/cy_gpio.h **** 
 229:Generated_Source\PSoC6\pdl\drivers/peripheral/gpio/cy_gpio.h **** /***************************************
 230:Generated_Source\PSoC6\pdl\drivers/peripheral/gpio/cy_gpio.h **** *       Configuration Structures
 231:Generated_Source\PSoC6\pdl\drivers/peripheral/gpio/cy_gpio.h **** ***************************************/
 232:Generated_Source\PSoC6\pdl\drivers/peripheral/gpio/cy_gpio.h **** 
 233:Generated_Source\PSoC6\pdl\drivers/peripheral/gpio/cy_gpio.h **** /**
 234:Generated_Source\PSoC6\pdl\drivers/peripheral/gpio/cy_gpio.h **** * \addtogroup group_gpio_data_structures
 235:Generated_Source\PSoC6\pdl\drivers/peripheral/gpio/cy_gpio.h **** * \{
ARM GAS  C:\Users\gab_1\AppData\Local\Temp\ccTtYdci.s 			page 60


 236:Generated_Source\PSoC6\pdl\drivers/peripheral/gpio/cy_gpio.h **** */
 237:Generated_Source\PSoC6\pdl\drivers/peripheral/gpio/cy_gpio.h **** 
 238:Generated_Source\PSoC6\pdl\drivers/peripheral/gpio/cy_gpio.h **** /** This structure is used to initialize a port of GPIO pins */
 239:Generated_Source\PSoC6\pdl\drivers/peripheral/gpio/cy_gpio.h **** typedef struct 
 240:Generated_Source\PSoC6\pdl\drivers/peripheral/gpio/cy_gpio.h **** {
 241:Generated_Source\PSoC6\pdl\drivers/peripheral/gpio/cy_gpio.h ****     uint32_t out;           /**< Initial output data for the IO pins in the port */
 242:Generated_Source\PSoC6\pdl\drivers/peripheral/gpio/cy_gpio.h ****     uint32_t intrMask;      /**< Interrupt enable mask for the port interrupt */
 243:Generated_Source\PSoC6\pdl\drivers/peripheral/gpio/cy_gpio.h ****     uint32_t intrCfg;       /**< Port pin interrupt edge detection configuration */
 244:Generated_Source\PSoC6\pdl\drivers/peripheral/gpio/cy_gpio.h ****     uint32_t cfg;           /**< Port pin drive modes and input buffer enable configuration */
 245:Generated_Source\PSoC6\pdl\drivers/peripheral/gpio/cy_gpio.h ****     uint32_t cfgIn;         /**< Port pin input buffer configuration */
 246:Generated_Source\PSoC6\pdl\drivers/peripheral/gpio/cy_gpio.h ****     uint32_t cfgOut;        /**< Port pin output buffer configuration */
 247:Generated_Source\PSoC6\pdl\drivers/peripheral/gpio/cy_gpio.h ****     uint32_t cfgSIO;        /**< Port SIO pins configuration */
 248:Generated_Source\PSoC6\pdl\drivers/peripheral/gpio/cy_gpio.h ****     uint32_t sel0Active;    /**< HSIOM selection for port pins 0,1,2,3 */
 249:Generated_Source\PSoC6\pdl\drivers/peripheral/gpio/cy_gpio.h ****     uint32_t sel1Active;    /**< HSIOM selection for port pins 4,5,6,7 */
 250:Generated_Source\PSoC6\pdl\drivers/peripheral/gpio/cy_gpio.h **** } cy_stc_gpio_prt_config_t;
 251:Generated_Source\PSoC6\pdl\drivers/peripheral/gpio/cy_gpio.h **** 
 252:Generated_Source\PSoC6\pdl\drivers/peripheral/gpio/cy_gpio.h **** /** This structure is used to initialize a single GPIO pin */
 253:Generated_Source\PSoC6\pdl\drivers/peripheral/gpio/cy_gpio.h **** typedef struct
 254:Generated_Source\PSoC6\pdl\drivers/peripheral/gpio/cy_gpio.h **** {
 255:Generated_Source\PSoC6\pdl\drivers/peripheral/gpio/cy_gpio.h ****     uint32_t outVal;         /**< Pin output state */
 256:Generated_Source\PSoC6\pdl\drivers/peripheral/gpio/cy_gpio.h ****     uint32_t driveMode;      /**< Drive mode */
 257:Generated_Source\PSoC6\pdl\drivers/peripheral/gpio/cy_gpio.h ****     en_hsiom_sel_t hsiom;    /**< HSIOM selection */
 258:Generated_Source\PSoC6\pdl\drivers/peripheral/gpio/cy_gpio.h ****     uint32_t intEdge;        /**< Interrupt Edge type */
 259:Generated_Source\PSoC6\pdl\drivers/peripheral/gpio/cy_gpio.h ****     uint32_t intMask;        /**< Interrupt enable mask */
 260:Generated_Source\PSoC6\pdl\drivers/peripheral/gpio/cy_gpio.h ****     uint32_t vtrip;          /**< Input buffer voltage trip type */
 261:Generated_Source\PSoC6\pdl\drivers/peripheral/gpio/cy_gpio.h ****     uint32_t slewRate;       /**< Output buffer slew rate */
 262:Generated_Source\PSoC6\pdl\drivers/peripheral/gpio/cy_gpio.h ****     uint32_t driveSel;       /**< Drive strength */
 263:Generated_Source\PSoC6\pdl\drivers/peripheral/gpio/cy_gpio.h ****     uint32_t vregEn;         /**< SIO pair output buffer mode */
 264:Generated_Source\PSoC6\pdl\drivers/peripheral/gpio/cy_gpio.h ****     uint32_t ibufMode;       /**< SIO pair input buffer mode */
 265:Generated_Source\PSoC6\pdl\drivers/peripheral/gpio/cy_gpio.h ****     uint32_t vtripSel;       /**< SIO pair input buffer trip point */
 266:Generated_Source\PSoC6\pdl\drivers/peripheral/gpio/cy_gpio.h ****     uint32_t vrefSel;        /**< SIO pair reference voltage for input buffer trip point */
 267:Generated_Source\PSoC6\pdl\drivers/peripheral/gpio/cy_gpio.h ****     uint32_t vohSel;         /**< SIO pair regulated voltage output level */
 268:Generated_Source\PSoC6\pdl\drivers/peripheral/gpio/cy_gpio.h **** } cy_stc_gpio_pin_config_t;
 269:Generated_Source\PSoC6\pdl\drivers/peripheral/gpio/cy_gpio.h **** 
 270:Generated_Source\PSoC6\pdl\drivers/peripheral/gpio/cy_gpio.h **** /** \} group_gpio_data_structures */
 271:Generated_Source\PSoC6\pdl\drivers/peripheral/gpio/cy_gpio.h **** 
 272:Generated_Source\PSoC6\pdl\drivers/peripheral/gpio/cy_gpio.h **** /***************************************
 273:Generated_Source\PSoC6\pdl\drivers/peripheral/gpio/cy_gpio.h **** *        Constants
 274:Generated_Source\PSoC6\pdl\drivers/peripheral/gpio/cy_gpio.h **** ***************************************/
 275:Generated_Source\PSoC6\pdl\drivers/peripheral/gpio/cy_gpio.h **** 
 276:Generated_Source\PSoC6\pdl\drivers/peripheral/gpio/cy_gpio.h **** /** \cond INTERNAL */
 277:Generated_Source\PSoC6\pdl\drivers/peripheral/gpio/cy_gpio.h **** 
 278:Generated_Source\PSoC6\pdl\drivers/peripheral/gpio/cy_gpio.h **** /* General Constants */
 279:Generated_Source\PSoC6\pdl\drivers/peripheral/gpio/cy_gpio.h **** #define CY_GPIO_PRT_HALF                       (4UL)      /**< Half-way point of a GPIO port */
 280:Generated_Source\PSoC6\pdl\drivers/peripheral/gpio/cy_gpio.h **** #define CY_GPIO_PRT_DEINIT                     (0UL)      /**< De-init value for port registers */
 281:Generated_Source\PSoC6\pdl\drivers/peripheral/gpio/cy_gpio.h **** 
 282:Generated_Source\PSoC6\pdl\drivers/peripheral/gpio/cy_gpio.h **** /* GPIO Masks */
 283:Generated_Source\PSoC6\pdl\drivers/peripheral/gpio/cy_gpio.h **** #define CY_GPIO_HSIOM_MASK                     (0x1FUL)   /**< HSIOM selection mask */
 284:Generated_Source\PSoC6\pdl\drivers/peripheral/gpio/cy_gpio.h **** #define CY_GPIO_OUT_MASK                       (0x01UL)   /**< Single pin mask for OUT register */
 285:Generated_Source\PSoC6\pdl\drivers/peripheral/gpio/cy_gpio.h **** #define CY_GPIO_IN_MASK                        (0x01UL)   /**< Single pin mask for IN register */
 286:Generated_Source\PSoC6\pdl\drivers/peripheral/gpio/cy_gpio.h **** #define CY_GPIO_CFG_DM_MASK                    (0x0FUL)   /**< Single pin mask for drive mode in CF
 287:Generated_Source\PSoC6\pdl\drivers/peripheral/gpio/cy_gpio.h **** #define CY_GPIO_CFG_IN_VTRIP_SEL_MASK          (0x01UL)   /**< Single pin mask for VTRIP selection 
 288:Generated_Source\PSoC6\pdl\drivers/peripheral/gpio/cy_gpio.h **** #define CY_GPIO_CFG_OUT_SLOW_MASK              (0x01UL)   /**< Single pin mask for slew rate in CFG
 289:Generated_Source\PSoC6\pdl\drivers/peripheral/gpio/cy_gpio.h **** #define CY_GPIO_CFG_OUT_DRIVE_SEL_MASK         (0x03UL)   /**< Single pin mask for drive strength i
 290:Generated_Source\PSoC6\pdl\drivers/peripheral/gpio/cy_gpio.h **** #define CY_GPIO_INTR_STATUS_MASK               (0x01UL)   /**< Single pin mask for interrupt status
 291:Generated_Source\PSoC6\pdl\drivers/peripheral/gpio/cy_gpio.h **** #define CY_GPIO_INTR_EN_MASK                   (0x01UL)   /**< Single pin mask for interrupt status
 292:Generated_Source\PSoC6\pdl\drivers/peripheral/gpio/cy_gpio.h **** #define CY_GPIO_INTR_MASKED_MASK               (0x01UL)   /**< Single pin mask for masked interrupt
ARM GAS  C:\Users\gab_1\AppData\Local\Temp\ccTtYdci.s 			page 61


 293:Generated_Source\PSoC6\pdl\drivers/peripheral/gpio/cy_gpio.h **** #define CY_GPIO_INTR_SET_MASK                  (0x01UL)   /**< Single pin mask for setting the inte
 294:Generated_Source\PSoC6\pdl\drivers/peripheral/gpio/cy_gpio.h **** #define CY_GPIO_INTR_EDGE_MASK                 (0x03UL)   /**< Single pin mask for interrupt edge t
 295:Generated_Source\PSoC6\pdl\drivers/peripheral/gpio/cy_gpio.h **** #define CY_GPIO_INTR_FLT_EDGE_MASK             (0x07UL)   /**< Single pin mask for setting filtered
 296:Generated_Source\PSoC6\pdl\drivers/peripheral/gpio/cy_gpio.h **** 
 297:Generated_Source\PSoC6\pdl\drivers/peripheral/gpio/cy_gpio.h **** /* SIO Masks */
 298:Generated_Source\PSoC6\pdl\drivers/peripheral/gpio/cy_gpio.h **** #define CY_GPIO_VREG_EN_MASK                   (0x01UL)   /**< Single SIO pin mask for voltage regu
 299:Generated_Source\PSoC6\pdl\drivers/peripheral/gpio/cy_gpio.h **** #define CY_GPIO_IBUF_MASK                      (0x01UL)   /**< Single SIO pin mask for input buffer
 300:Generated_Source\PSoC6\pdl\drivers/peripheral/gpio/cy_gpio.h **** #define CY_GPIO_IBUF_SHIFT                     (0x01UL)   /**< Single SIO pin shift for input buffe
 301:Generated_Source\PSoC6\pdl\drivers/peripheral/gpio/cy_gpio.h **** #define CY_GPIO_VTRIP_SEL_MASK                 (0x01UL)   /**< Single SIO pin mask for the input bu
 302:Generated_Source\PSoC6\pdl\drivers/peripheral/gpio/cy_gpio.h **** #define CY_GPIO_VTRIP_SEL_SHIFT                (0x02UL)   /**< Single SIO pin shift for the input b
 303:Generated_Source\PSoC6\pdl\drivers/peripheral/gpio/cy_gpio.h **** #define CY_GPIO_VREF_SEL_MASK                  (0x03UL)   /**< Single SIO pin mask for voltage refe
 304:Generated_Source\PSoC6\pdl\drivers/peripheral/gpio/cy_gpio.h **** #define CY_GPIO_VREF_SEL_SHIFT                 (0x03UL)   /**< Single SIO pin shift for voltage ref
 305:Generated_Source\PSoC6\pdl\drivers/peripheral/gpio/cy_gpio.h **** #define CY_GPIO_VOH_SEL_MASK                   (0x07UL)   /**< Single SIO pin mask for VOH */
 306:Generated_Source\PSoC6\pdl\drivers/peripheral/gpio/cy_gpio.h **** #define CY_GPIO_VOH_SEL_SHIFT                  (0x05UL)   /**< Single SIO pin shift for VOH */
 307:Generated_Source\PSoC6\pdl\drivers/peripheral/gpio/cy_gpio.h **** 
 308:Generated_Source\PSoC6\pdl\drivers/peripheral/gpio/cy_gpio.h **** /* Special mask for SIO pin pair setting */
 309:Generated_Source\PSoC6\pdl\drivers/peripheral/gpio/cy_gpio.h **** #define CY_GPIO_SIO_ODD_PIN_MASK               (0x00FEUL) /**< SIO pin pair selection mask */
 310:Generated_Source\PSoC6\pdl\drivers/peripheral/gpio/cy_gpio.h **** #define CY_GPIO_SIO_PIN_MASK                   (0x00FFUL) /**< SIO pin pair mask */
 311:Generated_Source\PSoC6\pdl\drivers/peripheral/gpio/cy_gpio.h **** 
 312:Generated_Source\PSoC6\pdl\drivers/peripheral/gpio/cy_gpio.h **** /* Offsets */
 313:Generated_Source\PSoC6\pdl\drivers/peripheral/gpio/cy_gpio.h **** #define CY_GPIO_HSIOM_OFFSET                   (3UL)      /**< Offset for HSIOM */
 314:Generated_Source\PSoC6\pdl\drivers/peripheral/gpio/cy_gpio.h **** #define CY_GPIO_DRIVE_MODE_OFFSET              (2UL)      /**< Offset for Drive mode */
 315:Generated_Source\PSoC6\pdl\drivers/peripheral/gpio/cy_gpio.h **** #define CY_GPIO_INBUF_OFFSET                   (3UL)      /**< Offset for input buffer */
 316:Generated_Source\PSoC6\pdl\drivers/peripheral/gpio/cy_gpio.h **** #define CY_GPIO_CFG_OUT_DRIVE_OFFSET           (16UL)     /**< Offset for drive strength */
 317:Generated_Source\PSoC6\pdl\drivers/peripheral/gpio/cy_gpio.h **** #define CY_GPIO_INTR_CFG_OFFSET                (1UL)      /**< Offset for interrupt config */
 318:Generated_Source\PSoC6\pdl\drivers/peripheral/gpio/cy_gpio.h **** #define CY_GPIO_INTR_FILT_OFFSET               (18UL)     /**< Offset for filtered interrupt config
 319:Generated_Source\PSoC6\pdl\drivers/peripheral/gpio/cy_gpio.h **** #define CY_GPIO_CFG_SIO_OFFSET                 (2UL)      /**< Offset for SIO config */
 320:Generated_Source\PSoC6\pdl\drivers/peripheral/gpio/cy_gpio.h **** 
 321:Generated_Source\PSoC6\pdl\drivers/peripheral/gpio/cy_gpio.h **** /* Parameter validation constants */
 322:Generated_Source\PSoC6\pdl\drivers/peripheral/gpio/cy_gpio.h **** #define CY_GPIO_PINS_MAX                       (8UL)      /**< Number of pins in the port */
 323:Generated_Source\PSoC6\pdl\drivers/peripheral/gpio/cy_gpio.h **** #define CY_GPIO_PRT_PINS_MASK                  (0x0000000FFUL)
 324:Generated_Source\PSoC6\pdl\drivers/peripheral/gpio/cy_gpio.h **** #define CY_GPIO_PRT_INTR_CFG_EDGE_SEL_MASK     (GPIO_PRT_INTR_CFG_EDGE0_SEL_Msk | \
 325:Generated_Source\PSoC6\pdl\drivers/peripheral/gpio/cy_gpio.h ****                                                 GPIO_PRT_INTR_CFG_EDGE1_SEL_Msk | \
 326:Generated_Source\PSoC6\pdl\drivers/peripheral/gpio/cy_gpio.h ****                                                 GPIO_PRT_INTR_CFG_EDGE2_SEL_Msk | \
 327:Generated_Source\PSoC6\pdl\drivers/peripheral/gpio/cy_gpio.h ****                                                 GPIO_PRT_INTR_CFG_EDGE3_SEL_Msk | \
 328:Generated_Source\PSoC6\pdl\drivers/peripheral/gpio/cy_gpio.h ****                                                 GPIO_PRT_INTR_CFG_EDGE4_SEL_Msk | \
 329:Generated_Source\PSoC6\pdl\drivers/peripheral/gpio/cy_gpio.h ****                                                 GPIO_PRT_INTR_CFG_EDGE5_SEL_Msk | \
 330:Generated_Source\PSoC6\pdl\drivers/peripheral/gpio/cy_gpio.h ****                                                 GPIO_PRT_INTR_CFG_EDGE6_SEL_Msk | \
 331:Generated_Source\PSoC6\pdl\drivers/peripheral/gpio/cy_gpio.h ****                                                 GPIO_PRT_INTR_CFG_EDGE7_SEL_Msk)
 332:Generated_Source\PSoC6\pdl\drivers/peripheral/gpio/cy_gpio.h **** #define CY_GPIO_PRT_INTR_CFG_RANGE_MASK        (CY_GPIO_PRT_INTR_CFG_EDGE_SEL_MASK | \
 333:Generated_Source\PSoC6\pdl\drivers/peripheral/gpio/cy_gpio.h ****                                                 GPIO_PRT_INTR_CFG_FLT_EDGE_SEL_Msk | \
 334:Generated_Source\PSoC6\pdl\drivers/peripheral/gpio/cy_gpio.h ****                                                 GPIO_PRT_INTR_CFG_FLT_SEL_Msk)
 335:Generated_Source\PSoC6\pdl\drivers/peripheral/gpio/cy_gpio.h **** #define CY_GPIO_PRT_INT_MASK_MASK              (0x0000001FFUL)
 336:Generated_Source\PSoC6\pdl\drivers/peripheral/gpio/cy_gpio.h **** #define CY_GPIO_PRT_SEL_ACTIVE_MASK            (0x1FFFFFFFUL)
 337:Generated_Source\PSoC6\pdl\drivers/peripheral/gpio/cy_gpio.h **** 
 338:Generated_Source\PSoC6\pdl\drivers/peripheral/gpio/cy_gpio.h **** #define GPIO_MAX_SPLIT_CELL_SEGMENTS           (9U)
 339:Generated_Source\PSoC6\pdl\drivers/peripheral/gpio/cy_gpio.h **** 
 340:Generated_Source\PSoC6\pdl\drivers/peripheral/gpio/cy_gpio.h **** /* Parameter validation macros */
 341:Generated_Source\PSoC6\pdl\drivers/peripheral/gpio/cy_gpio.h **** #define CY_GPIO_IS_PIN_VALID(pinNum)           (CY_GPIO_PINS_MAX > (pinNum))
 342:Generated_Source\PSoC6\pdl\drivers/peripheral/gpio/cy_gpio.h **** #define CY_GPIO_IS_FILTER_PIN_VALID(pinNum)    (CY_GPIO_PINS_MAX >= (pinNum))
 343:Generated_Source\PSoC6\pdl\drivers/peripheral/gpio/cy_gpio.h **** #define CY_GPIO_IS_VALUE_VALID(outVal)         (1UL >= (outVal))
 344:Generated_Source\PSoC6\pdl\drivers/peripheral/gpio/cy_gpio.h **** #define CY_GPIO_IS_DM_VALID(driveMode)         (0U == ((driveMode) & (uint32_t)~CY_GPIO_CFG_DM_MASK
 345:Generated_Source\PSoC6\pdl\drivers/peripheral/gpio/cy_gpio.h **** 
 346:Generated_Source\PSoC6\pdl\drivers/peripheral/gpio/cy_gpio.h **** #define CY_GPIO_IS_HSIOM_VALID(hsiom)          (0U == ((hsiom) & (uint32_t)~CY_GPIO_HSIOM_MASK))
 347:Generated_Source\PSoC6\pdl\drivers/peripheral/gpio/cy_gpio.h **** 
 348:Generated_Source\PSoC6\pdl\drivers/peripheral/gpio/cy_gpio.h **** #define CY_GPIO_IS_INT_EDGE_VALID(intEdge)     ((CY_GPIO_INTR_DISABLE  == (intEdge)) || \
 349:Generated_Source\PSoC6\pdl\drivers/peripheral/gpio/cy_gpio.h ****                                                 (CY_GPIO_INTR_RISING   == (intEdge)) || \
ARM GAS  C:\Users\gab_1\AppData\Local\Temp\ccTtYdci.s 			page 62


 350:Generated_Source\PSoC6\pdl\drivers/peripheral/gpio/cy_gpio.h ****                                                 (CY_GPIO_INTR_FALLING  == (intEdge)) || \
 351:Generated_Source\PSoC6\pdl\drivers/peripheral/gpio/cy_gpio.h ****                                                 (CY_GPIO_INTR_BOTH     == (intEdge)))
 352:Generated_Source\PSoC6\pdl\drivers/peripheral/gpio/cy_gpio.h **** 
 353:Generated_Source\PSoC6\pdl\drivers/peripheral/gpio/cy_gpio.h **** #define CY_GPIO_IS_DRIVE_SEL_VALID(driveSel)   ((CY_GPIO_DRIVE_FULL    == (driveSel)) || \
 354:Generated_Source\PSoC6\pdl\drivers/peripheral/gpio/cy_gpio.h ****                                                 (CY_GPIO_DRIVE_1_2     == (driveSel)) || \
 355:Generated_Source\PSoC6\pdl\drivers/peripheral/gpio/cy_gpio.h ****                                                 (CY_GPIO_DRIVE_1_4     == (driveSel)) || \
 356:Generated_Source\PSoC6\pdl\drivers/peripheral/gpio/cy_gpio.h ****                                                 (CY_GPIO_DRIVE_1_8     == (driveSel)))
 357:Generated_Source\PSoC6\pdl\drivers/peripheral/gpio/cy_gpio.h **** 
 358:Generated_Source\PSoC6\pdl\drivers/peripheral/gpio/cy_gpio.h **** #define CY_GPIO_IS_VREF_SEL_VALID(vrefSel)     ((CY_SIO_VREF_PINREF    == (vrefSel)) || \
 359:Generated_Source\PSoC6\pdl\drivers/peripheral/gpio/cy_gpio.h ****                                                 (CY_SIO_VREF_1_2V      == (vrefSel)) || \
 360:Generated_Source\PSoC6\pdl\drivers/peripheral/gpio/cy_gpio.h ****                                                 (CY_SIO_VREF_AMUX_A    == (vrefSel)) || \
 361:Generated_Source\PSoC6\pdl\drivers/peripheral/gpio/cy_gpio.h ****                                                 (CY_SIO_VREF_AMUX_B    == (vrefSel)))
 362:Generated_Source\PSoC6\pdl\drivers/peripheral/gpio/cy_gpio.h **** 
 363:Generated_Source\PSoC6\pdl\drivers/peripheral/gpio/cy_gpio.h **** #define CY_GPIO_IS_VOH_SEL_VALID(vrefSel)      ((CY_SIO_VOH_1_00       == (vrefSel)) || \
 364:Generated_Source\PSoC6\pdl\drivers/peripheral/gpio/cy_gpio.h ****                                                 (CY_SIO_VOH_1_25       == (vrefSel)) || \
 365:Generated_Source\PSoC6\pdl\drivers/peripheral/gpio/cy_gpio.h ****                                                 (CY_SIO_VOH_1_49       == (vrefSel)) || \
 366:Generated_Source\PSoC6\pdl\drivers/peripheral/gpio/cy_gpio.h ****                                                 (CY_SIO_VOH_1_67       == (vrefSel)) || \
 367:Generated_Source\PSoC6\pdl\drivers/peripheral/gpio/cy_gpio.h ****                                                 (CY_SIO_VOH_2_08       == (vrefSel)) || \
 368:Generated_Source\PSoC6\pdl\drivers/peripheral/gpio/cy_gpio.h ****                                                 (CY_SIO_VOH_2_50       == (vrefSel)) || \
 369:Generated_Source\PSoC6\pdl\drivers/peripheral/gpio/cy_gpio.h ****                                                 (CY_SIO_VOH_2_78       == (vrefSel)) || \
 370:Generated_Source\PSoC6\pdl\drivers/peripheral/gpio/cy_gpio.h ****                                                 (CY_SIO_VOH_4_16       == (vrefSel)))
 371:Generated_Source\PSoC6\pdl\drivers/peripheral/gpio/cy_gpio.h ****                    
 372:Generated_Source\PSoC6\pdl\drivers/peripheral/gpio/cy_gpio.h **** #define CY_GPIO_IS_PIN_BIT_VALID(pinBit)       (0U == ((pinBit) & (uint32_t)~CY_GPIO_PRT_PINS_MASK)
 373:Generated_Source\PSoC6\pdl\drivers/peripheral/gpio/cy_gpio.h **** #define CY_GPIO_IS_INTR_CFG_VALID(intrCfg)     (0U == ((intrCfg) & (uint32_t)~CY_GPIO_PRT_INTR_CFG_
 374:Generated_Source\PSoC6\pdl\drivers/peripheral/gpio/cy_gpio.h **** #define CY_GPIO_IS_INTR_MASK_VALID(intrMask)   (0U == ((intrMask) & (uint32_t)~CY_GPIO_PRT_INT_MASK
 375:Generated_Source\PSoC6\pdl\drivers/peripheral/gpio/cy_gpio.h **** #define CY_GPIO_IS_SEL_ACT_VALID(selActive)    (0U == ((selActive) & (uint32_t)~CY_GPIO_PRT_SEL_ACT
 376:Generated_Source\PSoC6\pdl\drivers/peripheral/gpio/cy_gpio.h **** 
 377:Generated_Source\PSoC6\pdl\drivers/peripheral/gpio/cy_gpio.h **** #define CY_GPIO_IS_AMUX_SPLIT_VALID(switchCtrl)       (((uint32_t) (switchCtrl)) < GPIO_MAX_SPLIT_C
 378:Generated_Source\PSoC6\pdl\drivers/peripheral/gpio/cy_gpio.h **** 
 379:Generated_Source\PSoC6\pdl\drivers/peripheral/gpio/cy_gpio.h **** #define CY_GPIO_IS_AMUX_CONNECT_VALID(amuxConnect)    ((CY_GPIO_AMUX_OPENALL == (amuxConnect)) || \
 380:Generated_Source\PSoC6\pdl\drivers/peripheral/gpio/cy_gpio.h ****                                                        (CY_GPIO_AMUX_L       == (amuxConnect)) || \
 381:Generated_Source\PSoC6\pdl\drivers/peripheral/gpio/cy_gpio.h ****                                                        (CY_GPIO_AMUX_R       == (amuxConnect)) || \
 382:Generated_Source\PSoC6\pdl\drivers/peripheral/gpio/cy_gpio.h ****                                                        (CY_GPIO_AMUX_LR      == (amuxConnect)) || \
 383:Generated_Source\PSoC6\pdl\drivers/peripheral/gpio/cy_gpio.h ****                                                        (CY_GPIO_AMUX_G       == (amuxConnect)) || \
 384:Generated_Source\PSoC6\pdl\drivers/peripheral/gpio/cy_gpio.h ****                                                        (CY_GPIO_AMUX_GL      == (amuxConnect)) || \
 385:Generated_Source\PSoC6\pdl\drivers/peripheral/gpio/cy_gpio.h ****                                                        (CY_GPIO_AMUX_GR      == (amuxConnect)) || \
 386:Generated_Source\PSoC6\pdl\drivers/peripheral/gpio/cy_gpio.h ****                                                        (CY_GPIO_AMUX_GLR     == (amuxConnect)))
 387:Generated_Source\PSoC6\pdl\drivers/peripheral/gpio/cy_gpio.h **** 
 388:Generated_Source\PSoC6\pdl\drivers/peripheral/gpio/cy_gpio.h **** #define CY_GPIO_IS_AMUX_SELECT_VALID(amuxBus)       ((CY_GPIO_AMUXBUSA       == (amuxBus)) || \
 389:Generated_Source\PSoC6\pdl\drivers/peripheral/gpio/cy_gpio.h ****                                                      (CY_GPIO_AMUXBUSB       == (amuxBus)))
 390:Generated_Source\PSoC6\pdl\drivers/peripheral/gpio/cy_gpio.h **** /** \endcond */
 391:Generated_Source\PSoC6\pdl\drivers/peripheral/gpio/cy_gpio.h **** 
 392:Generated_Source\PSoC6\pdl\drivers/peripheral/gpio/cy_gpio.h **** 
 393:Generated_Source\PSoC6\pdl\drivers/peripheral/gpio/cy_gpio.h **** /***************************************
 394:Generated_Source\PSoC6\pdl\drivers/peripheral/gpio/cy_gpio.h **** *        Function Constants
 395:Generated_Source\PSoC6\pdl\drivers/peripheral/gpio/cy_gpio.h **** ***************************************/
 396:Generated_Source\PSoC6\pdl\drivers/peripheral/gpio/cy_gpio.h **** 
 397:Generated_Source\PSoC6\pdl\drivers/peripheral/gpio/cy_gpio.h **** /**
 398:Generated_Source\PSoC6\pdl\drivers/peripheral/gpio/cy_gpio.h **** * \addtogroup group_gpio_macros
 399:Generated_Source\PSoC6\pdl\drivers/peripheral/gpio/cy_gpio.h **** * \{
 400:Generated_Source\PSoC6\pdl\drivers/peripheral/gpio/cy_gpio.h **** */
 401:Generated_Source\PSoC6\pdl\drivers/peripheral/gpio/cy_gpio.h **** 
 402:Generated_Source\PSoC6\pdl\drivers/peripheral/gpio/cy_gpio.h **** /**
 403:Generated_Source\PSoC6\pdl\drivers/peripheral/gpio/cy_gpio.h **** * \defgroup group_gpio_driveModes Pin drive mode
 404:Generated_Source\PSoC6\pdl\drivers/peripheral/gpio/cy_gpio.h **** * \{
 405:Generated_Source\PSoC6\pdl\drivers/peripheral/gpio/cy_gpio.h **** * Constants to be used for setting the drive mode of the pin.
 406:Generated_Source\PSoC6\pdl\drivers/peripheral/gpio/cy_gpio.h **** */
ARM GAS  C:\Users\gab_1\AppData\Local\Temp\ccTtYdci.s 			page 63


 407:Generated_Source\PSoC6\pdl\drivers/peripheral/gpio/cy_gpio.h **** #define CY_GPIO_DM_ANALOG                      (0x00UL) /**< Analog High-Z. Input buffer off */
 408:Generated_Source\PSoC6\pdl\drivers/peripheral/gpio/cy_gpio.h **** #define CY_GPIO_DM_PULLUP_IN_OFF               (0x02UL) /**< Resistive Pull-Up. Input buffer off */
 409:Generated_Source\PSoC6\pdl\drivers/peripheral/gpio/cy_gpio.h **** #define CY_GPIO_DM_PULLDOWN_IN_OFF             (0x03UL) /**< Resistive Pull-Down. Input buffer off 
 410:Generated_Source\PSoC6\pdl\drivers/peripheral/gpio/cy_gpio.h **** #define CY_GPIO_DM_OD_DRIVESLOW_IN_OFF         (0x04UL) /**< Open Drain, Drives Low. Input buffer o
 411:Generated_Source\PSoC6\pdl\drivers/peripheral/gpio/cy_gpio.h **** #define CY_GPIO_DM_OD_DRIVESHIGH_IN_OFF        (0x05UL) /**< Open Drain, Drives High. Input buffer 
 412:Generated_Source\PSoC6\pdl\drivers/peripheral/gpio/cy_gpio.h **** #define CY_GPIO_DM_STRONG_IN_OFF               (0x06UL) /**< Strong Drive. Input buffer off */
 413:Generated_Source\PSoC6\pdl\drivers/peripheral/gpio/cy_gpio.h **** #define CY_GPIO_DM_PULLUP_DOWN_IN_OFF          (0x07UL) /**< Resistive Pull-Up/Down. Input buffer o
 414:Generated_Source\PSoC6\pdl\drivers/peripheral/gpio/cy_gpio.h **** #define CY_GPIO_DM_HIGHZ                       (0x08UL) /**< Digital High-Z. Input buffer on */
 415:Generated_Source\PSoC6\pdl\drivers/peripheral/gpio/cy_gpio.h **** #define CY_GPIO_DM_PULLUP                      (0x0AUL) /**< Resistive Pull-Up. Input buffer on */
 416:Generated_Source\PSoC6\pdl\drivers/peripheral/gpio/cy_gpio.h **** #define CY_GPIO_DM_PULLDOWN                    (0x0BUL) /**< Resistive Pull-Down. Input buffer on *
 417:Generated_Source\PSoC6\pdl\drivers/peripheral/gpio/cy_gpio.h **** #define CY_GPIO_DM_OD_DRIVESLOW                (0x0CUL) /**< Open Drain, Drives Low. Input buffer o
 418:Generated_Source\PSoC6\pdl\drivers/peripheral/gpio/cy_gpio.h **** #define CY_GPIO_DM_OD_DRIVESHIGH               (0x0DUL) /**< Open Drain, Drives High. Input buffer 
 419:Generated_Source\PSoC6\pdl\drivers/peripheral/gpio/cy_gpio.h **** #define CY_GPIO_DM_STRONG                      (0x0EUL) /**< Strong Drive. Input buffer on */
 420:Generated_Source\PSoC6\pdl\drivers/peripheral/gpio/cy_gpio.h **** #define CY_GPIO_DM_PULLUP_DOWN                 (0x0FUL) /**< Resistive Pull-Up/Down. Input buffer o
 421:Generated_Source\PSoC6\pdl\drivers/peripheral/gpio/cy_gpio.h **** /** \} */
 422:Generated_Source\PSoC6\pdl\drivers/peripheral/gpio/cy_gpio.h **** 
 423:Generated_Source\PSoC6\pdl\drivers/peripheral/gpio/cy_gpio.h **** /**
 424:Generated_Source\PSoC6\pdl\drivers/peripheral/gpio/cy_gpio.h **** * \defgroup group_gpio_vtrip Voltage trip mode
 425:Generated_Source\PSoC6\pdl\drivers/peripheral/gpio/cy_gpio.h **** * \{
 426:Generated_Source\PSoC6\pdl\drivers/peripheral/gpio/cy_gpio.h **** * Constants to be used for setting the voltage trip type on the pin.
 427:Generated_Source\PSoC6\pdl\drivers/peripheral/gpio/cy_gpio.h **** */
 428:Generated_Source\PSoC6\pdl\drivers/peripheral/gpio/cy_gpio.h **** #define CY_GPIO_VTRIP_CMOS                     (0x00UL) /**< Input buffer compatible with CMOS and 
 429:Generated_Source\PSoC6\pdl\drivers/peripheral/gpio/cy_gpio.h **** #define CY_GPIO_VTRIP_TTL                      (0x01UL) /**< Input buffer compatible with TTL and M
 430:Generated_Source\PSoC6\pdl\drivers/peripheral/gpio/cy_gpio.h **** /** \} */
 431:Generated_Source\PSoC6\pdl\drivers/peripheral/gpio/cy_gpio.h **** 
 432:Generated_Source\PSoC6\pdl\drivers/peripheral/gpio/cy_gpio.h **** /**
 433:Generated_Source\PSoC6\pdl\drivers/peripheral/gpio/cy_gpio.h **** * \defgroup group_gpio_slewRate Slew Rate Mode
 434:Generated_Source\PSoC6\pdl\drivers/peripheral/gpio/cy_gpio.h **** * \{
 435:Generated_Source\PSoC6\pdl\drivers/peripheral/gpio/cy_gpio.h **** * Constants to be used for setting the slew rate of the pin.
 436:Generated_Source\PSoC6\pdl\drivers/peripheral/gpio/cy_gpio.h **** */
 437:Generated_Source\PSoC6\pdl\drivers/peripheral/gpio/cy_gpio.h **** #define CY_GPIO_SLEW_FAST                      (0x00UL) /**< Fast slew rate */
 438:Generated_Source\PSoC6\pdl\drivers/peripheral/gpio/cy_gpio.h **** #define CY_GPIO_SLEW_SLOW                      (0x01UL) /**< Slow slew rate */
 439:Generated_Source\PSoC6\pdl\drivers/peripheral/gpio/cy_gpio.h **** /** \} */
 440:Generated_Source\PSoC6\pdl\drivers/peripheral/gpio/cy_gpio.h **** 
 441:Generated_Source\PSoC6\pdl\drivers/peripheral/gpio/cy_gpio.h **** /**
 442:Generated_Source\PSoC6\pdl\drivers/peripheral/gpio/cy_gpio.h **** * \defgroup group_gpio_driveStrength Pin drive strength
 443:Generated_Source\PSoC6\pdl\drivers/peripheral/gpio/cy_gpio.h **** * \{
 444:Generated_Source\PSoC6\pdl\drivers/peripheral/gpio/cy_gpio.h **** * Constants to be used for setting the drive strength of the pin.
 445:Generated_Source\PSoC6\pdl\drivers/peripheral/gpio/cy_gpio.h **** */
 446:Generated_Source\PSoC6\pdl\drivers/peripheral/gpio/cy_gpio.h **** #define CY_GPIO_DRIVE_FULL                     (0x00UL) /**< Full drive strength: Max drive current
 447:Generated_Source\PSoC6\pdl\drivers/peripheral/gpio/cy_gpio.h **** #define CY_GPIO_DRIVE_1_2                      (0x01UL) /**< 1/2 drive strength: 1/2 drive current 
 448:Generated_Source\PSoC6\pdl\drivers/peripheral/gpio/cy_gpio.h **** #define CY_GPIO_DRIVE_1_4                      (0x02UL) /**< 1/4 drive strength: 1/4 drive current 
 449:Generated_Source\PSoC6\pdl\drivers/peripheral/gpio/cy_gpio.h **** #define CY_GPIO_DRIVE_1_8                      (0x03UL) /**< 1/8 drive strength: 1/8 drive current 
 450:Generated_Source\PSoC6\pdl\drivers/peripheral/gpio/cy_gpio.h **** /** \} */
 451:Generated_Source\PSoC6\pdl\drivers/peripheral/gpio/cy_gpio.h **** 
 452:Generated_Source\PSoC6\pdl\drivers/peripheral/gpio/cy_gpio.h **** /**
 453:Generated_Source\PSoC6\pdl\drivers/peripheral/gpio/cy_gpio.h **** * \defgroup group_gpio_interruptTrigger Interrupt trigger type
 454:Generated_Source\PSoC6\pdl\drivers/peripheral/gpio/cy_gpio.h **** * \{
 455:Generated_Source\PSoC6\pdl\drivers/peripheral/gpio/cy_gpio.h **** * Constants to be used for setting the interrupt trigger type on the pin.
 456:Generated_Source\PSoC6\pdl\drivers/peripheral/gpio/cy_gpio.h **** */
 457:Generated_Source\PSoC6\pdl\drivers/peripheral/gpio/cy_gpio.h **** #define CY_GPIO_INTR_DISABLE                   (0x00UL) /**< Disable the pin interrupt generation *
 458:Generated_Source\PSoC6\pdl\drivers/peripheral/gpio/cy_gpio.h **** #define CY_GPIO_INTR_RISING                    (0x01UL) /**< Rising-Edge interrupt */
 459:Generated_Source\PSoC6\pdl\drivers/peripheral/gpio/cy_gpio.h **** #define CY_GPIO_INTR_FALLING                   (0x02UL) /**< Falling-Edge interrupt */
 460:Generated_Source\PSoC6\pdl\drivers/peripheral/gpio/cy_gpio.h **** #define CY_GPIO_INTR_BOTH                      (0x03UL) /**< Both-Edge interrupt */
 461:Generated_Source\PSoC6\pdl\drivers/peripheral/gpio/cy_gpio.h **** /** \} */
 462:Generated_Source\PSoC6\pdl\drivers/peripheral/gpio/cy_gpio.h **** 
 463:Generated_Source\PSoC6\pdl\drivers/peripheral/gpio/cy_gpio.h **** /**
ARM GAS  C:\Users\gab_1\AppData\Local\Temp\ccTtYdci.s 			page 64


 464:Generated_Source\PSoC6\pdl\drivers/peripheral/gpio/cy_gpio.h **** * \defgroup group_gpio_sioVreg SIO output buffer mode
 465:Generated_Source\PSoC6\pdl\drivers/peripheral/gpio/cy_gpio.h **** * \{
 466:Generated_Source\PSoC6\pdl\drivers/peripheral/gpio/cy_gpio.h **** * Constants to be used for setting the SIO output buffer mode on the pin.
 467:Generated_Source\PSoC6\pdl\drivers/peripheral/gpio/cy_gpio.h **** */
 468:Generated_Source\PSoC6\pdl\drivers/peripheral/gpio/cy_gpio.h **** #define CY_SIO_VREG_UNREGULATED                (0x00UL) /**< Unregulated output buffer */
 469:Generated_Source\PSoC6\pdl\drivers/peripheral/gpio/cy_gpio.h **** #define CY_SIO_VREG_REGULATED                  (0x01UL) /**< Regulated output buffer */
 470:Generated_Source\PSoC6\pdl\drivers/peripheral/gpio/cy_gpio.h **** /** \} */
 471:Generated_Source\PSoC6\pdl\drivers/peripheral/gpio/cy_gpio.h **** 
 472:Generated_Source\PSoC6\pdl\drivers/peripheral/gpio/cy_gpio.h **** /**
 473:Generated_Source\PSoC6\pdl\drivers/peripheral/gpio/cy_gpio.h **** * \defgroup group_gpio_sioIbuf SIO input buffer mode
 474:Generated_Source\PSoC6\pdl\drivers/peripheral/gpio/cy_gpio.h **** * \{
 475:Generated_Source\PSoC6\pdl\drivers/peripheral/gpio/cy_gpio.h **** * Constants to be used for setting the SIO input buffer mode on the pin.
 476:Generated_Source\PSoC6\pdl\drivers/peripheral/gpio/cy_gpio.h **** */
 477:Generated_Source\PSoC6\pdl\drivers/peripheral/gpio/cy_gpio.h **** #define CY_SIO_IBUF_SINGLEENDED                (0x00UL) /**< Single ended input buffer */
 478:Generated_Source\PSoC6\pdl\drivers/peripheral/gpio/cy_gpio.h **** #define CY_SIO_IBUF_DIFFERENTIAL               (0x01UL) /**< Differential input buffer */
 479:Generated_Source\PSoC6\pdl\drivers/peripheral/gpio/cy_gpio.h **** /** \} */
 480:Generated_Source\PSoC6\pdl\drivers/peripheral/gpio/cy_gpio.h **** 
 481:Generated_Source\PSoC6\pdl\drivers/peripheral/gpio/cy_gpio.h **** /**
 482:Generated_Source\PSoC6\pdl\drivers/peripheral/gpio/cy_gpio.h **** * \defgroup group_gpio_sioVtrip SIO input buffer trip-point
 483:Generated_Source\PSoC6\pdl\drivers/peripheral/gpio/cy_gpio.h **** * \{
 484:Generated_Source\PSoC6\pdl\drivers/peripheral/gpio/cy_gpio.h **** * Constants to be used for setting the SIO input buffer trip-point of the pin.
 485:Generated_Source\PSoC6\pdl\drivers/peripheral/gpio/cy_gpio.h **** */
 486:Generated_Source\PSoC6\pdl\drivers/peripheral/gpio/cy_gpio.h **** #define CY_SIO_VTRIP_CMOS                      (0x00UL) /**< CMOS input buffer (single-ended) */
 487:Generated_Source\PSoC6\pdl\drivers/peripheral/gpio/cy_gpio.h **** #define CY_SIO_VTRIP_TTL                       (0x01UL) /**< TTL input buffer (single-ended) */
 488:Generated_Source\PSoC6\pdl\drivers/peripheral/gpio/cy_gpio.h **** #define CY_SIO_VTRIP_0_5VDDIO_0_5VOH           (0x00UL) /**< 0.5xVddio or 0.5xVoh (differential) */
 489:Generated_Source\PSoC6\pdl\drivers/peripheral/gpio/cy_gpio.h **** #define CY_SIO_VTRIP_0_4VDDIO_1_0VREF          (0x01UL) /**< 0.4xVddio or 0.4xVoh (differential) */
 490:Generated_Source\PSoC6\pdl\drivers/peripheral/gpio/cy_gpio.h **** /** \} */
 491:Generated_Source\PSoC6\pdl\drivers/peripheral/gpio/cy_gpio.h **** 
 492:Generated_Source\PSoC6\pdl\drivers/peripheral/gpio/cy_gpio.h **** /**
 493:Generated_Source\PSoC6\pdl\drivers/peripheral/gpio/cy_gpio.h **** * \defgroup group_gpio_sioVref SIO reference voltage for input buffer trip-point
 494:Generated_Source\PSoC6\pdl\drivers/peripheral/gpio/cy_gpio.h **** * \{
 495:Generated_Source\PSoC6\pdl\drivers/peripheral/gpio/cy_gpio.h **** * Constants to be used for setting the reference voltage of SIO input buffer trip-point.
 496:Generated_Source\PSoC6\pdl\drivers/peripheral/gpio/cy_gpio.h **** */
 497:Generated_Source\PSoC6\pdl\drivers/peripheral/gpio/cy_gpio.h **** #define CY_SIO_VREF_PINREF                     (0x00UL) /**< Vref from analog pin */
 498:Generated_Source\PSoC6\pdl\drivers/peripheral/gpio/cy_gpio.h **** #define CY_SIO_VREF_1_2V                       (0x01UL) /**< Vref from internal 1.2V reference */
 499:Generated_Source\PSoC6\pdl\drivers/peripheral/gpio/cy_gpio.h **** #define CY_SIO_VREF_AMUX_A                     (0x02UL) /**< Vref from AMUXBUS_A */
 500:Generated_Source\PSoC6\pdl\drivers/peripheral/gpio/cy_gpio.h **** #define CY_SIO_VREF_AMUX_B                     (0x03UL) /**< Vref from AMUXBUS_B */
 501:Generated_Source\PSoC6\pdl\drivers/peripheral/gpio/cy_gpio.h **** /** \} */
 502:Generated_Source\PSoC6\pdl\drivers/peripheral/gpio/cy_gpio.h **** 
 503:Generated_Source\PSoC6\pdl\drivers/peripheral/gpio/cy_gpio.h **** /**
 504:Generated_Source\PSoC6\pdl\drivers/peripheral/gpio/cy_gpio.h **** * \defgroup group_gpio_sioVoh Regulated output voltage level (Voh) and input buffer trip-point of a
 505:Generated_Source\PSoC6\pdl\drivers/peripheral/gpio/cy_gpio.h **** * \{
 506:Generated_Source\PSoC6\pdl\drivers/peripheral/gpio/cy_gpio.h **** * Constants to be used for setting the Voh and input buffer trip-point of an SIO pair
 507:Generated_Source\PSoC6\pdl\drivers/peripheral/gpio/cy_gpio.h **** */
 508:Generated_Source\PSoC6\pdl\drivers/peripheral/gpio/cy_gpio.h **** #define CY_SIO_VOH_1_00                        (0x00UL) /**< Voh = 1 x Reference */
 509:Generated_Source\PSoC6\pdl\drivers/peripheral/gpio/cy_gpio.h **** #define CY_SIO_VOH_1_25                        (0x01UL) /**< Voh = 1.25 x Reference */
 510:Generated_Source\PSoC6\pdl\drivers/peripheral/gpio/cy_gpio.h **** #define CY_SIO_VOH_1_49                        (0x02UL) /**< Voh = 1.49 x Reference */
 511:Generated_Source\PSoC6\pdl\drivers/peripheral/gpio/cy_gpio.h **** #define CY_SIO_VOH_1_67                        (0x03UL) /**< Voh = 1.67 x Reference */
 512:Generated_Source\PSoC6\pdl\drivers/peripheral/gpio/cy_gpio.h **** #define CY_SIO_VOH_2_08                        (0x04UL) /**< Voh = 2.08 x Reference */
 513:Generated_Source\PSoC6\pdl\drivers/peripheral/gpio/cy_gpio.h **** #define CY_SIO_VOH_2_50                        (0x05UL) /**< Voh = 2.50 x Reference */
 514:Generated_Source\PSoC6\pdl\drivers/peripheral/gpio/cy_gpio.h **** #define CY_SIO_VOH_2_78                        (0x06UL) /**< Voh = 2.78 x Reference */
 515:Generated_Source\PSoC6\pdl\drivers/peripheral/gpio/cy_gpio.h **** #define CY_SIO_VOH_4_16                        (0x07UL) /**< Voh = 4.16 x Reference */
 516:Generated_Source\PSoC6\pdl\drivers/peripheral/gpio/cy_gpio.h **** /** \} */
 517:Generated_Source\PSoC6\pdl\drivers/peripheral/gpio/cy_gpio.h **** 
 518:Generated_Source\PSoC6\pdl\drivers/peripheral/gpio/cy_gpio.h **** /** \} group_gpio_macros */
 519:Generated_Source\PSoC6\pdl\drivers/peripheral/gpio/cy_gpio.h **** 
 520:Generated_Source\PSoC6\pdl\drivers/peripheral/gpio/cy_gpio.h **** /***************************************
ARM GAS  C:\Users\gab_1\AppData\Local\Temp\ccTtYdci.s 			page 65


 521:Generated_Source\PSoC6\pdl\drivers/peripheral/gpio/cy_gpio.h **** *        Function Prototypes
 522:Generated_Source\PSoC6\pdl\drivers/peripheral/gpio/cy_gpio.h **** ***************************************/
 523:Generated_Source\PSoC6\pdl\drivers/peripheral/gpio/cy_gpio.h **** 
 524:Generated_Source\PSoC6\pdl\drivers/peripheral/gpio/cy_gpio.h **** /**
 525:Generated_Source\PSoC6\pdl\drivers/peripheral/gpio/cy_gpio.h **** * \addtogroup group_gpio_functions
 526:Generated_Source\PSoC6\pdl\drivers/peripheral/gpio/cy_gpio.h **** * \{
 527:Generated_Source\PSoC6\pdl\drivers/peripheral/gpio/cy_gpio.h **** */
 528:Generated_Source\PSoC6\pdl\drivers/peripheral/gpio/cy_gpio.h **** 
 529:Generated_Source\PSoC6\pdl\drivers/peripheral/gpio/cy_gpio.h **** /**
 530:Generated_Source\PSoC6\pdl\drivers/peripheral/gpio/cy_gpio.h **** * \addtogroup group_gpio_functions_init
 531:Generated_Source\PSoC6\pdl\drivers/peripheral/gpio/cy_gpio.h **** * \{
 532:Generated_Source\PSoC6\pdl\drivers/peripheral/gpio/cy_gpio.h **** */
 533:Generated_Source\PSoC6\pdl\drivers/peripheral/gpio/cy_gpio.h **** 
 534:Generated_Source\PSoC6\pdl\drivers/peripheral/gpio/cy_gpio.h **** cy_en_gpio_status_t Cy_GPIO_Pin_Init(GPIO_PRT_Type* base, uint32_t pinNum, const cy_stc_gpio_pin_co
 535:Generated_Source\PSoC6\pdl\drivers/peripheral/gpio/cy_gpio.h **** cy_en_gpio_status_t Cy_GPIO_Port_Init(GPIO_PRT_Type* base, const cy_stc_gpio_prt_config_t *config);
 536:Generated_Source\PSoC6\pdl\drivers/peripheral/gpio/cy_gpio.h **** void Cy_GPIO_Pin_FastInit(GPIO_PRT_Type* base, uint32_t pinNum, uint32_t driveMode, uint32_t outVal
 537:Generated_Source\PSoC6\pdl\drivers/peripheral/gpio/cy_gpio.h **** void Cy_GPIO_Port_Deinit(GPIO_PRT_Type* base);
 538:Generated_Source\PSoC6\pdl\drivers/peripheral/gpio/cy_gpio.h **** __STATIC_INLINE void Cy_GPIO_SetHSIOM(GPIO_PRT_Type* base, uint32_t pinNum, en_hsiom_sel_t value);
 539:Generated_Source\PSoC6\pdl\drivers/peripheral/gpio/cy_gpio.h **** __STATIC_INLINE en_hsiom_sel_t Cy_GPIO_GetHSIOM(GPIO_PRT_Type* base, uint32_t pinNum);
 540:Generated_Source\PSoC6\pdl\drivers/peripheral/gpio/cy_gpio.h **** __STATIC_INLINE GPIO_PRT_Type* Cy_GPIO_PortToAddr(uint32_t portNum);
 541:Generated_Source\PSoC6\pdl\drivers/peripheral/gpio/cy_gpio.h **** 
 542:Generated_Source\PSoC6\pdl\drivers/peripheral/gpio/cy_gpio.h **** /** \} group_gpio_functions_init */
 543:Generated_Source\PSoC6\pdl\drivers/peripheral/gpio/cy_gpio.h **** 
 544:Generated_Source\PSoC6\pdl\drivers/peripheral/gpio/cy_gpio.h **** /**
 545:Generated_Source\PSoC6\pdl\drivers/peripheral/gpio/cy_gpio.h **** * \addtogroup group_gpio_functions_gpio
 546:Generated_Source\PSoC6\pdl\drivers/peripheral/gpio/cy_gpio.h **** * \{
 547:Generated_Source\PSoC6\pdl\drivers/peripheral/gpio/cy_gpio.h **** */
 548:Generated_Source\PSoC6\pdl\drivers/peripheral/gpio/cy_gpio.h **** 
 549:Generated_Source\PSoC6\pdl\drivers/peripheral/gpio/cy_gpio.h **** void Cy_GPIO_SetAmuxSplit(cy_en_amux_split_t switchCtrl, cy_en_gpio_amuxconnect_t amuxConnect, cy_e
 550:Generated_Source\PSoC6\pdl\drivers/peripheral/gpio/cy_gpio.h **** cy_en_gpio_amuxconnect_t Cy_GPIO_GetAmuxSplit(cy_en_amux_split_t switchCtrl, cy_en_gpio_amuxselect_
 551:Generated_Source\PSoC6\pdl\drivers/peripheral/gpio/cy_gpio.h **** 
 552:Generated_Source\PSoC6\pdl\drivers/peripheral/gpio/cy_gpio.h **** __STATIC_INLINE uint32_t Cy_GPIO_Read(GPIO_PRT_Type* base, uint32_t pinNum);
 553:Generated_Source\PSoC6\pdl\drivers/peripheral/gpio/cy_gpio.h **** __STATIC_INLINE void Cy_GPIO_Write(GPIO_PRT_Type* base, uint32_t pinNum, uint32_t value);
 554:Generated_Source\PSoC6\pdl\drivers/peripheral/gpio/cy_gpio.h **** __STATIC_INLINE uint32_t Cy_GPIO_ReadOut(GPIO_PRT_Type* base, uint32_t pinNum);
 555:Generated_Source\PSoC6\pdl\drivers/peripheral/gpio/cy_gpio.h **** __STATIC_INLINE void Cy_GPIO_Set(GPIO_PRT_Type* base, uint32_t pinNum);
 556:Generated_Source\PSoC6\pdl\drivers/peripheral/gpio/cy_gpio.h **** __STATIC_INLINE void Cy_GPIO_Clr(GPIO_PRT_Type* base, uint32_t pinNum);
 557:Generated_Source\PSoC6\pdl\drivers/peripheral/gpio/cy_gpio.h **** __STATIC_INLINE void Cy_GPIO_Inv(GPIO_PRT_Type* base, uint32_t pinNum);
 558:Generated_Source\PSoC6\pdl\drivers/peripheral/gpio/cy_gpio.h **** __STATIC_INLINE void Cy_GPIO_SetDrivemode(GPIO_PRT_Type* base, uint32_t pinNum, uint32_t value);
 559:Generated_Source\PSoC6\pdl\drivers/peripheral/gpio/cy_gpio.h **** __STATIC_INLINE uint32_t Cy_GPIO_GetDrivemode(GPIO_PRT_Type* base, uint32_t pinNum);
 560:Generated_Source\PSoC6\pdl\drivers/peripheral/gpio/cy_gpio.h **** __STATIC_INLINE void Cy_GPIO_SetVtrip(GPIO_PRT_Type* base, uint32_t pinNum, uint32_t value);
 561:Generated_Source\PSoC6\pdl\drivers/peripheral/gpio/cy_gpio.h **** __STATIC_INLINE uint32_t Cy_GPIO_GetVtrip(GPIO_PRT_Type* base, uint32_t pinNum);
 562:Generated_Source\PSoC6\pdl\drivers/peripheral/gpio/cy_gpio.h **** __STATIC_INLINE void Cy_GPIO_SetSlewRate(GPIO_PRT_Type* base, uint32_t pinNum, uint32_t value);
 563:Generated_Source\PSoC6\pdl\drivers/peripheral/gpio/cy_gpio.h **** __STATIC_INLINE uint32_t Cy_GPIO_GetSlewRate(GPIO_PRT_Type* base, uint32_t pinNum);
 564:Generated_Source\PSoC6\pdl\drivers/peripheral/gpio/cy_gpio.h **** __STATIC_INLINE void Cy_GPIO_SetDriveSel(GPIO_PRT_Type* base, uint32_t pinNum, uint32_t value);
 565:Generated_Source\PSoC6\pdl\drivers/peripheral/gpio/cy_gpio.h **** __STATIC_INLINE uint32_t Cy_GPIO_GetDriveSel(GPIO_PRT_Type* base, uint32_t pinNum);
 566:Generated_Source\PSoC6\pdl\drivers/peripheral/gpio/cy_gpio.h **** 
 567:Generated_Source\PSoC6\pdl\drivers/peripheral/gpio/cy_gpio.h **** /** \} group_gpio_functions_gpio */
 568:Generated_Source\PSoC6\pdl\drivers/peripheral/gpio/cy_gpio.h **** 
 569:Generated_Source\PSoC6\pdl\drivers/peripheral/gpio/cy_gpio.h **** /**
 570:Generated_Source\PSoC6\pdl\drivers/peripheral/gpio/cy_gpio.h **** * \addtogroup group_gpio_functions_sio
 571:Generated_Source\PSoC6\pdl\drivers/peripheral/gpio/cy_gpio.h **** * \{
 572:Generated_Source\PSoC6\pdl\drivers/peripheral/gpio/cy_gpio.h **** */
 573:Generated_Source\PSoC6\pdl\drivers/peripheral/gpio/cy_gpio.h **** 
 574:Generated_Source\PSoC6\pdl\drivers/peripheral/gpio/cy_gpio.h **** __STATIC_INLINE void Cy_GPIO_SetVregEn(GPIO_PRT_Type* base, uint32_t pinNum, uint32_t value);
 575:Generated_Source\PSoC6\pdl\drivers/peripheral/gpio/cy_gpio.h **** __STATIC_INLINE uint32_t Cy_GPIO_GetVregEn(GPIO_PRT_Type* base, uint32_t pinNum);
 576:Generated_Source\PSoC6\pdl\drivers/peripheral/gpio/cy_gpio.h **** __STATIC_INLINE void Cy_GPIO_SetIbufMode(GPIO_PRT_Type* base, uint32_t pinNum, uint32_t value);
 577:Generated_Source\PSoC6\pdl\drivers/peripheral/gpio/cy_gpio.h **** __STATIC_INLINE uint32_t Cy_GPIO_GetIbufMode(GPIO_PRT_Type* base, uint32_t pinNum);
ARM GAS  C:\Users\gab_1\AppData\Local\Temp\ccTtYdci.s 			page 66


 578:Generated_Source\PSoC6\pdl\drivers/peripheral/gpio/cy_gpio.h **** __STATIC_INLINE void Cy_GPIO_SetVtripSel(GPIO_PRT_Type* base, uint32_t pinNum, uint32_t value);
 579:Generated_Source\PSoC6\pdl\drivers/peripheral/gpio/cy_gpio.h **** __STATIC_INLINE uint32_t Cy_GPIO_GetVtripSel(GPIO_PRT_Type* base, uint32_t pinNum);
 580:Generated_Source\PSoC6\pdl\drivers/peripheral/gpio/cy_gpio.h **** __STATIC_INLINE void Cy_GPIO_SetVrefSel(GPIO_PRT_Type* base, uint32_t pinNum, uint32_t value);
 581:Generated_Source\PSoC6\pdl\drivers/peripheral/gpio/cy_gpio.h **** __STATIC_INLINE uint32_t Cy_GPIO_GetVrefSel(GPIO_PRT_Type* base, uint32_t pinNum);
 582:Generated_Source\PSoC6\pdl\drivers/peripheral/gpio/cy_gpio.h **** __STATIC_INLINE void Cy_GPIO_SetVohSel(GPIO_PRT_Type* base, uint32_t pinNum, uint32_t value);
 583:Generated_Source\PSoC6\pdl\drivers/peripheral/gpio/cy_gpio.h **** __STATIC_INLINE uint32_t Cy_GPIO_GetVohSel(GPIO_PRT_Type* base, uint32_t pinNum);
 584:Generated_Source\PSoC6\pdl\drivers/peripheral/gpio/cy_gpio.h **** 
 585:Generated_Source\PSoC6\pdl\drivers/peripheral/gpio/cy_gpio.h **** /** \} group_gpio_functions_sio */
 586:Generated_Source\PSoC6\pdl\drivers/peripheral/gpio/cy_gpio.h **** 
 587:Generated_Source\PSoC6\pdl\drivers/peripheral/gpio/cy_gpio.h **** /**
 588:Generated_Source\PSoC6\pdl\drivers/peripheral/gpio/cy_gpio.h **** * \addtogroup group_gpio_functions_interrupt
 589:Generated_Source\PSoC6\pdl\drivers/peripheral/gpio/cy_gpio.h **** * \{
 590:Generated_Source\PSoC6\pdl\drivers/peripheral/gpio/cy_gpio.h **** */
 591:Generated_Source\PSoC6\pdl\drivers/peripheral/gpio/cy_gpio.h **** 
 592:Generated_Source\PSoC6\pdl\drivers/peripheral/gpio/cy_gpio.h **** __STATIC_INLINE uint32_t Cy_GPIO_GetInterruptStatus(GPIO_PRT_Type* base, uint32_t pinNum);
 593:Generated_Source\PSoC6\pdl\drivers/peripheral/gpio/cy_gpio.h **** __STATIC_INLINE void Cy_GPIO_ClearInterrupt(GPIO_PRT_Type* base, uint32_t pinNum);
 594:Generated_Source\PSoC6\pdl\drivers/peripheral/gpio/cy_gpio.h **** __STATIC_INLINE void Cy_GPIO_SetInterruptMask(GPIO_PRT_Type* base, uint32_t pinNum, uint32_t value)
 595:Generated_Source\PSoC6\pdl\drivers/peripheral/gpio/cy_gpio.h **** __STATIC_INLINE uint32_t Cy_GPIO_GetInterruptMask(GPIO_PRT_Type* base, uint32_t pinNum);
 596:Generated_Source\PSoC6\pdl\drivers/peripheral/gpio/cy_gpio.h **** __STATIC_INLINE uint32_t Cy_GPIO_GetInterruptStatusMasked(GPIO_PRT_Type* base, uint32_t pinNum);
 597:Generated_Source\PSoC6\pdl\drivers/peripheral/gpio/cy_gpio.h **** __STATIC_INLINE void Cy_GPIO_SetSwInterrupt(GPIO_PRT_Type* base, uint32_t pinNum);
 598:Generated_Source\PSoC6\pdl\drivers/peripheral/gpio/cy_gpio.h **** __STATIC_INLINE void Cy_GPIO_SetInterruptEdge(GPIO_PRT_Type* base, uint32_t pinNum, uint32_t value)
 599:Generated_Source\PSoC6\pdl\drivers/peripheral/gpio/cy_gpio.h **** __STATIC_INLINE uint32_t Cy_GPIO_GetInterruptEdge(GPIO_PRT_Type* base, uint32_t pinNum);
 600:Generated_Source\PSoC6\pdl\drivers/peripheral/gpio/cy_gpio.h **** __STATIC_INLINE void Cy_GPIO_SetFilter(GPIO_PRT_Type* base, uint32_t value);
 601:Generated_Source\PSoC6\pdl\drivers/peripheral/gpio/cy_gpio.h **** __STATIC_INLINE uint32_t Cy_GPIO_GetFilter(GPIO_PRT_Type* base);
 602:Generated_Source\PSoC6\pdl\drivers/peripheral/gpio/cy_gpio.h **** 
 603:Generated_Source\PSoC6\pdl\drivers/peripheral/gpio/cy_gpio.h **** __STATIC_INLINE uint32_t Cy_GPIO_GetInterruptCause0(void);
 604:Generated_Source\PSoC6\pdl\drivers/peripheral/gpio/cy_gpio.h **** __STATIC_INLINE uint32_t Cy_GPIO_GetInterruptCause1(void);
 605:Generated_Source\PSoC6\pdl\drivers/peripheral/gpio/cy_gpio.h **** __STATIC_INLINE uint32_t Cy_GPIO_GetInterruptCause2(void);
 606:Generated_Source\PSoC6\pdl\drivers/peripheral/gpio/cy_gpio.h **** __STATIC_INLINE uint32_t Cy_GPIO_GetInterruptCause3(void);
 607:Generated_Source\PSoC6\pdl\drivers/peripheral/gpio/cy_gpio.h **** 
 608:Generated_Source\PSoC6\pdl\drivers/peripheral/gpio/cy_gpio.h **** /** \} group_gpio_functions_interrupt */
 609:Generated_Source\PSoC6\pdl\drivers/peripheral/gpio/cy_gpio.h **** 
 610:Generated_Source\PSoC6\pdl\drivers/peripheral/gpio/cy_gpio.h **** 
 611:Generated_Source\PSoC6\pdl\drivers/peripheral/gpio/cy_gpio.h **** /**
 612:Generated_Source\PSoC6\pdl\drivers/peripheral/gpio/cy_gpio.h **** * \addtogroup group_gpio_functions_init
 613:Generated_Source\PSoC6\pdl\drivers/peripheral/gpio/cy_gpio.h **** * \{
 614:Generated_Source\PSoC6\pdl\drivers/peripheral/gpio/cy_gpio.h **** */
 615:Generated_Source\PSoC6\pdl\drivers/peripheral/gpio/cy_gpio.h **** 
 616:Generated_Source\PSoC6\pdl\drivers/peripheral/gpio/cy_gpio.h **** /*******************************************************************************
 617:Generated_Source\PSoC6\pdl\drivers/peripheral/gpio/cy_gpio.h **** * Function Name: Cy_GPIO_SetHSIOM
 618:Generated_Source\PSoC6\pdl\drivers/peripheral/gpio/cy_gpio.h **** ****************************************************************************//**
 619:Generated_Source\PSoC6\pdl\drivers/peripheral/gpio/cy_gpio.h **** *
 620:Generated_Source\PSoC6\pdl\drivers/peripheral/gpio/cy_gpio.h **** * Configures the HSIOM connection to the pin.
 621:Generated_Source\PSoC6\pdl\drivers/peripheral/gpio/cy_gpio.h **** *
 622:Generated_Source\PSoC6\pdl\drivers/peripheral/gpio/cy_gpio.h **** * Connects the specified High-Speed Input Output Multiplexer (HSIOM) selection
 623:Generated_Source\PSoC6\pdl\drivers/peripheral/gpio/cy_gpio.h **** * to the pin.
 624:Generated_Source\PSoC6\pdl\drivers/peripheral/gpio/cy_gpio.h **** *
 625:Generated_Source\PSoC6\pdl\drivers/peripheral/gpio/cy_gpio.h **** * \param base
 626:Generated_Source\PSoC6\pdl\drivers/peripheral/gpio/cy_gpio.h **** * Pointer to the pin's port register base address
 627:Generated_Source\PSoC6\pdl\drivers/peripheral/gpio/cy_gpio.h **** *
 628:Generated_Source\PSoC6\pdl\drivers/peripheral/gpio/cy_gpio.h **** * \param pinNum
 629:Generated_Source\PSoC6\pdl\drivers/peripheral/gpio/cy_gpio.h **** * Position of the pin bit-field within the port register
 630:Generated_Source\PSoC6\pdl\drivers/peripheral/gpio/cy_gpio.h **** *
 631:Generated_Source\PSoC6\pdl\drivers/peripheral/gpio/cy_gpio.h **** * \param value
 632:Generated_Source\PSoC6\pdl\drivers/peripheral/gpio/cy_gpio.h **** * HSIOM input selection
 633:Generated_Source\PSoC6\pdl\drivers/peripheral/gpio/cy_gpio.h **** *
 634:Generated_Source\PSoC6\pdl\drivers/peripheral/gpio/cy_gpio.h **** * \note 
ARM GAS  C:\Users\gab_1\AppData\Local\Temp\ccTtYdci.s 			page 67


 635:Generated_Source\PSoC6\pdl\drivers/peripheral/gpio/cy_gpio.h **** * This function modifies a port register in a read-modify-write operation. It is
 636:Generated_Source\PSoC6\pdl\drivers/peripheral/gpio/cy_gpio.h **** * not thread safe as the resource is shared among multiple pins on a port.
 637:Generated_Source\PSoC6\pdl\drivers/peripheral/gpio/cy_gpio.h **** *
 638:Generated_Source\PSoC6\pdl\drivers/peripheral/gpio/cy_gpio.h **** * \funcusage
 639:Generated_Source\PSoC6\pdl\drivers/peripheral/gpio/cy_gpio.h **** * \snippet gpio/gpio_v1_10_sut_01.cydsn/main_cm4.c snippet_Cy_GPIO_SetHSIOM
 640:Generated_Source\PSoC6\pdl\drivers/peripheral/gpio/cy_gpio.h **** *
 641:Generated_Source\PSoC6\pdl\drivers/peripheral/gpio/cy_gpio.h **** *******************************************************************************/
 642:Generated_Source\PSoC6\pdl\drivers/peripheral/gpio/cy_gpio.h **** __STATIC_INLINE void Cy_GPIO_SetHSIOM(GPIO_PRT_Type* base, uint32_t pinNum, en_hsiom_sel_t value)
 643:Generated_Source\PSoC6\pdl\drivers/peripheral/gpio/cy_gpio.h **** {
 644:Generated_Source\PSoC6\pdl\drivers/peripheral/gpio/cy_gpio.h ****     uint32_t portNum;
 645:Generated_Source\PSoC6\pdl\drivers/peripheral/gpio/cy_gpio.h ****     uint32_t tempReg;
 646:Generated_Source\PSoC6\pdl\drivers/peripheral/gpio/cy_gpio.h ****     HSIOM_PRT_V1_Type* portAddrHSIOM;
 647:Generated_Source\PSoC6\pdl\drivers/peripheral/gpio/cy_gpio.h **** 
 648:Generated_Source\PSoC6\pdl\drivers/peripheral/gpio/cy_gpio.h ****     CY_ASSERT_L2(CY_GPIO_IS_PIN_VALID(pinNum));
 649:Generated_Source\PSoC6\pdl\drivers/peripheral/gpio/cy_gpio.h ****     CY_ASSERT_L2(CY_GPIO_IS_HSIOM_VALID(value));
 650:Generated_Source\PSoC6\pdl\drivers/peripheral/gpio/cy_gpio.h **** 
 651:Generated_Source\PSoC6\pdl\drivers/peripheral/gpio/cy_gpio.h ****     portNum = ((uint32_t)(base) - CY_GPIO_BASE) / GPIO_PRT_SECTION_SIZE;
 652:Generated_Source\PSoC6\pdl\drivers/peripheral/gpio/cy_gpio.h ****     portAddrHSIOM = (HSIOM_PRT_V1_Type*)(CY_HSIOM_BASE + (HSIOM_PRT_SECTION_SIZE * portNum));
 653:Generated_Source\PSoC6\pdl\drivers/peripheral/gpio/cy_gpio.h **** 
 654:Generated_Source\PSoC6\pdl\drivers/peripheral/gpio/cy_gpio.h ****     if(pinNum < CY_GPIO_PRT_HALF)
 655:Generated_Source\PSoC6\pdl\drivers/peripheral/gpio/cy_gpio.h ****     {
 656:Generated_Source\PSoC6\pdl\drivers/peripheral/gpio/cy_gpio.h ****         tempReg = HSIOM_PRT_PORT_SEL0(portAddrHSIOM) & ~(CY_GPIO_HSIOM_MASK << (pinNum << CY_GPIO_H
 657:Generated_Source\PSoC6\pdl\drivers/peripheral/gpio/cy_gpio.h ****         HSIOM_PRT_PORT_SEL0(portAddrHSIOM) = tempReg | ((value & CY_GPIO_HSIOM_MASK) << (pinNum << 
 658:Generated_Source\PSoC6\pdl\drivers/peripheral/gpio/cy_gpio.h ****     }
 659:Generated_Source\PSoC6\pdl\drivers/peripheral/gpio/cy_gpio.h ****     else
 660:Generated_Source\PSoC6\pdl\drivers/peripheral/gpio/cy_gpio.h ****     {
 661:Generated_Source\PSoC6\pdl\drivers/peripheral/gpio/cy_gpio.h ****         pinNum -= CY_GPIO_PRT_HALF;
 662:Generated_Source\PSoC6\pdl\drivers/peripheral/gpio/cy_gpio.h ****         tempReg = HSIOM_PRT_PORT_SEL1(portAddrHSIOM) & ~(CY_GPIO_HSIOM_MASK << (pinNum << CY_GPIO_H
 663:Generated_Source\PSoC6\pdl\drivers/peripheral/gpio/cy_gpio.h ****         HSIOM_PRT_PORT_SEL1(portAddrHSIOM) = tempReg | ((value & CY_GPIO_HSIOM_MASK) << (pinNum << 
 664:Generated_Source\PSoC6\pdl\drivers/peripheral/gpio/cy_gpio.h ****     }
 665:Generated_Source\PSoC6\pdl\drivers/peripheral/gpio/cy_gpio.h **** }
 666:Generated_Source\PSoC6\pdl\drivers/peripheral/gpio/cy_gpio.h **** 
 667:Generated_Source\PSoC6\pdl\drivers/peripheral/gpio/cy_gpio.h **** 
 668:Generated_Source\PSoC6\pdl\drivers/peripheral/gpio/cy_gpio.h **** /*******************************************************************************
 669:Generated_Source\PSoC6\pdl\drivers/peripheral/gpio/cy_gpio.h **** * Function Name: Cy_GPIO_GetHSIOM
 670:Generated_Source\PSoC6\pdl\drivers/peripheral/gpio/cy_gpio.h **** ****************************************************************************//**
 671:Generated_Source\PSoC6\pdl\drivers/peripheral/gpio/cy_gpio.h **** *
 672:Generated_Source\PSoC6\pdl\drivers/peripheral/gpio/cy_gpio.h **** * Returns the current HSIOM multiplexer connection to the pin.
 673:Generated_Source\PSoC6\pdl\drivers/peripheral/gpio/cy_gpio.h **** *
 674:Generated_Source\PSoC6\pdl\drivers/peripheral/gpio/cy_gpio.h **** * \param base
 675:Generated_Source\PSoC6\pdl\drivers/peripheral/gpio/cy_gpio.h **** * Pointer to the pin's port register base address
 676:Generated_Source\PSoC6\pdl\drivers/peripheral/gpio/cy_gpio.h **** *
 677:Generated_Source\PSoC6\pdl\drivers/peripheral/gpio/cy_gpio.h **** * \param pinNum
 678:Generated_Source\PSoC6\pdl\drivers/peripheral/gpio/cy_gpio.h **** * Position of the pin bit-field within the port register
 679:Generated_Source\PSoC6\pdl\drivers/peripheral/gpio/cy_gpio.h **** *
 680:Generated_Source\PSoC6\pdl\drivers/peripheral/gpio/cy_gpio.h **** * \return
 681:Generated_Source\PSoC6\pdl\drivers/peripheral/gpio/cy_gpio.h **** * HSIOM input selection
 682:Generated_Source\PSoC6\pdl\drivers/peripheral/gpio/cy_gpio.h **** *
 683:Generated_Source\PSoC6\pdl\drivers/peripheral/gpio/cy_gpio.h **** * \funcusage
 684:Generated_Source\PSoC6\pdl\drivers/peripheral/gpio/cy_gpio.h **** * \snippet gpio/gpio_v1_10_sut_01.cydsn/main_cm4.c snippet_Cy_GPIO_SetHSIOM
 685:Generated_Source\PSoC6\pdl\drivers/peripheral/gpio/cy_gpio.h **** *
 686:Generated_Source\PSoC6\pdl\drivers/peripheral/gpio/cy_gpio.h **** *******************************************************************************/
 687:Generated_Source\PSoC6\pdl\drivers/peripheral/gpio/cy_gpio.h **** __STATIC_INLINE en_hsiom_sel_t Cy_GPIO_GetHSIOM(GPIO_PRT_Type* base, uint32_t pinNum)
 688:Generated_Source\PSoC6\pdl\drivers/peripheral/gpio/cy_gpio.h **** {
 689:Generated_Source\PSoC6\pdl\drivers/peripheral/gpio/cy_gpio.h ****     uint32_t returnValue;
 690:Generated_Source\PSoC6\pdl\drivers/peripheral/gpio/cy_gpio.h ****     uint32_t portNum;
 691:Generated_Source\PSoC6\pdl\drivers/peripheral/gpio/cy_gpio.h ****     HSIOM_PRT_V1_Type* portAddrHSIOM;
ARM GAS  C:\Users\gab_1\AppData\Local\Temp\ccTtYdci.s 			page 68


 692:Generated_Source\PSoC6\pdl\drivers/peripheral/gpio/cy_gpio.h ****     
 693:Generated_Source\PSoC6\pdl\drivers/peripheral/gpio/cy_gpio.h ****     CY_ASSERT_L2(CY_GPIO_IS_PIN_VALID(pinNum));
 694:Generated_Source\PSoC6\pdl\drivers/peripheral/gpio/cy_gpio.h **** 
 695:Generated_Source\PSoC6\pdl\drivers/peripheral/gpio/cy_gpio.h ****     portNum = ((uint32_t)(base) - CY_GPIO_BASE) / GPIO_PRT_SECTION_SIZE;
 696:Generated_Source\PSoC6\pdl\drivers/peripheral/gpio/cy_gpio.h ****     portAddrHSIOM = (HSIOM_PRT_V1_Type*)(CY_HSIOM_BASE + (HSIOM_PRT_SECTION_SIZE * portNum));
 697:Generated_Source\PSoC6\pdl\drivers/peripheral/gpio/cy_gpio.h **** 
 698:Generated_Source\PSoC6\pdl\drivers/peripheral/gpio/cy_gpio.h ****     if(pinNum < CY_GPIO_PRT_HALF)
 699:Generated_Source\PSoC6\pdl\drivers/peripheral/gpio/cy_gpio.h ****     {
 700:Generated_Source\PSoC6\pdl\drivers/peripheral/gpio/cy_gpio.h ****         returnValue = (HSIOM_PRT_PORT_SEL0(portAddrHSIOM) >> (pinNum << CY_GPIO_HSIOM_OFFSET)) & CY
 701:Generated_Source\PSoC6\pdl\drivers/peripheral/gpio/cy_gpio.h ****     }
 702:Generated_Source\PSoC6\pdl\drivers/peripheral/gpio/cy_gpio.h ****     else
 703:Generated_Source\PSoC6\pdl\drivers/peripheral/gpio/cy_gpio.h ****     {
 704:Generated_Source\PSoC6\pdl\drivers/peripheral/gpio/cy_gpio.h ****         pinNum -= CY_GPIO_PRT_HALF;
 705:Generated_Source\PSoC6\pdl\drivers/peripheral/gpio/cy_gpio.h ****         returnValue = (HSIOM_PRT_PORT_SEL1(portAddrHSIOM) >> (pinNum << CY_GPIO_HSIOM_OFFSET)) & CY
 706:Generated_Source\PSoC6\pdl\drivers/peripheral/gpio/cy_gpio.h ****     }
 707:Generated_Source\PSoC6\pdl\drivers/peripheral/gpio/cy_gpio.h **** 
 708:Generated_Source\PSoC6\pdl\drivers/peripheral/gpio/cy_gpio.h ****     return (en_hsiom_sel_t)returnValue;
 709:Generated_Source\PSoC6\pdl\drivers/peripheral/gpio/cy_gpio.h **** }
 710:Generated_Source\PSoC6\pdl\drivers/peripheral/gpio/cy_gpio.h **** 
 711:Generated_Source\PSoC6\pdl\drivers/peripheral/gpio/cy_gpio.h **** 
 712:Generated_Source\PSoC6\pdl\drivers/peripheral/gpio/cy_gpio.h **** /*******************************************************************************
 713:Generated_Source\PSoC6\pdl\drivers/peripheral/gpio/cy_gpio.h **** * Function Name: Cy_GPIO_PortToAddr
 714:Generated_Source\PSoC6\pdl\drivers/peripheral/gpio/cy_gpio.h **** ****************************************************************************//**
 715:Generated_Source\PSoC6\pdl\drivers/peripheral/gpio/cy_gpio.h **** *
 716:Generated_Source\PSoC6\pdl\drivers/peripheral/gpio/cy_gpio.h **** * Retrieves the port address based on the given port number.
 717:Generated_Source\PSoC6\pdl\drivers/peripheral/gpio/cy_gpio.h **** *
 718:Generated_Source\PSoC6\pdl\drivers/peripheral/gpio/cy_gpio.h **** * This is a helper function to calculate the port base address when given a port
 719:Generated_Source\PSoC6\pdl\drivers/peripheral/gpio/cy_gpio.h **** * number. It is to be used when pin access needs to be calculated at runtime.
 720:Generated_Source\PSoC6\pdl\drivers/peripheral/gpio/cy_gpio.h **** *
 721:Generated_Source\PSoC6\pdl\drivers/peripheral/gpio/cy_gpio.h **** * \param portNum
 722:Generated_Source\PSoC6\pdl\drivers/peripheral/gpio/cy_gpio.h **** * Port number
 723:Generated_Source\PSoC6\pdl\drivers/peripheral/gpio/cy_gpio.h **** *
 724:Generated_Source\PSoC6\pdl\drivers/peripheral/gpio/cy_gpio.h **** * \return
 725:Generated_Source\PSoC6\pdl\drivers/peripheral/gpio/cy_gpio.h **** * Base address of the port register structure
 726:Generated_Source\PSoC6\pdl\drivers/peripheral/gpio/cy_gpio.h **** *
 727:Generated_Source\PSoC6\pdl\drivers/peripheral/gpio/cy_gpio.h **** * \funcusage
 728:Generated_Source\PSoC6\pdl\drivers/peripheral/gpio/cy_gpio.h **** * \snippet gpio/gpio_v1_10_sut_01.cydsn/main_cm4.c snippet_Cy_GPIO_PortToAddr
 729:Generated_Source\PSoC6\pdl\drivers/peripheral/gpio/cy_gpio.h **** *
 730:Generated_Source\PSoC6\pdl\drivers/peripheral/gpio/cy_gpio.h **** *******************************************************************************/
 731:Generated_Source\PSoC6\pdl\drivers/peripheral/gpio/cy_gpio.h **** __STATIC_INLINE GPIO_PRT_Type* Cy_GPIO_PortToAddr(uint32_t portNum)
 732:Generated_Source\PSoC6\pdl\drivers/peripheral/gpio/cy_gpio.h **** {
 733:Generated_Source\PSoC6\pdl\drivers/peripheral/gpio/cy_gpio.h ****     GPIO_PRT_Type* portBase;
 734:Generated_Source\PSoC6\pdl\drivers/peripheral/gpio/cy_gpio.h ****     
 735:Generated_Source\PSoC6\pdl\drivers/peripheral/gpio/cy_gpio.h ****     if(portNum < (uint32_t)IOSS_GPIO_GPIO_PORT_NR)
 736:Generated_Source\PSoC6\pdl\drivers/peripheral/gpio/cy_gpio.h ****     {
 737:Generated_Source\PSoC6\pdl\drivers/peripheral/gpio/cy_gpio.h ****         portBase = (GPIO_PRT_Type *)(CY_GPIO_BASE + (GPIO_PRT_SECTION_SIZE * portNum));
 738:Generated_Source\PSoC6\pdl\drivers/peripheral/gpio/cy_gpio.h ****     }
 739:Generated_Source\PSoC6\pdl\drivers/peripheral/gpio/cy_gpio.h ****     else
 740:Generated_Source\PSoC6\pdl\drivers/peripheral/gpio/cy_gpio.h ****     {
 741:Generated_Source\PSoC6\pdl\drivers/peripheral/gpio/cy_gpio.h ****         /* Error: Return default base address */
 742:Generated_Source\PSoC6\pdl\drivers/peripheral/gpio/cy_gpio.h ****         portBase = (GPIO_PRT_Type *)(CY_GPIO_BASE);
 743:Generated_Source\PSoC6\pdl\drivers/peripheral/gpio/cy_gpio.h ****     }
 744:Generated_Source\PSoC6\pdl\drivers/peripheral/gpio/cy_gpio.h **** 
 745:Generated_Source\PSoC6\pdl\drivers/peripheral/gpio/cy_gpio.h ****     return (portBase);
 746:Generated_Source\PSoC6\pdl\drivers/peripheral/gpio/cy_gpio.h **** }
 747:Generated_Source\PSoC6\pdl\drivers/peripheral/gpio/cy_gpio.h **** 
 748:Generated_Source\PSoC6\pdl\drivers/peripheral/gpio/cy_gpio.h **** /** \} group_gpio_functions_init */
ARM GAS  C:\Users\gab_1\AppData\Local\Temp\ccTtYdci.s 			page 69


 749:Generated_Source\PSoC6\pdl\drivers/peripheral/gpio/cy_gpio.h **** 
 750:Generated_Source\PSoC6\pdl\drivers/peripheral/gpio/cy_gpio.h **** /**
 751:Generated_Source\PSoC6\pdl\drivers/peripheral/gpio/cy_gpio.h **** * \addtogroup group_gpio_functions_gpio
 752:Generated_Source\PSoC6\pdl\drivers/peripheral/gpio/cy_gpio.h **** * \{
 753:Generated_Source\PSoC6\pdl\drivers/peripheral/gpio/cy_gpio.h **** */
 754:Generated_Source\PSoC6\pdl\drivers/peripheral/gpio/cy_gpio.h **** 
 755:Generated_Source\PSoC6\pdl\drivers/peripheral/gpio/cy_gpio.h **** /*******************************************************************************
 756:Generated_Source\PSoC6\pdl\drivers/peripheral/gpio/cy_gpio.h **** * Function Name: Cy_GPIO_Read
 757:Generated_Source\PSoC6\pdl\drivers/peripheral/gpio/cy_gpio.h **** ****************************************************************************//**
 758:Generated_Source\PSoC6\pdl\drivers/peripheral/gpio/cy_gpio.h **** *
 759:Generated_Source\PSoC6\pdl\drivers/peripheral/gpio/cy_gpio.h **** * Reads the current logic level on the input buffer of the pin.
 760:Generated_Source\PSoC6\pdl\drivers/peripheral/gpio/cy_gpio.h **** *
 761:Generated_Source\PSoC6\pdl\drivers/peripheral/gpio/cy_gpio.h **** * \param base
 762:Generated_Source\PSoC6\pdl\drivers/peripheral/gpio/cy_gpio.h **** * Pointer to the pin's port register base address
 763:Generated_Source\PSoC6\pdl\drivers/peripheral/gpio/cy_gpio.h **** *
 764:Generated_Source\PSoC6\pdl\drivers/peripheral/gpio/cy_gpio.h **** * \param pinNum
 765:Generated_Source\PSoC6\pdl\drivers/peripheral/gpio/cy_gpio.h **** * Position of the pin bit-field within the port register.
 766:Generated_Source\PSoC6\pdl\drivers/peripheral/gpio/cy_gpio.h **** * Bit position 8 is the routed pin through the port glitch filter.
 767:Generated_Source\PSoC6\pdl\drivers/peripheral/gpio/cy_gpio.h **** *
 768:Generated_Source\PSoC6\pdl\drivers/peripheral/gpio/cy_gpio.h **** * \return
 769:Generated_Source\PSoC6\pdl\drivers/peripheral/gpio/cy_gpio.h **** * Logic level present on the pin
 770:Generated_Source\PSoC6\pdl\drivers/peripheral/gpio/cy_gpio.h **** *
 771:Generated_Source\PSoC6\pdl\drivers/peripheral/gpio/cy_gpio.h **** * \funcusage
 772:Generated_Source\PSoC6\pdl\drivers/peripheral/gpio/cy_gpio.h **** * \snippet gpio/gpio_v1_10_sut_01.cydsn/main_cm4.c snippet_Cy_GPIO_Read
 773:Generated_Source\PSoC6\pdl\drivers/peripheral/gpio/cy_gpio.h **** *
 774:Generated_Source\PSoC6\pdl\drivers/peripheral/gpio/cy_gpio.h **** *******************************************************************************/
 775:Generated_Source\PSoC6\pdl\drivers/peripheral/gpio/cy_gpio.h **** __STATIC_INLINE uint32_t Cy_GPIO_Read(GPIO_PRT_Type* base, uint32_t pinNum)
 776:Generated_Source\PSoC6\pdl\drivers/peripheral/gpio/cy_gpio.h **** {
 777:Generated_Source\PSoC6\pdl\drivers/peripheral/gpio/cy_gpio.h ****     CY_ASSERT_L2(CY_GPIO_IS_FILTER_PIN_VALID(pinNum));
 778:Generated_Source\PSoC6\pdl\drivers/peripheral/gpio/cy_gpio.h ****     
 779:Generated_Source\PSoC6\pdl\drivers/peripheral/gpio/cy_gpio.h ****     return (GPIO_PRT_IN(base) >> (pinNum)) & CY_GPIO_IN_MASK;
 780:Generated_Source\PSoC6\pdl\drivers/peripheral/gpio/cy_gpio.h **** }
 781:Generated_Source\PSoC6\pdl\drivers/peripheral/gpio/cy_gpio.h **** 
 782:Generated_Source\PSoC6\pdl\drivers/peripheral/gpio/cy_gpio.h **** 
 783:Generated_Source\PSoC6\pdl\drivers/peripheral/gpio/cy_gpio.h **** /*******************************************************************************
 784:Generated_Source\PSoC6\pdl\drivers/peripheral/gpio/cy_gpio.h **** * Function Name: Cy_GPIO_Write
 785:Generated_Source\PSoC6\pdl\drivers/peripheral/gpio/cy_gpio.h **** ****************************************************************************//**
 786:Generated_Source\PSoC6\pdl\drivers/peripheral/gpio/cy_gpio.h **** *
 787:Generated_Source\PSoC6\pdl\drivers/peripheral/gpio/cy_gpio.h **** * Write a logic 0 or logic 1 state to the output driver.
 788:Generated_Source\PSoC6\pdl\drivers/peripheral/gpio/cy_gpio.h **** *
 789:Generated_Source\PSoC6\pdl\drivers/peripheral/gpio/cy_gpio.h **** * This function should be used only for software driven pins. It does not have
 790:Generated_Source\PSoC6\pdl\drivers/peripheral/gpio/cy_gpio.h **** * any effect on peripheral driven pins.
 791:Generated_Source\PSoC6\pdl\drivers/peripheral/gpio/cy_gpio.h **** *
 792:Generated_Source\PSoC6\pdl\drivers/peripheral/gpio/cy_gpio.h **** * \param base
 793:Generated_Source\PSoC6\pdl\drivers/peripheral/gpio/cy_gpio.h **** * Pointer to the pin's port register base address
 794:Generated_Source\PSoC6\pdl\drivers/peripheral/gpio/cy_gpio.h **** *
 795:Generated_Source\PSoC6\pdl\drivers/peripheral/gpio/cy_gpio.h **** * \param pinNum
 796:Generated_Source\PSoC6\pdl\drivers/peripheral/gpio/cy_gpio.h **** * Position of the pin bit-field within the port register
 797:Generated_Source\PSoC6\pdl\drivers/peripheral/gpio/cy_gpio.h **** *
 798:Generated_Source\PSoC6\pdl\drivers/peripheral/gpio/cy_gpio.h **** * \param value
 799:Generated_Source\PSoC6\pdl\drivers/peripheral/gpio/cy_gpio.h **** * Logic level to drive out on the pin
 800:Generated_Source\PSoC6\pdl\drivers/peripheral/gpio/cy_gpio.h **** *
 801:Generated_Source\PSoC6\pdl\drivers/peripheral/gpio/cy_gpio.h **** * \funcusage
 802:Generated_Source\PSoC6\pdl\drivers/peripheral/gpio/cy_gpio.h **** * \snippet gpio/gpio_v1_10_sut_01.cydsn/main_cm4.c snippet_Cy_GPIO_Write
 803:Generated_Source\PSoC6\pdl\drivers/peripheral/gpio/cy_gpio.h **** *
 804:Generated_Source\PSoC6\pdl\drivers/peripheral/gpio/cy_gpio.h **** *******************************************************************************/
 805:Generated_Source\PSoC6\pdl\drivers/peripheral/gpio/cy_gpio.h **** __STATIC_INLINE void Cy_GPIO_Write(GPIO_PRT_Type* base, uint32_t pinNum, uint32_t value)
ARM GAS  C:\Users\gab_1\AppData\Local\Temp\ccTtYdci.s 			page 70


 806:Generated_Source\PSoC6\pdl\drivers/peripheral/gpio/cy_gpio.h **** {
 807:Generated_Source\PSoC6\pdl\drivers/peripheral/gpio/cy_gpio.h ****     CY_ASSERT_L2(CY_GPIO_IS_PIN_VALID(pinNum));
 808:Generated_Source\PSoC6\pdl\drivers/peripheral/gpio/cy_gpio.h ****     CY_ASSERT_L2(CY_GPIO_IS_VALUE_VALID(value));
 809:Generated_Source\PSoC6\pdl\drivers/peripheral/gpio/cy_gpio.h **** 
 810:Generated_Source\PSoC6\pdl\drivers/peripheral/gpio/cy_gpio.h ****     /* Thread-safe: Directly access the pin registers instead of base->OUT */
 811:Generated_Source\PSoC6\pdl\drivers/peripheral/gpio/cy_gpio.h ****     if(0UL == value)
 812:Generated_Source\PSoC6\pdl\drivers/peripheral/gpio/cy_gpio.h ****     {
 813:Generated_Source\PSoC6\pdl\drivers/peripheral/gpio/cy_gpio.h ****         GPIO_PRT_OUT_CLR(base) = CY_GPIO_OUT_MASK << pinNum;
 814:Generated_Source\PSoC6\pdl\drivers/peripheral/gpio/cy_gpio.h ****     }
 815:Generated_Source\PSoC6\pdl\drivers/peripheral/gpio/cy_gpio.h ****     else
 816:Generated_Source\PSoC6\pdl\drivers/peripheral/gpio/cy_gpio.h ****     {
 817:Generated_Source\PSoC6\pdl\drivers/peripheral/gpio/cy_gpio.h ****         GPIO_PRT_OUT_SET(base) = CY_GPIO_OUT_MASK << pinNum;
 737              		.loc 5 817 0
 738 0002 1025     		movs	r5, #16
 739 0004 1D4B     		ldr	r3, .L39
 740 0006 9D60     		str	r5, [r3, #8]
 741              	.LVL78:
 742              	.LBE119:
 743              	.LBE118:
 744              	.LBB120:
 745              	.LBB121:
 746              	.LBB122:
 747              		.loc 4 1447 0
 748 0008 1D4C     		ldr	r4, .L39+4
 749 000a 1E49     		ldr	r1, .L39+8
 750 000c 2046     		mov	r0, r4
 751 000e FFF7FEFF 		bl	Cy_SCB_WriteString
 752              	.LVL79:
 753              	.LBE122:
 754              	.LBE121:
 755              	.LBE120:
 188:main_cm4.c    ****     //Cy_GPIO_Write(max30102_power_0_PORT, max30102_power_0_NUM, 1);
 189:main_cm4.c    ****     Cy_GPIO_Write(BOUTON1_0_PORT,BOUTON1_0_NUM,1);
 190:main_cm4.c    ****     UART_1_PutString("Initializing\r\n");
 191:main_cm4.c    ****     write_MAX30102_Register(0x09, 0x40);
 756              		.loc 2 191 0
 757 0012 4021     		movs	r1, #64
 758 0014 0920     		movs	r0, #9
 759 0016 FFF7FEFF 		bl	write_MAX30102_Register
 760              	.LVL80:
 192:main_cm4.c    ****     CyDelay(1000);
 761              		.loc 2 192 0
 762 001a 4FF47A70 		mov	r0, #1000
 763 001e FFF7FEFF 		bl	Cy_SysLib_Delay
 764              	.LVL81:
 193:main_cm4.c    ****     
 194:main_cm4.c    ****     write_MAX30102_Register(0x02, 0xc0);
 765              		.loc 2 194 0
 766 0022 C021     		movs	r1, #192
 767 0024 0220     		movs	r0, #2
 768 0026 FFF7FEFF 		bl	write_MAX30102_Register
 769              	.LVL82:
 195:main_cm4.c    ****     write_MAX30102_Register(0x03, 0x00);
 770              		.loc 2 195 0
 771 002a 0021     		movs	r1, #0
 772 002c 0320     		movs	r0, #3
 773 002e FFF7FEFF 		bl	write_MAX30102_Register
ARM GAS  C:\Users\gab_1\AppData\Local\Temp\ccTtYdci.s 			page 71


 774              	.LVL83:
 196:main_cm4.c    ****     /*write_MAX30102_Register(0x04, 0x00);
 197:main_cm4.c    ****     write_MAX30102_Register(0x05, 0x00);*/
 198:main_cm4.c    ****     
 199:main_cm4.c    ****     write_MAX30102_Register(0x06, 0x00);
 775              		.loc 2 199 0
 776 0032 0021     		movs	r1, #0
 777 0034 0620     		movs	r0, #6
 778 0036 FFF7FEFF 		bl	write_MAX30102_Register
 779              	.LVL84:
 200:main_cm4.c    ****     write_MAX30102_Register(0x08, 0x0f);
 780              		.loc 2 200 0
 781 003a 0F21     		movs	r1, #15
 782 003c 0820     		movs	r0, #8
 783 003e FFF7FEFF 		bl	write_MAX30102_Register
 784              	.LVL85:
 201:main_cm4.c    ****     write_MAX30102_Register(0x09, 0x03);
 785              		.loc 2 201 0
 786 0042 0321     		movs	r1, #3
 787 0044 0920     		movs	r0, #9
 788 0046 FFF7FEFF 		bl	write_MAX30102_Register
 789              	.LVL86:
 202:main_cm4.c    ****     write_MAX30102_Register(0x0A, 0b01000111);
 790              		.loc 2 202 0
 791 004a 4721     		movs	r1, #71
 792 004c 0A20     		movs	r0, #10
 793 004e FFF7FEFF 		bl	write_MAX30102_Register
 794              	.LVL87:
 203:main_cm4.c    ****     
 204:main_cm4.c    ****     write_MAX30102_Register(0x0C, courantDEL); //changement intensité
 795              		.loc 2 204 0
 796 0052 0D4E     		ldr	r6, .L39+12
 797 0054 3168     		ldr	r1, [r6]
 798 0056 C9B2     		uxtb	r1, r1
 799 0058 0C20     		movs	r0, #12
 800 005a FFF7FEFF 		bl	write_MAX30102_Register
 801              	.LVL88:
 205:main_cm4.c    ****     write_MAX30102_Register(0x0D, courantDEL);// ^
 802              		.loc 2 205 0
 803 005e 3168     		ldr	r1, [r6]
 804 0060 C9B2     		uxtb	r1, r1
 805 0062 0D20     		movs	r0, #13
 806 0064 FFF7FEFF 		bl	write_MAX30102_Register
 807              	.LVL89:
 206:main_cm4.c    ****     write_MAX30102_Register(0x10, 0x7f);
 808              		.loc 2 206 0
 809 0068 7F21     		movs	r1, #127
 810 006a 2846     		mov	r0, r5
 811 006c FFF7FEFF 		bl	write_MAX30102_Register
 812              	.LVL90:
 813              	.LBB123:
 814              	.LBB124:
 815              	.LBB125:
 816              		.loc 4 1447 0
 817 0070 0649     		ldr	r1, .L39+16
 818 0072 2046     		mov	r0, r4
 819 0074 FFF7FEFF 		bl	Cy_SCB_WriteString
ARM GAS  C:\Users\gab_1\AppData\Local\Temp\ccTtYdci.s 			page 72


 820              	.LVL91:
 821              	.LBE125:
 822              	.LBE124:
 823              	.LBE123:
 207:main_cm4.c    ****     
 208:main_cm4.c    ****     
 209:main_cm4.c    ****     UART_1_PutString("Initializing done\r\n");
 210:main_cm4.c    ****     //UART_1_PutString("hello2\r\n");
 211:main_cm4.c    ****     
 212:main_cm4.c    ****     //read_MAX30102_Register(0x00);
 213:main_cm4.c    ****    // UART_1_PutString("hello8\r\n");
 214:main_cm4.c    ****     return true;
 215:main_cm4.c    **** }
 824              		.loc 2 215 0
 825 0078 0120     		movs	r0, #1
 826 007a 70BD     		pop	{r4, r5, r6, pc}
 827              	.L40:
 828              		.align	2
 829              	.L39:
 830 007c 80043240 		.word	1077019776
 831 0080 00006640 		.word	1080426496
 832 0084 44000000 		.word	.LC3
 833 0088 00000000 		.word	courantDEL
 834 008c 54000000 		.word	.LC4
 835              		.cfi_endproc
 836              	.LFE702:
 837              		.size	maxim_max30102_init, .-maxim_max30102_init
 838              		.global	__aeabi_f2d
 839              		.global	__aeabi_dmul
 840              		.global	__aeabi_dsub
 841              		.global	__aeabi_dadd
 842              		.global	__aeabi_d2f
 843              		.global	__aeabi_dcmpgt
 844              		.section	.text.saturation,"ax",%progbits
 845              		.align	2
 846              		.global	saturation
 847              		.thumb
 848              		.thumb_func
 849              		.type	saturation, %function
 850              	saturation:
 851              	.LFB703:
 216:main_cm4.c    **** 
 217:main_cm4.c    **** // FIN AQUISITION
 218:main_cm4.c    **** 
 219:main_cm4.c    **** 
 220:main_cm4.c    **** // TRAITEMENT DE SIGNAL
 221:main_cm4.c    **** 
 222:main_cm4.c    **** // Définition des coefficients des filtres
 223:main_cm4.c    **** const float32_t PasseHaut [51]= {-0.0005 , -0.0005, -0.0006 , -0.0007 , -0.0009 , -0.0011 , -0.0013
 224:main_cm4.c    **** const float32_t PasseBas[51]= { 0.0020, 0.0022 , 0.0026 , 0.0031 , 0.0040 , 0.0050 , 0.0063 , 0.007
 225:main_cm4.c    **** 
 226:main_cm4.c    **** // Définitions de variables importantes 
 227:main_cm4.c    **** uint32_t blockSize = BLOCK_SIZE;
 228:main_cm4.c    **** arm_fir_instance_f32 S; 
 229:main_cm4.c    **** volatile float SpO2 =0;
 230:main_cm4.c    **** volatile int bpm =0;
 231:main_cm4.c    **** volatile int NbreMax =0; //combien de maximums dans le signal traité pour etre capable de trouver 
ARM GAS  C:\Users\gab_1\AppData\Local\Temp\ccTtYdci.s 			page 73


 232:main_cm4.c    **** volatile int NbreSec =0; //permet de suivre l'évolution du signal dans le temps
 233:main_cm4.c    **** 
 234:main_cm4.c    **** // Déclaration des bornes supérieure et inférieure pour le rythme cardiaque (peut être modifié
 235:main_cm4.c    **** volatile int borneSup = 130; 
 236:main_cm4.c    **** volatile int borneInf = 40;
 237:main_cm4.c    **** 
 238:main_cm4.c    **** 
 239:main_cm4.c    **** // Déclaration des vecteurs utilisés pour stocker et filtrer les données
 240:main_cm4.c    **** float32 IrFiltre[1000]; //tableau avec données filtrées
 241:main_cm4.c    **** float32 RedFiltre[1000];
 242:main_cm4.c    **** float IrFiltre1[1000]; 
 243:main_cm4.c    **** float RedFiltre1[1000];
 244:main_cm4.c    **** float dataIR[1000];
 245:main_cm4.c    **** float dataRed[1000];
 246:main_cm4.c    **** 
 247:main_cm4.c    **** 
 248:main_cm4.c    **** /* ----CALCUL DE LA SATURATION ET DE LA FRÉQUENCE CARDIAQUE---- */
 249:main_cm4.c    **** 
 250:main_cm4.c    **** void saturation(uint32_t*DataIR, uint32_t *DataRed){ 
 852              		.loc 2 250 0
 853              		.cfi_startproc
 854              		@ args = 0, pretend = 0, frame = 32
 855              		@ frame_needed = 0, uses_anonymous_args = 0
 856              	.LVL92:
 857 0000 2DE9F04F 		push	{r4, r5, r6, r7, r8, r9, r10, fp, lr}
 858              		.cfi_def_cfa_offset 36
 859              		.cfi_offset 4, -36
 860              		.cfi_offset 5, -32
 861              		.cfi_offset 6, -28
 862              		.cfi_offset 7, -24
 863              		.cfi_offset 8, -20
 864              		.cfi_offset 9, -16
 865              		.cfi_offset 10, -12
 866              		.cfi_offset 11, -8
 867              		.cfi_offset 14, -4
 868 0004 2DED028B 		vpush.64	{d8}
 869              		.cfi_def_cfa_offset 44
 870              		.cfi_offset 80, -44
 871              		.cfi_offset 81, -40
 872 0008 8BB0     		sub	sp, sp, #44
 873              		.cfi_def_cfa_offset 88
 874              	.LVL93:
 875              	.LBB126:
 876              	.LBB127:
 877              		.loc 5 817 0
 878 000a 0222     		movs	r2, #2
 879 000c BE4B     		ldr	r3, .L63+32
 880 000e 9A60     		str	r2, [r3, #8]
 881              	.LVL94:
 882              	.LBE127:
 883              	.LBE126:
 884              	.LBB128:
 251:main_cm4.c    ****    
 252:main_cm4.c    ****     //Éteindre la DEL (elle s'allumera si l'alarme est déclenchée)
 253:main_cm4.c    ****     Cy_GPIO_Write(Pin_1_0_PORT, Pin_1_0_NUM,1);
 254:main_cm4.c    ****     
 255:main_cm4.c    ****     // Conversion des types de données pour passer de l'acquisition au traitement de signal
ARM GAS  C:\Users\gab_1\AppData\Local\Temp\ccTtYdci.s 			page 74


 256:main_cm4.c    ****     for(int i =0; i < 1000; i++){
 885              		.loc 2 256 0
 886 0010 0023     		movs	r3, #0
 887 0012 15E0     		b	.L42
 888              	.LVL95:
 889              	.L43:
 257:main_cm4.c    ****         dataIR[i] = (float) DataIR[i];
 890              		.loc 2 257 0 discriminator 3
 891 0014 9A00     		lsls	r2, r3, #2
 892 0016 50F82340 		ldr	r4, [r0, r3, lsl #2]
 893 001a 07EE904A 		vmov	s15, r4	@ int
 894 001e F8EE677A 		vcvt.f32.u32	s15, s15
 895 0022 BA4C     		ldr	r4, .L63+36
 896 0024 1444     		add	r4, r4, r2
 897 0026 C4ED007A 		vstr.32	s15, [r4]
 258:main_cm4.c    ****         dataRed[i] = (float) DataRed[i];
 898              		.loc 2 258 0 discriminator 3
 899 002a 51F82340 		ldr	r4, [r1, r3, lsl #2]
 900 002e 07EE904A 		vmov	s15, r4	@ int
 901 0032 F8EE677A 		vcvt.f32.u32	s15, s15
 902 0036 B64C     		ldr	r4, .L63+40
 903 0038 2244     		add	r2, r2, r4
 904 003a C2ED007A 		vstr.32	s15, [r2]
 256:main_cm4.c    ****         dataIR[i] = (float) DataIR[i];
 905              		.loc 2 256 0 discriminator 3
 906 003e 0133     		adds	r3, r3, #1
 907              	.LVL96:
 908              	.L42:
 256:main_cm4.c    ****         dataIR[i] = (float) DataIR[i];
 909              		.loc 2 256 0 is_stmt 0 discriminator 1
 910 0040 B3F57A7F 		cmp	r3, #1000
 911 0044 E6DB     		blt	.L43
 912              	.LBE128:
 259:main_cm4.c    ****     }
 260:main_cm4.c    ****        
 261:main_cm4.c    **** // Trouver les composantes DC sur le signal non-traité
 262:main_cm4.c    **** 	float DCIR =0;
 913              		.loc 2 262 0 is_stmt 1
 914 0046 0024     		movs	r4, #0
 915 0048 0994     		str	r4, [sp, #36]	@ float
 263:main_cm4.c    **** 	float DCRED =0;
 916              		.loc 2 263 0
 917 004a 0894     		str	r4, [sp, #32]	@ float
 264:main_cm4.c    **** 	arm_mean_f32(dataIR, BLOCK_SIZE,&DCIR);
 918              		.loc 2 264 0
 919 004c DFF8BC82 		ldr	r8, .L63+36
 920 0050 09AA     		add	r2, sp, #36
 921 0052 4FF47A71 		mov	r1, #1000
 922              	.LVL97:
 923 0056 4046     		mov	r0, r8
 924              	.LVL98:
 925 0058 FFF7FEFF 		bl	arm_mean_f32
 926              	.LVL99:
 265:main_cm4.c    **** 	arm_mean_f32(dataRed, BLOCK_SIZE, &DCRED);
 927              		.loc 2 265 0
 928 005c DFF8B0B2 		ldr	fp, .L63+40
 929 0060 08AA     		add	r2, sp, #32
ARM GAS  C:\Users\gab_1\AppData\Local\Temp\ccTtYdci.s 			page 75


 930 0062 4FF47A71 		mov	r1, #1000
 931 0066 5846     		mov	r0, fp
 932 0068 FFF7FEFF 		bl	arm_mean_f32
 933              	.LVL100:
 266:main_cm4.c    **** 
 267:main_cm4.c    **** // Filtrage des signaux AC et DC 
 268:main_cm4.c    ****     
 269:main_cm4.c    **** // Filtre passe-haut    
 270:main_cm4.c    ****     arm_fir_init_f32(&S, FILTER_TAP_HAUT, (float32_t*)&PasseHaut[0], &firStateF32[0], blockSize);  
 934              		.loc 2 270 0
 935 006c DFF8CC92 		ldr	r9, .L63+84
 936 0070 A84F     		ldr	r7, .L63+44
 937 0072 A94D     		ldr	r5, .L63+48
 938 0074 DFF8B8A2 		ldr	r10, .L63+72
 939 0078 DAF80030 		ldr	r3, [r10]
 940 007c 0093     		str	r3, [sp]
 941 007e 4B46     		mov	r3, r9
 942 0080 3A46     		mov	r2, r7
 943 0082 3321     		movs	r1, #51
 944 0084 2846     		mov	r0, r5
 945 0086 FFF7FEFF 		bl	arm_fir_init_f32
 946              	.LVL101:
 271:main_cm4.c    ****     arm_fir_f32(&S, dataIR, IrFiltre1, BLOCK_SIZE);
 947              		.loc 2 271 0
 948 008a A44E     		ldr	r6, .L63+52
 949 008c 4FF47A73 		mov	r3, #1000
 950 0090 3246     		mov	r2, r6
 951 0092 4146     		mov	r1, r8
 952 0094 2846     		mov	r0, r5
 953 0096 FFF7FEFF 		bl	arm_fir_f32
 954              	.LVL102:
 272:main_cm4.c    ****     arm_fir_f32(&S, dataRed, RedFiltre1,BLOCK_SIZE);
 955              		.loc 2 272 0
 956 009a DFF89082 		ldr	r8, .L63+68
 957 009e 4FF47A73 		mov	r3, #1000
 958 00a2 4246     		mov	r2, r8
 959 00a4 5946     		mov	r1, fp
 960 00a6 2846     		mov	r0, r5
 961 00a8 FFF7FEFF 		bl	arm_fir_f32
 962              	.LVL103:
 273:main_cm4.c    **** // Filtre passe-bas
 274:main_cm4.c    ****     arm_fir_init_f32(&S, FILTER_TAP_BAS, (float32_t*)&PasseBas[0], &firStateF32[0], blockSize);
 963              		.loc 2 274 0
 964 00ac DAF80030 		ldr	r3, [r10]
 965 00b0 0093     		str	r3, [sp]
 966 00b2 4B46     		mov	r3, r9
 967 00b4 07F1CC02 		add	r2, r7, #204
 968 00b8 3321     		movs	r1, #51
 969 00ba 2846     		mov	r0, r5
 970 00bc FFF7FEFF 		bl	arm_fir_init_f32
 971              	.LVL104:
 275:main_cm4.c    ****     arm_fir_f32(&S, IrFiltre1, IrFiltre, BLOCK_SIZE);
 972              		.loc 2 275 0
 973 00c0 974F     		ldr	r7, .L63+56
 974 00c2 4FF47A73 		mov	r3, #1000
 975 00c6 3A46     		mov	r2, r7
 976 00c8 3146     		mov	r1, r6
ARM GAS  C:\Users\gab_1\AppData\Local\Temp\ccTtYdci.s 			page 76


 977 00ca 2846     		mov	r0, r5
 978 00cc FFF7FEFF 		bl	arm_fir_f32
 979              	.LVL105:
 276:main_cm4.c    ****     arm_fir_f32(&S, RedFiltre1, RedFiltre,BLOCK_SIZE);
 980              		.loc 2 276 0
 981 00d0 944E     		ldr	r6, .L63+60
 982 00d2 4FF47A73 		mov	r3, #1000
 983 00d6 3246     		mov	r2, r6
 984 00d8 4146     		mov	r1, r8
 985 00da 2846     		mov	r0, r5
 986 00dc FFF7FEFF 		bl	arm_fir_f32
 987              	.LVL106:
 277:main_cm4.c    ****     
 278:main_cm4.c    ****     
 279:main_cm4.c    **** // Trouver les composantes AC à partir du signal filtré
 280:main_cm4.c    **** 	float maxIR =0;             
 988              		.loc 2 280 0
 989 00e0 0794     		str	r4, [sp, #28]	@ float
 281:main_cm4.c    **** 	float maxRed =0;
 990              		.loc 2 281 0
 991 00e2 0694     		str	r4, [sp, #24]	@ float
 282:main_cm4.c    **** 	float minIR =0;
 992              		.loc 2 282 0
 993 00e4 0594     		str	r4, [sp, #20]	@ float
 283:main_cm4.c    **** 	float minRed =0;	
 994              		.loc 2 283 0
 995 00e6 0494     		str	r4, [sp, #16]	@ float
 284:main_cm4.c    **** 	uint32_t position;
 285:main_cm4.c    ****    
 286:main_cm4.c    **** 	arm_max_f32(IrFiltre, BLOCK_SIZE, &maxIR, &position);
 996              		.loc 2 286 0
 997 00e8 03AB     		add	r3, sp, #12
 998 00ea 07AA     		add	r2, sp, #28
 999 00ec 4FF47A71 		mov	r1, #1000
 1000 00f0 3846     		mov	r0, r7
 1001 00f2 FFF7FEFF 		bl	arm_max_f32
 1002              	.LVL107:
 287:main_cm4.c    **** 	arm_max_f32(RedFiltre, BLOCK_SIZE, &maxRed, &position);
 1003              		.loc 2 287 0
 1004 00f6 03AB     		add	r3, sp, #12
 1005 00f8 06AA     		add	r2, sp, #24
 1006 00fa 4FF47A71 		mov	r1, #1000
 1007 00fe 3046     		mov	r0, r6
 1008 0100 FFF7FEFF 		bl	arm_max_f32
 1009              	.LVL108:
 288:main_cm4.c    **** 	arm_min_f32(IrFiltre, BLOCK_SIZE, &minIR, &position);
 1010              		.loc 2 288 0
 1011 0104 03AB     		add	r3, sp, #12
 1012 0106 05AA     		add	r2, sp, #20
 1013 0108 4FF47A71 		mov	r1, #1000
 1014 010c 3846     		mov	r0, r7
 1015 010e FFF7FEFF 		bl	arm_min_f32
 1016              	.LVL109:
 289:main_cm4.c    **** 	arm_min_f32(RedFiltre, BLOCK_SIZE, &minRed, &position);
 1017              		.loc 2 289 0
 1018 0112 03AB     		add	r3, sp, #12
 1019 0114 04AA     		add	r2, sp, #16
ARM GAS  C:\Users\gab_1\AppData\Local\Temp\ccTtYdci.s 			page 77


 1020 0116 4FF47A71 		mov	r1, #1000
 1021 011a 3046     		mov	r0, r6
 1022 011c FFF7FEFF 		bl	arm_min_f32
 1023              	.LVL110:
 290:main_cm4.c    **** 
 291:main_cm4.c    **** 	float ACIr = maxIR - minIR;
 1024              		.loc 2 291 0
 1025 0120 DDED078A 		vldr.32	s17, [sp, #28]
 1026 0124 DDED057A 		vldr.32	s15, [sp, #20]
 1027 0128 78EEE77A 		vsub.f32	s15, s17, s15
 1028 012c 17EE905A 		vmov	r5, s15
 1029              	.LVL111:
 292:main_cm4.c    **** 	float ACRed = maxRed - minRed;
 1030              		.loc 2 292 0
 1031 0130 9DED047A 		vldr.32	s14, [sp, #16]
 1032 0134 DDED067A 		vldr.32	s15, [sp, #24]
 1033 0138 77EEC77A 		vsub.f32	s15, s15, s14
 1034              	.LVL112:
 293:main_cm4.c    ****     
 294:main_cm4.c    **** // Trouver la saturation dans l'intervale:
 295:main_cm4.c    **** 	float R = (ACRed/DCRED)/(ACIr/DCIR);
 1035              		.loc 2 295 0
 1036 013c DDED086A 		vldr.32	s13, [sp, #32]
 1037 0140 87EEA67A 		vdiv.f32	s14, s15, s13
 1038 0144 DDED096A 		vldr.32	s13, [sp, #36]
 1039 0148 06EE105A 		vmov	s12, r5
 1040 014c C6EE267A 		vdiv.f32	s15, s12, s13
 1041              	.LVL113:
 1042 0150 87EE278A 		vdiv.f32	s16, s14, s15
 1043              	.LVL114:
 296:main_cm4.c    **** 	//SpO2 = -16.67*(R*R) + 8.33*R + 96;  // autre formule - fonctionne seulement à 40 mA dans les DE
 297:main_cm4.c    ****     
 298:main_cm4.c    ****     SpO2 = 1.5958422*(R*R) -34.6596622*R + 105.6898759;
 1044              		.loc 2 298 0
 1045 0154 68EE087A 		vmul.f32	s15, s16, s16
 1046 0158 17EE900A 		vmov	r0, s15
 1047 015c FFF7FEFF 		bl	__aeabi_f2d
 1048              	.LVL115:
 1049 0160 61A3     		adr	r3, .L63
 1050 0162 D3E90023 		ldrd	r2, [r3]
 1051 0166 FFF7FEFF 		bl	__aeabi_dmul
 1052              	.LVL116:
 1053 016a 0646     		mov	r6, r0
 1054 016c 0F46     		mov	r7, r1
 1055 016e 18EE100A 		vmov	r0, s16
 1056 0172 FFF7FEFF 		bl	__aeabi_f2d
 1057              	.LVL117:
 1058 0176 5EA3     		adr	r3, .L63+8
 1059 0178 D3E90023 		ldrd	r2, [r3]
 1060 017c FFF7FEFF 		bl	__aeabi_dmul
 1061              	.LVL118:
 1062 0180 0246     		mov	r2, r0
 1063 0182 0B46     		mov	r3, r1
 1064 0184 3046     		mov	r0, r6
 1065 0186 3946     		mov	r1, r7
 1066 0188 FFF7FEFF 		bl	__aeabi_dsub
 1067              	.LVL119:
ARM GAS  C:\Users\gab_1\AppData\Local\Temp\ccTtYdci.s 			page 78


 1068 018c 5AA3     		adr	r3, .L63+16
 1069 018e D3E90023 		ldrd	r2, [r3]
 1070 0192 FFF7FEFF 		bl	__aeabi_dadd
 1071              	.LVL120:
 1072 0196 FFF7FEFF 		bl	__aeabi_d2f
 1073              	.LVL121:
 1074 019a 634B     		ldr	r3, .L63+64
 1075 019c 03F64442 		addw	r2, r3, #3140
 1076 01a0 1060     		str	r0, [r2]	@ float
 299:main_cm4.c    ****    
 300:main_cm4.c    ****     
 301:main_cm4.c    **** // Trouver les maximums dans la période en cours
 302:main_cm4.c    **** 	NbreSec = NbreSec+1;
 1077              		.loc 2 302 0
 1078 01a2 D3F8482C 		ldr	r2, [r3, #3144]
 1079 01a6 0132     		adds	r2, r2, #1
 1080 01a8 C3F8482C 		str	r2, [r3, #3144]
 1081              	.LVL122:
 1082              	.LBB129:
 303:main_cm4.c    ****     for(int i=1; i<(BLOCK_SIZE-1); i++){
 1083              		.loc 2 303 0
 1084 01ac 0124     		movs	r4, #1
 1085 01ae 35E0     		b	.L44
 1086              	.LVL123:
 1087              	.L49:
 304:main_cm4.c    **** 		if((IrFiltre[i] > IrFiltre[i-1]) && (IrFiltre[i] > IrFiltre[i+1]) && (IrFiltre[i] >0.4*ACIr)){
 1088              		.loc 2 304 0
 1089 01b0 5B4B     		ldr	r3, .L63+56
 1090 01b2 03EB8402 		add	r2, r3, r4, lsl #2
 1091 01b6 D2ED007A 		vldr.32	s15, [r2]
 1092 01ba 621E     		subs	r2, r4, #1
 1093 01bc 03EB8203 		add	r3, r3, r2, lsl #2
 1094 01c0 93ED007A 		vldr.32	s14, [r3]
 1095 01c4 F4EEC77A 		vcmpe.f32	s15, s14
 1096 01c8 F1EE10FA 		vmrs	APSR_nzcv, FPSCR
 1097 01cc 25DD     		ble	.L45
 1098              		.loc 2 304 0 is_stmt 0 discriminator 1
 1099 01ce 631C     		adds	r3, r4, #1
 1100 01d0 534A     		ldr	r2, .L63+56
 1101 01d2 02EB8303 		add	r3, r2, r3, lsl #2
 1102 01d6 93ED007A 		vldr.32	s14, [r3]
 1103 01da F4EEC77A 		vcmpe.f32	s15, s14
 1104 01de F1EE10FA 		vmrs	APSR_nzcv, FPSCR
 1105 01e2 1ADD     		ble	.L45
 1106              		.loc 2 304 0 discriminator 2
 1107 01e4 17EE900A 		vmov	r0, s15
 1108 01e8 FFF7FEFF 		bl	__aeabi_f2d
 1109              	.LVL124:
 1110 01ec 0646     		mov	r6, r0
 1111 01ee 0F46     		mov	r7, r1
 1112 01f0 2846     		mov	r0, r5	@ float
 1113 01f2 FFF7FEFF 		bl	__aeabi_f2d
 1114              	.LVL125:
 1115 01f6 42A3     		adr	r3, .L63+24
 1116 01f8 D3E90023 		ldrd	r2, [r3]
 1117 01fc FFF7FEFF 		bl	__aeabi_dmul
 1118              	.LVL126:
ARM GAS  C:\Users\gab_1\AppData\Local\Temp\ccTtYdci.s 			page 79


 1119 0200 0246     		mov	r2, r0
 1120 0202 0B46     		mov	r3, r1
 1121 0204 3046     		mov	r0, r6
 1122 0206 3946     		mov	r1, r7
 1123 0208 FFF7FEFF 		bl	__aeabi_dcmpgt
 1124              	.LVL127:
 1125 020c 28B1     		cbz	r0, .L45
 305:main_cm4.c    **** 			NbreMax =NbreMax +1;
 1126              		.loc 2 305 0 is_stmt 1
 1127 020e 464A     		ldr	r2, .L63+64
 1128 0210 D2F84C3C 		ldr	r3, [r2, #3148]
 1129 0214 0133     		adds	r3, r3, #1
 1130 0216 C2F84C3C 		str	r3, [r2, #3148]
 1131              	.L45:
 303:main_cm4.c    ****     for(int i=1; i<(BLOCK_SIZE-1); i++){
 1132              		.loc 2 303 0 discriminator 2
 1133 021a 0134     		adds	r4, r4, #1
 1134              	.LVL128:
 1135              	.L44:
 303:main_cm4.c    ****     for(int i=1; i<(BLOCK_SIZE-1); i++){
 1136              		.loc 2 303 0 is_stmt 0 discriminator 1
 1137 021c 40F2E633 		movw	r3, #998
 1138 0220 9C42     		cmp	r4, r3
 1139 0222 C5DD     		ble	.L49
 1140 0224 0021     		movs	r1, #0
 1141 0226 14E0     		b	.L50
 1142              	.LVL129:
 1143              	.L51:
 1144              	.LBE129:
 1145              	.LBB130:
 306:main_cm4.c    **** 		}        
 307:main_cm4.c    **** 	}
 308:main_cm4.c    ****    
 309:main_cm4.c    **** // Réinitialiser les vecteurs dont nous n'avons plus besoin   
 310:main_cm4.c    ****     for(int i =0; i < 1000; i++){
 311:main_cm4.c    ****         dataIR[i] = 0;
 1146              		.loc 2 311 0 is_stmt 1 discriminator 3
 1147 0228 8B00     		lsls	r3, r1, #2
 1148 022a 3848     		ldr	r0, .L63+36
 1149 022c 1844     		add	r0, r0, r3
 1150 022e 0022     		movs	r2, #0
 1151 0230 0260     		str	r2, [r0]	@ float
 312:main_cm4.c    ****         IrFiltre[i] = 0;
 1152              		.loc 2 312 0 discriminator 3
 1153 0232 3B48     		ldr	r0, .L63+56
 1154 0234 1844     		add	r0, r0, r3
 1155 0236 0260     		str	r2, [r0]	@ float
 313:main_cm4.c    ****         IrFiltre1[i] = 0;
 1156              		.loc 2 313 0 discriminator 3
 1157 0238 3848     		ldr	r0, .L63+52
 1158 023a 1844     		add	r0, r0, r3
 1159 023c 0260     		str	r2, [r0]	@ float
 314:main_cm4.c    ****         dataRed[i] = 0;
 1160              		.loc 2 314 0 discriminator 3
 1161 023e 3448     		ldr	r0, .L63+40
 1162 0240 1844     		add	r0, r0, r3
 1163 0242 0260     		str	r2, [r0]	@ float
ARM GAS  C:\Users\gab_1\AppData\Local\Temp\ccTtYdci.s 			page 80


 315:main_cm4.c    ****         RedFiltre1[i] =0;
 1164              		.loc 2 315 0 discriminator 3
 1165 0244 3948     		ldr	r0, .L63+68
 1166 0246 1844     		add	r0, r0, r3
 1167 0248 0260     		str	r2, [r0]	@ float
 316:main_cm4.c    ****         RedFiltre[i] =0;
 1168              		.loc 2 316 0 discriminator 3
 1169 024a 3648     		ldr	r0, .L63+60
 1170 024c 0344     		add	r3, r3, r0
 1171 024e 1A60     		str	r2, [r3]	@ float
 310:main_cm4.c    ****         dataIR[i] = 0;
 1172              		.loc 2 310 0 discriminator 3
 1173 0250 0131     		adds	r1, r1, #1
 1174              	.LVL130:
 1175              	.L50:
 310:main_cm4.c    ****         dataIR[i] = 0;
 1176              		.loc 2 310 0 is_stmt 0 discriminator 1
 1177 0252 B1F57A7F 		cmp	r1, #1000
 1178 0256 E7DB     		blt	.L51
 1179              	.LBE130:
 317:main_cm4.c    ****     }
 318:main_cm4.c    ****     
 319:main_cm4.c    ****     
 320:main_cm4.c    **** // Calcul du bpm
 321:main_cm4.c    ****     if(NbreSec ==1){
 1180              		.loc 2 321 0 is_stmt 1
 1181 0258 334B     		ldr	r3, .L63+64
 1182 025a D3F8483C 		ldr	r3, [r3, #3144]
 1183 025e 012B     		cmp	r3, #1
 1184 0260 06D1     		bne	.L52
 322:main_cm4.c    ****         bpm = 3*NbreMax; // Dans le traitement Matlab, on faisait *6. Ici, *3 après tests.
 1185              		.loc 2 322 0
 1186 0262 314A     		ldr	r2, .L63+64
 1187 0264 D2F84C3C 		ldr	r3, [r2, #3148]
 1188 0268 03EB4303 		add	r3, r3, r3, lsl #1
 1189 026c C2F8503C 		str	r3, [r2, #3152]
 1190              	.L52:
 323:main_cm4.c    ****     }
 324:main_cm4.c    ****     if(NbreSec == 2){
 1191              		.loc 2 324 0
 1192 0270 2D4B     		ldr	r3, .L63+64
 1193 0272 D3F8483C 		ldr	r3, [r3, #3144]
 1194 0276 022B     		cmp	r3, #2
 1195 0278 0ED1     		bne	.L53
 325:main_cm4.c    ****         bpm = (NbreMax*3)/2; // Sur Matlab, *3. En C, *3/2 donne de meilleurs résultats.
 1196              		.loc 2 325 0
 1197 027a 2B4A     		ldr	r2, .L63+64
 1198 027c D2F84C3C 		ldr	r3, [r2, #3148]
 1199 0280 03EB4303 		add	r3, r3, r3, lsl #1
 1200 0284 03EBD373 		add	r3, r3, r3, lsr #31
 1201 0288 5B10     		asrs	r3, r3, #1
 1202 028a C2F8503C 		str	r3, [r2, #3152]
 326:main_cm4.c    ****         NbreMax =0;
 1203              		.loc 2 326 0
 1204 028e 0023     		movs	r3, #0
 1205 0290 C2F84C3C 		str	r3, [r2, #3148]
 327:main_cm4.c    ****         NbreSec =0;
ARM GAS  C:\Users\gab_1\AppData\Local\Temp\ccTtYdci.s 			page 81


 1206              		.loc 2 327 0
 1207 0294 C2F8483C 		str	r3, [r2, #3144]
 1208              	.L53:
 328:main_cm4.c    ****     }
 329:main_cm4.c    ****     
 330:main_cm4.c    ****     /* ---DÉCLENCHEMENT DE L'ALARME SI LE RYTHME CARDIAQUE À L'EXTÉRIEUR DES BORNES---*/
 331:main_cm4.c    ****     if((bpm > borneSup)|| (bpm < borneInf)){
 1209              		.loc 2 331 0
 1210 0298 234B     		ldr	r3, .L63+64
 1211 029a D3F8502C 		ldr	r2, [r3, #3152]
 1212 029e 244B     		ldr	r3, .L63+72
 1213 02a0 5B68     		ldr	r3, [r3, #4]
 1214 02a2 9A42     		cmp	r2, r3
 1215 02a4 06DC     		bgt	.L54
 1216              		.loc 2 331 0 is_stmt 0 discriminator 1
 1217 02a6 204B     		ldr	r3, .L63+64
 1218 02a8 D3F8502C 		ldr	r2, [r3, #3152]
 1219 02ac 204B     		ldr	r3, .L63+72
 1220 02ae 9B68     		ldr	r3, [r3, #8]
 1221 02b0 9A42     		cmp	r2, r3
 1222 02b2 02DA     		bge	.L55
 1223              	.L54:
 1224              	.LVL131:
 1225              	.LBB131:
 1226              	.LBB132:
 813:Generated_Source\PSoC6\pdl\drivers/peripheral/gpio/cy_gpio.h ****     }
 1227              		.loc 5 813 0 is_stmt 1
 1228 02b4 0222     		movs	r2, #2
 1229 02b6 144B     		ldr	r3, .L63+32
 1230 02b8 5A60     		str	r2, [r3, #4]
 1231              	.LVL132:
 1232              	.L55:
 1233              	.LBE132:
 1234              	.LBE131:
 332:main_cm4.c    ****             Cy_GPIO_Write(Pin_1_0_PORT, Pin_1_0_NUM,0);
 333:main_cm4.c    ****     }
 334:main_cm4.c    ****     
 335:main_cm4.c    ****     if (maxIR < 900){
 1235              		.loc 2 335 0
 1236 02ba DFED1E7A 		vldr.32	s15, .L63+76
 1237 02be F4EEE78A 		vcmpe.f32	s17, s15
 1238 02c2 F1EE10FA 		vmrs	APSR_nzcv, FPSCR
 1239 02c6 08D5     		bpl	.L41
 336:main_cm4.c    ****         SpO2 = 666; // pour avertir l'utilisateur que le doigt n'a pas encore été placé.
 1240              		.loc 2 336 0
 1241 02c8 174B     		ldr	r3, .L63+64
 1242 02ca 03F64442 		addw	r2, r3, #3140
 1243 02ce 1A49     		ldr	r1, .L63+80
 1244              	.LVL133:
 1245 02d0 1160     		str	r1, [r2]	@ float
 337:main_cm4.c    ****         bpm = 666;
 1246              		.loc 2 337 0
 1247 02d2 40F29A22 		movw	r2, #666
 1248 02d6 C3F8502C 		str	r2, [r3, #3152]
 1249              	.L41:
 338:main_cm4.c    ****     }
 339:main_cm4.c    ****     
ARM GAS  C:\Users\gab_1\AppData\Local\Temp\ccTtYdci.s 			page 82


 340:main_cm4.c    ****     
 341:main_cm4.c    **** }
 1250              		.loc 2 341 0
 1251 02da 0BB0     		add	sp, sp, #44
 1252              		.cfi_def_cfa_offset 44
 1253              		@ sp needed
 1254 02dc BDEC028B 		vldm	sp!, {d8}
 1255              		.cfi_restore 80
 1256              		.cfi_restore 81
 1257              		.cfi_def_cfa_offset 36
 1258              	.LVL134:
 1259 02e0 BDE8F08F 		pop	{r4, r5, r6, r7, r8, r9, r10, fp, pc}
 1260              	.LVL135:
 1261              	.L64:
 1262 02e4 AFF30080 		.align	3
 1263              	.L63:
 1264 02e8 213AA9D4 		.word	-727107039
 1265 02ec 9188F93F 		.word	1073318033
 1266 02f0 26B49BCF 		.word	-811879386
 1267 02f4 6F544140 		.word	1078023279
 1268 02f8 1C333FED 		.word	-314625252
 1269 02fc 266C5A40 		.word	1079667750
 1270 0300 9A999999 		.word	-1717986918
 1271 0304 9999D93F 		.word	1071225241
 1272 0308 80053240 		.word	1077020032
 1273 030c 00000000 		.word	dataIR
 1274 0310 00000000 		.word	dataRed
 1275 0314 00000000 		.word	.LANCHOR1
 1276 0318 00000000 		.word	S
 1277 031c 00000000 		.word	IrFiltre1
 1278 0320 00000000 		.word	IrFiltre
 1279 0324 00000000 		.word	RedFiltre
 1280 0328 F8100000 		.word	.LANCHOR3
 1281 032c 00000000 		.word	RedFiltre1
 1282 0330 00000000 		.word	.LANCHOR2
 1283 0334 00006144 		.word	1147207680
 1284 0338 00802644 		.word	1143373824
 1285 033c 2C000000 		.word	.LANCHOR0+44
 1286              		.cfi_endproc
 1287              	.LFE703:
 1288              		.size	saturation, .-saturation
 1289              		.section	.text.interrupt_MAX30102,"ax",%progbits
 1290              		.align	2
 1291              		.global	interrupt_MAX30102
 1292              		.thumb
 1293              		.thumb_func
 1294              		.type	interrupt_MAX30102, %function
 1295              	interrupt_MAX30102:
 1296              	.LFB701:
 155:main_cm4.c    ****     
 1297              		.loc 2 155 0
 1298              		.cfi_startproc
 1299              		@ args = 0, pretend = 0, frame = 152
 1300              		@ frame_needed = 0, uses_anonymous_args = 0
 1301 0000 F0B5     		push	{r4, r5, r6, r7, lr}
 1302              		.cfi_def_cfa_offset 20
 1303              		.cfi_offset 4, -20
ARM GAS  C:\Users\gab_1\AppData\Local\Temp\ccTtYdci.s 			page 83


 1304              		.cfi_offset 5, -16
 1305              		.cfi_offset 6, -12
 1306              		.cfi_offset 7, -8
 1307              		.cfi_offset 14, -4
 1308 0002 A7B0     		sub	sp, sp, #156
 1309              		.cfi_def_cfa_offset 176
 1310              	.LVL136:
 1311              	.LBB150:
 1312              	.LBB151:
 1313              	.LBB152:
 1314              		.loc 4 1447 0
 1315 0004 194D     		ldr	r5, .L68
 1316 0006 1A49     		ldr	r1, .L68+4
 1317 0008 2846     		mov	r0, r5
 1318 000a FFF7FEFF 		bl	Cy_SCB_WriteString
 1319              	.LVL137:
 1320              	.LBE152:
 1321              	.LBE151:
 1322              	.LBE150:
 164:main_cm4.c    ****     UART_1_PutString("Reading done ");
 1323              		.loc 2 164 0
 1324 000e 194C     		ldr	r4, .L68+8
 1325 0010 2088     		ldrh	r0, [r4]
 1326 0012 8000     		lsls	r0, r0, #2
 1327 0014 184F     		ldr	r7, .L68+12
 1328 0016 194E     		ldr	r6, .L68+16
 1329 0018 3918     		adds	r1, r7, r0
 1330 001a 3044     		add	r0, r0, r6
 1331 001c FFF7FEFF 		bl	read_FIFO_DATA
 1332              	.LVL138:
 1333              	.LBB153:
 1334              	.LBB154:
 1335              	.LBB155:
 1336              		.loc 4 1447 0
 1337 0020 1749     		ldr	r1, .L68+20
 1338 0022 2846     		mov	r0, r5
 1339 0024 FFF7FEFF 		bl	Cy_SCB_WriteString
 1340              	.LVL139:
 1341              	.LBE155:
 1342              	.LBE154:
 1343              	.LBE153:
 168:main_cm4.c    ****     
 1344              		.loc 2 168 0
 1345 0028 2288     		ldrh	r2, [r4]
 1346 002a 57F82230 		ldr	r3, [r7, r2, lsl #2]
 1347 002e 56F82220 		ldr	r2, [r6, r2, lsl #2]
 1348 0032 1449     		ldr	r1, .L68+24
 1349 0034 6846     		mov	r0, sp
 1350 0036 FFF7FEFF 		bl	sprintf
 1351              	.LVL140:
 1352              	.LBB156:
 1353              	.LBB157:
 1354              	.LBB158:
 1355              		.loc 4 1447 0
 1356 003a 6946     		mov	r1, sp
 1357 003c 2846     		mov	r0, r5
 1358 003e FFF7FEFF 		bl	Cy_SCB_WriteString
ARM GAS  C:\Users\gab_1\AppData\Local\Temp\ccTtYdci.s 			page 84


 1359              	.LVL141:
 1360              	.LBE158:
 1361              	.LBE157:
 1362              	.LBE156:
 172:main_cm4.c    ****     
 1363              		.loc 2 172 0
 1364 0042 2388     		ldrh	r3, [r4]
 1365 0044 0133     		adds	r3, r3, #1
 1366 0046 9BB2     		uxth	r3, r3
 1367 0048 2380     		strh	r3, [r4]	@ movhi
 174:main_cm4.c    ****        
 1368              		.loc 2 174 0
 1369 004a B3F57A7F 		cmp	r3, #1000
 1370 004e 06D1     		bne	.L66
 1371              	.LBB159:
 176:main_cm4.c    ****         indice=0;}
 1372              		.loc 2 176 0
 1373 0050 0D4B     		ldr	r3, .L68+28
 1374 0052 D968     		ldr	r1, [r3, #12]
 1375 0054 1869     		ldr	r0, [r3, #16]
 1376 0056 FFF7FEFF 		bl	saturation
 1377              	.LVL142:
 177:main_cm4.c    ****     
 1378              		.loc 2 177 0
 1379 005a 0022     		movs	r2, #0
 1380 005c 2280     		strh	r2, [r4]	@ movhi
 1381              	.L66:
 1382              	.LVL143:
 1383              	.LBE159:
 1384              	.LBB160:
 1385              	.LBB161:
 1386              	.LBB162:
 1387              		.loc 4 1447 0
 1388 005e 0B49     		ldr	r1, .L68+32
 1389 0060 0248     		ldr	r0, .L68
 1390 0062 FFF7FEFF 		bl	Cy_SCB_WriteString
 1391              	.LVL144:
 1392              	.LBE162:
 1393              	.LBE161:
 1394              	.LBE160:
 183:main_cm4.c    **** 
 1395              		.loc 2 183 0
 1396 0066 27B0     		add	sp, sp, #156
 1397              		.cfi_def_cfa_offset 20
 1398              		@ sp needed
 1399 0068 F0BD     		pop	{r4, r5, r6, r7, pc}
 1400              	.L69:
 1401 006a 00BF     		.align	2
 1402              	.L68:
 1403 006c 00006640 		.word	1080426496
 1404 0070 68000000 		.word	.LC5
 1405 0074 00000000 		.word	indice
 1406 0078 00000000 		.word	bufferINFRAROUGE
 1407 007c 00000000 		.word	bufferROUGE
 1408 0080 74000000 		.word	.LC6
 1409 0084 84000000 		.word	.LC7
 1410 0088 00000000 		.word	.LANCHOR2
ARM GAS  C:\Users\gab_1\AppData\Local\Temp\ccTtYdci.s 			page 85


 1411 008c 94000000 		.word	.LC8
 1412              		.cfi_endproc
 1413              	.LFE701:
 1414              		.size	interrupt_MAX30102, .-interrupt_MAX30102
 1415              		.section	.text.motionTask,"ax",%progbits
 1416              		.align	2
 1417              		.global	motionTask
 1418              		.thumb
 1419              		.thumb_func
 1420              		.type	motionTask, %function
 1421              	motionTask:
 1422              	.LFB696:
  63:main_cm4.c    ****     (void)arg;
 1423              		.loc 2 63 0
 1424              		.cfi_startproc
 1425              		@ args = 0, pretend = 0, frame = 16
 1426              		@ frame_needed = 0, uses_anonymous_args = 0
 1427              	.LVL145:
 1428 0000 10B5     		push	{r4, lr}
 1429              		.cfi_def_cfa_offset 8
 1430              		.cfi_offset 4, -8
 1431              		.cfi_offset 14, -4
 1432 0002 84B0     		sub	sp, sp, #16
 1433              		.cfi_def_cfa_offset 24
  65:main_cm4.c    ****     sensorsDeviceInit();
 1434              		.loc 2 65 0
 1435 0004 FFF7FEFF 		bl	I2C_1_Start
 1436              	.LVL146:
  66:main_cm4.c    ****     struct bmi160_sensor_data acc;
 1437              		.loc 2 66 0
 1438 0008 FFF7FEFF 		bl	sensorsDeviceInit
 1439              	.LVL147:
  68:main_cm4.c    **** 
 1440              		.loc 2 68 0
 1441 000c 0024     		movs	r4, #0
 1442              	.LVL148:
 1443              	.L73:
  72:main_cm4.c    ****         //printf("x=%4d y=%4d z=%4d\r\n",acc.x,acc.y,acc.z); // Décommenter pour voir les coordonn
 1444              		.loc 2 72 0
 1445 000e 124B     		ldr	r3, .L75
 1446 0010 0022     		movs	r2, #0
 1447 0012 01A9     		add	r1, sp, #4
 1448 0014 0120     		movs	r0, #1
 1449 0016 FFF7FEFF 		bl	bmi160_get_sensor_data
 1450              	.LVL149:
  75:main_cm4.c    ****         
 1451              		.loc 2 75 0
 1452 001a 0220     		movs	r0, #2
 1453 001c FFF7FEFF 		bl	vTaskDelay
 1454              	.LVL150:
  78:main_cm4.c    ****         {   
 1455              		.loc 2 78 0
 1456 0020 BDF90430 		ldrsh	r3, [sp, #4]
 1457 0024 C834     		adds	r4, r4, #200
 1458              	.LVL151:
 1459 0026 A342     		cmp	r3, r4
 1460 0028 0ADD     		ble	.L71
ARM GAS  C:\Users\gab_1\AppData\Local\Temp\ccTtYdci.s 			page 86


  78:main_cm4.c    ****         {   
 1461              		.loc 2 78 0 is_stmt 0 discriminator 1
 1462 002a 0C4A     		ldr	r2, .L75+4
 1463 002c 1278     		ldrb	r2, [r2]	@ zero_extendqisi2
 1464 002e 3AB1     		cbz	r2, .L71
 1465              	.LVL152:
 1466              	.LBB172:
 1467              	.LBB173:
 1468              	.LBB174:
 1469              		.loc 4 1447 0 is_stmt 1
 1470 0030 0B49     		ldr	r1, .L75+8
 1471 0032 0C48     		ldr	r0, .L75+12
 1472 0034 FFF7FEFF 		bl	Cy_SCB_WriteString
 1473              	.LVL153:
 1474              	.LBE174:
 1475              	.LBE173:
 1476              	.LBE172:
 1477              	.LBB175:
 1478              	.LBB176:
 813:Generated_Source\PSoC6\pdl\drivers/peripheral/gpio/cy_gpio.h ****     }
 1479              		.loc 5 813 0
 1480 0038 0822     		movs	r2, #8
 1481 003a 0B4B     		ldr	r3, .L75+16
 1482 003c 5A60     		str	r2, [r3, #4]
 1483 003e 07E0     		b	.L72
 1484              	.LVL154:
 1485              	.L71:
 1486              	.LBE176:
 1487              	.LBE175:
  84:main_cm4.c    ****             Cy_GPIO_Write(RED_PORT,RED_NUM,1);
 1488              		.loc 2 84 0
 1489 0040 B3F5167F 		cmp	r3, #600
 1490 0044 04DA     		bge	.L72
 1491              	.LVL155:
 1492              	.LBB177:
 1493              	.LBB178:
 1494              	.LBB179:
 1495              		.loc 5 817 0
 1496 0046 0822     		movs	r2, #8
 1497 0048 074B     		ldr	r3, .L75+16
 1498 004a 9A60     		str	r2, [r3, #8]
 1499              	.LVL156:
 1500              	.LBE179:
 1501              	.LBE178:
  87:main_cm4.c    ****         }    
 1502              		.loc 2 87 0
 1503 004c FFF7FEFF 		bl	interrupt_MAX30102
 1504              	.LVL157:
 1505              	.L72:
 1506              	.LBE177:
  90:main_cm4.c    ****     }
 1507              		.loc 2 90 0
 1508 0050 BDF90440 		ldrsh	r4, [sp, #4]
 1509              	.LVL158:
  91:main_cm4.c    **** }
 1510              		.loc 2 91 0
 1511 0054 DBE7     		b	.L73
ARM GAS  C:\Users\gab_1\AppData\Local\Temp\ccTtYdci.s 			page 87


 1512              	.L76:
 1513 0056 00BF     		.align	2
 1514              	.L75:
 1515 0058 00000000 		.word	.LANCHOR0
 1516 005c 00000000 		.word	flagAlarme
 1517 0060 A0000000 		.word	.LC9
 1518 0064 00006640 		.word	1080426496
 1519 0068 00003240 		.word	1077018624
 1520              		.cfi_endproc
 1521              	.LFE696:
 1522              		.size	motionTask, .-motionTask
 1523              		.section	.text.main,"ax",%progbits
 1524              		.align	2
 1525              		.global	main
 1526              		.thumb
 1527              		.thumb_func
 1528              		.type	main, %function
 1529              	main:
 1530              	.LFB704:
 342:main_cm4.c    **** 
 343:main_cm4.c    **** 
 344:main_cm4.c    **** 
 345:main_cm4.c    **** 
 346:main_cm4.c    **** int main(void)
 347:main_cm4.c    **** {
 1531              		.loc 2 347 0
 1532              		.cfi_startproc
 1533              		@ Volatile: function does not return.
 1534              		@ args = 0, pretend = 0, frame = 0
 1535              		@ frame_needed = 0, uses_anonymous_args = 0
 1536 0000 00B5     		push	{lr}
 1537              		.cfi_def_cfa_offset 4
 1538              		.cfi_offset 14, -4
 1539 0002 83B0     		sub	sp, sp, #12
 1540              		.cfi_def_cfa_offset 16
 1541              	.LBB180:
 1542              	.LBB181:
 1543              		.file 6 "Generated_Source\\PSoC6\\pdl\\cmsis/include/cmsis_gcc.h"
   1:Generated_Source\PSoC6\pdl\cmsis/include/cmsis_gcc.h **** /**************************************************************************//**
   2:Generated_Source\PSoC6\pdl\cmsis/include/cmsis_gcc.h ****  * @file     cmsis_gcc.h
   3:Generated_Source\PSoC6\pdl\cmsis/include/cmsis_gcc.h ****  * @brief    CMSIS compiler GCC header file
   4:Generated_Source\PSoC6\pdl\cmsis/include/cmsis_gcc.h ****  * @version  V5.0.3
   5:Generated_Source\PSoC6\pdl\cmsis/include/cmsis_gcc.h ****  * @date     16. January 2018
   6:Generated_Source\PSoC6\pdl\cmsis/include/cmsis_gcc.h ****  ******************************************************************************/
   7:Generated_Source\PSoC6\pdl\cmsis/include/cmsis_gcc.h **** /*
   8:Generated_Source\PSoC6\pdl\cmsis/include/cmsis_gcc.h ****  * Copyright (c) 2009-2017 ARM Limited. All rights reserved.
   9:Generated_Source\PSoC6\pdl\cmsis/include/cmsis_gcc.h ****  *
  10:Generated_Source\PSoC6\pdl\cmsis/include/cmsis_gcc.h ****  * SPDX-License-Identifier: Apache-2.0
  11:Generated_Source\PSoC6\pdl\cmsis/include/cmsis_gcc.h ****  *
  12:Generated_Source\PSoC6\pdl\cmsis/include/cmsis_gcc.h ****  * Licensed under the Apache License, Version 2.0 (the License); you may
  13:Generated_Source\PSoC6\pdl\cmsis/include/cmsis_gcc.h ****  * not use this file except in compliance with the License.
  14:Generated_Source\PSoC6\pdl\cmsis/include/cmsis_gcc.h ****  * You may obtain a copy of the License at
  15:Generated_Source\PSoC6\pdl\cmsis/include/cmsis_gcc.h ****  *
  16:Generated_Source\PSoC6\pdl\cmsis/include/cmsis_gcc.h ****  * www.apache.org/licenses/LICENSE-2.0
  17:Generated_Source\PSoC6\pdl\cmsis/include/cmsis_gcc.h ****  *
  18:Generated_Source\PSoC6\pdl\cmsis/include/cmsis_gcc.h ****  * Unless required by applicable law or agreed to in writing, software
  19:Generated_Source\PSoC6\pdl\cmsis/include/cmsis_gcc.h ****  * distributed under the License is distributed on an AS IS BASIS, WITHOUT
ARM GAS  C:\Users\gab_1\AppData\Local\Temp\ccTtYdci.s 			page 88


  20:Generated_Source\PSoC6\pdl\cmsis/include/cmsis_gcc.h ****  * WARRANTIES OR CONDITIONS OF ANY KIND, either express or implied.
  21:Generated_Source\PSoC6\pdl\cmsis/include/cmsis_gcc.h ****  * See the License for the specific language governing permissions and
  22:Generated_Source\PSoC6\pdl\cmsis/include/cmsis_gcc.h ****  * limitations under the License.
  23:Generated_Source\PSoC6\pdl\cmsis/include/cmsis_gcc.h ****  */
  24:Generated_Source\PSoC6\pdl\cmsis/include/cmsis_gcc.h **** 
  25:Generated_Source\PSoC6\pdl\cmsis/include/cmsis_gcc.h **** #ifndef __CMSIS_GCC_H
  26:Generated_Source\PSoC6\pdl\cmsis/include/cmsis_gcc.h **** #define __CMSIS_GCC_H
  27:Generated_Source\PSoC6\pdl\cmsis/include/cmsis_gcc.h **** 
  28:Generated_Source\PSoC6\pdl\cmsis/include/cmsis_gcc.h **** /* ignore some GCC warnings */
  29:Generated_Source\PSoC6\pdl\cmsis/include/cmsis_gcc.h **** #pragma GCC diagnostic push
  30:Generated_Source\PSoC6\pdl\cmsis/include/cmsis_gcc.h **** #pragma GCC diagnostic ignored "-Wsign-conversion"
  31:Generated_Source\PSoC6\pdl\cmsis/include/cmsis_gcc.h **** #pragma GCC diagnostic ignored "-Wconversion"
  32:Generated_Source\PSoC6\pdl\cmsis/include/cmsis_gcc.h **** #pragma GCC diagnostic ignored "-Wunused-parameter"
  33:Generated_Source\PSoC6\pdl\cmsis/include/cmsis_gcc.h **** 
  34:Generated_Source\PSoC6\pdl\cmsis/include/cmsis_gcc.h **** /* Fallback for __has_builtin */
  35:Generated_Source\PSoC6\pdl\cmsis/include/cmsis_gcc.h **** #ifndef __has_builtin
  36:Generated_Source\PSoC6\pdl\cmsis/include/cmsis_gcc.h ****   #define __has_builtin(x) (0)
  37:Generated_Source\PSoC6\pdl\cmsis/include/cmsis_gcc.h **** #endif
  38:Generated_Source\PSoC6\pdl\cmsis/include/cmsis_gcc.h **** 
  39:Generated_Source\PSoC6\pdl\cmsis/include/cmsis_gcc.h **** /* CMSIS compiler specific defines */
  40:Generated_Source\PSoC6\pdl\cmsis/include/cmsis_gcc.h **** #ifndef   __ASM
  41:Generated_Source\PSoC6\pdl\cmsis/include/cmsis_gcc.h ****   #define __ASM                                  __asm
  42:Generated_Source\PSoC6\pdl\cmsis/include/cmsis_gcc.h **** #endif
  43:Generated_Source\PSoC6\pdl\cmsis/include/cmsis_gcc.h **** #ifndef   __INLINE
  44:Generated_Source\PSoC6\pdl\cmsis/include/cmsis_gcc.h ****   #define __INLINE                               inline
  45:Generated_Source\PSoC6\pdl\cmsis/include/cmsis_gcc.h **** #endif
  46:Generated_Source\PSoC6\pdl\cmsis/include/cmsis_gcc.h **** #ifndef   __STATIC_INLINE
  47:Generated_Source\PSoC6\pdl\cmsis/include/cmsis_gcc.h ****   #define __STATIC_INLINE                        static inline
  48:Generated_Source\PSoC6\pdl\cmsis/include/cmsis_gcc.h **** #endif
  49:Generated_Source\PSoC6\pdl\cmsis/include/cmsis_gcc.h **** #ifndef   __STATIC_FORCEINLINE                 
  50:Generated_Source\PSoC6\pdl\cmsis/include/cmsis_gcc.h ****   #define __STATIC_FORCEINLINE                   __attribute__((always_inline)) static inline
  51:Generated_Source\PSoC6\pdl\cmsis/include/cmsis_gcc.h **** #endif                                           
  52:Generated_Source\PSoC6\pdl\cmsis/include/cmsis_gcc.h **** #ifndef   __NO_RETURN
  53:Generated_Source\PSoC6\pdl\cmsis/include/cmsis_gcc.h ****   #define __NO_RETURN                            __attribute__((__noreturn__))
  54:Generated_Source\PSoC6\pdl\cmsis/include/cmsis_gcc.h **** #endif
  55:Generated_Source\PSoC6\pdl\cmsis/include/cmsis_gcc.h **** #ifndef   __USED
  56:Generated_Source\PSoC6\pdl\cmsis/include/cmsis_gcc.h ****   #define __USED                                 __attribute__((used))
  57:Generated_Source\PSoC6\pdl\cmsis/include/cmsis_gcc.h **** #endif
  58:Generated_Source\PSoC6\pdl\cmsis/include/cmsis_gcc.h **** #ifndef   __WEAK
  59:Generated_Source\PSoC6\pdl\cmsis/include/cmsis_gcc.h ****   #define __WEAK                                 __attribute__((weak))
  60:Generated_Source\PSoC6\pdl\cmsis/include/cmsis_gcc.h **** #endif
  61:Generated_Source\PSoC6\pdl\cmsis/include/cmsis_gcc.h **** #ifndef   __PACKED
  62:Generated_Source\PSoC6\pdl\cmsis/include/cmsis_gcc.h ****   #define __PACKED                               __attribute__((packed, aligned(1)))
  63:Generated_Source\PSoC6\pdl\cmsis/include/cmsis_gcc.h **** #endif
  64:Generated_Source\PSoC6\pdl\cmsis/include/cmsis_gcc.h **** #ifndef   __PACKED_STRUCT
  65:Generated_Source\PSoC6\pdl\cmsis/include/cmsis_gcc.h ****   #define __PACKED_STRUCT                        struct __attribute__((packed, aligned(1)))
  66:Generated_Source\PSoC6\pdl\cmsis/include/cmsis_gcc.h **** #endif
  67:Generated_Source\PSoC6\pdl\cmsis/include/cmsis_gcc.h **** #ifndef   __PACKED_UNION
  68:Generated_Source\PSoC6\pdl\cmsis/include/cmsis_gcc.h ****   #define __PACKED_UNION                         union __attribute__((packed, aligned(1)))
  69:Generated_Source\PSoC6\pdl\cmsis/include/cmsis_gcc.h **** #endif
  70:Generated_Source\PSoC6\pdl\cmsis/include/cmsis_gcc.h **** #ifndef   __UNALIGNED_UINT32        /* deprecated */
  71:Generated_Source\PSoC6\pdl\cmsis/include/cmsis_gcc.h ****   #pragma GCC diagnostic push
  72:Generated_Source\PSoC6\pdl\cmsis/include/cmsis_gcc.h ****   #pragma GCC diagnostic ignored "-Wpacked"
  73:Generated_Source\PSoC6\pdl\cmsis/include/cmsis_gcc.h ****   #pragma GCC diagnostic ignored "-Wattributes"
  74:Generated_Source\PSoC6\pdl\cmsis/include/cmsis_gcc.h ****   struct __attribute__((packed)) T_UINT32 { uint32_t v; };
  75:Generated_Source\PSoC6\pdl\cmsis/include/cmsis_gcc.h ****   #pragma GCC diagnostic pop
  76:Generated_Source\PSoC6\pdl\cmsis/include/cmsis_gcc.h ****   #define __UNALIGNED_UINT32(x)                  (((struct T_UINT32 *)(x))->v)
ARM GAS  C:\Users\gab_1\AppData\Local\Temp\ccTtYdci.s 			page 89


  77:Generated_Source\PSoC6\pdl\cmsis/include/cmsis_gcc.h **** #endif
  78:Generated_Source\PSoC6\pdl\cmsis/include/cmsis_gcc.h **** #ifndef   __UNALIGNED_UINT16_WRITE
  79:Generated_Source\PSoC6\pdl\cmsis/include/cmsis_gcc.h ****   #pragma GCC diagnostic push
  80:Generated_Source\PSoC6\pdl\cmsis/include/cmsis_gcc.h ****   #pragma GCC diagnostic ignored "-Wpacked"
  81:Generated_Source\PSoC6\pdl\cmsis/include/cmsis_gcc.h ****   #pragma GCC diagnostic ignored "-Wattributes"
  82:Generated_Source\PSoC6\pdl\cmsis/include/cmsis_gcc.h ****   __PACKED_STRUCT T_UINT16_WRITE { uint16_t v; };
  83:Generated_Source\PSoC6\pdl\cmsis/include/cmsis_gcc.h ****   #pragma GCC diagnostic pop
  84:Generated_Source\PSoC6\pdl\cmsis/include/cmsis_gcc.h ****   #define __UNALIGNED_UINT16_WRITE(addr, val)    (void)((((struct T_UINT16_WRITE *)(void *)(addr))-
  85:Generated_Source\PSoC6\pdl\cmsis/include/cmsis_gcc.h **** #endif
  86:Generated_Source\PSoC6\pdl\cmsis/include/cmsis_gcc.h **** #ifndef   __UNALIGNED_UINT16_READ
  87:Generated_Source\PSoC6\pdl\cmsis/include/cmsis_gcc.h ****   #pragma GCC diagnostic push
  88:Generated_Source\PSoC6\pdl\cmsis/include/cmsis_gcc.h ****   #pragma GCC diagnostic ignored "-Wpacked"
  89:Generated_Source\PSoC6\pdl\cmsis/include/cmsis_gcc.h ****   #pragma GCC diagnostic ignored "-Wattributes"
  90:Generated_Source\PSoC6\pdl\cmsis/include/cmsis_gcc.h ****   __PACKED_STRUCT T_UINT16_READ { uint16_t v; };
  91:Generated_Source\PSoC6\pdl\cmsis/include/cmsis_gcc.h ****   #pragma GCC diagnostic pop
  92:Generated_Source\PSoC6\pdl\cmsis/include/cmsis_gcc.h ****   #define __UNALIGNED_UINT16_READ(addr)          (((const struct T_UINT16_READ *)(const void *)(add
  93:Generated_Source\PSoC6\pdl\cmsis/include/cmsis_gcc.h **** #endif
  94:Generated_Source\PSoC6\pdl\cmsis/include/cmsis_gcc.h **** #ifndef   __UNALIGNED_UINT32_WRITE
  95:Generated_Source\PSoC6\pdl\cmsis/include/cmsis_gcc.h ****   #pragma GCC diagnostic push
  96:Generated_Source\PSoC6\pdl\cmsis/include/cmsis_gcc.h ****   #pragma GCC diagnostic ignored "-Wpacked"
  97:Generated_Source\PSoC6\pdl\cmsis/include/cmsis_gcc.h ****   #pragma GCC diagnostic ignored "-Wattributes"
  98:Generated_Source\PSoC6\pdl\cmsis/include/cmsis_gcc.h ****   __PACKED_STRUCT T_UINT32_WRITE { uint32_t v; };
  99:Generated_Source\PSoC6\pdl\cmsis/include/cmsis_gcc.h ****   #pragma GCC diagnostic pop
 100:Generated_Source\PSoC6\pdl\cmsis/include/cmsis_gcc.h ****   #define __UNALIGNED_UINT32_WRITE(addr, val)    (void)((((struct T_UINT32_WRITE *)(void *)(addr))-
 101:Generated_Source\PSoC6\pdl\cmsis/include/cmsis_gcc.h **** #endif
 102:Generated_Source\PSoC6\pdl\cmsis/include/cmsis_gcc.h **** #ifndef   __UNALIGNED_UINT32_READ
 103:Generated_Source\PSoC6\pdl\cmsis/include/cmsis_gcc.h ****   #pragma GCC diagnostic push
 104:Generated_Source\PSoC6\pdl\cmsis/include/cmsis_gcc.h ****   #pragma GCC diagnostic ignored "-Wpacked"
 105:Generated_Source\PSoC6\pdl\cmsis/include/cmsis_gcc.h ****   #pragma GCC diagnostic ignored "-Wattributes"
 106:Generated_Source\PSoC6\pdl\cmsis/include/cmsis_gcc.h ****   __PACKED_STRUCT T_UINT32_READ { uint32_t v; };
 107:Generated_Source\PSoC6\pdl\cmsis/include/cmsis_gcc.h ****   #pragma GCC diagnostic pop
 108:Generated_Source\PSoC6\pdl\cmsis/include/cmsis_gcc.h ****   #define __UNALIGNED_UINT32_READ(addr)          (((const struct T_UINT32_READ *)(const void *)(add
 109:Generated_Source\PSoC6\pdl\cmsis/include/cmsis_gcc.h **** #endif
 110:Generated_Source\PSoC6\pdl\cmsis/include/cmsis_gcc.h **** #ifndef   __ALIGNED
 111:Generated_Source\PSoC6\pdl\cmsis/include/cmsis_gcc.h ****   #define __ALIGNED(x)                           __attribute__((aligned(x)))
 112:Generated_Source\PSoC6\pdl\cmsis/include/cmsis_gcc.h **** #endif
 113:Generated_Source\PSoC6\pdl\cmsis/include/cmsis_gcc.h **** #ifndef   __RESTRICT
 114:Generated_Source\PSoC6\pdl\cmsis/include/cmsis_gcc.h ****   #define __RESTRICT                             __restrict
 115:Generated_Source\PSoC6\pdl\cmsis/include/cmsis_gcc.h **** #endif
 116:Generated_Source\PSoC6\pdl\cmsis/include/cmsis_gcc.h **** 
 117:Generated_Source\PSoC6\pdl\cmsis/include/cmsis_gcc.h **** 
 118:Generated_Source\PSoC6\pdl\cmsis/include/cmsis_gcc.h **** /* ###########################  Core Function Access  ########################### */
 119:Generated_Source\PSoC6\pdl\cmsis/include/cmsis_gcc.h **** /** \ingroup  CMSIS_Core_FunctionInterface
 120:Generated_Source\PSoC6\pdl\cmsis/include/cmsis_gcc.h ****     \defgroup CMSIS_Core_RegAccFunctions CMSIS Core Register Access Functions
 121:Generated_Source\PSoC6\pdl\cmsis/include/cmsis_gcc.h ****   @{
 122:Generated_Source\PSoC6\pdl\cmsis/include/cmsis_gcc.h ****  */
 123:Generated_Source\PSoC6\pdl\cmsis/include/cmsis_gcc.h **** 
 124:Generated_Source\PSoC6\pdl\cmsis/include/cmsis_gcc.h **** /**
 125:Generated_Source\PSoC6\pdl\cmsis/include/cmsis_gcc.h ****   \brief   Enable IRQ Interrupts
 126:Generated_Source\PSoC6\pdl\cmsis/include/cmsis_gcc.h ****   \details Enables IRQ interrupts by clearing the I-bit in the CPSR.
 127:Generated_Source\PSoC6\pdl\cmsis/include/cmsis_gcc.h ****            Can only be executed in Privileged modes.
 128:Generated_Source\PSoC6\pdl\cmsis/include/cmsis_gcc.h ****  */
 129:Generated_Source\PSoC6\pdl\cmsis/include/cmsis_gcc.h **** __STATIC_FORCEINLINE void __enable_irq(void)
 130:Generated_Source\PSoC6\pdl\cmsis/include/cmsis_gcc.h **** {
 131:Generated_Source\PSoC6\pdl\cmsis/include/cmsis_gcc.h ****   __ASM volatile ("cpsie i" : : : "memory");
 1544              		.loc 6 131 0
 1545              		.syntax unified
ARM GAS  C:\Users\gab_1\AppData\Local\Temp\ccTtYdci.s 			page 90


 1546              	@ 131 "Generated_Source\PSoC6\pdl\cmsis/include/cmsis_gcc.h" 1
 1547 0004 62B6     		cpsie i
 1548              	@ 0 "" 2
 1549              	.LVL159:
 1550              		.thumb
 1551              		.syntax unified
 1552              	.LBE181:
 1553              	.LBE180:
 1554              	.LBB182:
 1555              	.LBB183:
 1556              		.loc 5 817 0
 1557 0006 0822     		movs	r2, #8
 1558 0008 194B     		ldr	r3, .L81
 1559 000a 9A60     		str	r2, [r3, #8]
 1560              	.LVL160:
 1561              	.LBE183:
 1562              	.LBE182:
 348:main_cm4.c    ****   
 349:main_cm4.c    ****     __enable_irq(); /* Enable global interrupts. */
 350:main_cm4.c    ****     Cy_GPIO_Write(RED_PORT,RED_NUM,1); // initalise la led liée à l'accéléromètre (éteinte)
 351:main_cm4.c    ****     
 352:main_cm4.c    ****     // Initialisation - Interface
 353:main_cm4.c    ****     CapSense_Start(); 
 1563              		.loc 2 353 0
 1564 000c FFF7FEFF 		bl	CapSense_Start
 1565              	.LVL161:
 354:main_cm4.c    ****     CapSense_ScanAllWidgets(); 
 1566              		.loc 2 354 0
 1567 0010 FFF7FEFF 		bl	CapSense_ScanAllWidgets
 1568              	.LVL162:
 355:main_cm4.c    ****     
 356:main_cm4.c    ****     // Initialisation - Acquisition
 357:main_cm4.c    ****     I2C_Start();
 1569              		.loc 2 357 0
 1570 0014 FFF7FEFF 		bl	I2C_Start
 1571              	.LVL163:
 358:main_cm4.c    ****     UART_1_Start();
 1572              		.loc 2 358 0
 1573 0018 FFF7FEFF 		bl	UART_1_Start
 1574              	.LVL164:
 359:main_cm4.c    ****     maxim_max30102_init();
 1575              		.loc 2 359 0
 1576 001c FFF7FEFF 		bl	maxim_max30102_init
 1577              	.LVL165:
 360:main_cm4.c    ****     
 361:main_cm4.c    ****     // Initialisation - Traitement
 362:main_cm4.c    ****     SystemInit(); 
 1578              		.loc 2 362 0
 1579 0020 FFF7FEFF 		bl	SystemInit
 1580              	.LVL166:
 363:main_cm4.c    ****     
 364:main_cm4.c    ****     UART_1_Start(); // Seulement pour tester l'acquisition des données
 1581              		.loc 2 364 0
 1582 0024 FFF7FEFF 		bl	UART_1_Start
 1583              	.LVL167:
 365:main_cm4.c    ****     
 366:main_cm4.c    ****     // Tâche d'acquisition
ARM GAS  C:\Users\gab_1\AppData\Local\Temp\ccTtYdci.s 			page 91


 367:main_cm4.c    ****     xTaskCreate(motionTask, "Motion Task",400,0,1,0);
 1584              		.loc 2 367 0
 1585 0028 0024     		movs	r4, #0
 1586 002a 0194     		str	r4, [sp, #4]
 1587 002c 0125     		movs	r5, #1
 1588 002e 0095     		str	r5, [sp]
 1589 0030 2346     		mov	r3, r4
 1590 0032 4FF4C872 		mov	r2, #400
 1591 0036 0F49     		ldr	r1, .L81+4
 1592 0038 0F48     		ldr	r0, .L81+8
 1593 003a FFF7FEFF 		bl	xTaskCreate
 1594              	.LVL168:
 368:main_cm4.c    **** 
 369:main_cm4.c    ****     // Tâches de l'interface
 370:main_cm4.c    ****     xTaskCreate(capSense_Task,"capSense_task",400,NULL,1,0);
 1595              		.loc 2 370 0
 1596 003e 0194     		str	r4, [sp, #4]
 1597 0040 0095     		str	r5, [sp]
 1598 0042 2346     		mov	r3, r4
 1599 0044 4FF4C872 		mov	r2, #400
 1600 0048 0C49     		ldr	r1, .L81+12
 1601 004a 0D48     		ldr	r0, .L81+16
 1602 004c FFF7FEFF 		bl	xTaskCreate
 1603              	.LVL169:
 371:main_cm4.c    ****     xTaskCreate(Task_Display, "Display task", 400,NULL, 1, NULL); 
 1604              		.loc 2 371 0
 1605 0050 0194     		str	r4, [sp, #4]
 1606 0052 0095     		str	r5, [sp]
 1607 0054 2346     		mov	r3, r4
 1608 0056 4FF4C872 		mov	r2, #400
 1609 005a 0A49     		ldr	r1, .L81+20
 1610 005c 0A48     		ldr	r0, .L81+24
 1611 005e FFF7FEFF 		bl	xTaskCreate
 1612              	.LVL170:
 372:main_cm4.c    ****     
 373:main_cm4.c    ****     vTaskStartScheduler();
 1613              		.loc 2 373 0
 1614 0062 FFF7FEFF 		bl	vTaskStartScheduler
 1615              	.LVL171:
 1616              	.L78:
 374:main_cm4.c    ****     while(CapSense_IsBusy());
 1617              		.loc 2 374 0 discriminator 1
 1618 0066 FFF7FEFF 		bl	CapSense_IsBusy
 1619              	.LVL172:
 1620 006a 0028     		cmp	r0, #0
 1621 006c FBD1     		bne	.L78
 1622              	.L79:
 1623 006e FEE7     		b	.L79
 1624              	.L82:
 1625              		.align	2
 1626              	.L81:
 1627 0070 00003240 		.word	1077018624
 1628 0074 C8000000 		.word	.LC10
 1629 0078 00000000 		.word	motionTask
 1630 007c D4000000 		.word	.LC11
 1631 0080 00000000 		.word	capSense_Task
 1632 0084 E4000000 		.word	.LC12
ARM GAS  C:\Users\gab_1\AppData\Local\Temp\ccTtYdci.s 			page 92


 1633 0088 00000000 		.word	Task_Display
 1634              		.cfi_endproc
 1635              	.LFE704:
 1636              		.size	main, .-main
 1637              		.comm	dataRed,4000,4
 1638              		.comm	dataIR,4000,4
 1639              		.comm	RedFiltre1,4000,4
 1640              		.comm	IrFiltre1,4000,4
 1641              		.comm	RedFiltre,4000,4
 1642              		.comm	IrFiltre,4000,4
 1643              		.global	borneInf
 1644              		.global	borneSup
 1645              		.global	NbreSec
 1646              		.global	NbreMax
 1647              		.global	bpm
 1648              		.global	SpO2
 1649              		.comm	S,12,4
 1650              		.global	blockSize
 1651              		.global	PasseBas
 1652              		.global	PasseHaut
 1653              		.global	pointeurRed
 1654              		.global	pointeurIr
 1655              		.comm	indice,2,2
 1656              		.comm	bufferINFRAROUGE,4000,4
 1657              		.comm	bufferROUGE,4000,4
 1658              		.comm	DataIR,4000,4
 1659              		.comm	DataRouge,4000,4
 1660              		.global	Index
 1661              		.section	.rodata
 1662              		.align	2
 1663              		.set	.LANCHOR1,. + 0
 1664              		.type	PasseHaut, %object
 1665              		.size	PasseHaut, 204
 1666              	PasseHaut:
 1667 0000 6F1203BA 		.word	-1174203793
 1668 0004 6F1203BA 		.word	-1174203793
 1669 0008 52491DBA 		.word	-1172485806
 1670 000c 348037BA 		.word	-1170767820
 1671 0010 FAED6BBA 		.word	-1167331846
 1672 0014 E02D90BA 		.word	-1164956192
 1673 0018 C364AABA 		.word	-1163238205
 1674 001c 17B7D1BA 		.word	-1160661225
 1675 0020 6C09F9BA 		.word	-1158084244
 1676 0024 E02D10BB 		.word	-1156567584
 1677 0028 C3642ABB 		.word	-1154849597
 1678 002c A69B44BB 		.word	-1153131610
 1679 0030 89D25EBB 		.word	-1151413623
 1680 0034 B37B72BB 		.word	-1150125133
 1681 0038 4B5986BB 		.word	-1148823221
 1682 003c BC7493BB 		.word	-1147964228
 1683 0040 2E90A0BB 		.word	-1147105234
 1684 0044 C364AABB 		.word	-1146460989
 1685 0048 5839B4BB 		.word	-1145816744
 1686 004c ED0DBEBB 		.word	-1145172499
 1687 0050 82E2C7BB 		.word	-1144528254
 1688 0054 3B70CEBB 		.word	-1144098757
 1689 0058 17B7D1BB 		.word	-1143884009
ARM GAS  C:\Users\gab_1\AppData\Local\Temp\ccTtYdci.s 			page 93


 1690 005c D044D8BB 		.word	-1143454512
 1691 0060 D044D8BB 		.word	-1143454512
 1692 0064 24287E3F 		.word	1065232420
 1693 0068 D044D8BB 		.word	-1143454512
 1694 006c D044D8BB 		.word	-1143454512
 1695 0070 17B7D1BB 		.word	-1143884009
 1696 0074 3B70CEBB 		.word	-1144098757
 1697 0078 82E2C7BB 		.word	-1144528254
 1698 007c ED0DBEBB 		.word	-1145172499
 1699 0080 5839B4BB 		.word	-1145816744
 1700 0084 C364AABB 		.word	-1146460989
 1701 0088 2E90A0BB 		.word	-1147105234
 1702 008c BC7493BB 		.word	-1147964228
 1703 0090 4B5986BB 		.word	-1148823221
 1704 0094 B37B72BB 		.word	-1150125133
 1705 0098 89D25EBB 		.word	-1151413623
 1706 009c A69B44BB 		.word	-1153131610
 1707 00a0 C3642ABB 		.word	-1154849597
 1708 00a4 E02D10BB 		.word	-1156567584
 1709 00a8 6C09F9BA 		.word	-1158084244
 1710 00ac 17B7D1BA 		.word	-1160661225
 1711 00b0 C364AABA 		.word	-1163238205
 1712 00b4 E02D90BA 		.word	-1164956192
 1713 00b8 FAED6BBA 		.word	-1167331846
 1714 00bc 348037BA 		.word	-1170767820
 1715 00c0 52491DBA 		.word	-1172485806
 1716 00c4 6F1203BA 		.word	-1174203793
 1717 00c8 6F1203BA 		.word	-1174203793
 1718              		.type	PasseBas, %object
 1719              		.size	PasseBas, 204
 1720              	PasseBas:
 1721 00cc 6F12033B 		.word	990057071
 1722 00d0 E02D103B 		.word	990916064
 1723 00d4 C3642A3B 		.word	992634051
 1724 00d8 5F294B3B 		.word	994781535
 1725 00dc 6F12833B 		.word	998445679
 1726 00e0 0AD7A33B 		.word	1000593162
 1727 00e4 3B70CE3B 		.word	1003384891
 1728 00e8 2497FF3B 		.word	1006606116
 1729 00ec E3A51B3C 		.word	1008444899
 1730 00f0 11C73A3C 		.word	1010485009
 1731 00f4 1B2F5D3C 		.word	1012739867
 1732 00f8 499D803C 		.word	1015061833
 1733 00fc BC74933C 		.word	1016296636
 1734 0100 E71DA73C 		.word	1017585127
 1735 0104 11C7BA3C 		.word	1018873617
 1736 0108 3B70CE3C 		.word	1020162107
 1737 010c AE47E13C 		.word	1021396910
 1738 0110 6A4DF33C 		.word	1022578026
 1739 0114 B840023D 		.word	1023557816
 1740 0118 03090A3D 		.word	1024067843
 1741 011c 97FF103D 		.word	1024524183
 1742 0120 99BB163D 		.word	1024899993
 1743 0124 083D1B3D 		.word	1025195272
 1744 0128 C0EC1E3D 		.word	1025436864
 1745 012c 09F9203D 		.word	1025571081
 1746 0130 E561213D 		.word	1025597925
ARM GAS  C:\Users\gab_1\AppData\Local\Temp\ccTtYdci.s 			page 94


 1747 0134 09F9203D 		.word	1025571081
 1748 0138 C0EC1E3D 		.word	1025436864
 1749 013c 083D1B3D 		.word	1025195272
 1750 0140 99BB163D 		.word	1024899993
 1751 0144 97FF103D 		.word	1024524183
 1752 0148 03090A3D 		.word	1024067843
 1753 014c B840023D 		.word	1023557816
 1754 0150 6A4DF33C 		.word	1022578026
 1755 0154 AE47E13C 		.word	1021396910
 1756 0158 3B70CE3C 		.word	1020162107
 1757 015c 11C7BA3C 		.word	1018873617
 1758 0160 E71DA73C 		.word	1017585127
 1759 0164 BC74933C 		.word	1016296636
 1760 0168 499D803C 		.word	1015061833
 1761 016c 1B2F5D3C 		.word	1012739867
 1762 0170 11C73A3C 		.word	1010485009
 1763 0174 E3A51B3C 		.word	1008444899
 1764 0178 2497FF3B 		.word	1006606116
 1765 017c 3B70CE3B 		.word	1003384891
 1766 0180 0AD7A33B 		.word	1000593162
 1767 0184 6F12833B 		.word	998445679
 1768 0188 5F294B3B 		.word	994781535
 1769 018c C3642A3B 		.word	992634051
 1770 0190 E02D103B 		.word	990916064
 1771 0194 6F12033B 		.word	990057071
 1772              		.data
 1773              		.align	2
 1774              		.set	.LANCHOR2,. + 0
 1775              		.type	blockSize, %object
 1776              		.size	blockSize, 4
 1777              	blockSize:
 1778 0000 E8030000 		.word	1000
 1779              		.type	borneSup, %object
 1780              		.size	borneSup, 4
 1781              	borneSup:
 1782 0004 82000000 		.word	130
 1783              		.type	borneInf, %object
 1784              		.size	borneInf, 4
 1785              	borneInf:
 1786 0008 28000000 		.word	40
 1787              		.type	pointeurRed, %object
 1788              		.size	pointeurRed, 4
 1789              	pointeurRed:
 1790 000c 00000000 		.word	bufferROUGE
 1791              		.type	pointeurIr, %object
 1792              		.size	pointeurIr, 4
 1793              	pointeurIr:
 1794 0010 00000000 		.word	bufferINFRAROUGE
 1795              		.section	.rodata.str1.4,"aMS",%progbits,1
 1796              		.align	2
 1797              	.LC0:
 1798 0000 44657465 		.ascii	"Determination des valeurs du mouvement\000"
 1798      726D696E 
 1798      6174696F 
 1798      6E206465 
 1798      73207661 
 1799 0027 00       		.space	1
ARM GAS  C:\Users\gab_1\AppData\Local\Temp\ccTtYdci.s 			page 95


 1800              	.LC1:
 1801 0028 414C4552 		.ascii	"ALERTE: erreur\000"
 1801      54453A20 
 1801      65727265 
 1801      757200
 1802 0037 00       		.space	1
 1803              	.LC2:
 1804 0038 42757273 		.ascii	"Burst Read \000"
 1804      74205265 
 1804      61642000 
 1805              	.LC3:
 1806 0044 496E6974 		.ascii	"Initializing\015\012\000"
 1806      69616C69 
 1806      7A696E67 
 1806      0D0A00
 1807 0053 00       		.space	1
 1808              	.LC4:
 1809 0054 496E6974 		.ascii	"Initializing done\015\012\000"
 1809      69616C69 
 1809      7A696E67 
 1809      20646F6E 
 1809      650D0A00 
 1810              	.LC5:
 1811 0068 696E7465 		.ascii	"interrupt \000"
 1811      72727570 
 1811      742000
 1812 0073 00       		.space	1
 1813              	.LC6:
 1814 0074 52656164 		.ascii	"Reading done \000"
 1814      696E6720 
 1814      646F6E65 
 1814      2000
 1815 0082 0000     		.space	2
 1816              	.LC7:
 1817 0084 256C7520 		.ascii	"%lu :: %lu \015\012\000"
 1817      3A3A2025 
 1817      6C75200D 
 1817      0A00
 1818 0092 0000     		.space	2
 1819              	.LC8:
 1820 0094 68656C6C 		.ascii	"hello6\015\012\000"
 1820      6F360D0A 
 1820      00
 1821 009d 000000   		.space	3
 1822              	.LC9:
 1823 00a0 0D0A2041 		.ascii	"\015\012 ATTENTION: Veuillez ne pas bouger \015\012"
 1823      5454454E 
 1823      54494F4E 
 1823      3A205665 
 1823      75696C6C 
 1824 00c7 00       		.ascii	"\000"
 1825              	.LC10:
 1826 00c8 4D6F7469 		.ascii	"Motion Task\000"
 1826      6F6E2054 
 1826      61736B00 
 1827              	.LC11:
 1828 00d4 63617053 		.ascii	"capSense_task\000"
ARM GAS  C:\Users\gab_1\AppData\Local\Temp\ccTtYdci.s 			page 96


 1828      656E7365 
 1828      5F746173 
 1828      6B00
 1829 00e2 0000     		.space	2
 1830              	.LC12:
 1831 00e4 44697370 		.ascii	"Display task\000"
 1831      6C617920 
 1831      7461736B 
 1831      00
 1832              		.bss
 1833              		.align	2
 1834              		.set	.LANCHOR0,. + 0
 1835              		.set	.LANCHOR3,. + 4344
 1836              		.type	bmi160Dev, %object
 1837              		.size	bmi160Dev, 44
 1838              	bmi160Dev:
 1839 0000 00000000 		.space	44
 1839      00000000 
 1839      00000000 
 1839      00000000 
 1839      00000000 
 1840              		.type	firStateF32, %object
 1841              		.size	firStateF32, 7440
 1842              	firStateF32:
 1843 002c 00000000 		.space	7440
 1843      00000000 
 1843      00000000 
 1843      00000000 
 1843      00000000 
 1844              		.type	SpO2, %object
 1845              		.size	SpO2, 4
 1846              	SpO2:
 1847 1d3c 00000000 		.space	4
 1848              		.type	NbreSec, %object
 1849              		.size	NbreSec, 4
 1850              	NbreSec:
 1851 1d40 00000000 		.space	4
 1852              		.type	NbreMax, %object
 1853              		.size	NbreMax, 4
 1854              	NbreMax:
 1855 1d44 00000000 		.space	4
 1856              		.type	bpm, %object
 1857              		.size	bpm, 4
 1858              	bpm:
 1859 1d48 00000000 		.space	4
 1860              		.type	Index, %object
 1861              		.size	Index, 1
 1862              	Index:
 1863 1d4c 00       		.space	1
 1864              		.text
 1865              	.Letext0:
 1866              		.file 7 "d:\\program files\\psoc creator\\4.4\\psoc creator\\import\\gnu\\arm\\5.4.1\\arm-none-eab
 1867              		.file 8 "d:\\program files\\psoc creator\\4.4\\psoc creator\\import\\gnu\\arm\\5.4.1\\arm-none-eab
 1868              		.file 9 "Generated_Source\\PSoC6\\pdl\\devices/psoc6/include/ip/cyip_gpio.h"
 1869              		.file 10 "Generated_Source\\PSoC6\\pdl\\devices/psoc6/include/ip/cyip_scb.h"
 1870              		.file 11 "Generated_Source\\PSoC6\\pdl\\devices/psoc6/include/psoc6_01_config.h"
 1871              		.file 12 "Generated_Source\\PSoC6\\pdl\\drivers/peripheral/device/cy_device.h"
ARM GAS  C:\Users\gab_1\AppData\Local\Temp\ccTtYdci.s 			page 97


 1872              		.file 13 "Generated_Source\\PSoC6\\pdl\\drivers/peripheral/syslib/cy_syslib.h"
 1873              		.file 14 "Generated_Source\\PSoC6\\pdl\\drivers/peripheral/scb/cy_scb_i2c.h"
 1874              		.file 15 "Generated_Source\\PSoC6\\pdl\\drivers/peripheral/scb/cy_scb_spi.h"
 1875              		.file 16 "Generated_Source\\PSoC6\\pdl\\drivers/peripheral/tcpwm/cy_tcpwm_counter.h"
 1876              		.file 17 ".\\CMSIS\\DSP\\Include/arm_math.h"
 1877              		.file 18 ".\\BMI160_driver-master/bmi160_defs.h"
 1878              		.file 19 "Generated_Source\\PSoC6/UART_1.h"
 1879              		.file 20 ".\\CMSIS\\Core\\Include/core_cm4.h"
 1880              		.file 21 "Generated_Source\\PSoC6/CY_EINK_SPIM.h"
 1881              		.file 22 "Generated_Source\\PSoC6/CY_EINK_Timer.h"
 1882              		.file 23 "Generated_Source\\PSoC6/I2C_1.h"
 1883              		.file 24 "Generated_Source\\PSoC6\\pdl\\rtos/FreeRTOS/10.0.1/Source/include/task.h"
 1884              		.file 25 ".\\BMI160_driver-master/bmi160.h"
 1885              		.file 26 "Generated_Source\\PSoC6\\pdl\\drivers/peripheral/scb/cy_scb_common.h"
 1886              		.file 27 "d:\\program files\\psoc creator\\4.4\\psoc creator\\import\\gnu\\arm\\5.4.1\\arm-none-ea
 1887              		.file 28 "Generated_Source\\PSoC6/CapSense_Control.h"
 1888              		.file 29 "Generated_Source\\PSoC6/CapSense_Sensing.h"
 1889              		.file 30 "./system_psoc6.h"
 1890              		.file 31 "<built-in>"
 1891              		.section	.debug_info,"",%progbits
 1892              	.Ldebug_info0:
 1893 0000 E62B0000 		.4byte	0x2be6
 1894 0004 0400     		.2byte	0x4
 1895 0006 00000000 		.4byte	.Ldebug_abbrev0
 1896 000a 04       		.byte	0x4
 1897 000b 01       		.uleb128 0x1
 1898 000c 8B040000 		.4byte	.LASF453
 1899 0010 0C       		.byte	0xc
 1900 0011 6B000000 		.4byte	.LASF454
 1901 0015 C6000000 		.4byte	.LASF455
 1902 0019 00000000 		.4byte	.Ldebug_ranges0+0
 1903 001d 00000000 		.4byte	0
 1904 0021 00000000 		.4byte	.Ldebug_line0
 1905 0025 02       		.uleb128 0x2
 1906 0026 04       		.byte	0x4
 1907 0027 04       		.byte	0x4
 1908 0028 5F150000 		.4byte	.LASF0
 1909 002c 02       		.uleb128 0x2
 1910 002d 02       		.byte	0x2
 1911 002e 05       		.byte	0x5
 1912 002f 800F0000 		.4byte	.LASF1
 1913 0033 03       		.uleb128 0x3
 1914 0034 99140000 		.4byte	.LASF3
 1915 0038 07       		.byte	0x7
 1916 0039 1B       		.byte	0x1b
 1917 003a 3E000000 		.4byte	0x3e
 1918 003e 02       		.uleb128 0x2
 1919 003f 01       		.byte	0x1
 1920 0040 06       		.byte	0x6
 1921 0041 AA170000 		.4byte	.LASF2
 1922 0045 03       		.uleb128 0x3
 1923 0046 E0130000 		.4byte	.LASF4
 1924 004a 07       		.byte	0x7
 1925 004b 1D       		.byte	0x1d
 1926 004c 50000000 		.4byte	0x50
 1927 0050 02       		.uleb128 0x2
 1928 0051 01       		.byte	0x1
ARM GAS  C:\Users\gab_1\AppData\Local\Temp\ccTtYdci.s 			page 98


 1929 0052 08       		.byte	0x8
 1930 0053 E3110000 		.4byte	.LASF5
 1931 0057 03       		.uleb128 0x3
 1932 0058 8F0E0000 		.4byte	.LASF6
 1933 005c 07       		.byte	0x7
 1934 005d 29       		.byte	0x29
 1935 005e 2C000000 		.4byte	0x2c
 1936 0062 03       		.uleb128 0x3
 1937 0063 0C0B0000 		.4byte	.LASF7
 1938 0067 07       		.byte	0x7
 1939 0068 2B       		.byte	0x2b
 1940 0069 6D000000 		.4byte	0x6d
 1941 006d 02       		.uleb128 0x2
 1942 006e 02       		.byte	0x2
 1943 006f 07       		.byte	0x7
 1944 0070 B6100000 		.4byte	.LASF8
 1945 0074 03       		.uleb128 0x3
 1946 0075 D5020000 		.4byte	.LASF9
 1947 0079 07       		.byte	0x7
 1948 007a 3F       		.byte	0x3f
 1949 007b 7F000000 		.4byte	0x7f
 1950 007f 02       		.uleb128 0x2
 1951 0080 04       		.byte	0x4
 1952 0081 05       		.byte	0x5
 1953 0082 AF120000 		.4byte	.LASF10
 1954 0086 03       		.uleb128 0x3
 1955 0087 14160000 		.4byte	.LASF11
 1956 008b 07       		.byte	0x7
 1957 008c 41       		.byte	0x41
 1958 008d 91000000 		.4byte	0x91
 1959 0091 02       		.uleb128 0x2
 1960 0092 04       		.byte	0x4
 1961 0093 07       		.byte	0x7
 1962 0094 27150000 		.4byte	.LASF12
 1963 0098 02       		.uleb128 0x2
 1964 0099 08       		.byte	0x8
 1965 009a 05       		.byte	0x5
 1966 009b 620C0000 		.4byte	.LASF13
 1967 009f 02       		.uleb128 0x2
 1968 00a0 08       		.byte	0x8
 1969 00a1 07       		.byte	0x7
 1970 00a2 AE060000 		.4byte	.LASF14
 1971 00a6 04       		.uleb128 0x4
 1972 00a7 04       		.byte	0x4
 1973 00a8 05       		.byte	0x5
 1974 00a9 696E7400 		.ascii	"int\000"
 1975 00ad 02       		.uleb128 0x2
 1976 00ae 04       		.byte	0x4
 1977 00af 07       		.byte	0x7
 1978 00b0 4C140000 		.4byte	.LASF15
 1979 00b4 03       		.uleb128 0x3
 1980 00b5 63060000 		.4byte	.LASF16
 1981 00b9 08       		.byte	0x8
 1982 00ba 14       		.byte	0x14
 1983 00bb 33000000 		.4byte	0x33
 1984 00bf 03       		.uleb128 0x3
 1985 00c0 C90C0000 		.4byte	.LASF17
ARM GAS  C:\Users\gab_1\AppData\Local\Temp\ccTtYdci.s 			page 99


 1986 00c4 08       		.byte	0x8
 1987 00c5 18       		.byte	0x18
 1988 00c6 45000000 		.4byte	0x45
 1989 00ca 03       		.uleb128 0x3
 1990 00cb 43070000 		.4byte	.LASF18
 1991 00cf 08       		.byte	0x8
 1992 00d0 20       		.byte	0x20
 1993 00d1 57000000 		.4byte	0x57
 1994 00d5 03       		.uleb128 0x3
 1995 00d6 E7100000 		.4byte	.LASF19
 1996 00da 08       		.byte	0x8
 1997 00db 24       		.byte	0x24
 1998 00dc 62000000 		.4byte	0x62
 1999 00e0 03       		.uleb128 0x3
 2000 00e1 6C150000 		.4byte	.LASF20
 2001 00e5 08       		.byte	0x8
 2002 00e6 2C       		.byte	0x2c
 2003 00e7 74000000 		.4byte	0x74
 2004 00eb 03       		.uleb128 0x3
 2005 00ec 5A060000 		.4byte	.LASF21
 2006 00f0 08       		.byte	0x8
 2007 00f1 30       		.byte	0x30
 2008 00f2 86000000 		.4byte	0x86
 2009 00f6 02       		.uleb128 0x2
 2010 00f7 04       		.byte	0x4
 2011 00f8 07       		.byte	0x7
 2012 00f9 F1110000 		.4byte	.LASF22
 2013 00fd 05       		.uleb128 0x5
 2014 00fe EB000000 		.4byte	0xeb
 2015 0102 06       		.uleb128 0x6
 2016 0103 FD000000 		.4byte	0xfd
 2017 0107 07       		.uleb128 0x7
 2018 0108 02010000 		.4byte	0x102
 2019 010c 17010000 		.4byte	0x117
 2020 0110 08       		.uleb128 0x8
 2021 0111 F6000000 		.4byte	0xf6
 2022 0115 03       		.byte	0x3
 2023 0116 00       		.byte	0
 2024 0117 07       		.uleb128 0x7
 2025 0118 02010000 		.4byte	0x102
 2026 011c 27010000 		.4byte	0x127
 2027 0120 08       		.uleb128 0x8
 2028 0121 F6000000 		.4byte	0xf6
 2029 0125 05       		.byte	0x5
 2030 0126 00       		.byte	0
 2031 0127 07       		.uleb128 0x7
 2032 0128 02010000 		.4byte	0x102
 2033 012c 37010000 		.4byte	0x137
 2034 0130 08       		.uleb128 0x8
 2035 0131 F6000000 		.4byte	0xf6
 2036 0135 7F       		.byte	0x7f
 2037 0136 00       		.byte	0
 2038 0137 07       		.uleb128 0x7
 2039 0138 02010000 		.4byte	0x102
 2040 013c 47010000 		.4byte	0x147
 2041 0140 08       		.uleb128 0x8
 2042 0141 F6000000 		.4byte	0xf6
ARM GAS  C:\Users\gab_1\AppData\Local\Temp\ccTtYdci.s 			page 100


 2043 0145 0C       		.byte	0xc
 2044 0146 00       		.byte	0
 2045 0147 07       		.uleb128 0x7
 2046 0148 02010000 		.4byte	0x102
 2047 014c 57010000 		.4byte	0x157
 2048 0150 08       		.uleb128 0x8
 2049 0151 F6000000 		.4byte	0xf6
 2050 0155 0F       		.byte	0xf
 2051 0156 00       		.byte	0
 2052 0157 07       		.uleb128 0x7
 2053 0158 02010000 		.4byte	0x102
 2054 015c 67010000 		.4byte	0x167
 2055 0160 08       		.uleb128 0x8
 2056 0161 F6000000 		.4byte	0xf6
 2057 0165 1E       		.byte	0x1e
 2058 0166 00       		.byte	0
 2059 0167 07       		.uleb128 0x7
 2060 0168 02010000 		.4byte	0x102
 2061 016c 77010000 		.4byte	0x177
 2062 0170 08       		.uleb128 0x8
 2063 0171 F6000000 		.4byte	0xf6
 2064 0175 02       		.byte	0x2
 2065 0176 00       		.byte	0
 2066 0177 07       		.uleb128 0x7
 2067 0178 02010000 		.4byte	0x102
 2068 017c 87010000 		.4byte	0x187
 2069 0180 08       		.uleb128 0x8
 2070 0181 F6000000 		.4byte	0xf6
 2071 0185 0B       		.byte	0xb
 2072 0186 00       		.byte	0
 2073 0187 09       		.uleb128 0x9
 2074 0188 80       		.byte	0x80
 2075 0189 09       		.byte	0x9
 2076 018a 22       		.byte	0x22
 2077 018b 5B020000 		.4byte	0x25b
 2078 018f 0A       		.uleb128 0xa
 2079 0190 4F555400 		.ascii	"OUT\000"
 2080 0194 09       		.byte	0x9
 2081 0195 23       		.byte	0x23
 2082 0196 FD000000 		.4byte	0xfd
 2083 019a 00       		.byte	0
 2084 019b 0B       		.uleb128 0xb
 2085 019c 2F070000 		.4byte	.LASF23
 2086 01a0 09       		.byte	0x9
 2087 01a1 24       		.byte	0x24
 2088 01a2 FD000000 		.4byte	0xfd
 2089 01a6 04       		.byte	0x4
 2090 01a7 0B       		.uleb128 0xb
 2091 01a8 C5060000 		.4byte	.LASF24
 2092 01ac 09       		.byte	0x9
 2093 01ad 25       		.byte	0x25
 2094 01ae FD000000 		.4byte	0xfd
 2095 01b2 08       		.byte	0x8
 2096 01b3 0B       		.uleb128 0xb
 2097 01b4 C3130000 		.4byte	.LASF25
 2098 01b8 09       		.byte	0x9
 2099 01b9 26       		.byte	0x26
ARM GAS  C:\Users\gab_1\AppData\Local\Temp\ccTtYdci.s 			page 101


 2100 01ba FD000000 		.4byte	0xfd
 2101 01be 0C       		.byte	0xc
 2102 01bf 0A       		.uleb128 0xa
 2103 01c0 494E00   		.ascii	"IN\000"
 2104 01c3 09       		.byte	0x9
 2105 01c4 27       		.byte	0x27
 2106 01c5 02010000 		.4byte	0x102
 2107 01c9 10       		.byte	0x10
 2108 01ca 0B       		.uleb128 0xb
 2109 01cb A9060000 		.4byte	.LASF26
 2110 01cf 09       		.byte	0x9
 2111 01d0 28       		.byte	0x28
 2112 01d1 FD000000 		.4byte	0xfd
 2113 01d5 14       		.byte	0x14
 2114 01d6 0B       		.uleb128 0xb
 2115 01d7 300F0000 		.4byte	.LASF27
 2116 01db 09       		.byte	0x9
 2117 01dc 29       		.byte	0x29
 2118 01dd FD000000 		.4byte	0xfd
 2119 01e1 18       		.byte	0x18
 2120 01e2 0B       		.uleb128 0xb
 2121 01e3 C3140000 		.4byte	.LASF28
 2122 01e7 09       		.byte	0x9
 2123 01e8 2A       		.byte	0x2a
 2124 01e9 02010000 		.4byte	0x102
 2125 01ed 1C       		.byte	0x1c
 2126 01ee 0B       		.uleb128 0xb
 2127 01ef B2030000 		.4byte	.LASF29
 2128 01f3 09       		.byte	0x9
 2129 01f4 2B       		.byte	0x2b
 2130 01f5 FD000000 		.4byte	0xfd
 2131 01f9 20       		.byte	0x20
 2132 01fa 0B       		.uleb128 0xb
 2133 01fb 54160000 		.4byte	.LASF30
 2134 01ff 09       		.byte	0x9
 2135 0200 2C       		.byte	0x2c
 2136 0201 FD000000 		.4byte	0xfd
 2137 0205 24       		.byte	0x24
 2138 0206 0A       		.uleb128 0xa
 2139 0207 43464700 		.ascii	"CFG\000"
 2140 020b 09       		.byte	0x9
 2141 020c 2D       		.byte	0x2d
 2142 020d FD000000 		.4byte	0xfd
 2143 0211 28       		.byte	0x28
 2144 0212 0B       		.uleb128 0xb
 2145 0213 DC050000 		.4byte	.LASF31
 2146 0217 09       		.byte	0x9
 2147 0218 2E       		.byte	0x2e
 2148 0219 FD000000 		.4byte	0xfd
 2149 021d 2C       		.byte	0x2c
 2150 021e 0B       		.uleb128 0xb
 2151 021f C1080000 		.4byte	.LASF32
 2152 0223 09       		.byte	0x9
 2153 0224 2F       		.byte	0x2f
 2154 0225 FD000000 		.4byte	0xfd
 2155 0229 30       		.byte	0x30
 2156 022a 0B       		.uleb128 0xb
ARM GAS  C:\Users\gab_1\AppData\Local\Temp\ccTtYdci.s 			page 102


 2157 022b 18190000 		.4byte	.LASF33
 2158 022f 09       		.byte	0x9
 2159 0230 30       		.byte	0x30
 2160 0231 FD000000 		.4byte	0xfd
 2161 0235 34       		.byte	0x34
 2162 0236 0B       		.uleb128 0xb
 2163 0237 14000000 		.4byte	.LASF34
 2164 023b 09       		.byte	0x9
 2165 023c 31       		.byte	0x31
 2166 023d 02010000 		.4byte	0x102
 2167 0241 38       		.byte	0x38
 2168 0242 0B       		.uleb128 0xb
 2169 0243 33080000 		.4byte	.LASF35
 2170 0247 09       		.byte	0x9
 2171 0248 32       		.byte	0x32
 2172 0249 FD000000 		.4byte	0xfd
 2173 024d 3C       		.byte	0x3c
 2174 024e 0B       		.uleb128 0xb
 2175 024f DF180000 		.4byte	.LASF36
 2176 0253 09       		.byte	0x9
 2177 0254 33       		.byte	0x33
 2178 0255 60020000 		.4byte	0x260
 2179 0259 40       		.byte	0x40
 2180 025a 00       		.byte	0
 2181 025b 05       		.uleb128 0x5
 2182 025c 47010000 		.4byte	0x147
 2183 0260 06       		.uleb128 0x6
 2184 0261 5B020000 		.4byte	0x25b
 2185 0265 03       		.uleb128 0x3
 2186 0266 2D130000 		.4byte	.LASF37
 2187 026a 09       		.byte	0x9
 2188 026b 34       		.byte	0x34
 2189 026c 87010000 		.4byte	0x187
 2190 0270 0C       		.uleb128 0xc
 2191 0271 2440     		.2byte	0x4024
 2192 0273 09       		.byte	0x9
 2193 0274 39       		.byte	0x39
 2194 0275 FB020000 		.4byte	0x2fb
 2195 0279 0A       		.uleb128 0xa
 2196 027a 50525400 		.ascii	"PRT\000"
 2197 027e 09       		.byte	0x9
 2198 027f 3A       		.byte	0x3a
 2199 0280 FB020000 		.4byte	0x2fb
 2200 0284 00       		.byte	0
 2201 0285 0D       		.uleb128 0xd
 2202 0286 15180000 		.4byte	.LASF38
 2203 028a 09       		.byte	0x9
 2204 028b 3B       		.byte	0x3b
 2205 028c 02010000 		.4byte	0x102
 2206 0290 0040     		.2byte	0x4000
 2207 0292 0D       		.uleb128 0xd
 2208 0293 5D160000 		.4byte	.LASF39
 2209 0297 09       		.byte	0x9
 2210 0298 3C       		.byte	0x3c
 2211 0299 02010000 		.4byte	0x102
 2212 029d 0440     		.2byte	0x4004
 2213 029f 0D       		.uleb128 0xd
ARM GAS  C:\Users\gab_1\AppData\Local\Temp\ccTtYdci.s 			page 103


 2214 02a0 450D0000 		.4byte	.LASF40
 2215 02a4 09       		.byte	0x9
 2216 02a5 3D       		.byte	0x3d
 2217 02a6 02010000 		.4byte	0x102
 2218 02aa 0840     		.2byte	0x4008
 2219 02ac 0D       		.uleb128 0xd
 2220 02ad 510D0000 		.4byte	.LASF41
 2221 02b1 09       		.byte	0x9
 2222 02b2 3E       		.byte	0x3e
 2223 02b3 02010000 		.4byte	0x102
 2224 02b7 0C40     		.2byte	0x400c
 2225 02b9 0D       		.uleb128 0xd
 2226 02ba 50180000 		.4byte	.LASF42
 2227 02be 09       		.byte	0x9
 2228 02bf 3F       		.byte	0x3f
 2229 02c0 02010000 		.4byte	0x102
 2230 02c4 1040     		.2byte	0x4010
 2231 02c6 0D       		.uleb128 0xd
 2232 02c7 550A0000 		.4byte	.LASF43
 2233 02cb 09       		.byte	0x9
 2234 02cc 40       		.byte	0x40
 2235 02cd FD000000 		.4byte	0xfd
 2236 02d1 1440     		.2byte	0x4014
 2237 02d3 0D       		.uleb128 0xd
 2238 02d4 8A170000 		.4byte	.LASF44
 2239 02d8 09       		.byte	0x9
 2240 02d9 41       		.byte	0x41
 2241 02da FD000000 		.4byte	0xfd
 2242 02de 1840     		.2byte	0x4018
 2243 02e0 0D       		.uleb128 0xd
 2244 02e1 42020000 		.4byte	.LASF45
 2245 02e5 09       		.byte	0x9
 2246 02e6 42       		.byte	0x42
 2247 02e7 02010000 		.4byte	0x102
 2248 02eb 1C40     		.2byte	0x401c
 2249 02ed 0D       		.uleb128 0xd
 2250 02ee 0A110000 		.4byte	.LASF46
 2251 02f2 09       		.byte	0x9
 2252 02f3 43       		.byte	0x43
 2253 02f4 FD000000 		.4byte	0xfd
 2254 02f8 2040     		.2byte	0x4020
 2255 02fa 00       		.byte	0
 2256 02fb 07       		.uleb128 0x7
 2257 02fc 65020000 		.4byte	0x265
 2258 0300 0B030000 		.4byte	0x30b
 2259 0304 08       		.uleb128 0x8
 2260 0305 F6000000 		.4byte	0xf6
 2261 0309 7F       		.byte	0x7f
 2262 030a 00       		.byte	0
 2263 030b 03       		.uleb128 0x3
 2264 030c 87060000 		.4byte	.LASF47
 2265 0310 09       		.byte	0x9
 2266 0311 44       		.byte	0x44
 2267 0312 70020000 		.4byte	0x270
 2268 0316 07       		.uleb128 0x7
 2269 0317 02010000 		.4byte	0x102
 2270 031b 26030000 		.4byte	0x326
ARM GAS  C:\Users\gab_1\AppData\Local\Temp\ccTtYdci.s 			page 104


 2271 031f 08       		.uleb128 0x8
 2272 0320 F6000000 		.4byte	0xf6
 2273 0324 0A       		.byte	0xa
 2274 0325 00       		.byte	0
 2275 0326 07       		.uleb128 0x7
 2276 0327 02010000 		.4byte	0x102
 2277 032b 36030000 		.4byte	0x336
 2278 032f 08       		.uleb128 0x8
 2279 0330 F6000000 		.4byte	0xf6
 2280 0334 2E       		.byte	0x2e
 2281 0335 00       		.byte	0
 2282 0336 07       		.uleb128 0x7
 2283 0337 02010000 		.4byte	0x102
 2284 033b 46030000 		.4byte	0x346
 2285 033f 08       		.uleb128 0x8
 2286 0340 F6000000 		.4byte	0xf6
 2287 0344 2D       		.byte	0x2d
 2288 0345 00       		.byte	0
 2289 0346 07       		.uleb128 0x7
 2290 0347 FD000000 		.4byte	0xfd
 2291 034b 57030000 		.4byte	0x357
 2292 034f 0E       		.uleb128 0xe
 2293 0350 F6000000 		.4byte	0xf6
 2294 0354 FF01     		.2byte	0x1ff
 2295 0356 00       		.byte	0
 2296 0357 07       		.uleb128 0x7
 2297 0358 02010000 		.4byte	0x102
 2298 035c 67030000 		.4byte	0x367
 2299 0360 08       		.uleb128 0x8
 2300 0361 F6000000 		.4byte	0xf6
 2301 0365 62       		.byte	0x62
 2302 0366 00       		.byte	0
 2303 0367 0C       		.uleb128 0xc
 2304 0368 D00F     		.2byte	0xfd0
 2305 036a 0A       		.byte	0xa
 2306 036b 21       		.byte	0x21
 2307 036c D1060000 		.4byte	0x6d1
 2308 0370 0B       		.uleb128 0xb
 2309 0371 0C1A0000 		.4byte	.LASF48
 2310 0375 0A       		.byte	0xa
 2311 0376 22       		.byte	0x22
 2312 0377 FD000000 		.4byte	0xfd
 2313 037b 00       		.byte	0
 2314 037c 0B       		.uleb128 0xb
 2315 037d 71160000 		.4byte	.LASF49
 2316 0381 0A       		.byte	0xa
 2317 0382 23       		.byte	0x23
 2318 0383 02010000 		.4byte	0x102
 2319 0387 04       		.byte	0x4
 2320 0388 0B       		.uleb128 0xb
 2321 0389 32180000 		.4byte	.LASF50
 2322 038d 0A       		.byte	0xa
 2323 038e 24       		.byte	0x24
 2324 038f FD000000 		.4byte	0xfd
 2325 0393 08       		.byte	0x8
 2326 0394 0B       		.uleb128 0xb
 2327 0395 94010000 		.4byte	.LASF51
ARM GAS  C:\Users\gab_1\AppData\Local\Temp\ccTtYdci.s 			page 105


 2328 0399 0A       		.byte	0xa
 2329 039a 25       		.byte	0x25
 2330 039b 02010000 		.4byte	0x102
 2331 039f 0C       		.byte	0xc
 2332 03a0 0B       		.uleb128 0xb
 2333 03a1 14000000 		.4byte	.LASF34
 2334 03a5 0A       		.byte	0xa
 2335 03a6 26       		.byte	0x26
 2336 03a7 D6060000 		.4byte	0x6d6
 2337 03ab 10       		.byte	0x10
 2338 03ac 0B       		.uleb128 0xb
 2339 03ad 59140000 		.4byte	.LASF52
 2340 03b1 0A       		.byte	0xa
 2341 03b2 27       		.byte	0x27
 2342 03b3 FD000000 		.4byte	0xfd
 2343 03b7 20       		.byte	0x20
 2344 03b8 0B       		.uleb128 0xb
 2345 03b9 78170000 		.4byte	.LASF53
 2346 03bd 0A       		.byte	0xa
 2347 03be 28       		.byte	0x28
 2348 03bf 02010000 		.4byte	0x102
 2349 03c3 24       		.byte	0x24
 2350 03c4 0B       		.uleb128 0xb
 2351 03c5 DF180000 		.4byte	.LASF36
 2352 03c9 0A       		.byte	0xa
 2353 03ca 29       		.byte	0x29
 2354 03cb E0060000 		.4byte	0x6e0
 2355 03cf 28       		.byte	0x28
 2356 03d0 0B       		.uleb128 0xb
 2357 03d1 C8170000 		.4byte	.LASF54
 2358 03d5 0A       		.byte	0xa
 2359 03d6 2A       		.byte	0x2a
 2360 03d7 FD000000 		.4byte	0xfd
 2361 03db 40       		.byte	0x40
 2362 03dc 0B       		.uleb128 0xb
 2363 03dd AE080000 		.4byte	.LASF55
 2364 03e1 0A       		.byte	0xa
 2365 03e2 2B       		.byte	0x2b
 2366 03e3 FD000000 		.4byte	0xfd
 2367 03e7 44       		.byte	0x44
 2368 03e8 0B       		.uleb128 0xb
 2369 03e9 51050000 		.4byte	.LASF56
 2370 03ed 0A       		.byte	0xa
 2371 03ee 2C       		.byte	0x2c
 2372 03ef FD000000 		.4byte	0xfd
 2373 03f3 48       		.byte	0x48
 2374 03f4 0B       		.uleb128 0xb
 2375 03f5 93130000 		.4byte	.LASF57
 2376 03f9 0A       		.byte	0xa
 2377 03fa 2D       		.byte	0x2d
 2378 03fb 02010000 		.4byte	0x102
 2379 03ff 4C       		.byte	0x4c
 2380 0400 0B       		.uleb128 0xb
 2381 0401 990E0000 		.4byte	.LASF58
 2382 0405 0A       		.byte	0xa
 2383 0406 2E       		.byte	0x2e
 2384 0407 FD000000 		.4byte	0xfd
ARM GAS  C:\Users\gab_1\AppData\Local\Temp\ccTtYdci.s 			page 106


 2385 040b 50       		.byte	0x50
 2386 040c 0B       		.uleb128 0xb
 2387 040d 3C120000 		.4byte	.LASF59
 2388 0411 0A       		.byte	0xa
 2389 0412 2F       		.byte	0x2f
 2390 0413 EA060000 		.4byte	0x6ea
 2391 0417 54       		.byte	0x54
 2392 0418 0B       		.uleb128 0xb
 2393 0419 04150000 		.4byte	.LASF60
 2394 041d 0A       		.byte	0xa
 2395 041e 30       		.byte	0x30
 2396 041f FD000000 		.4byte	0xfd
 2397 0423 60       		.byte	0x60
 2398 0424 0B       		.uleb128 0xb
 2399 0425 C5120000 		.4byte	.LASF61
 2400 0429 0A       		.byte	0xa
 2401 042a 31       		.byte	0x31
 2402 042b 02010000 		.4byte	0x102
 2403 042f 64       		.byte	0x64
 2404 0430 0B       		.uleb128 0xb
 2405 0431 C9030000 		.4byte	.LASF62
 2406 0435 0A       		.byte	0xa
 2407 0436 32       		.byte	0x32
 2408 0437 FD000000 		.4byte	0xfd
 2409 043b 68       		.byte	0x68
 2410 043c 0B       		.uleb128 0xb
 2411 043d FA110000 		.4byte	.LASF63
 2412 0441 0A       		.byte	0xa
 2413 0442 33       		.byte	0x33
 2414 0443 FD000000 		.4byte	0xfd
 2415 0447 6C       		.byte	0x6c
 2416 0448 0B       		.uleb128 0xb
 2417 0449 EA050000 		.4byte	.LASF64
 2418 044d 0A       		.byte	0xa
 2419 044e 34       		.byte	0x34
 2420 044f FD000000 		.4byte	0xfd
 2421 0453 70       		.byte	0x70
 2422 0454 0B       		.uleb128 0xb
 2423 0455 46120000 		.4byte	.LASF65
 2424 0459 0A       		.byte	0xa
 2425 045a 35       		.byte	0x35
 2426 045b F4060000 		.4byte	0x6f4
 2427 045f 74       		.byte	0x74
 2428 0460 0D       		.uleb128 0xd
 2429 0461 89080000 		.4byte	.LASF66
 2430 0465 0A       		.byte	0xa
 2431 0466 36       		.byte	0x36
 2432 0467 FD000000 		.4byte	0xfd
 2433 046b 0002     		.2byte	0x200
 2434 046d 0D       		.uleb128 0xd
 2435 046e 04140000 		.4byte	.LASF67
 2436 0472 0A       		.byte	0xa
 2437 0473 37       		.byte	0x37
 2438 0474 FD000000 		.4byte	0xfd
 2439 0478 0402     		.2byte	0x204
 2440 047a 0D       		.uleb128 0xd
 2441 047b 27020000 		.4byte	.LASF68
ARM GAS  C:\Users\gab_1\AppData\Local\Temp\ccTtYdci.s 			page 107


 2442 047f 0A       		.byte	0xa
 2443 0480 38       		.byte	0x38
 2444 0481 02010000 		.4byte	0x102
 2445 0485 0802     		.2byte	0x208
 2446 0487 0D       		.uleb128 0xd
 2447 0488 50120000 		.4byte	.LASF69
 2448 048c 0A       		.byte	0xa
 2449 048d 39       		.byte	0x39
 2450 048e FE060000 		.4byte	0x6fe
 2451 0492 0C02     		.2byte	0x20c
 2452 0494 0D       		.uleb128 0xd
 2453 0495 14170000 		.4byte	.LASF70
 2454 0499 0A       		.byte	0xa
 2455 049a 3A       		.byte	0x3a
 2456 049b FD000000 		.4byte	0xfd
 2457 049f 4002     		.2byte	0x240
 2458 04a1 0D       		.uleb128 0xd
 2459 04a2 5A120000 		.4byte	.LASF71
 2460 04a6 0A       		.byte	0xa
 2461 04a7 3B       		.byte	0x3b
 2462 04a8 08070000 		.4byte	0x708
 2463 04ac 4402     		.2byte	0x244
 2464 04ae 0D       		.uleb128 0xd
 2465 04af CF140000 		.4byte	.LASF72
 2466 04b3 0A       		.byte	0xa
 2467 04b4 3C       		.byte	0x3c
 2468 04b5 FD000000 		.4byte	0xfd
 2469 04b9 0003     		.2byte	0x300
 2470 04bb 0D       		.uleb128 0xd
 2471 04bc BC0C0000 		.4byte	.LASF73
 2472 04c0 0A       		.byte	0xa
 2473 04c1 3D       		.byte	0x3d
 2474 04c2 FD000000 		.4byte	0xfd
 2475 04c6 0403     		.2byte	0x304
 2476 04c8 0D       		.uleb128 0xd
 2477 04c9 CD160000 		.4byte	.LASF74
 2478 04cd 0A       		.byte	0xa
 2479 04ce 3E       		.byte	0x3e
 2480 04cf 02010000 		.4byte	0x102
 2481 04d3 0803     		.2byte	0x308
 2482 04d5 0D       		.uleb128 0xd
 2483 04d6 64120000 		.4byte	.LASF75
 2484 04da 0A       		.byte	0xa
 2485 04db 3F       		.byte	0x3f
 2486 04dc 02010000 		.4byte	0x102
 2487 04e0 0C03     		.2byte	0x30c
 2488 04e2 0D       		.uleb128 0xd
 2489 04e3 DC090000 		.4byte	.LASF76
 2490 04e7 0A       		.byte	0xa
 2491 04e8 40       		.byte	0x40
 2492 04e9 FD000000 		.4byte	0xfd
 2493 04ed 1003     		.2byte	0x310
 2494 04ef 0D       		.uleb128 0xd
 2495 04f0 4A190000 		.4byte	.LASF77
 2496 04f4 0A       		.byte	0xa
 2497 04f5 41       		.byte	0x41
 2498 04f6 12070000 		.4byte	0x712
ARM GAS  C:\Users\gab_1\AppData\Local\Temp\ccTtYdci.s 			page 108


 2499 04fa 1403     		.2byte	0x314
 2500 04fc 0D       		.uleb128 0xd
 2501 04fd 73190000 		.4byte	.LASF78
 2502 0501 0A       		.byte	0xa
 2503 0502 42       		.byte	0x42
 2504 0503 02010000 		.4byte	0x102
 2505 0507 4003     		.2byte	0x340
 2506 0509 0D       		.uleb128 0xd
 2507 050a 37060000 		.4byte	.LASF79
 2508 050e 0A       		.byte	0xa
 2509 050f 43       		.byte	0x43
 2510 0510 02010000 		.4byte	0x102
 2511 0514 4403     		.2byte	0x344
 2512 0516 0D       		.uleb128 0xd
 2513 0517 89120000 		.4byte	.LASF80
 2514 051b 0A       		.byte	0xa
 2515 051c 44       		.byte	0x44
 2516 051d 1C070000 		.4byte	0x71c
 2517 0521 4803     		.2byte	0x348
 2518 0523 0D       		.uleb128 0xd
 2519 0524 D20F0000 		.4byte	.LASF81
 2520 0528 0A       		.byte	0xa
 2521 0529 45       		.byte	0x45
 2522 052a 21070000 		.4byte	0x721
 2523 052e 0004     		.2byte	0x400
 2524 0530 0D       		.uleb128 0xd
 2525 0531 93120000 		.4byte	.LASF82
 2526 0535 0A       		.byte	0xa
 2527 0536 46       		.byte	0x46
 2528 0537 2B070000 		.4byte	0x72b
 2529 053b 000C     		.2byte	0xc00
 2530 053d 0D       		.uleb128 0xd
 2531 053e 80020000 		.4byte	.LASF83
 2532 0542 0A       		.byte	0xa
 2533 0543 47       		.byte	0x47
 2534 0544 02010000 		.4byte	0x102
 2535 0548 000E     		.2byte	0xe00
 2536 054a 0D       		.uleb128 0xd
 2537 054b 78160000 		.4byte	.LASF84
 2538 054f 0A       		.byte	0xa
 2539 0550 48       		.byte	0x48
 2540 0551 35070000 		.4byte	0x735
 2541 0555 040E     		.2byte	0xe04
 2542 0557 0D       		.uleb128 0xd
 2543 0558 770A0000 		.4byte	.LASF85
 2544 055c 0A       		.byte	0xa
 2545 055d 49       		.byte	0x49
 2546 055e FD000000 		.4byte	0xfd
 2547 0562 800E     		.2byte	0xe80
 2548 0564 0D       		.uleb128 0xd
 2549 0565 83160000 		.4byte	.LASF86
 2550 0569 0A       		.byte	0xa
 2551 056a 4A       		.byte	0x4a
 2552 056b 02010000 		.4byte	0x102
 2553 056f 840E     		.2byte	0xe84
 2554 0571 0D       		.uleb128 0xd
 2555 0572 F0100000 		.4byte	.LASF87
ARM GAS  C:\Users\gab_1\AppData\Local\Temp\ccTtYdci.s 			page 109


 2556 0576 0A       		.byte	0xa
 2557 0577 4B       		.byte	0x4b
 2558 0578 FD000000 		.4byte	0xfd
 2559 057c 880E     		.2byte	0xe88
 2560 057e 0D       		.uleb128 0xd
 2561 057f 1B0C0000 		.4byte	.LASF88
 2562 0583 0A       		.byte	0xa
 2563 0584 4C       		.byte	0x4c
 2564 0585 02010000 		.4byte	0x102
 2565 0589 8C0E     		.2byte	0xe8c
 2566 058b 0D       		.uleb128 0xd
 2567 058c F3070000 		.4byte	.LASF89
 2568 0590 0A       		.byte	0xa
 2569 0591 4D       		.byte	0x4d
 2570 0592 3F070000 		.4byte	0x73f
 2571 0596 900E     		.2byte	0xe90
 2572 0598 0D       		.uleb128 0xd
 2573 0599 64090000 		.4byte	.LASF90
 2574 059d 0A       		.byte	0xa
 2575 059e 4E       		.byte	0x4e
 2576 059f FD000000 		.4byte	0xfd
 2577 05a3 C00E     		.2byte	0xec0
 2578 05a5 0D       		.uleb128 0xd
 2579 05a6 96160000 		.4byte	.LASF91
 2580 05aa 0A       		.byte	0xa
 2581 05ab 4F       		.byte	0x4f
 2582 05ac 02010000 		.4byte	0x102
 2583 05b0 C40E     		.2byte	0xec4
 2584 05b2 0D       		.uleb128 0xd
 2585 05b3 D2110000 		.4byte	.LASF92
 2586 05b7 0A       		.byte	0xa
 2587 05b8 50       		.byte	0x50
 2588 05b9 FD000000 		.4byte	0xfd
 2589 05bd C80E     		.2byte	0xec8
 2590 05bf 0D       		.uleb128 0xd
 2591 05c0 2C140000 		.4byte	.LASF93
 2592 05c4 0A       		.byte	0xa
 2593 05c5 51       		.byte	0x51
 2594 05c6 02010000 		.4byte	0x102
 2595 05ca CC0E     		.2byte	0xecc
 2596 05cc 0D       		.uleb128 0xd
 2597 05cd A1160000 		.4byte	.LASF94
 2598 05d1 0A       		.byte	0xa
 2599 05d2 52       		.byte	0x52
 2600 05d3 49070000 		.4byte	0x749
 2601 05d7 D00E     		.2byte	0xed0
 2602 05d9 0D       		.uleb128 0xd
 2603 05da 4C150000 		.4byte	.LASF95
 2604 05de 0A       		.byte	0xa
 2605 05df 53       		.byte	0x53
 2606 05e0 FD000000 		.4byte	0xfd
 2607 05e4 000F     		.2byte	0xf00
 2608 05e6 0D       		.uleb128 0xd
 2609 05e7 70060000 		.4byte	.LASF96
 2610 05eb 0A       		.byte	0xa
 2611 05ec 54       		.byte	0x54
 2612 05ed FD000000 		.4byte	0xfd
ARM GAS  C:\Users\gab_1\AppData\Local\Temp\ccTtYdci.s 			page 110


 2613 05f1 040F     		.2byte	0xf04
 2614 05f3 0D       		.uleb128 0xd
 2615 05f4 89150000 		.4byte	.LASF97
 2616 05f8 0A       		.byte	0xa
 2617 05f9 55       		.byte	0x55
 2618 05fa FD000000 		.4byte	0xfd
 2619 05fe 080F     		.2byte	0xf08
 2620 0600 0D       		.uleb128 0xd
 2621 0601 DB060000 		.4byte	.LASF98
 2622 0605 0A       		.byte	0xa
 2623 0606 56       		.byte	0x56
 2624 0607 02010000 		.4byte	0x102
 2625 060b 0C0F     		.2byte	0xf0c
 2626 060d 0D       		.uleb128 0xd
 2627 060e AC160000 		.4byte	.LASF99
 2628 0612 0A       		.byte	0xa
 2629 0613 57       		.byte	0x57
 2630 0614 53070000 		.4byte	0x753
 2631 0618 100F     		.2byte	0xf10
 2632 061a 0D       		.uleb128 0xd
 2633 061b 65150000 		.4byte	.LASF100
 2634 061f 0A       		.byte	0xa
 2635 0620 58       		.byte	0x58
 2636 0621 FD000000 		.4byte	0xfd
 2637 0625 400F     		.2byte	0xf40
 2638 0627 0D       		.uleb128 0xd
 2639 0628 25030000 		.4byte	.LASF101
 2640 062c 0A       		.byte	0xa
 2641 062d 59       		.byte	0x59
 2642 062e FD000000 		.4byte	0xfd
 2643 0632 440F     		.2byte	0xf44
 2644 0634 0D       		.uleb128 0xd
 2645 0635 C70B0000 		.4byte	.LASF102
 2646 0639 0A       		.byte	0xa
 2647 063a 5A       		.byte	0x5a
 2648 063b FD000000 		.4byte	0xfd
 2649 063f 480F     		.2byte	0xf48
 2650 0641 0D       		.uleb128 0xd
 2651 0642 A80A0000 		.4byte	.LASF103
 2652 0646 0A       		.byte	0xa
 2653 0647 5B       		.byte	0x5b
 2654 0648 02010000 		.4byte	0x102
 2655 064c 4C0F     		.2byte	0xf4c
 2656 064e 0D       		.uleb128 0xd
 2657 064f B7160000 		.4byte	.LASF104
 2658 0653 0A       		.byte	0xa
 2659 0654 5C       		.byte	0x5c
 2660 0655 5D070000 		.4byte	0x75d
 2661 0659 500F     		.2byte	0xf50
 2662 065b 0D       		.uleb128 0xd
 2663 065c 8B130000 		.4byte	.LASF105
 2664 0660 0A       		.byte	0xa
 2665 0661 5D       		.byte	0x5d
 2666 0662 FD000000 		.4byte	0xfd
 2667 0666 800F     		.2byte	0xf80
 2668 0668 0D       		.uleb128 0xd
 2669 0669 91080000 		.4byte	.LASF106
ARM GAS  C:\Users\gab_1\AppData\Local\Temp\ccTtYdci.s 			page 111


 2670 066d 0A       		.byte	0xa
 2671 066e 5E       		.byte	0x5e
 2672 066f FD000000 		.4byte	0xfd
 2673 0673 840F     		.2byte	0xf84
 2674 0675 0D       		.uleb128 0xd
 2675 0676 BA010000 		.4byte	.LASF107
 2676 067a 0A       		.byte	0xa
 2677 067b 5F       		.byte	0x5f
 2678 067c FD000000 		.4byte	0xfd
 2679 0680 880F     		.2byte	0xf88
 2680 0682 0D       		.uleb128 0xd
 2681 0683 9A060000 		.4byte	.LASF108
 2682 0687 0A       		.byte	0xa
 2683 0688 60       		.byte	0x60
 2684 0689 02010000 		.4byte	0x102
 2685 068d 8C0F     		.2byte	0xf8c
 2686 068f 0D       		.uleb128 0xd
 2687 0690 C2160000 		.4byte	.LASF109
 2688 0694 0A       		.byte	0xa
 2689 0695 61       		.byte	0x61
 2690 0696 67070000 		.4byte	0x767
 2691 069a 900F     		.2byte	0xf90
 2692 069c 0D       		.uleb128 0xd
 2693 069d F50F0000 		.4byte	.LASF110
 2694 06a1 0A       		.byte	0xa
 2695 06a2 62       		.byte	0x62
 2696 06a3 FD000000 		.4byte	0xfd
 2697 06a7 C00F     		.2byte	0xfc0
 2698 06a9 0D       		.uleb128 0xd
 2699 06aa D3180000 		.4byte	.LASF111
 2700 06ae 0A       		.byte	0xa
 2701 06af 63       		.byte	0x63
 2702 06b0 FD000000 		.4byte	0xfd
 2703 06b4 C40F     		.2byte	0xfc4
 2704 06b6 0D       		.uleb128 0xd
 2705 06b7 E0170000 		.4byte	.LASF112
 2706 06bb 0A       		.byte	0xa
 2707 06bc 64       		.byte	0x64
 2708 06bd FD000000 		.4byte	0xfd
 2709 06c1 C80F     		.2byte	0xfc8
 2710 06c3 0D       		.uleb128 0xd
 2711 06c4 37030000 		.4byte	.LASF113
 2712 06c8 0A       		.byte	0xa
 2713 06c9 65       		.byte	0x65
 2714 06ca 02010000 		.4byte	0x102
 2715 06ce CC0F     		.2byte	0xfcc
 2716 06d0 00       		.byte	0
 2717 06d1 05       		.uleb128 0x5
 2718 06d2 07010000 		.4byte	0x107
 2719 06d6 06       		.uleb128 0x6
 2720 06d7 D1060000 		.4byte	0x6d1
 2721 06db 05       		.uleb128 0x5
 2722 06dc 17010000 		.4byte	0x117
 2723 06e0 06       		.uleb128 0x6
 2724 06e1 DB060000 		.4byte	0x6db
 2725 06e5 05       		.uleb128 0x5
 2726 06e6 67010000 		.4byte	0x167
ARM GAS  C:\Users\gab_1\AppData\Local\Temp\ccTtYdci.s 			page 112


 2727 06ea 06       		.uleb128 0x6
 2728 06eb E5060000 		.4byte	0x6e5
 2729 06ef 05       		.uleb128 0x5
 2730 06f0 57030000 		.4byte	0x357
 2731 06f4 06       		.uleb128 0x6
 2732 06f5 EF060000 		.4byte	0x6ef
 2733 06f9 05       		.uleb128 0x5
 2734 06fa 37010000 		.4byte	0x137
 2735 06fe 06       		.uleb128 0x6
 2736 06ff F9060000 		.4byte	0x6f9
 2737 0703 05       		.uleb128 0x5
 2738 0704 26030000 		.4byte	0x326
 2739 0708 06       		.uleb128 0x6
 2740 0709 03070000 		.4byte	0x703
 2741 070d 05       		.uleb128 0x5
 2742 070e 16030000 		.4byte	0x316
 2743 0712 06       		.uleb128 0x6
 2744 0713 0D070000 		.4byte	0x70d
 2745 0717 05       		.uleb128 0x5
 2746 0718 36030000 		.4byte	0x336
 2747 071c 06       		.uleb128 0x6
 2748 071d 17070000 		.4byte	0x717
 2749 0721 05       		.uleb128 0x5
 2750 0722 46030000 		.4byte	0x346
 2751 0726 05       		.uleb128 0x5
 2752 0727 27010000 		.4byte	0x127
 2753 072b 06       		.uleb128 0x6
 2754 072c 26070000 		.4byte	0x726
 2755 0730 05       		.uleb128 0x5
 2756 0731 57010000 		.4byte	0x157
 2757 0735 06       		.uleb128 0x6
 2758 0736 30070000 		.4byte	0x730
 2759 073a 05       		.uleb128 0x5
 2760 073b 77010000 		.4byte	0x177
 2761 073f 06       		.uleb128 0x6
 2762 0740 3A070000 		.4byte	0x73a
 2763 0744 05       		.uleb128 0x5
 2764 0745 77010000 		.4byte	0x177
 2765 0749 06       		.uleb128 0x6
 2766 074a 44070000 		.4byte	0x744
 2767 074e 05       		.uleb128 0x5
 2768 074f 77010000 		.4byte	0x177
 2769 0753 06       		.uleb128 0x6
 2770 0754 4E070000 		.4byte	0x74e
 2771 0758 05       		.uleb128 0x5
 2772 0759 77010000 		.4byte	0x177
 2773 075d 06       		.uleb128 0x6
 2774 075e 58070000 		.4byte	0x758
 2775 0762 05       		.uleb128 0x5
 2776 0763 77010000 		.4byte	0x177
 2777 0767 06       		.uleb128 0x6
 2778 0768 62070000 		.4byte	0x762
 2779 076c 03       		.uleb128 0x3
 2780 076d 890B0000 		.4byte	.LASF114
 2781 0771 0A       		.byte	0xa
 2782 0772 66       		.byte	0x66
 2783 0773 67030000 		.4byte	0x367
ARM GAS  C:\Users\gab_1\AppData\Local\Temp\ccTtYdci.s 			page 113


 2784 0777 0F       		.uleb128 0xf
 2785 0778 E70A0000 		.4byte	.LASF115
 2786 077c 0B       		.byte	0xb
 2787 077d 3106     		.2byte	0x631
 2788 077f 65020000 		.4byte	0x265
 2789 0783 0F       		.uleb128 0xf
 2790 0784 1F160000 		.4byte	.LASF116
 2791 0788 0B       		.byte	0xb
 2792 0789 3206     		.2byte	0x632
 2793 078b 0B030000 		.4byte	0x30b
 2794 078f 0F       		.uleb128 0xf
 2795 0790 A9050000 		.4byte	.LASF117
 2796 0794 0B       		.byte	0xb
 2797 0795 4F06     		.2byte	0x64f
 2798 0797 6C070000 		.4byte	0x76c
 2799 079b 02       		.uleb128 0x2
 2800 079c 08       		.byte	0x8
 2801 079d 04       		.byte	0x4
 2802 079e D3100000 		.4byte	.LASF118
 2803 07a2 09       		.uleb128 0x9
 2804 07a3 B8       		.byte	0xb8
 2805 07a4 0C       		.byte	0xc
 2806 07a5 34       		.byte	0x34
 2807 07a6 B30B0000 		.4byte	0xbb3
 2808 07aa 0B       		.uleb128 0xb
 2809 07ab F9020000 		.4byte	.LASF119
 2810 07af 0C       		.byte	0xc
 2811 07b0 37       		.byte	0x37
 2812 07b1 EB000000 		.4byte	0xeb
 2813 07b5 00       		.byte	0
 2814 07b6 0B       		.uleb128 0xb
 2815 07b7 790B0000 		.4byte	.LASF120
 2816 07bb 0C       		.byte	0xc
 2817 07bc 38       		.byte	0x38
 2818 07bd EB000000 		.4byte	0xeb
 2819 07c1 04       		.byte	0x4
 2820 07c2 0B       		.uleb128 0xb
 2821 07c3 C7010000 		.4byte	.LASF121
 2822 07c7 0C       		.byte	0xc
 2823 07c8 39       		.byte	0x39
 2824 07c9 EB000000 		.4byte	0xeb
 2825 07cd 08       		.byte	0x8
 2826 07ce 0B       		.uleb128 0xb
 2827 07cf 19080000 		.4byte	.LASF122
 2828 07d3 0C       		.byte	0xc
 2829 07d4 3A       		.byte	0x3a
 2830 07d5 EB000000 		.4byte	0xeb
 2831 07d9 0C       		.byte	0xc
 2832 07da 0B       		.uleb128 0xb
 2833 07db 01110000 		.4byte	.LASF123
 2834 07df 0C       		.byte	0xc
 2835 07e0 3B       		.byte	0x3b
 2836 07e1 EB000000 		.4byte	0xeb
 2837 07e5 10       		.byte	0x10
 2838 07e6 0B       		.uleb128 0xb
 2839 07e7 B10E0000 		.4byte	.LASF124
 2840 07eb 0C       		.byte	0xc
ARM GAS  C:\Users\gab_1\AppData\Local\Temp\ccTtYdci.s 			page 114


 2841 07ec 3C       		.byte	0x3c
 2842 07ed EB000000 		.4byte	0xeb
 2843 07f1 14       		.byte	0x14
 2844 07f2 0B       		.uleb128 0xb
 2845 07f3 56090000 		.4byte	.LASF125
 2846 07f7 0C       		.byte	0xc
 2847 07f8 3D       		.byte	0x3d
 2848 07f9 EB000000 		.4byte	0xeb
 2849 07fd 18       		.byte	0x18
 2850 07fe 0B       		.uleb128 0xb
 2851 07ff B6180000 		.4byte	.LASF126
 2852 0803 0C       		.byte	0xc
 2853 0804 3E       		.byte	0x3e
 2854 0805 EB000000 		.4byte	0xeb
 2855 0809 1C       		.byte	0x1c
 2856 080a 0B       		.uleb128 0xb
 2857 080b F50D0000 		.4byte	.LASF127
 2858 080f 0C       		.byte	0xc
 2859 0810 3F       		.byte	0x3f
 2860 0811 EB000000 		.4byte	0xeb
 2861 0815 20       		.byte	0x20
 2862 0816 0B       		.uleb128 0xb
 2863 0817 120E0000 		.4byte	.LASF128
 2864 081b 0C       		.byte	0xc
 2865 081c 40       		.byte	0x40
 2866 081d EB000000 		.4byte	0xeb
 2867 0821 24       		.byte	0x24
 2868 0822 0B       		.uleb128 0xb
 2869 0823 B8120000 		.4byte	.LASF129
 2870 0827 0C       		.byte	0xc
 2871 0828 43       		.byte	0x43
 2872 0829 BF000000 		.4byte	0xbf
 2873 082d 28       		.byte	0x28
 2874 082e 0B       		.uleb128 0xb
 2875 082f CD060000 		.4byte	.LASF130
 2876 0833 0C       		.byte	0xc
 2877 0834 44       		.byte	0x44
 2878 0835 BF000000 		.4byte	0xbf
 2879 0839 29       		.byte	0x29
 2880 083a 0B       		.uleb128 0xb
 2881 083b 70080000 		.4byte	.LASF131
 2882 083f 0C       		.byte	0xc
 2883 0840 45       		.byte	0x45
 2884 0841 BF000000 		.4byte	0xbf
 2885 0845 2A       		.byte	0x2a
 2886 0846 0B       		.uleb128 0xb
 2887 0847 FE120000 		.4byte	.LASF132
 2888 084b 0C       		.byte	0xc
 2889 084c 46       		.byte	0x46
 2890 084d BF000000 		.4byte	0xbf
 2891 0851 2B       		.byte	0x2b
 2892 0852 0B       		.uleb128 0xb
 2893 0853 DF120000 		.4byte	.LASF133
 2894 0857 0C       		.byte	0xc
 2895 0858 47       		.byte	0x47
 2896 0859 BF000000 		.4byte	0xbf
 2897 085d 2C       		.byte	0x2c
ARM GAS  C:\Users\gab_1\AppData\Local\Temp\ccTtYdci.s 			page 115


 2898 085e 0B       		.uleb128 0xb
 2899 085f 0D150000 		.4byte	.LASF134
 2900 0863 0C       		.byte	0xc
 2901 0864 48       		.byte	0x48
 2902 0865 BF000000 		.4byte	0xbf
 2903 0869 2D       		.byte	0x2d
 2904 086a 0B       		.uleb128 0xb
 2905 086b 7E190000 		.4byte	.LASF135
 2906 086f 0C       		.byte	0xc
 2907 0870 49       		.byte	0x49
 2908 0871 BF000000 		.4byte	0xbf
 2909 0875 2E       		.byte	0x2e
 2910 0876 0B       		.uleb128 0xb
 2911 0877 7D180000 		.4byte	.LASF136
 2912 087b 0C       		.byte	0xc
 2913 087c 4A       		.byte	0x4a
 2914 087d BF000000 		.4byte	0xbf
 2915 0881 2F       		.byte	0x2f
 2916 0882 0B       		.uleb128 0xb
 2917 0883 3E050000 		.4byte	.LASF137
 2918 0887 0C       		.byte	0xc
 2919 0888 4B       		.byte	0x4b
 2920 0889 BF000000 		.4byte	0xbf
 2921 088d 30       		.byte	0x30
 2922 088e 0B       		.uleb128 0xb
 2923 088f 750F0000 		.4byte	.LASF138
 2924 0893 0C       		.byte	0xc
 2925 0894 4E       		.byte	0x4e
 2926 0895 BF000000 		.4byte	0xbf
 2927 0899 31       		.byte	0x31
 2928 089a 0B       		.uleb128 0xb
 2929 089b D2170000 		.4byte	.LASF139
 2930 089f 0C       		.byte	0xc
 2931 08a0 4F       		.byte	0x4f
 2932 08a1 BF000000 		.4byte	0xbf
 2933 08a5 32       		.byte	0x32
 2934 08a6 0B       		.uleb128 0xb
 2935 08a7 3F0A0000 		.4byte	.LASF140
 2936 08ab 0C       		.byte	0xc
 2937 08ac 50       		.byte	0x50
 2938 08ad BF000000 		.4byte	0xbf
 2939 08b1 33       		.byte	0x33
 2940 08b2 0B       		.uleb128 0xb
 2941 08b3 5B0B0000 		.4byte	.LASF141
 2942 08b7 0C       		.byte	0xc
 2943 08b8 51       		.byte	0x51
 2944 08b9 BF000000 		.4byte	0xbf
 2945 08bd 34       		.byte	0x34
 2946 08be 0B       		.uleb128 0xb
 2947 08bf B7070000 		.4byte	.LASF142
 2948 08c3 0C       		.byte	0xc
 2949 08c4 52       		.byte	0x52
 2950 08c5 CA000000 		.4byte	0xca
 2951 08c9 36       		.byte	0x36
 2952 08ca 0B       		.uleb128 0xb
 2953 08cb 2E040000 		.4byte	.LASF143
 2954 08cf 0C       		.byte	0xc
ARM GAS  C:\Users\gab_1\AppData\Local\Temp\ccTtYdci.s 			page 116


 2955 08d0 53       		.byte	0x53
 2956 08d1 CA000000 		.4byte	0xca
 2957 08d5 38       		.byte	0x38
 2958 08d6 0B       		.uleb128 0xb
 2959 08d7 D60E0000 		.4byte	.LASF144
 2960 08db 0C       		.byte	0xc
 2961 08dc 54       		.byte	0x54
 2962 08dd CA000000 		.4byte	0xca
 2963 08e1 3A       		.byte	0x3a
 2964 08e2 0B       		.uleb128 0xb
 2965 08e3 E9180000 		.4byte	.LASF145
 2966 08e7 0C       		.byte	0xc
 2967 08e8 55       		.byte	0x55
 2968 08e9 BF000000 		.4byte	0xbf
 2969 08ed 3C       		.byte	0x3c
 2970 08ee 0B       		.uleb128 0xb
 2971 08ef 20090000 		.4byte	.LASF146
 2972 08f3 0C       		.byte	0xc
 2973 08f4 56       		.byte	0x56
 2974 08f5 BF000000 		.4byte	0xbf
 2975 08f9 3D       		.byte	0x3d
 2976 08fa 0B       		.uleb128 0xb
 2977 08fb 6C110000 		.4byte	.LASF147
 2978 08ff 0C       		.byte	0xc
 2979 0900 57       		.byte	0x57
 2980 0901 BF000000 		.4byte	0xbf
 2981 0905 3E       		.byte	0x3e
 2982 0906 0B       		.uleb128 0xb
 2983 0907 AB000000 		.4byte	.LASF148
 2984 090b 0C       		.byte	0xc
 2985 090c 58       		.byte	0x58
 2986 090d BF000000 		.4byte	0xbf
 2987 0911 3F       		.byte	0x3f
 2988 0912 0B       		.uleb128 0xb
 2989 0913 8B020000 		.4byte	.LASF149
 2990 0917 0C       		.byte	0xc
 2991 0918 59       		.byte	0x59
 2992 0919 BF000000 		.4byte	0xbf
 2993 091d 40       		.byte	0x40
 2994 091e 0B       		.uleb128 0xb
 2995 091f A6180000 		.4byte	.LASF150
 2996 0923 0C       		.byte	0xc
 2997 0924 5A       		.byte	0x5a
 2998 0925 BF000000 		.4byte	0xbf
 2999 0929 41       		.byte	0x41
 3000 092a 0B       		.uleb128 0xb
 3001 092b E9060000 		.4byte	.LASF151
 3002 092f 0C       		.byte	0xc
 3003 0930 5B       		.byte	0x5b
 3004 0931 BF000000 		.4byte	0xbf
 3005 0935 42       		.byte	0x42
 3006 0936 0B       		.uleb128 0xb
 3007 0937 DC0A0000 		.4byte	.LASF152
 3008 093b 0C       		.byte	0xc
 3009 093c 5C       		.byte	0x5c
 3010 093d BF000000 		.4byte	0xbf
 3011 0941 43       		.byte	0x43
ARM GAS  C:\Users\gab_1\AppData\Local\Temp\ccTtYdci.s 			page 117


 3012 0942 0B       		.uleb128 0xb
 3013 0943 E60B0000 		.4byte	.LASF153
 3014 0947 0C       		.byte	0xc
 3015 0948 5D       		.byte	0x5d
 3016 0949 BF000000 		.4byte	0xbf
 3017 094d 44       		.byte	0x44
 3018 094e 0B       		.uleb128 0xb
 3019 094f 0C130000 		.4byte	.LASF154
 3020 0953 0C       		.byte	0xc
 3021 0954 5E       		.byte	0x5e
 3022 0955 EB000000 		.4byte	0xeb
 3023 0959 48       		.byte	0x48
 3024 095a 0B       		.uleb128 0xb
 3025 095b BB030000 		.4byte	.LASF155
 3026 095f 0C       		.byte	0xc
 3027 0960 5F       		.byte	0x5f
 3028 0961 EB000000 		.4byte	0xeb
 3029 0965 4C       		.byte	0x4c
 3030 0966 0B       		.uleb128 0xb
 3031 0967 56170000 		.4byte	.LASF156
 3032 096b 0C       		.byte	0xc
 3033 096c 60       		.byte	0x60
 3034 096d BF000000 		.4byte	0xbf
 3035 0971 50       		.byte	0x50
 3036 0972 0B       		.uleb128 0xb
 3037 0973 70090000 		.4byte	.LASF157
 3038 0977 0C       		.byte	0xc
 3039 0978 61       		.byte	0x61
 3040 0979 BF000000 		.4byte	0xbf
 3041 097d 51       		.byte	0x51
 3042 097e 0B       		.uleb128 0xb
 3043 097f 4C0E0000 		.4byte	.LASF158
 3044 0983 0C       		.byte	0xc
 3045 0984 62       		.byte	0x62
 3046 0985 BF000000 		.4byte	0xbf
 3047 0989 52       		.byte	0x52
 3048 098a 0B       		.uleb128 0xb
 3049 098b 37100000 		.4byte	.LASF159
 3050 098f 0C       		.byte	0xc
 3051 0990 63       		.byte	0x63
 3052 0991 BF000000 		.4byte	0xbf
 3053 0995 53       		.byte	0x53
 3054 0996 0B       		.uleb128 0xb
 3055 0997 B3130000 		.4byte	.LASF160
 3056 099b 0C       		.byte	0xc
 3057 099c 64       		.byte	0x64
 3058 099d BF000000 		.4byte	0xbf
 3059 09a1 54       		.byte	0x54
 3060 09a2 0B       		.uleb128 0xb
 3061 09a3 DC160000 		.4byte	.LASF161
 3062 09a7 0C       		.byte	0xc
 3063 09a8 65       		.byte	0x65
 3064 09a9 BF000000 		.4byte	0xbf
 3065 09ad 55       		.byte	0x55
 3066 09ae 0B       		.uleb128 0xb
 3067 09af 00000000 		.4byte	.LASF162
 3068 09b3 0C       		.byte	0xc
ARM GAS  C:\Users\gab_1\AppData\Local\Temp\ccTtYdci.s 			page 118


 3069 09b4 66       		.byte	0x66
 3070 09b5 BF000000 		.4byte	0xbf
 3071 09b9 56       		.byte	0x56
 3072 09ba 0B       		.uleb128 0xb
 3073 09bb BF180000 		.4byte	.LASF163
 3074 09bf 0C       		.byte	0xc
 3075 09c0 67       		.byte	0x67
 3076 09c1 BF000000 		.4byte	0xbf
 3077 09c5 57       		.byte	0x57
 3078 09c6 0B       		.uleb128 0xb
 3079 09c7 E6080000 		.4byte	.LASF164
 3080 09cb 0C       		.byte	0xc
 3081 09cc 68       		.byte	0x68
 3082 09cd BF000000 		.4byte	0xbf
 3083 09d1 58       		.byte	0x58
 3084 09d2 0B       		.uleb128 0xb
 3085 09d3 20190000 		.4byte	.LASF165
 3086 09d7 0C       		.byte	0xc
 3087 09d8 69       		.byte	0x69
 3088 09d9 BF000000 		.4byte	0xbf
 3089 09dd 59       		.byte	0x59
 3090 09de 0B       		.uleb128 0xb
 3091 09df BD170000 		.4byte	.LASF166
 3092 09e3 0C       		.byte	0xc
 3093 09e4 6E       		.byte	0x6e
 3094 09e5 D5000000 		.4byte	0xd5
 3095 09e9 5A       		.byte	0x5a
 3096 09ea 0B       		.uleb128 0xb
 3097 09eb 1E020000 		.4byte	.LASF167
 3098 09ef 0C       		.byte	0xc
 3099 09f0 6F       		.byte	0x6f
 3100 09f1 D5000000 		.4byte	0xd5
 3101 09f5 5C       		.byte	0x5c
 3102 09f6 0B       		.uleb128 0xb
 3103 09f7 FD0D0000 		.4byte	.LASF168
 3104 09fb 0C       		.byte	0xc
 3105 09fc 70       		.byte	0x70
 3106 09fd BF000000 		.4byte	0xbf
 3107 0a01 5E       		.byte	0x5e
 3108 0a02 0B       		.uleb128 0xb
 3109 0a03 AB110000 		.4byte	.LASF169
 3110 0a07 0C       		.byte	0xc
 3111 0a08 71       		.byte	0x71
 3112 0a09 BF000000 		.4byte	0xbf
 3113 0a0d 5F       		.byte	0x5f
 3114 0a0e 0B       		.uleb128 0xb
 3115 0a0f FB0A0000 		.4byte	.LASF170
 3116 0a13 0C       		.byte	0xc
 3117 0a14 72       		.byte	0x72
 3118 0a15 BF000000 		.4byte	0xbf
 3119 0a19 60       		.byte	0x60
 3120 0a1a 0B       		.uleb128 0xb
 3121 0a1b AB0C0000 		.4byte	.LASF171
 3122 0a1f 0C       		.byte	0xc
 3123 0a20 73       		.byte	0x73
 3124 0a21 EB000000 		.4byte	0xeb
 3125 0a25 64       		.byte	0x64
ARM GAS  C:\Users\gab_1\AppData\Local\Temp\ccTtYdci.s 			page 119


 3126 0a26 0B       		.uleb128 0xb
 3127 0a27 EB190000 		.4byte	.LASF172
 3128 0a2b 0C       		.byte	0xc
 3129 0a2c 76       		.byte	0x76
 3130 0a2d D5000000 		.4byte	0xd5
 3131 0a31 68       		.byte	0x68
 3132 0a32 0B       		.uleb128 0xb
 3133 0a33 1F110000 		.4byte	.LASF173
 3134 0a37 0C       		.byte	0xc
 3135 0a38 77       		.byte	0x77
 3136 0a39 D5000000 		.4byte	0xd5
 3137 0a3d 6A       		.byte	0x6a
 3138 0a3e 0B       		.uleb128 0xb
 3139 0a3f C70E0000 		.4byte	.LASF174
 3140 0a43 0C       		.byte	0xc
 3141 0a44 78       		.byte	0x78
 3142 0a45 D5000000 		.4byte	0xd5
 3143 0a49 6C       		.byte	0x6c
 3144 0a4a 0B       		.uleb128 0xb
 3145 0a4b 8F030000 		.4byte	.LASF175
 3146 0a4f 0C       		.byte	0xc
 3147 0a50 79       		.byte	0x79
 3148 0a51 D5000000 		.4byte	0xd5
 3149 0a55 6E       		.byte	0x6e
 3150 0a56 0B       		.uleb128 0xb
 3151 0a57 310D0000 		.4byte	.LASF176
 3152 0a5b 0C       		.byte	0xc
 3153 0a5c 7B       		.byte	0x7b
 3154 0a5d BF000000 		.4byte	0xbf
 3155 0a61 70       		.byte	0x70
 3156 0a62 0B       		.uleb128 0xb
 3157 0a63 7E050000 		.4byte	.LASF177
 3158 0a67 0C       		.byte	0xc
 3159 0a68 7C       		.byte	0x7c
 3160 0a69 BF000000 		.4byte	0xbf
 3161 0a6d 71       		.byte	0x71
 3162 0a6e 0B       		.uleb128 0xb
 3163 0a6f 9C030000 		.4byte	.LASF178
 3164 0a73 0C       		.byte	0xc
 3165 0a74 7D       		.byte	0x7d
 3166 0a75 BF000000 		.4byte	0xbf
 3167 0a79 72       		.byte	0x72
 3168 0a7a 0B       		.uleb128 0xb
 3169 0a7b 98020000 		.4byte	.LASF179
 3170 0a7f 0C       		.byte	0xc
 3171 0a80 7E       		.byte	0x7e
 3172 0a81 BF000000 		.4byte	0xbf
 3173 0a85 73       		.byte	0x73
 3174 0a86 0B       		.uleb128 0xb
 3175 0a87 2A120000 		.4byte	.LASF180
 3176 0a8b 0C       		.byte	0xc
 3177 0a8c 80       		.byte	0x80
 3178 0a8d D5000000 		.4byte	0xd5
 3179 0a91 74       		.byte	0x74
 3180 0a92 0B       		.uleb128 0xb
 3181 0a93 49100000 		.4byte	.LASF181
 3182 0a97 0C       		.byte	0xc
ARM GAS  C:\Users\gab_1\AppData\Local\Temp\ccTtYdci.s 			page 120


 3183 0a98 81       		.byte	0x81
 3184 0a99 D5000000 		.4byte	0xd5
 3185 0a9d 76       		.byte	0x76
 3186 0a9e 0B       		.uleb128 0xb
 3187 0a9f 860D0000 		.4byte	.LASF182
 3188 0aa3 0C       		.byte	0xc
 3189 0aa4 82       		.byte	0x82
 3190 0aa5 D5000000 		.4byte	0xd5
 3191 0aa9 78       		.byte	0x78
 3192 0aaa 0B       		.uleb128 0xb
 3193 0aab 80070000 		.4byte	.LASF183
 3194 0aaf 0C       		.byte	0xc
 3195 0ab0 83       		.byte	0x83
 3196 0ab1 D5000000 		.4byte	0xd5
 3197 0ab5 7A       		.byte	0x7a
 3198 0ab6 0B       		.uleb128 0xb
 3199 0ab7 710D0000 		.4byte	.LASF184
 3200 0abb 0C       		.byte	0xc
 3201 0abc 86       		.byte	0x86
 3202 0abd BF000000 		.4byte	0xbf
 3203 0ac1 7C       		.byte	0x7c
 3204 0ac2 0B       		.uleb128 0xb
 3205 0ac3 67170000 		.4byte	.LASF185
 3206 0ac7 0C       		.byte	0xc
 3207 0ac8 87       		.byte	0x87
 3208 0ac9 BF000000 		.4byte	0xbf
 3209 0acd 7D       		.byte	0x7d
 3210 0ace 0B       		.uleb128 0xb
 3211 0acf 4B070000 		.4byte	.LASF186
 3212 0ad3 0C       		.byte	0xc
 3213 0ad4 88       		.byte	0x88
 3214 0ad5 BF000000 		.4byte	0xbf
 3215 0ad9 7E       		.byte	0x7e
 3216 0ada 0B       		.uleb128 0xb
 3217 0adb 80000000 		.4byte	.LASF187
 3218 0adf 0C       		.byte	0xc
 3219 0ae0 89       		.byte	0x89
 3220 0ae1 BF000000 		.4byte	0xbf
 3221 0ae5 7F       		.byte	0x7f
 3222 0ae6 0B       		.uleb128 0xb
 3223 0ae7 95070000 		.4byte	.LASF188
 3224 0aeb 0C       		.byte	0xc
 3225 0aec 8A       		.byte	0x8a
 3226 0aed BF000000 		.4byte	0xbf
 3227 0af1 80       		.byte	0x80
 3228 0af2 0B       		.uleb128 0xb
 3229 0af3 94000000 		.4byte	.LASF189
 3230 0af7 0C       		.byte	0xc
 3231 0af8 8D       		.byte	0x8d
 3232 0af9 EB000000 		.4byte	0xeb
 3233 0afd 84       		.byte	0x84
 3234 0afe 0B       		.uleb128 0xb
 3235 0aff A2140000 		.4byte	.LASF190
 3236 0b03 0C       		.byte	0xc
 3237 0b04 8E       		.byte	0x8e
 3238 0b05 EB000000 		.4byte	0xeb
 3239 0b09 88       		.byte	0x88
ARM GAS  C:\Users\gab_1\AppData\Local\Temp\ccTtYdci.s 			page 121


 3240 0b0a 0B       		.uleb128 0xb
 3241 0b0b 5B080000 		.4byte	.LASF191
 3242 0b0f 0C       		.byte	0xc
 3243 0b10 8F       		.byte	0x8f
 3244 0b11 EB000000 		.4byte	0xeb
 3245 0b15 8C       		.byte	0x8c
 3246 0b16 0B       		.uleb128 0xb
 3247 0b17 CC150000 		.4byte	.LASF192
 3248 0b1b 0C       		.byte	0xc
 3249 0b1c 90       		.byte	0x90
 3250 0b1d EB000000 		.4byte	0xeb
 3251 0b21 90       		.byte	0x90
 3252 0b22 0B       		.uleb128 0xb
 3253 0b23 CB130000 		.4byte	.LASF193
 3254 0b27 0C       		.byte	0xc
 3255 0b28 91       		.byte	0x91
 3256 0b29 EB000000 		.4byte	0xeb
 3257 0b2d 94       		.byte	0x94
 3258 0b2e 0B       		.uleb128 0xb
 3259 0b2f 93050000 		.4byte	.LASF194
 3260 0b33 0C       		.byte	0xc
 3261 0b34 92       		.byte	0x92
 3262 0b35 EB000000 		.4byte	0xeb
 3263 0b39 98       		.byte	0x98
 3264 0b3a 0B       		.uleb128 0xb
 3265 0b3b D7140000 		.4byte	.LASF195
 3266 0b3f 0C       		.byte	0xc
 3267 0b40 93       		.byte	0x93
 3268 0b41 EB000000 		.4byte	0xeb
 3269 0b45 9C       		.byte	0x9c
 3270 0b46 0B       		.uleb128 0xb
 3271 0b47 C60A0000 		.4byte	.LASF196
 3272 0b4b 0C       		.byte	0xc
 3273 0b4c 94       		.byte	0x94
 3274 0b4d EB000000 		.4byte	0xeb
 3275 0b51 A0       		.byte	0xa0
 3276 0b52 0B       		.uleb128 0xb
 3277 0b53 B4050000 		.4byte	.LASF197
 3278 0b57 0C       		.byte	0xc
 3279 0b58 95       		.byte	0x95
 3280 0b59 D5000000 		.4byte	0xd5
 3281 0b5d A4       		.byte	0xa4
 3282 0b5e 0B       		.uleb128 0xb
 3283 0b5f 04120000 		.4byte	.LASF198
 3284 0b63 0C       		.byte	0xc
 3285 0b64 96       		.byte	0x96
 3286 0b65 D5000000 		.4byte	0xd5
 3287 0b69 A6       		.byte	0xa6
 3288 0b6a 0B       		.uleb128 0xb
 3289 0b6b 53150000 		.4byte	.LASF199
 3290 0b6f 0C       		.byte	0xc
 3291 0b70 97       		.byte	0x97
 3292 0b71 D5000000 		.4byte	0xd5
 3293 0b75 A8       		.byte	0xa8
 3294 0b76 0B       		.uleb128 0xb
 3295 0b77 D40D0000 		.4byte	.LASF200
 3296 0b7b 0C       		.byte	0xc
ARM GAS  C:\Users\gab_1\AppData\Local\Temp\ccTtYdci.s 			page 122


 3297 0b7c 98       		.byte	0x98
 3298 0b7d D5000000 		.4byte	0xd5
 3299 0b81 AA       		.byte	0xaa
 3300 0b82 0B       		.uleb128 0xb
 3301 0b83 D3030000 		.4byte	.LASF201
 3302 0b87 0C       		.byte	0xc
 3303 0b88 99       		.byte	0x99
 3304 0b89 D5000000 		.4byte	0xd5
 3305 0b8d AC       		.byte	0xac
 3306 0b8e 0B       		.uleb128 0xb
 3307 0b8f A70F0000 		.4byte	.LASF202
 3308 0b93 0C       		.byte	0xc
 3309 0b94 9A       		.byte	0x9a
 3310 0b95 D5000000 		.4byte	0xd5
 3311 0b99 AE       		.byte	0xae
 3312 0b9a 0B       		.uleb128 0xb
 3313 0b9b FA030000 		.4byte	.LASF203
 3314 0b9f 0C       		.byte	0xc
 3315 0ba0 9D       		.byte	0x9d
 3316 0ba1 D5000000 		.4byte	0xd5
 3317 0ba5 B0       		.byte	0xb0
 3318 0ba6 0B       		.uleb128 0xb
 3319 0ba7 29160000 		.4byte	.LASF204
 3320 0bab 0C       		.byte	0xc
 3321 0bac 9E       		.byte	0x9e
 3322 0bad EB000000 		.4byte	0xeb
 3323 0bb1 B4       		.byte	0xb4
 3324 0bb2 00       		.byte	0
 3325 0bb3 03       		.uleb128 0x3
 3326 0bb4 40180000 		.4byte	.LASF205
 3327 0bb8 0C       		.byte	0xc
 3328 0bb9 9F       		.byte	0x9f
 3329 0bba A2070000 		.4byte	0x7a2
 3330 0bbe 0F       		.uleb128 0xf
 3331 0bbf 76130000 		.4byte	.LASF206
 3332 0bc3 0D       		.byte	0xd
 3333 0bc4 F601     		.2byte	0x1f6
 3334 0bc6 CA0B0000 		.4byte	0xbca
 3335 0bca 02       		.uleb128 0x2
 3336 0bcb 01       		.byte	0x1
 3337 0bcc 08       		.byte	0x8
 3338 0bcd 840B0000 		.4byte	.LASF207
 3339 0bd1 0F       		.uleb128 0xf
 3340 0bd2 41080000 		.4byte	.LASF208
 3341 0bd6 0D       		.byte	0xd
 3342 0bd7 F701     		.2byte	0x1f7
 3343 0bd9 25000000 		.4byte	0x25
 3344 0bdd 02       		.uleb128 0x2
 3345 0bde 08       		.byte	0x8
 3346 0bdf 04       		.byte	0x4
 3347 0be0 CD090000 		.4byte	.LASF209
 3348 0be4 0F       		.uleb128 0xf
 3349 0be5 A0180000 		.4byte	.LASF210
 3350 0be9 0D       		.byte	0xd
 3351 0bea EA03     		.2byte	0x3ea
 3352 0bec BF000000 		.4byte	0xbf
 3353 0bf0 0F       		.uleb128 0xf
ARM GAS  C:\Users\gab_1\AppData\Local\Temp\ccTtYdci.s 			page 123


 3354 0bf1 840C0000 		.4byte	.LASF211
 3355 0bf5 0D       		.byte	0xd
 3356 0bf6 F003     		.2byte	0x3f0
 3357 0bf8 25000000 		.4byte	0x25
 3358 0bfc 10       		.uleb128 0x10
 3359 0bfd 04       		.byte	0x4
 3360 0bfe EB000000 		.4byte	0xeb
 3361 0c02 11       		.uleb128 0x11
 3362 0c03 04       		.byte	0x4
 3363 0c04 02       		.uleb128 0x2
 3364 0c05 01       		.byte	0x1
 3365 0c06 02       		.byte	0x2
 3366 0c07 98170000 		.4byte	.LASF212
 3367 0c0b 12       		.uleb128 0x12
 3368 0c0c 04       		.byte	0x4
 3369 0c0d AD000000 		.4byte	0xad
 3370 0c11 0E       		.byte	0xe
 3371 0c12 DF01     		.2byte	0x1df
 3372 0c14 670C0000 		.4byte	0xc67
 3373 0c18 13       		.uleb128 0x13
 3374 0c19 080C0000 		.4byte	.LASF213
 3375 0c1d 00       		.byte	0
 3376 0c1e 14       		.uleb128 0x14
 3377 0c1f 1D0E0000 		.4byte	.LASF214
 3378 0c23 0120AA00 		.4byte	0xaa2001
 3379 0c27 14       		.uleb128 0x14
 3380 0c28 E5090000 		.4byte	.LASF215
 3381 0c2c 0220AA00 		.4byte	0xaa2002
 3382 0c30 14       		.uleb128 0x14
 3383 0c31 EE0C0000 		.4byte	.LASF216
 3384 0c35 0320AA00 		.4byte	0xaa2003
 3385 0c39 14       		.uleb128 0x14
 3386 0c3a 31110000 		.4byte	.LASF217
 3387 0c3e 0420AA00 		.4byte	0xaa2004
 3388 0c42 14       		.uleb128 0x14
 3389 0c43 59130000 		.4byte	.LASF218
 3390 0c47 0520AA00 		.4byte	0xaa2005
 3391 0c4b 14       		.uleb128 0x14
 3392 0c4c 1D0A0000 		.4byte	.LASF219
 3393 0c50 0620AA00 		.4byte	0xaa2006
 3394 0c54 14       		.uleb128 0x14
 3395 0c55 6D010000 		.4byte	.LASF220
 3396 0c59 0720AA00 		.4byte	0xaa2007
 3397 0c5d 14       		.uleb128 0x14
 3398 0c5e 74140000 		.4byte	.LASF221
 3399 0c62 0820AA00 		.4byte	0xaa2008
 3400 0c66 00       		.byte	0
 3401 0c67 0F       		.uleb128 0xf
 3402 0c68 ED140000 		.4byte	.LASF222
 3403 0c6c 0E       		.byte	0xe
 3404 0c6d 1102     		.2byte	0x211
 3405 0c6f 0B0C0000 		.4byte	0xc0b
 3406 0c73 12       		.uleb128 0x12
 3407 0c74 01       		.byte	0x1
 3408 0c75 50000000 		.4byte	0x50
 3409 0c79 0E       		.byte	0xe
 3410 0c7a 1D02     		.2byte	0x21d
ARM GAS  C:\Users\gab_1\AppData\Local\Temp\ccTtYdci.s 			page 124


 3411 0c7c 8D0C0000 		.4byte	0xc8d
 3412 0c80 13       		.uleb128 0x13
 3413 0c81 16140000 		.4byte	.LASF223
 3414 0c85 00       		.byte	0
 3415 0c86 13       		.uleb128 0x13
 3416 0c87 E6010000 		.4byte	.LASF224
 3417 0c8b 01       		.byte	0x1
 3418 0c8c 00       		.byte	0
 3419 0c8d 0F       		.uleb128 0xf
 3420 0c8e 99190000 		.4byte	.LASF225
 3421 0c92 0E       		.byte	0xe
 3422 0c93 2002     		.2byte	0x220
 3423 0c95 730C0000 		.4byte	0xc73
 3424 0c99 12       		.uleb128 0x12
 3425 0c9a 01       		.byte	0x1
 3426 0c9b 50000000 		.4byte	0x50
 3427 0c9f 0E       		.byte	0xe
 3428 0ca0 2402     		.2byte	0x224
 3429 0ca2 B30C0000 		.4byte	0xcb3
 3430 0ca6 13       		.uleb128 0x13
 3431 0ca7 46030000 		.4byte	.LASF226
 3432 0cab 00       		.byte	0
 3433 0cac 13       		.uleb128 0x13
 3434 0cad 08040000 		.4byte	.LASF227
 3435 0cb1 01       		.byte	0x1
 3436 0cb2 00       		.byte	0
 3437 0cb3 0F       		.uleb128 0xf
 3438 0cb4 77030000 		.4byte	.LASF228
 3439 0cb8 0E       		.byte	0xe
 3440 0cb9 2702     		.2byte	0x227
 3441 0cbb 990C0000 		.4byte	0xc99
 3442 0cbf 0F       		.uleb128 0xf
 3443 0cc0 52020000 		.4byte	.LASF229
 3444 0cc4 0E       		.byte	0xe
 3445 0cc5 3902     		.2byte	0x239
 3446 0cc7 CB0C0000 		.4byte	0xccb
 3447 0ccb 10       		.uleb128 0x10
 3448 0ccc 04       		.byte	0x4
 3449 0ccd D10C0000 		.4byte	0xcd1
 3450 0cd1 15       		.uleb128 0x15
 3451 0cd2 DC0C0000 		.4byte	0xcdc
 3452 0cd6 16       		.uleb128 0x16
 3453 0cd7 EB000000 		.4byte	0xeb
 3454 0cdb 00       		.byte	0
 3455 0cdc 0F       		.uleb128 0xf
 3456 0cdd 5D040000 		.4byte	.LASF230
 3457 0ce1 0E       		.byte	0xe
 3458 0ce2 4402     		.2byte	0x244
 3459 0ce4 E80C0000 		.4byte	0xce8
 3460 0ce8 10       		.uleb128 0x10
 3461 0ce9 04       		.byte	0x4
 3462 0cea EE0C0000 		.4byte	0xcee
 3463 0cee 17       		.uleb128 0x17
 3464 0cef B30C0000 		.4byte	0xcb3
 3465 0cf3 FD0C0000 		.4byte	0xcfd
 3466 0cf7 16       		.uleb128 0x16
 3467 0cf8 EB000000 		.4byte	0xeb
ARM GAS  C:\Users\gab_1\AppData\Local\Temp\ccTtYdci.s 			page 125


 3468 0cfc 00       		.byte	0
 3469 0cfd 18       		.uleb128 0x18
 3470 0cfe B6090000 		.4byte	.LASF254
 3471 0d02 4C       		.byte	0x4c
 3472 0d03 0E       		.byte	0xe
 3473 0d04 C302     		.2byte	0x2c3
 3474 0d06 1C0E0000 		.4byte	0xe1c
 3475 0d0a 19       		.uleb128 0x19
 3476 0d0b 4B0A0000 		.4byte	.LASF231
 3477 0d0f 0E       		.byte	0xe
 3478 0d10 C602     		.2byte	0x2c6
 3479 0d12 040C0000 		.4byte	0xc04
 3480 0d16 00       		.byte	0
 3481 0d17 19       		.uleb128 0x19
 3482 0d18 740E0000 		.4byte	.LASF232
 3483 0d1c 0E       		.byte	0xe
 3484 0d1d C702     		.2byte	0x2c7
 3485 0d1f 040C0000 		.4byte	0xc04
 3486 0d23 01       		.byte	0x1
 3487 0d24 19       		.uleb128 0x19
 3488 0d25 F8160000 		.4byte	.LASF233
 3489 0d29 0E       		.byte	0xe
 3490 0d2a C902     		.2byte	0x2c9
 3491 0d2c FD000000 		.4byte	0xfd
 3492 0d30 04       		.byte	0x4
 3493 0d31 19       		.uleb128 0x19
 3494 0d32 0A070000 		.4byte	.LASF234
 3495 0d36 0E       		.byte	0xe
 3496 0d37 CB02     		.2byte	0x2cb
 3497 0d39 FD000000 		.4byte	0xfd
 3498 0d3d 08       		.byte	0x8
 3499 0d3e 19       		.uleb128 0x19
 3500 0d3f B50F0000 		.4byte	.LASF235
 3501 0d43 0E       		.byte	0xe
 3502 0d44 CC02     		.2byte	0x2cc
 3503 0d46 040C0000 		.4byte	0xc04
 3504 0d4a 0C       		.byte	0xc
 3505 0d4b 19       		.uleb128 0x19
 3506 0d4c BB0E0000 		.4byte	.LASF236
 3507 0d50 0E       		.byte	0xe
 3508 0d51 CD02     		.2byte	0x2cd
 3509 0d53 040C0000 		.4byte	0xc04
 3510 0d57 0D       		.byte	0xd
 3511 0d58 19       		.uleb128 0x19
 3512 0d59 53110000 		.4byte	.LASF237
 3513 0d5d 0E       		.byte	0xe
 3514 0d5e CF02     		.2byte	0x2cf
 3515 0d60 1C0E0000 		.4byte	0xe1c
 3516 0d64 10       		.byte	0x10
 3517 0d65 19       		.uleb128 0x19
 3518 0d66 F70B0000 		.4byte	.LASF238
 3519 0d6a 0E       		.byte	0xe
 3520 0d6b D002     		.2byte	0x2d0
 3521 0d6d EB000000 		.4byte	0xeb
 3522 0d71 14       		.byte	0x14
 3523 0d72 19       		.uleb128 0x19
 3524 0d73 70020000 		.4byte	.LASF239
ARM GAS  C:\Users\gab_1\AppData\Local\Temp\ccTtYdci.s 			page 126


 3525 0d77 0E       		.byte	0xe
 3526 0d78 D102     		.2byte	0x2d1
 3527 0d7a FD000000 		.4byte	0xfd
 3528 0d7e 18       		.byte	0x18
 3529 0d7f 19       		.uleb128 0x19
 3530 0d80 460B0000 		.4byte	.LASF240
 3531 0d84 0E       		.byte	0xe
 3532 0d85 D202     		.2byte	0x2d2
 3533 0d87 FD000000 		.4byte	0xfd
 3534 0d8b 1C       		.byte	0x1c
 3535 0d8c 19       		.uleb128 0x19
 3536 0d8d 36020000 		.4byte	.LASF241
 3537 0d91 0E       		.byte	0xe
 3538 0d92 D402     		.2byte	0x2d4
 3539 0d94 FD000000 		.4byte	0xfd
 3540 0d98 20       		.byte	0x20
 3541 0d99 19       		.uleb128 0x19
 3542 0d9a 4B080000 		.4byte	.LASF242
 3543 0d9e 0E       		.byte	0xe
 3544 0d9f D502     		.2byte	0x2d5
 3545 0da1 220E0000 		.4byte	0xe22
 3546 0da5 24       		.byte	0x24
 3547 0da6 19       		.uleb128 0x19
 3548 0da7 0C060000 		.4byte	.LASF243
 3549 0dab 0E       		.byte	0xe
 3550 0dac D702     		.2byte	0x2d7
 3551 0dae 1C0E0000 		.4byte	0xe1c
 3552 0db2 28       		.byte	0x28
 3553 0db3 19       		.uleb128 0x19
 3554 0db4 21080000 		.4byte	.LASF244
 3555 0db8 0E       		.byte	0xe
 3556 0db9 D802     		.2byte	0x2d8
 3557 0dbb EB000000 		.4byte	0xeb
 3558 0dbf 2C       		.byte	0x2c
 3559 0dc0 19       		.uleb128 0x19
 3560 0dc1 A4010000 		.4byte	.LASF245
 3561 0dc5 0E       		.byte	0xe
 3562 0dc6 D902     		.2byte	0x2d9
 3563 0dc8 FD000000 		.4byte	0xfd
 3564 0dcc 30       		.byte	0x30
 3565 0dcd 19       		.uleb128 0x19
 3566 0dce 0F0D0000 		.4byte	.LASF246
 3567 0dd2 0E       		.byte	0xe
 3568 0dd3 DA02     		.2byte	0x2da
 3569 0dd5 FD000000 		.4byte	0xfd
 3570 0dd9 34       		.byte	0x34
 3571 0dda 19       		.uleb128 0x19
 3572 0ddb 03030000 		.4byte	.LASF247
 3573 0ddf 0E       		.byte	0xe
 3574 0de0 DC02     		.2byte	0x2dc
 3575 0de2 1C0E0000 		.4byte	0xe1c
 3576 0de6 38       		.byte	0x38
 3577 0de7 19       		.uleb128 0x19
 3578 0de8 70100000 		.4byte	.LASF248
 3579 0dec 0E       		.byte	0xe
 3580 0ded DD02     		.2byte	0x2dd
 3581 0def EB000000 		.4byte	0xeb
ARM GAS  C:\Users\gab_1\AppData\Local\Temp\ccTtYdci.s 			page 127


 3582 0df3 3C       		.byte	0x3c
 3583 0df4 19       		.uleb128 0x19
 3584 0df5 21180000 		.4byte	.LASF249
 3585 0df9 0E       		.byte	0xe
 3586 0dfa DE02     		.2byte	0x2de
 3587 0dfc FD000000 		.4byte	0xfd
 3588 0e00 40       		.byte	0x40
 3589 0e01 19       		.uleb128 0x19
 3590 0e02 A2090000 		.4byte	.LASF250
 3591 0e06 0E       		.byte	0xe
 3592 0e07 E402     		.2byte	0x2e4
 3593 0e09 BF0C0000 		.4byte	0xcbf
 3594 0e0d 44       		.byte	0x44
 3595 0e0e 19       		.uleb128 0x19
 3596 0e0f 30030000 		.4byte	.LASF251
 3597 0e13 0E       		.byte	0xe
 3598 0e14 EB02     		.2byte	0x2eb
 3599 0e16 DC0C0000 		.4byte	0xcdc
 3600 0e1a 48       		.byte	0x48
 3601 0e1b 00       		.byte	0
 3602 0e1c 10       		.uleb128 0x10
 3603 0e1d 04       		.byte	0x4
 3604 0e1e BF000000 		.4byte	0xbf
 3605 0e22 05       		.uleb128 0x5
 3606 0e23 040C0000 		.4byte	0xc04
 3607 0e27 0F       		.uleb128 0xf
 3608 0e28 FF180000 		.4byte	.LASF252
 3609 0e2c 0E       		.byte	0xe
 3610 0e2d EE02     		.2byte	0x2ee
 3611 0e2f FD0C0000 		.4byte	0xcfd
 3612 0e33 0F       		.uleb128 0xf
 3613 0e34 2A000000 		.4byte	.LASF253
 3614 0e38 0F       		.byte	0xf
 3615 0e39 F201     		.2byte	0x1f2
 3616 0e3b CB0C0000 		.4byte	0xccb
 3617 0e3f 18       		.uleb128 0x18
 3618 0e40 89180000 		.4byte	.LASF255
 3619 0e44 24       		.byte	0x24
 3620 0e45 0F       		.byte	0xf
 3621 0e46 7402     		.2byte	0x274
 3622 0e48 C20E0000 		.4byte	0xec2
 3623 0e4c 19       		.uleb128 0x19
 3624 0e4d E00C0000 		.4byte	.LASF256
 3625 0e51 0F       		.byte	0xf
 3626 0e52 7702     		.2byte	0x277
 3627 0e54 FD000000 		.4byte	0xfd
 3628 0e58 00       		.byte	0
 3629 0e59 19       		.uleb128 0x19
 3630 0e5a 9C090000 		.4byte	.LASF257
 3631 0e5e 0F       		.byte	0xf
 3632 0e5f 7902     		.2byte	0x279
 3633 0e61 020C0000 		.4byte	0xc02
 3634 0e65 04       		.byte	0x4
 3635 0e66 19       		.uleb128 0x19
 3636 0e67 6D030000 		.4byte	.LASF258
 3637 0e6b 0F       		.byte	0xf
 3638 0e6c 7A02     		.2byte	0x27a
ARM GAS  C:\Users\gab_1\AppData\Local\Temp\ccTtYdci.s 			page 128


 3639 0e6e EB000000 		.4byte	0xeb
 3640 0e72 08       		.byte	0x8
 3641 0e73 19       		.uleb128 0x19
 3642 0e74 E1070000 		.4byte	.LASF259
 3643 0e78 0F       		.byte	0xf
 3644 0e79 7B02     		.2byte	0x27b
 3645 0e7b FD000000 		.4byte	0xfd
 3646 0e7f 0C       		.byte	0xc
 3647 0e80 19       		.uleb128 0x19
 3648 0e81 16100000 		.4byte	.LASF260
 3649 0e85 0F       		.byte	0xf
 3650 0e86 7D02     		.2byte	0x27d
 3651 0e88 020C0000 		.4byte	0xc02
 3652 0e8c 10       		.byte	0x10
 3653 0e8d 19       		.uleb128 0x19
 3654 0e8e 6B0F0000 		.4byte	.LASF261
 3655 0e92 0F       		.byte	0xf
 3656 0e93 7E02     		.2byte	0x27e
 3657 0e95 EB000000 		.4byte	0xeb
 3658 0e99 14       		.byte	0x14
 3659 0e9a 19       		.uleb128 0x19
 3660 0e9b AF020000 		.4byte	.LASF262
 3661 0e9f 0F       		.byte	0xf
 3662 0ea0 7F02     		.2byte	0x27f
 3663 0ea2 FD000000 		.4byte	0xfd
 3664 0ea6 18       		.byte	0x18
 3665 0ea7 19       		.uleb128 0x19
 3666 0ea8 A2090000 		.4byte	.LASF250
 3667 0eac 0F       		.byte	0xf
 3668 0ead 8502     		.2byte	0x285
 3669 0eaf 330E0000 		.4byte	0xe33
 3670 0eb3 1C       		.byte	0x1c
 3671 0eb4 19       		.uleb128 0x19
 3672 0eb5 8C0C0000 		.4byte	.LASF263
 3673 0eb9 0F       		.byte	0xf
 3674 0eba 8802     		.2byte	0x288
 3675 0ebc EB000000 		.4byte	0xeb
 3676 0ec0 20       		.byte	0x20
 3677 0ec1 00       		.byte	0
 3678 0ec2 0F       		.uleb128 0xf
 3679 0ec3 EB0E0000 		.4byte	.LASF264
 3680 0ec7 0F       		.byte	0xf
 3681 0ec8 8B02     		.2byte	0x28b
 3682 0eca 3F0E0000 		.4byte	0xe3f
 3683 0ece 0F       		.uleb128 0xf
 3684 0ecf 9B0D0000 		.4byte	.LASF265
 3685 0ed3 04       		.byte	0x4
 3686 0ed4 D901     		.2byte	0x1d9
 3687 0ed6 CB0C0000 		.4byte	0xccb
 3688 0eda 18       		.uleb128 0x18
 3689 0edb 17070000 		.4byte	.LASF266
 3690 0edf 38       		.byte	0x38
 3691 0ee0 04       		.byte	0x4
 3692 0ee1 7502     		.2byte	0x275
 3693 0ee3 9E0F0000 		.4byte	0xf9e
 3694 0ee7 19       		.uleb128 0x19
 3695 0ee8 64010000 		.4byte	.LASF267
ARM GAS  C:\Users\gab_1\AppData\Local\Temp\ccTtYdci.s 			page 129


 3696 0eec 04       		.byte	0x4
 3697 0eed 7802     		.2byte	0x278
 3698 0eef FD000000 		.4byte	0xfd
 3699 0ef3 00       		.byte	0
 3700 0ef4 19       		.uleb128 0x19
 3701 0ef5 C9080000 		.4byte	.LASF268
 3702 0ef9 04       		.byte	0x4
 3703 0efa 7902     		.2byte	0x279
 3704 0efc FD000000 		.4byte	0xfd
 3705 0f00 04       		.byte	0x4
 3706 0f01 19       		.uleb128 0x19
 3707 0f02 C9100000 		.4byte	.LASF269
 3708 0f06 04       		.byte	0x4
 3709 0f07 7B02     		.2byte	0x27b
 3710 0f09 020C0000 		.4byte	0xc02
 3711 0f0d 08       		.byte	0x8
 3712 0f0e 19       		.uleb128 0x19
 3713 0f0f 5F030000 		.4byte	.LASF270
 3714 0f13 04       		.byte	0x4
 3715 0f14 7C02     		.2byte	0x27c
 3716 0f16 EB000000 		.4byte	0xeb
 3717 0f1a 0C       		.byte	0xc
 3718 0f1b 19       		.uleb128 0x19
 3719 0f1c 040F0000 		.4byte	.LASF271
 3720 0f20 04       		.byte	0x4
 3721 0f21 7D02     		.2byte	0x27d
 3722 0f23 FD000000 		.4byte	0xfd
 3723 0f27 10       		.byte	0x10
 3724 0f28 19       		.uleb128 0x19
 3725 0f29 9F0B0000 		.4byte	.LASF272
 3726 0f2d 04       		.byte	0x4
 3727 0f2e 7E02     		.2byte	0x27e
 3728 0f30 FD000000 		.4byte	0xfd
 3729 0f34 14       		.byte	0x14
 3730 0f35 19       		.uleb128 0x19
 3731 0f36 9C090000 		.4byte	.LASF257
 3732 0f3a 04       		.byte	0x4
 3733 0f3b 8002     		.2byte	0x280
 3734 0f3d 020C0000 		.4byte	0xc02
 3735 0f41 18       		.byte	0x18
 3736 0f42 19       		.uleb128 0x19
 3737 0f43 6D030000 		.4byte	.LASF258
 3738 0f47 04       		.byte	0x4
 3739 0f48 8102     		.2byte	0x281
 3740 0f4a EB000000 		.4byte	0xeb
 3741 0f4e 1C       		.byte	0x1c
 3742 0f4f 19       		.uleb128 0x19
 3743 0f50 E1070000 		.4byte	.LASF259
 3744 0f54 04       		.byte	0x4
 3745 0f55 8202     		.2byte	0x282
 3746 0f57 FD000000 		.4byte	0xfd
 3747 0f5b 20       		.byte	0x20
 3748 0f5c 19       		.uleb128 0x19
 3749 0f5d 16100000 		.4byte	.LASF260
 3750 0f61 04       		.byte	0x4
 3751 0f62 8402     		.2byte	0x284
 3752 0f64 020C0000 		.4byte	0xc02
ARM GAS  C:\Users\gab_1\AppData\Local\Temp\ccTtYdci.s 			page 130


 3753 0f68 24       		.byte	0x24
 3754 0f69 19       		.uleb128 0x19
 3755 0f6a 6B0F0000 		.4byte	.LASF261
 3756 0f6e 04       		.byte	0x4
 3757 0f6f 8502     		.2byte	0x285
 3758 0f71 EB000000 		.4byte	0xeb
 3759 0f75 28       		.byte	0x28
 3760 0f76 19       		.uleb128 0x19
 3761 0f77 A2130000 		.4byte	.LASF273
 3762 0f7b 04       		.byte	0x4
 3763 0f7c 8602     		.2byte	0x286
 3764 0f7e FD000000 		.4byte	0xfd
 3765 0f82 2C       		.byte	0x2c
 3766 0f83 19       		.uleb128 0x19
 3767 0f84 A2090000 		.4byte	.LASF250
 3768 0f88 04       		.byte	0x4
 3769 0f89 8B02     		.2byte	0x28b
 3770 0f8b CE0E0000 		.4byte	0xece
 3771 0f8f 30       		.byte	0x30
 3772 0f90 19       		.uleb128 0x19
 3773 0f91 8C0C0000 		.4byte	.LASF263
 3774 0f95 04       		.byte	0x4
 3775 0f96 8E02     		.2byte	0x28e
 3776 0f98 EB000000 		.4byte	0xeb
 3777 0f9c 34       		.byte	0x34
 3778 0f9d 00       		.byte	0
 3779 0f9e 0F       		.uleb128 0xf
 3780 0f9f DF020000 		.4byte	.LASF274
 3781 0fa3 04       		.byte	0x4
 3782 0fa4 9102     		.2byte	0x291
 3783 0fa6 DA0E0000 		.4byte	0xeda
 3784 0faa 1A       		.uleb128 0x1a
 3785 0fab 010A0000 		.4byte	.LASF275
 3786 0faf 4C       		.byte	0x4c
 3787 0fb0 10       		.byte	0x10
 3788 0fb1 2F       		.byte	0x2f
 3789 0fb2 9B100000 		.4byte	0x109b
 3790 0fb6 0B       		.uleb128 0xb
 3791 0fb7 B6170000 		.4byte	.LASF276
 3792 0fbb 10       		.byte	0x10
 3793 0fbc 31       		.byte	0x31
 3794 0fbd EB000000 		.4byte	0xeb
 3795 0fc1 00       		.byte	0
 3796 0fc2 0B       		.uleb128 0xb
 3797 0fc3 4E0C0000 		.4byte	.LASF277
 3798 0fc7 10       		.byte	0x10
 3799 0fc8 33       		.byte	0x33
 3800 0fc9 EB000000 		.4byte	0xeb
 3801 0fcd 04       		.byte	0x4
 3802 0fce 0B       		.uleb128 0xb
 3803 0fcf 17110000 		.4byte	.LASF278
 3804 0fd3 10       		.byte	0x10
 3805 0fd4 34       		.byte	0x34
 3806 0fd5 EB000000 		.4byte	0xeb
 3807 0fd9 08       		.byte	0x8
 3808 0fda 0B       		.uleb128 0xb
 3809 0fdb 1E130000 		.4byte	.LASF279
ARM GAS  C:\Users\gab_1\AppData\Local\Temp\ccTtYdci.s 			page 131


 3810 0fdf 10       		.byte	0x10
 3811 0fe0 35       		.byte	0x35
 3812 0fe1 EB000000 		.4byte	0xeb
 3813 0fe5 0C       		.byte	0xc
 3814 0fe6 0B       		.uleb128 0xb
 3815 0fe7 19120000 		.4byte	.LASF280
 3816 0feb 10       		.byte	0x10
 3817 0fec 37       		.byte	0x37
 3818 0fed EB000000 		.4byte	0xeb
 3819 0ff1 10       		.byte	0x10
 3820 0ff2 0B       		.uleb128 0xb
 3821 0ff3 79040000 		.4byte	.LASF281
 3822 0ff7 10       		.byte	0x10
 3823 0ff8 38       		.byte	0x38
 3824 0ff9 EB000000 		.4byte	0xeb
 3825 0ffd 14       		.byte	0x14
 3826 0ffe 0B       		.uleb128 0xb
 3827 0fff 82040000 		.4byte	.LASF282
 3828 1003 10       		.byte	0x10
 3829 1004 39       		.byte	0x39
 3830 1005 EB000000 		.4byte	0xeb
 3831 1009 18       		.byte	0x18
 3832 100a 0B       		.uleb128 0xb
 3833 100b 9D120000 		.4byte	.LASF283
 3834 100f 10       		.byte	0x10
 3835 1010 3A       		.byte	0x3a
 3836 1011 040C0000 		.4byte	0xc04
 3837 1015 1C       		.byte	0x1c
 3838 1016 0B       		.uleb128 0xb
 3839 1017 49060000 		.4byte	.LASF284
 3840 101b 10       		.byte	0x10
 3841 101c 3C       		.byte	0x3c
 3842 101d EB000000 		.4byte	0xeb
 3843 1021 20       		.byte	0x20
 3844 1022 0B       		.uleb128 0xb
 3845 1023 9D080000 		.4byte	.LASF285
 3846 1027 10       		.byte	0x10
 3847 1028 3D       		.byte	0x3d
 3848 1029 EB000000 		.4byte	0xeb
 3849 102d 24       		.byte	0x24
 3850 102e 0B       		.uleb128 0xb
 3851 102f 6C0B0000 		.4byte	.LASF286
 3852 1033 10       		.byte	0x10
 3853 1034 3F       		.byte	0x3f
 3854 1035 EB000000 		.4byte	0xeb
 3855 1039 28       		.byte	0x28
 3856 103a 0B       		.uleb128 0xb
 3857 103b 200F0000 		.4byte	.LASF287
 3858 103f 10       		.byte	0x10
 3859 1040 40       		.byte	0x40
 3860 1041 EB000000 		.4byte	0xeb
 3861 1045 2C       		.byte	0x2c
 3862 1046 0B       		.uleb128 0xb
 3863 1047 37070000 		.4byte	.LASF288
 3864 104b 10       		.byte	0x10
 3865 104c 42       		.byte	0x42
 3866 104d EB000000 		.4byte	0xeb
ARM GAS  C:\Users\gab_1\AppData\Local\Temp\ccTtYdci.s 			page 132


 3867 1051 30       		.byte	0x30
 3868 1052 0B       		.uleb128 0xb
 3869 1053 7A080000 		.4byte	.LASF289
 3870 1057 10       		.byte	0x10
 3871 1058 43       		.byte	0x43
 3872 1059 EB000000 		.4byte	0xeb
 3873 105d 34       		.byte	0x34
 3874 105e 0B       		.uleb128 0xb
 3875 105f C1020000 		.4byte	.LASF290
 3876 1063 10       		.byte	0x10
 3877 1064 45       		.byte	0x45
 3878 1065 EB000000 		.4byte	0xeb
 3879 1069 38       		.byte	0x38
 3880 106a 0B       		.uleb128 0xb
 3881 106b 48000000 		.4byte	.LASF291
 3882 106f 10       		.byte	0x10
 3883 1070 46       		.byte	0x46
 3884 1071 EB000000 		.4byte	0xeb
 3885 1075 3C       		.byte	0x3c
 3886 1076 0B       		.uleb128 0xb
 3887 1077 55030000 		.4byte	.LASF292
 3888 107b 10       		.byte	0x10
 3889 107c 48       		.byte	0x48
 3890 107d EB000000 		.4byte	0xeb
 3891 1081 40       		.byte	0x40
 3892 1082 0B       		.uleb128 0xb
 3893 1083 D0120000 		.4byte	.LASF293
 3894 1087 10       		.byte	0x10
 3895 1088 49       		.byte	0x49
 3896 1089 EB000000 		.4byte	0xeb
 3897 108d 44       		.byte	0x44
 3898 108e 0B       		.uleb128 0xb
 3899 108f 49160000 		.4byte	.LASF294
 3900 1093 10       		.byte	0x10
 3901 1094 4B       		.byte	0x4b
 3902 1095 EB000000 		.4byte	0xeb
 3903 1099 48       		.byte	0x48
 3904 109a 00       		.byte	0
 3905 109b 03       		.uleb128 0x3
 3906 109c 8D110000 		.4byte	.LASF295
 3907 10a0 10       		.byte	0x10
 3908 10a1 4C       		.byte	0x4c
 3909 10a2 AA0F0000 		.4byte	0xfaa
 3910 10a6 10       		.uleb128 0x10
 3911 10a7 04       		.byte	0x4
 3912 10a8 77070000 		.4byte	0x777
 3913 10ac 1B       		.uleb128 0x1b
 3914 10ad 0C       		.byte	0xc
 3915 10ae 11       		.byte	0x11
 3916 10af 1004     		.2byte	0x410
 3917 10b1 DD100000 		.4byte	0x10dd
 3918 10b5 19       		.uleb128 0x19
 3919 10b6 54190000 		.4byte	.LASF296
 3920 10ba 11       		.byte	0x11
 3921 10bb 1204     		.2byte	0x412
 3922 10bd D5000000 		.4byte	0xd5
 3923 10c1 00       		.byte	0
ARM GAS  C:\Users\gab_1\AppData\Local\Temp\ccTtYdci.s 			page 133


 3924 10c2 19       		.uleb128 0x19
 3925 10c3 E70C0000 		.4byte	.LASF297
 3926 10c7 11       		.byte	0x11
 3927 10c8 1304     		.2byte	0x413
 3928 10ca DD100000 		.4byte	0x10dd
 3929 10ce 04       		.byte	0x4
 3930 10cf 19       		.uleb128 0x19
 3931 10d0 D4090000 		.4byte	.LASF298
 3932 10d4 11       		.byte	0x11
 3933 10d5 1404     		.2byte	0x414
 3934 10d7 DD100000 		.4byte	0x10dd
 3935 10db 08       		.byte	0x8
 3936 10dc 00       		.byte	0
 3937 10dd 10       		.uleb128 0x10
 3938 10de 04       		.byte	0x4
 3939 10df D10B0000 		.4byte	0xbd1
 3940 10e3 0F       		.uleb128 0xf
 3941 10e4 74150000 		.4byte	.LASF299
 3942 10e8 11       		.byte	0x11
 3943 10e9 1504     		.2byte	0x415
 3944 10eb AC100000 		.4byte	0x10ac
 3945 10ef 06       		.uleb128 0x6
 3946 10f0 D10B0000 		.4byte	0xbd1
 3947 10f4 0F       		.uleb128 0xf
 3948 10f5 3A0F0000 		.4byte	.LASF300
 3949 10f9 12       		.byte	0x12
 3950 10fa C002     		.2byte	0x2c0
 3951 10fc 00110000 		.4byte	0x1100
 3952 1100 10       		.uleb128 0x10
 3953 1101 04       		.byte	0x4
 3954 1102 06110000 		.4byte	0x1106
 3955 1106 17       		.uleb128 0x17
 3956 1107 B4000000 		.4byte	0xb4
 3957 110b 24110000 		.4byte	0x1124
 3958 110f 16       		.uleb128 0x16
 3959 1110 BF000000 		.4byte	0xbf
 3960 1114 16       		.uleb128 0x16
 3961 1115 BF000000 		.4byte	0xbf
 3962 1119 16       		.uleb128 0x16
 3963 111a 1C0E0000 		.4byte	0xe1c
 3964 111e 16       		.uleb128 0x16
 3965 111f D5000000 		.4byte	0xd5
 3966 1123 00       		.byte	0
 3967 1124 0F       		.uleb128 0xf
 3968 1125 0A020000 		.4byte	.LASF301
 3969 1129 12       		.byte	0x12
 3970 112a C602     		.2byte	0x2c6
 3971 112c 00110000 		.4byte	0x1100
 3972 1130 0F       		.uleb128 0xf
 3973 1131 5E050000 		.4byte	.LASF302
 3974 1135 12       		.byte	0x12
 3975 1136 C702     		.2byte	0x2c7
 3976 1138 CB0C0000 		.4byte	0xccb
 3977 113c 18       		.uleb128 0x18
 3978 113d 51010000 		.4byte	.LASF303
 3979 1141 0C       		.byte	0xc
 3980 1142 12       		.byte	0x12
ARM GAS  C:\Users\gab_1\AppData\Local\Temp\ccTtYdci.s 			page 134


 3981 1143 4803     		.2byte	0x348
 3982 1145 78110000 		.4byte	0x1178
 3983 1149 1C       		.uleb128 0x1c
 3984 114a 7800     		.ascii	"x\000"
 3985 114c 12       		.byte	0x12
 3986 114d 4B03     		.2byte	0x34b
 3987 114f CA000000 		.4byte	0xca
 3988 1153 00       		.byte	0
 3989 1154 1C       		.uleb128 0x1c
 3990 1155 7900     		.ascii	"y\000"
 3991 1157 12       		.byte	0x12
 3992 1158 4E03     		.2byte	0x34e
 3993 115a CA000000 		.4byte	0xca
 3994 115e 02       		.byte	0x2
 3995 115f 1C       		.uleb128 0x1c
 3996 1160 7A00     		.ascii	"z\000"
 3997 1162 12       		.byte	0x12
 3998 1163 5103     		.2byte	0x351
 3999 1165 CA000000 		.4byte	0xca
 4000 1169 04       		.byte	0x4
 4001 116a 19       		.uleb128 0x19
 4002 116b 1F170000 		.4byte	.LASF304
 4003 116f 12       		.byte	0x12
 4004 1170 5403     		.2byte	0x354
 4005 1172 EB000000 		.4byte	0xeb
 4006 1176 08       		.byte	0x8
 4007 1177 00       		.byte	0
 4008 1178 1D       		.uleb128 0x1d
 4009 1179 56000000 		.4byte	.LASF317
 4010 117d 01       		.byte	0x1
 4011 117e 50000000 		.4byte	0x50
 4012 1182 12       		.byte	0x12
 4013 1183 BF03     		.2byte	0x3bf
 4014 1185 9C110000 		.4byte	0x119c
 4015 1189 13       		.uleb128 0x13
 4016 118a FA080000 		.4byte	.LASF305
 4017 118e 01       		.byte	0x1
 4018 118f 13       		.uleb128 0x13
 4019 1190 B0150000 		.4byte	.LASF306
 4020 1194 02       		.byte	0x2
 4021 1195 13       		.uleb128 0x13
 4022 1196 6E120000 		.4byte	.LASF307
 4023 119a 03       		.byte	0x3
 4024 119b 00       		.byte	0
 4025 119c 18       		.uleb128 0x18
 4026 119d DB010000 		.4byte	.LASF308
 4027 11a1 04       		.byte	0x4
 4028 11a2 12       		.byte	0x12
 4029 11a3 DE03     		.2byte	0x3de
 4030 11a5 DD110000 		.4byte	0x11dd
 4031 11a9 19       		.uleb128 0x19
 4032 11aa 6A060000 		.4byte	.LASF309
 4033 11ae 12       		.byte	0x12
 4034 11af E103     		.2byte	0x3e1
 4035 11b1 BF000000 		.4byte	0xbf
 4036 11b5 00       		.byte	0
 4037 11b6 1C       		.uleb128 0x1c
ARM GAS  C:\Users\gab_1\AppData\Local\Temp\ccTtYdci.s 			page 135


 4038 11b7 6F647200 		.ascii	"odr\000"
 4039 11bb 12       		.byte	0x12
 4040 11bc E403     		.2byte	0x3e4
 4041 11be BF000000 		.4byte	0xbf
 4042 11c2 01       		.byte	0x1
 4043 11c3 19       		.uleb128 0x19
 4044 11c4 650F0000 		.4byte	.LASF310
 4045 11c8 12       		.byte	0x12
 4046 11c9 E703     		.2byte	0x3e7
 4047 11cb BF000000 		.4byte	0xbf
 4048 11cf 02       		.byte	0x2
 4049 11d0 1C       		.uleb128 0x1c
 4050 11d1 627700   		.ascii	"bw\000"
 4051 11d4 12       		.byte	0x12
 4052 11d5 EA03     		.2byte	0x3ea
 4053 11d7 BF000000 		.4byte	0xbf
 4054 11db 03       		.byte	0x3
 4055 11dc 00       		.byte	0
 4056 11dd 18       		.uleb128 0x18
 4057 11de ED170000 		.4byte	.LASF311
 4058 11e2 02       		.byte	0x2
 4059 11e3 12       		.byte	0x12
 4060 11e4 F003     		.2byte	0x3f0
 4061 11e6 38120000 		.4byte	0x1238
 4062 11ea 1E       		.uleb128 0x1e
 4063 11eb 3E130000 		.4byte	.LASF312
 4064 11ef 12       		.byte	0x12
 4065 11f0 F303     		.2byte	0x3f3
 4066 11f2 BF000000 		.4byte	0xbf
 4067 11f6 01       		.byte	0x1
 4068 11f7 01       		.byte	0x1
 4069 11f8 07       		.byte	0x7
 4070 11f9 00       		.byte	0
 4071 11fa 1E       		.uleb128 0x1e
 4072 11fb 7D130000 		.4byte	.LASF313
 4073 11ff 12       		.byte	0x12
 4074 1200 F603     		.2byte	0x3f6
 4075 1202 BF000000 		.4byte	0xbf
 4076 1206 01       		.byte	0x1
 4077 1207 01       		.byte	0x1
 4078 1208 06       		.byte	0x6
 4079 1209 00       		.byte	0
 4080 120a 1E       		.uleb128 0x1e
 4081 120b DA190000 		.4byte	.LASF314
 4082 120f 12       		.byte	0x12
 4083 1210 F903     		.2byte	0x3f9
 4084 1212 BF000000 		.4byte	0xbf
 4085 1216 01       		.byte	0x1
 4086 1217 02       		.byte	0x2
 4087 1218 04       		.byte	0x4
 4088 1219 00       		.byte	0
 4089 121a 1E       		.uleb128 0x1e
 4090 121b FB010000 		.4byte	.LASF315
 4091 121f 12       		.byte	0x12
 4092 1220 FC03     		.2byte	0x3fc
 4093 1222 BF000000 		.4byte	0xbf
 4094 1226 01       		.byte	0x1
ARM GAS  C:\Users\gab_1\AppData\Local\Temp\ccTtYdci.s 			page 136


 4095 1227 04       		.byte	0x4
 4096 1228 00       		.byte	0
 4097 1229 00       		.byte	0
 4098 122a 19       		.uleb128 0x19
 4099 122b 1A150000 		.4byte	.LASF316
 4100 122f 12       		.byte	0x12
 4101 1230 FF03     		.2byte	0x3ff
 4102 1232 BF000000 		.4byte	0xbf
 4103 1236 01       		.byte	0x1
 4104 1237 00       		.byte	0
 4105 1238 1D       		.uleb128 0x1d
 4106 1239 82100000 		.4byte	.LASF318
 4107 123d 01       		.byte	0x1
 4108 123e 3E000000 		.4byte	0x3e
 4109 1242 12       		.byte	0x12
 4110 1243 4104     		.2byte	0x441
 4111 1245 5C120000 		.4byte	0x125c
 4112 1249 1F       		.uleb128 0x1f
 4113 124a 39040000 		.4byte	.LASF319
 4114 124e 7F       		.sleb128 -1
 4115 124f 13       		.uleb128 0x13
 4116 1250 82090000 		.4byte	.LASF320
 4117 1254 00       		.byte	0
 4118 1255 13       		.uleb128 0x13
 4119 1256 F2050000 		.4byte	.LASF321
 4120 125a 01       		.byte	0x1
 4121 125b 00       		.byte	0
 4122 125c 18       		.uleb128 0x18
 4123 125d 62140000 		.4byte	.LASF322
 4124 1261 18       		.byte	0x18
 4125 1262 12       		.byte	0x12
 4126 1263 2C06     		.2byte	0x62c
 4127 1265 EC120000 		.4byte	0x12ec
 4128 1269 19       		.uleb128 0x19
 4129 126a 5D0C0000 		.4byte	.LASF323
 4130 126e 12       		.byte	0x12
 4131 126f 2F06     		.2byte	0x62f
 4132 1271 1C0E0000 		.4byte	0xe1c
 4133 1275 00       		.byte	0
 4134 1276 19       		.uleb128 0x19
 4135 1277 EB120000 		.4byte	.LASF324
 4136 127b 12       		.byte	0x12
 4137 127c 3606     		.2byte	0x636
 4138 127e D5000000 		.4byte	0xd5
 4139 1282 04       		.byte	0x4
 4140 1283 19       		.uleb128 0x19
 4141 1284 FB190000 		.4byte	.LASF325
 4142 1288 12       		.byte	0x12
 4143 1289 3906     		.2byte	0x639
 4144 128b BF000000 		.4byte	0xbf
 4145 128f 06       		.byte	0x6
 4146 1290 19       		.uleb128 0x19
 4147 1291 C9050000 		.4byte	.LASF326
 4148 1295 12       		.byte	0x12
 4149 1296 3C06     		.2byte	0x63c
 4150 1298 BF000000 		.4byte	0xbf
 4151 129c 07       		.byte	0x7
ARM GAS  C:\Users\gab_1\AppData\Local\Temp\ccTtYdci.s 			page 137


 4152 129d 19       		.uleb128 0x19
 4153 129e 200D0000 		.4byte	.LASF327
 4154 12a2 12       		.byte	0x12
 4155 12a3 4006     		.2byte	0x640
 4156 12a5 BF000000 		.4byte	0xbf
 4157 12a9 08       		.byte	0x8
 4158 12aa 19       		.uleb128 0x19
 4159 12ab 68180000 		.4byte	.LASF328
 4160 12af 12       		.byte	0x12
 4161 12b0 4306     		.2byte	0x643
 4162 12b2 D5000000 		.4byte	0xd5
 4163 12b6 0A       		.byte	0xa
 4164 12b7 19       		.uleb128 0x19
 4165 12b8 1C100000 		.4byte	.LASF329
 4166 12bc 12       		.byte	0x12
 4167 12bd 4606     		.2byte	0x646
 4168 12bf D5000000 		.4byte	0xd5
 4169 12c3 0C       		.byte	0xc
 4170 12c4 19       		.uleb128 0x19
 4171 12c5 E20D0000 		.4byte	.LASF330
 4172 12c9 12       		.byte	0x12
 4173 12ca 4906     		.2byte	0x649
 4174 12cc D5000000 		.4byte	0xd5
 4175 12d0 0E       		.byte	0xe
 4176 12d1 19       		.uleb128 0x19
 4177 12d2 3D090000 		.4byte	.LASF331
 4178 12d6 12       		.byte	0x12
 4179 12d7 4C06     		.2byte	0x64c
 4180 12d9 EB000000 		.4byte	0xeb
 4181 12dd 10       		.byte	0x10
 4182 12de 19       		.uleb128 0x19
 4183 12df FC170000 		.4byte	.LASF332
 4184 12e3 12       		.byte	0x12
 4185 12e4 4F06     		.2byte	0x64f
 4186 12e6 BF000000 		.4byte	0xbf
 4187 12ea 14       		.byte	0x14
 4188 12eb 00       		.byte	0
 4189 12ec 18       		.uleb128 0x18
 4190 12ed 2E0C0000 		.4byte	.LASF333
 4191 12f1 2C       		.byte	0x2c
 4192 12f2 12       		.byte	0x12
 4193 12f3 5106     		.2byte	0x651
 4194 12f5 BC130000 		.4byte	0x13bc
 4195 12f9 19       		.uleb128 0x19
 4196 12fa 2B090000 		.4byte	.LASF334
 4197 12fe 12       		.byte	0x12
 4198 12ff 5406     		.2byte	0x654
 4199 1301 BF000000 		.4byte	0xbf
 4200 1305 00       		.byte	0
 4201 1306 1C       		.uleb128 0x1c
 4202 1307 696400   		.ascii	"id\000"
 4203 130a 12       		.byte	0x12
 4204 130b 5706     		.2byte	0x657
 4205 130d BF000000 		.4byte	0xbf
 4206 1311 01       		.byte	0x1
 4207 1312 19       		.uleb128 0x19
 4208 1313 BA0D0000 		.4byte	.LASF335
ARM GAS  C:\Users\gab_1\AppData\Local\Temp\ccTtYdci.s 			page 138


 4209 1317 12       		.byte	0x12
 4210 1318 5A06     		.2byte	0x65a
 4211 131a BF000000 		.4byte	0xbf
 4212 131e 02       		.byte	0x2
 4213 131f 19       		.uleb128 0x19
 4214 1320 DA080000 		.4byte	.LASF336
 4215 1324 12       		.byte	0x12
 4216 1325 5F06     		.2byte	0x65f
 4217 1327 38120000 		.4byte	0x1238
 4218 132b 03       		.byte	0x3
 4219 132c 19       		.uleb128 0x19
 4220 132d FD0F0000 		.4byte	.LASF337
 4221 1331 12       		.byte	0x12
 4222 1332 6206     		.2byte	0x662
 4223 1334 9C110000 		.4byte	0x119c
 4224 1338 04       		.byte	0x4
 4225 1339 19       		.uleb128 0x19
 4226 133a 07100000 		.4byte	.LASF338
 4227 133e 12       		.byte	0x12
 4228 133f 6706     		.2byte	0x667
 4229 1341 9C110000 		.4byte	0x119c
 4230 1345 08       		.byte	0x8
 4231 1346 19       		.uleb128 0x19
 4232 1347 A80E0000 		.4byte	.LASF339
 4233 134b 12       		.byte	0x12
 4234 134c 6A06     		.2byte	0x66a
 4235 134e 9C110000 		.4byte	0x119c
 4236 1352 0C       		.byte	0xc
 4237 1353 19       		.uleb128 0x19
 4238 1354 120F0000 		.4byte	.LASF340
 4239 1358 12       		.byte	0x12
 4240 1359 6F06     		.2byte	0x66f
 4241 135b 9C110000 		.4byte	0x119c
 4242 135f 10       		.byte	0x10
 4243 1360 19       		.uleb128 0x19
 4244 1361 970B0000 		.4byte	.LASF341
 4245 1365 12       		.byte	0x12
 4246 1366 7206     		.2byte	0x672
 4247 1368 DD110000 		.4byte	0x11dd
 4248 136c 14       		.byte	0x14
 4249 136d 19       		.uleb128 0x19
 4250 136e 1D000000 		.4byte	.LASF342
 4251 1372 12       		.byte	0x12
 4252 1373 7706     		.2byte	0x677
 4253 1375 DD110000 		.4byte	0x11dd
 4254 1379 16       		.byte	0x16
 4255 137a 19       		.uleb128 0x19
 4256 137b 33090000 		.4byte	.LASF343
 4257 137f 12       		.byte	0x12
 4258 1380 7A06     		.2byte	0x67a
 4259 1382 BC130000 		.4byte	0x13bc
 4260 1386 18       		.byte	0x18
 4261 1387 19       		.uleb128 0x19
 4262 1388 11140000 		.4byte	.LASF344
 4263 138c 12       		.byte	0x12
 4264 138d 7D06     		.2byte	0x67d
 4265 138f F4100000 		.4byte	0x10f4
ARM GAS  C:\Users\gab_1\AppData\Local\Temp\ccTtYdci.s 			page 139


 4266 1393 1C       		.byte	0x1c
 4267 1394 19       		.uleb128 0x19
 4268 1395 0C0E0000 		.4byte	.LASF345
 4269 1399 12       		.byte	0x12
 4270 139a 8006     		.2byte	0x680
 4271 139c 24110000 		.4byte	0x1124
 4272 13a0 20       		.byte	0x20
 4273 13a1 19       		.uleb128 0x19
 4274 13a2 BD0A0000 		.4byte	.LASF346
 4275 13a6 12       		.byte	0x12
 4276 13a7 8306     		.2byte	0x683
 4277 13a9 30110000 		.4byte	0x1130
 4278 13ad 24       		.byte	0x24
 4279 13ae 19       		.uleb128 0x19
 4280 13af B7000000 		.4byte	.LASF347
 4281 13b3 12       		.byte	0x12
 4282 13b4 8606     		.2byte	0x686
 4283 13b6 D5000000 		.4byte	0xd5
 4284 13ba 28       		.byte	0x28
 4285 13bb 00       		.byte	0
 4286 13bc 10       		.uleb128 0x10
 4287 13bd 04       		.byte	0x4
 4288 13be 5C120000 		.4byte	0x125c
 4289 13c2 20       		.uleb128 0x20
 4290 13c3 24060000 		.4byte	.LASF348
 4291 13c7 03       		.byte	0x3
 4292 13c8 5202     		.2byte	0x252
 4293 13ca 670C0000 		.4byte	0xc67
 4294 13ce 03       		.byte	0x3
 4295 13cf E0130000 		.4byte	0x13e0
 4296 13d3 21       		.uleb128 0x21
 4297 13d4 76070000 		.4byte	.LASF350
 4298 13d8 03       		.byte	0x3
 4299 13d9 5202     		.2byte	0x252
 4300 13db EB000000 		.4byte	0xeb
 4301 13df 00       		.byte	0
 4302 13e0 20       		.uleb128 0x20
 4303 13e1 D30B0000 		.4byte	.LASF349
 4304 13e5 03       		.byte	0x3
 4305 13e6 5F02     		.2byte	0x25f
 4306 13e8 670C0000 		.4byte	0xc67
 4307 13ec 03       		.byte	0x3
 4308 13ed 16140000 		.4byte	0x1416
 4309 13f1 21       		.uleb128 0x21
 4310 13f2 D2080000 		.4byte	.LASF351
 4311 13f6 03       		.byte	0x3
 4312 13f7 5F02     		.2byte	0x25f
 4313 13f9 B30C0000 		.4byte	0xcb3
 4314 13fd 21       		.uleb128 0x21
 4315 13fe 95150000 		.4byte	.LASF352
 4316 1402 03       		.byte	0x3
 4317 1403 5F02     		.2byte	0x25f
 4318 1405 1C0E0000 		.4byte	0xe1c
 4319 1409 21       		.uleb128 0x21
 4320 140a 76070000 		.4byte	.LASF350
 4321 140e 03       		.byte	0x3
 4322 140f 5F02     		.2byte	0x25f
ARM GAS  C:\Users\gab_1\AppData\Local\Temp\ccTtYdci.s 			page 140


 4323 1411 EB000000 		.4byte	0xeb
 4324 1415 00       		.byte	0
 4325 1416 20       		.uleb128 0x20
 4326 1417 9A150000 		.4byte	.LASF353
 4327 141b 03       		.byte	0x3
 4328 141c 4502     		.2byte	0x245
 4329 141e 670C0000 		.4byte	0xc67
 4330 1422 03       		.byte	0x3
 4331 1423 4C140000 		.4byte	0x144c
 4332 1427 21       		.uleb128 0x21
 4333 1428 39150000 		.4byte	.LASF354
 4334 142c 03       		.byte	0x3
 4335 142d 4502     		.2byte	0x245
 4336 142f EB000000 		.4byte	0xeb
 4337 1433 21       		.uleb128 0x21
 4338 1434 F8180000 		.4byte	.LASF355
 4339 1438 03       		.byte	0x3
 4340 1439 4502     		.2byte	0x245
 4341 143b 8D0C0000 		.4byte	0xc8d
 4342 143f 21       		.uleb128 0x21
 4343 1440 76070000 		.4byte	.LASF350
 4344 1444 03       		.byte	0x3
 4345 1445 4502     		.2byte	0x245
 4346 1447 EB000000 		.4byte	0xeb
 4347 144b 00       		.byte	0
 4348 144c 20       		.uleb128 0x20
 4349 144d 5C100000 		.4byte	.LASF356
 4350 1451 03       		.byte	0x3
 4351 1452 6C02     		.2byte	0x26c
 4352 1454 670C0000 		.4byte	0xc67
 4353 1458 03       		.byte	0x3
 4354 1459 76140000 		.4byte	0x1476
 4355 145d 21       		.uleb128 0x21
 4356 145e 95150000 		.4byte	.LASF352
 4357 1462 03       		.byte	0x3
 4358 1463 6C02     		.2byte	0x26c
 4359 1465 BF000000 		.4byte	0xbf
 4360 1469 21       		.uleb128 0x21
 4361 146a 76070000 		.4byte	.LASF350
 4362 146e 03       		.byte	0x3
 4363 146f 6C02     		.2byte	0x26c
 4364 1471 EB000000 		.4byte	0xeb
 4365 1475 00       		.byte	0
 4366 1476 20       		.uleb128 0x20
 4367 1477 0C090000 		.4byte	.LASF357
 4368 147b 03       		.byte	0x3
 4369 147c 3802     		.2byte	0x238
 4370 147e 670C0000 		.4byte	0xc67
 4371 1482 03       		.byte	0x3
 4372 1483 AC140000 		.4byte	0x14ac
 4373 1487 21       		.uleb128 0x21
 4374 1488 39150000 		.4byte	.LASF354
 4375 148c 03       		.byte	0x3
 4376 148d 3802     		.2byte	0x238
 4377 148f EB000000 		.4byte	0xeb
 4378 1493 21       		.uleb128 0x21
 4379 1494 F8180000 		.4byte	.LASF355
ARM GAS  C:\Users\gab_1\AppData\Local\Temp\ccTtYdci.s 			page 141


 4380 1498 03       		.byte	0x3
 4381 1499 3802     		.2byte	0x238
 4382 149b 8D0C0000 		.4byte	0xc8d
 4383 149f 21       		.uleb128 0x21
 4384 14a0 76070000 		.4byte	.LASF350
 4385 14a4 03       		.byte	0x3
 4386 14a5 3802     		.2byte	0x238
 4387 14a7 EB000000 		.4byte	0xeb
 4388 14ab 00       		.byte	0
 4389 14ac 22       		.uleb128 0x22
 4390 14ad 7E0E0000 		.4byte	.LASF359
 4391 14b1 13       		.byte	0x13
 4392 14b2 BA01     		.2byte	0x1ba
 4393 14b4 03       		.byte	0x3
 4394 14b5 C6140000 		.4byte	0x14c6
 4395 14b9 21       		.uleb128 0x21
 4396 14ba B60A0000 		.4byte	.LASF358
 4397 14be 13       		.byte	0x13
 4398 14bf BA01     		.2byte	0x1ba
 4399 14c1 C6140000 		.4byte	0x14c6
 4400 14c5 00       		.byte	0
 4401 14c6 10       		.uleb128 0x10
 4402 14c7 04       		.byte	0x4
 4403 14c8 CC140000 		.4byte	0x14cc
 4404 14cc 06       		.uleb128 0x6
 4405 14cd BE0B0000 		.4byte	0xbbe
 4406 14d1 22       		.uleb128 0x22
 4407 14d2 A9070000 		.4byte	.LASF360
 4408 14d6 05       		.byte	0x5
 4409 14d7 2503     		.2byte	0x325
 4410 14d9 03       		.byte	0x3
 4411 14da 03150000 		.4byte	0x1503
 4412 14de 21       		.uleb128 0x21
 4413 14df F5060000 		.4byte	.LASF361
 4414 14e3 05       		.byte	0x5
 4415 14e4 2503     		.2byte	0x325
 4416 14e6 A6100000 		.4byte	0x10a6
 4417 14ea 21       		.uleb128 0x21
 4418 14eb 83170000 		.4byte	.LASF362
 4419 14ef 05       		.byte	0x5
 4420 14f0 2503     		.2byte	0x325
 4421 14f2 EB000000 		.4byte	0xeb
 4422 14f6 21       		.uleb128 0x21
 4423 14f7 BB080000 		.4byte	.LASF363
 4424 14fb 05       		.byte	0x5
 4425 14fc 2503     		.2byte	0x325
 4426 14fe EB000000 		.4byte	0xeb
 4427 1502 00       		.byte	0
 4428 1503 23       		.uleb128 0x23
 4429 1504 5B180000 		.4byte	.LASF456
 4430 1508 06       		.byte	0x6
 4431 1509 81       		.byte	0x81
 4432 150a 03       		.byte	0x3
 4433 150b 24       		.uleb128 0x24
 4434 150c B3190000 		.4byte	.LASF457
 4435 1510 01       		.byte	0x1
 4436 1511 41       		.byte	0x41
ARM GAS  C:\Users\gab_1\AppData\Local\Temp\ccTtYdci.s 			page 142


 4437 1512 00000000 		.4byte	.LFB695
 4438 1516 78000000 		.4byte	.LFE695-.LFB695
 4439 151a 01       		.uleb128 0x1
 4440 151b 9C       		.byte	0x9c
 4441 151c AA150000 		.4byte	0x15aa
 4442 1520 25       		.uleb128 0x25
 4443 1521 B5010000 		.4byte	.LASF366
 4444 1525 01       		.byte	0x1
 4445 1526 44       		.byte	0x44
 4446 1527 B4000000 		.4byte	0xb4
 4447 152b 00000000 		.4byte	.LLST0
 4448 152f 26       		.uleb128 0x26
 4449 1530 0A000000 		.4byte	.LVL0
 4450 1534 AC2A0000 		.4byte	0x2aac
 4451 1538 44150000 		.4byte	0x1544
 4452 153c 27       		.uleb128 0x27
 4453 153d 01       		.uleb128 0x1
 4454 153e 50       		.byte	0x50
 4455 153f 03       		.uleb128 0x3
 4456 1540 0A       		.byte	0xa
 4457 1541 F401     		.2byte	0x1f4
 4458 1543 00       		.byte	0
 4459 1544 26       		.uleb128 0x26
 4460 1545 20000000 		.4byte	.LVL1
 4461 1549 B82A0000 		.4byte	0x2ab8
 4462 154d 5B150000 		.4byte	0x155b
 4463 1551 27       		.uleb128 0x27
 4464 1552 01       		.uleb128 0x1
 4465 1553 50       		.byte	0x50
 4466 1554 05       		.uleb128 0x5
 4467 1555 03       		.byte	0x3
 4468 1556 00000000 		.4byte	.LANCHOR0
 4469 155a 00       		.byte	0
 4470 155b 26       		.uleb128 0x26
 4471 155c 28000000 		.4byte	.LVL3
 4472 1560 C32A0000 		.4byte	0x2ac3
 4473 1564 72150000 		.4byte	0x1572
 4474 1568 27       		.uleb128 0x27
 4475 1569 01       		.uleb128 0x1
 4476 156a 50       		.byte	0x50
 4477 156b 05       		.uleb128 0x5
 4478 156c 03       		.byte	0x3
 4479 156d 00000000 		.4byte	.LC0
 4480 1571 00       		.byte	0
 4481 1572 26       		.uleb128 0x26
 4482 1573 4E000000 		.4byte	.LVL4
 4483 1577 D22A0000 		.4byte	0x2ad2
 4484 157b 86150000 		.4byte	0x1586
 4485 157f 27       		.uleb128 0x27
 4486 1580 01       		.uleb128 0x1
 4487 1581 50       		.byte	0x50
 4488 1582 02       		.uleb128 0x2
 4489 1583 74       		.byte	0x74
 4490 1584 00       		.sleb128 0
 4491 1585 00       		.byte	0
 4492 1586 28       		.uleb128 0x28
 4493 1587 54000000 		.4byte	.LVL5
ARM GAS  C:\Users\gab_1\AppData\Local\Temp\ccTtYdci.s 			page 143


 4494 158b 96150000 		.4byte	0x1596
 4495 158f 27       		.uleb128 0x27
 4496 1590 01       		.uleb128 0x1
 4497 1591 50       		.byte	0x50
 4498 1592 02       		.uleb128 0x2
 4499 1593 08       		.byte	0x8
 4500 1594 32       		.byte	0x32
 4501 1595 00       		.byte	0
 4502 1596 29       		.uleb128 0x29
 4503 1597 5C000000 		.4byte	.LVL8
 4504 159b C32A0000 		.4byte	0x2ac3
 4505 159f 27       		.uleb128 0x27
 4506 15a0 01       		.uleb128 0x1
 4507 15a1 50       		.byte	0x50
 4508 15a2 05       		.uleb128 0x5
 4509 15a3 03       		.byte	0x3
 4510 15a4 28000000 		.4byte	.LC1
 4511 15a8 00       		.byte	0
 4512 15a9 00       		.byte	0
 4513 15aa 2A       		.uleb128 0x2a
 4514 15ab 970A0000 		.4byte	.LASF367
 4515 15af 01       		.byte	0x1
 4516 15b0 15       		.byte	0x15
 4517 15b1 B4000000 		.4byte	0xb4
 4518 15b5 00000000 		.4byte	.LFB693
 4519 15b9 5C000000 		.4byte	.LFE693-.LFB693
 4520 15bd 01       		.uleb128 0x1
 4521 15be 9C       		.byte	0x9c
 4522 15bf A1160000 		.4byte	0x16a1
 4523 15c3 2B       		.uleb128 0x2b
 4524 15c4 50130000 		.4byte	.LASF364
 4525 15c8 01       		.byte	0x1
 4526 15c9 15       		.byte	0x15
 4527 15ca BF000000 		.4byte	0xbf
 4528 15ce 1E000000 		.4byte	.LLST1
 4529 15d2 2B       		.uleb128 0x2b
 4530 15d3 3D0B0000 		.4byte	.LASF365
 4531 15d7 01       		.byte	0x1
 4532 15d8 15       		.byte	0x15
 4533 15d9 BF000000 		.4byte	0xbf
 4534 15dd 3F000000 		.4byte	.LLST2
 4535 15e1 2B       		.uleb128 0x2b
 4536 15e2 5D0C0000 		.4byte	.LASF323
 4537 15e6 01       		.byte	0x1
 4538 15e7 15       		.byte	0x15
 4539 15e8 1C0E0000 		.4byte	0xe1c
 4540 15ec 60000000 		.4byte	.LLST3
 4541 15f0 2C       		.uleb128 0x2c
 4542 15f1 6C656E00 		.ascii	"len\000"
 4543 15f5 01       		.byte	0x1
 4544 15f6 15       		.byte	0x15
 4545 15f7 D5000000 		.4byte	0xd5
 4546 15fb 8C000000 		.4byte	.LLST4
 4547 15ff 2D       		.uleb128 0x2d
 4548 1600 2A000000 		.4byte	.LBB69
 4549 1604 16000000 		.4byte	.LBE69-.LBB69
 4550 1608 38160000 		.4byte	0x1638
ARM GAS  C:\Users\gab_1\AppData\Local\Temp\ccTtYdci.s 			page 144


 4551 160c 2E       		.uleb128 0x2e
 4552 160d 6900     		.ascii	"i\000"
 4553 160f 01       		.byte	0x1
 4554 1610 1C       		.byte	0x1c
 4555 1611 A6000000 		.4byte	0xa6
 4556 1615 AD000000 		.4byte	.LLST5
 4557 1619 29       		.uleb128 0x29
 4558 161a 3A000000 		.4byte	.LVL17
 4559 161e DD2A0000 		.4byte	0x2add
 4560 1622 27       		.uleb128 0x27
 4561 1623 01       		.uleb128 0x1
 4562 1624 50       		.byte	0x50
 4563 1625 05       		.uleb128 0x5
 4564 1626 0C       		.byte	0xc
 4565 1627 00006440 		.4byte	0x40640000
 4566 162b 27       		.uleb128 0x27
 4567 162c 01       		.uleb128 0x1
 4568 162d 52       		.byte	0x52
 4569 162e 01       		.uleb128 0x1
 4570 162f 30       		.byte	0x30
 4571 1630 27       		.uleb128 0x27
 4572 1631 01       		.uleb128 0x1
 4573 1632 53       		.byte	0x53
 4574 1633 02       		.uleb128 0x2
 4575 1634 77       		.byte	0x77
 4576 1635 00       		.sleb128 0
 4577 1636 00       		.byte	0
 4578 1637 00       		.byte	0
 4579 1638 26       		.uleb128 0x26
 4580 1639 1E000000 		.4byte	.LVL14
 4581 163d E92A0000 		.4byte	0x2ae9
 4582 1641 5D160000 		.4byte	0x165d
 4583 1645 27       		.uleb128 0x27
 4584 1646 01       		.uleb128 0x1
 4585 1647 50       		.byte	0x50
 4586 1648 02       		.uleb128 0x2
 4587 1649 74       		.byte	0x74
 4588 164a 00       		.sleb128 0
 4589 164b 27       		.uleb128 0x27
 4590 164c 01       		.uleb128 0x1
 4591 164d 52       		.byte	0x52
 4592 164e 01       		.uleb128 0x1
 4593 164f 30       		.byte	0x30
 4594 1650 27       		.uleb128 0x27
 4595 1651 01       		.uleb128 0x1
 4596 1652 53       		.byte	0x53
 4597 1653 01       		.uleb128 0x1
 4598 1654 30       		.byte	0x30
 4599 1655 27       		.uleb128 0x27
 4600 1656 02       		.uleb128 0x2
 4601 1657 7D       		.byte	0x7d
 4602 1658 00       		.sleb128 0
 4603 1659 02       		.uleb128 0x2
 4604 165a 77       		.byte	0x77
 4605 165b 00       		.sleb128 0
 4606 165c 00       		.byte	0
 4607 165d 26       		.uleb128 0x26
ARM GAS  C:\Users\gab_1\AppData\Local\Temp\ccTtYdci.s 			page 145


 4608 165e 2A000000 		.4byte	.LVL15
 4609 1662 DD2A0000 		.4byte	0x2add
 4610 1666 82160000 		.4byte	0x1682
 4611 166a 27       		.uleb128 0x27
 4612 166b 01       		.uleb128 0x1
 4613 166c 50       		.byte	0x50
 4614 166d 02       		.uleb128 0x2
 4615 166e 74       		.byte	0x74
 4616 166f 00       		.sleb128 0
 4617 1670 27       		.uleb128 0x27
 4618 1671 01       		.uleb128 0x1
 4619 1672 51       		.byte	0x51
 4620 1673 02       		.uleb128 0x2
 4621 1674 78       		.byte	0x78
 4622 1675 00       		.sleb128 0
 4623 1676 27       		.uleb128 0x27
 4624 1677 01       		.uleb128 0x1
 4625 1678 52       		.byte	0x52
 4626 1679 01       		.uleb128 0x1
 4627 167a 30       		.byte	0x30
 4628 167b 27       		.uleb128 0x27
 4629 167c 01       		.uleb128 0x1
 4630 167d 53       		.byte	0x53
 4631 167e 02       		.uleb128 0x2
 4632 167f 77       		.byte	0x77
 4633 1680 00       		.sleb128 0
 4634 1681 00       		.byte	0
 4635 1682 29       		.uleb128 0x29
 4636 1683 4A000000 		.4byte	.LVL19
 4637 1687 F52A0000 		.4byte	0x2af5
 4638 168b 27       		.uleb128 0x27
 4639 168c 01       		.uleb128 0x1
 4640 168d 50       		.byte	0x50
 4641 168e 05       		.uleb128 0x5
 4642 168f 0C       		.byte	0xc
 4643 1690 00006440 		.4byte	0x40640000
 4644 1694 27       		.uleb128 0x27
 4645 1695 01       		.uleb128 0x1
 4646 1696 51       		.byte	0x51
 4647 1697 01       		.uleb128 0x1
 4648 1698 30       		.byte	0x30
 4649 1699 27       		.uleb128 0x27
 4650 169a 01       		.uleb128 0x1
 4651 169b 52       		.byte	0x52
 4652 169c 02       		.uleb128 0x2
 4653 169d 77       		.byte	0x77
 4654 169e 00       		.sleb128 0
 4655 169f 00       		.byte	0
 4656 16a0 00       		.byte	0
 4657 16a1 2A       		.uleb128 0x2a
 4658 16a2 89190000 		.4byte	.LASF368
 4659 16a6 01       		.byte	0x1
 4660 16a7 28       		.byte	0x28
 4661 16a8 B4000000 		.4byte	0xb4
 4662 16ac 00000000 		.4byte	.LFB694
 4663 16b0 84000000 		.4byte	.LFE694-.LFB694
 4664 16b4 01       		.uleb128 0x1
ARM GAS  C:\Users\gab_1\AppData\Local\Temp\ccTtYdci.s 			page 146


 4665 16b5 9C       		.byte	0x9c
 4666 16b6 FA170000 		.4byte	0x17fa
 4667 16ba 2B       		.uleb128 0x2b
 4668 16bb 50130000 		.4byte	.LASF364
 4669 16bf 01       		.byte	0x1
 4670 16c0 28       		.byte	0x28
 4671 16c1 BF000000 		.4byte	0xbf
 4672 16c5 CC000000 		.4byte	.LLST6
 4673 16c9 2B       		.uleb128 0x2b
 4674 16ca 3D0B0000 		.4byte	.LASF365
 4675 16ce 01       		.byte	0x1
 4676 16cf 28       		.byte	0x28
 4677 16d0 BF000000 		.4byte	0xbf
 4678 16d4 ED000000 		.4byte	.LLST7
 4679 16d8 2B       		.uleb128 0x2b
 4680 16d9 5D0C0000 		.4byte	.LASF323
 4681 16dd 01       		.byte	0x1
 4682 16de 28       		.byte	0x28
 4683 16df 1C0E0000 		.4byte	0xe1c
 4684 16e3 0E010000 		.4byte	.LLST8
 4685 16e7 2C       		.uleb128 0x2c
 4686 16e8 6C656E00 		.ascii	"len\000"
 4687 16ec 01       		.byte	0x1
 4688 16ed 28       		.byte	0x28
 4689 16ee D5000000 		.4byte	0xd5
 4690 16f2 3A010000 		.4byte	.LLST9
 4691 16f6 2D       		.uleb128 0x2d
 4692 16f7 3A000000 		.4byte	.LBB70
 4693 16fb 1C000000 		.4byte	.LBE70-.LBB70
 4694 16ff 3E170000 		.4byte	0x173e
 4695 1703 2E       		.uleb128 0x2e
 4696 1704 6900     		.ascii	"i\000"
 4697 1706 01       		.byte	0x1
 4698 1707 31       		.byte	0x31
 4699 1708 A6000000 		.4byte	0xa6
 4700 170c 5B010000 		.4byte	.LLST10
 4701 1710 29       		.uleb128 0x29
 4702 1711 4E000000 		.4byte	.LVL30
 4703 1715 012B0000 		.4byte	0x2b01
 4704 1719 27       		.uleb128 0x27
 4705 171a 01       		.uleb128 0x1
 4706 171b 50       		.byte	0x50
 4707 171c 05       		.uleb128 0x5
 4708 171d 0C       		.byte	0xc
 4709 171e 00006440 		.4byte	0x40640000
 4710 1722 27       		.uleb128 0x27
 4711 1723 01       		.uleb128 0x1
 4712 1724 51       		.byte	0x51
 4713 1725 01       		.uleb128 0x1
 4714 1726 30       		.byte	0x30
 4715 1727 27       		.uleb128 0x27
 4716 1728 01       		.uleb128 0x1
 4717 1729 52       		.byte	0x52
 4718 172a 05       		.uleb128 0x5
 4719 172b 76       		.byte	0x76
 4720 172c 00       		.sleb128 0
 4721 172d 74       		.byte	0x74
ARM GAS  C:\Users\gab_1\AppData\Local\Temp\ccTtYdci.s 			page 147


 4722 172e 00       		.sleb128 0
 4723 172f 22       		.byte	0x22
 4724 1730 27       		.uleb128 0x27
 4725 1731 01       		.uleb128 0x1
 4726 1732 53       		.byte	0x53
 4727 1733 01       		.uleb128 0x1
 4728 1734 30       		.byte	0x30
 4729 1735 27       		.uleb128 0x27
 4730 1736 02       		.uleb128 0x2
 4731 1737 7D       		.byte	0x7d
 4732 1738 00       		.sleb128 0
 4733 1739 02       		.uleb128 0x2
 4734 173a 77       		.byte	0x77
 4735 173b 00       		.sleb128 0
 4736 173c 00       		.byte	0
 4737 173d 00       		.byte	0
 4738 173e 26       		.uleb128 0x26
 4739 173f 20000000 		.4byte	.LVL26
 4740 1743 E92A0000 		.4byte	0x2ae9
 4741 1747 69170000 		.4byte	0x1769
 4742 174b 27       		.uleb128 0x27
 4743 174c 01       		.uleb128 0x1
 4744 174d 50       		.byte	0x50
 4745 174e 02       		.uleb128 0x2
 4746 174f 74       		.byte	0x74
 4747 1750 00       		.sleb128 0
 4748 1751 27       		.uleb128 0x27
 4749 1752 01       		.uleb128 0x1
 4750 1753 51       		.byte	0x51
 4751 1754 02       		.uleb128 0x2
 4752 1755 78       		.byte	0x78
 4753 1756 00       		.sleb128 0
 4754 1757 27       		.uleb128 0x27
 4755 1758 01       		.uleb128 0x1
 4756 1759 52       		.byte	0x52
 4757 175a 01       		.uleb128 0x1
 4758 175b 30       		.byte	0x30
 4759 175c 27       		.uleb128 0x27
 4760 175d 01       		.uleb128 0x1
 4761 175e 53       		.byte	0x53
 4762 175f 01       		.uleb128 0x1
 4763 1760 30       		.byte	0x30
 4764 1761 27       		.uleb128 0x27
 4765 1762 02       		.uleb128 0x2
 4766 1763 7D       		.byte	0x7d
 4767 1764 00       		.sleb128 0
 4768 1765 02       		.uleb128 0x2
 4769 1766 77       		.byte	0x77
 4770 1767 00       		.sleb128 0
 4771 1768 00       		.byte	0
 4772 1769 26       		.uleb128 0x26
 4773 176a 2C000000 		.4byte	.LVL27
 4774 176e DD2A0000 		.4byte	0x2add
 4775 1772 8E170000 		.4byte	0x178e
 4776 1776 27       		.uleb128 0x27
 4777 1777 01       		.uleb128 0x1
 4778 1778 50       		.byte	0x50
ARM GAS  C:\Users\gab_1\AppData\Local\Temp\ccTtYdci.s 			page 148


 4779 1779 02       		.uleb128 0x2
 4780 177a 74       		.byte	0x74
 4781 177b 00       		.sleb128 0
 4782 177c 27       		.uleb128 0x27
 4783 177d 01       		.uleb128 0x1
 4784 177e 51       		.byte	0x51
 4785 177f 02       		.uleb128 0x2
 4786 1780 79       		.byte	0x79
 4787 1781 00       		.sleb128 0
 4788 1782 27       		.uleb128 0x27
 4789 1783 01       		.uleb128 0x1
 4790 1784 52       		.byte	0x52
 4791 1785 01       		.uleb128 0x1
 4792 1786 30       		.byte	0x30
 4793 1787 27       		.uleb128 0x27
 4794 1788 01       		.uleb128 0x1
 4795 1789 53       		.byte	0x53
 4796 178a 02       		.uleb128 0x2
 4797 178b 77       		.byte	0x77
 4798 178c 00       		.sleb128 0
 4799 178d 00       		.byte	0
 4800 178e 26       		.uleb128 0x26
 4801 178f 3A000000 		.4byte	.LVL28
 4802 1793 0D2B0000 		.4byte	0x2b0d
 4803 1797 B9170000 		.4byte	0x17b9
 4804 179b 27       		.uleb128 0x27
 4805 179c 01       		.uleb128 0x1
 4806 179d 50       		.byte	0x50
 4807 179e 02       		.uleb128 0x2
 4808 179f 74       		.byte	0x74
 4809 17a0 00       		.sleb128 0
 4810 17a1 27       		.uleb128 0x27
 4811 17a2 01       		.uleb128 0x1
 4812 17a3 51       		.byte	0x51
 4813 17a4 02       		.uleb128 0x2
 4814 17a5 78       		.byte	0x78
 4815 17a6 00       		.sleb128 0
 4816 17a7 27       		.uleb128 0x27
 4817 17a8 01       		.uleb128 0x1
 4818 17a9 52       		.byte	0x52
 4819 17aa 01       		.uleb128 0x1
 4820 17ab 31       		.byte	0x31
 4821 17ac 27       		.uleb128 0x27
 4822 17ad 01       		.uleb128 0x1
 4823 17ae 53       		.byte	0x53
 4824 17af 01       		.uleb128 0x1
 4825 17b0 30       		.byte	0x30
 4826 17b1 27       		.uleb128 0x27
 4827 17b2 02       		.uleb128 0x2
 4828 17b3 7D       		.byte	0x7d
 4829 17b4 00       		.sleb128 0
 4830 17b5 02       		.uleb128 0x2
 4831 17b6 77       		.byte	0x77
 4832 17b7 00       		.sleb128 0
 4833 17b8 00       		.byte	0
 4834 17b9 26       		.uleb128 0x26
 4835 17ba 6A000000 		.4byte	.LVL33
ARM GAS  C:\Users\gab_1\AppData\Local\Temp\ccTtYdci.s 			page 149


 4836 17be 012B0000 		.4byte	0x2b01
 4837 17c2 DE170000 		.4byte	0x17de
 4838 17c6 27       		.uleb128 0x27
 4839 17c7 01       		.uleb128 0x1
 4840 17c8 50       		.byte	0x50
 4841 17c9 02       		.uleb128 0x2
 4842 17ca 74       		.byte	0x74
 4843 17cb 00       		.sleb128 0
 4844 17cc 27       		.uleb128 0x27
 4845 17cd 01       		.uleb128 0x1
 4846 17ce 51       		.byte	0x51
 4847 17cf 01       		.uleb128 0x1
 4848 17d0 31       		.byte	0x31
 4849 17d1 27       		.uleb128 0x27
 4850 17d2 01       		.uleb128 0x1
 4851 17d3 53       		.byte	0x53
 4852 17d4 01       		.uleb128 0x1
 4853 17d5 30       		.byte	0x30
 4854 17d6 27       		.uleb128 0x27
 4855 17d7 02       		.uleb128 0x2
 4856 17d8 7D       		.byte	0x7d
 4857 17d9 00       		.sleb128 0
 4858 17da 02       		.uleb128 0x2
 4859 17db 77       		.byte	0x77
 4860 17dc 00       		.sleb128 0
 4861 17dd 00       		.byte	0
 4862 17de 29       		.uleb128 0x29
 4863 17df 74000000 		.4byte	.LVL34
 4864 17e3 F52A0000 		.4byte	0x2af5
 4865 17e7 27       		.uleb128 0x27
 4866 17e8 01       		.uleb128 0x1
 4867 17e9 50       		.byte	0x50
 4868 17ea 02       		.uleb128 0x2
 4869 17eb 74       		.byte	0x74
 4870 17ec 00       		.sleb128 0
 4871 17ed 27       		.uleb128 0x27
 4872 17ee 01       		.uleb128 0x1
 4873 17ef 51       		.byte	0x51
 4874 17f0 01       		.uleb128 0x1
 4875 17f1 30       		.byte	0x30
 4876 17f2 27       		.uleb128 0x27
 4877 17f3 01       		.uleb128 0x1
 4878 17f4 52       		.byte	0x52
 4879 17f5 02       		.uleb128 0x2
 4880 17f6 77       		.byte	0x77
 4881 17f7 00       		.sleb128 0
 4882 17f8 00       		.byte	0
 4883 17f9 00       		.byte	0
 4884 17fa 2F       		.uleb128 0x2f
 4885 17fb 940C0000 		.4byte	.LASF394
 4886 17ff 02       		.byte	0x2
 4887 1800 6B       		.byte	0x6b
 4888 1801 BF000000 		.4byte	0xbf
 4889 1805 00000000 		.4byte	.LFB697
 4890 1809 60000000 		.4byte	.LFE697-.LFB697
 4891 180d 01       		.uleb128 0x1
 4892 180e 9C       		.byte	0x9c
ARM GAS  C:\Users\gab_1\AppData\Local\Temp\ccTtYdci.s 			page 150


 4893 180f B3190000 		.4byte	0x19b3
 4894 1813 2B       		.uleb128 0x2b
 4895 1814 39150000 		.4byte	.LASF354
 4896 1818 02       		.byte	0x2
 4897 1819 6B       		.byte	0x6b
 4898 181a BF000000 		.4byte	0xbf
 4899 181e 7A010000 		.4byte	.LLST11
 4900 1822 30       		.uleb128 0x30
 4901 1823 CC020000 		.4byte	.LASF369
 4902 1827 02       		.byte	0x2
 4903 1828 70       		.byte	0x70
 4904 1829 BF000000 		.4byte	0xbf
 4905 182d 02       		.uleb128 0x2
 4906 182e 91       		.byte	0x91
 4907 182f 6F       		.sleb128 -17
 4908 1830 31       		.uleb128 0x31
 4909 1831 76140000 		.4byte	0x1476
 4910 1835 06000000 		.4byte	.LBB71
 4911 1839 12000000 		.4byte	.LBE71-.LBB71
 4912 183d 02       		.byte	0x2
 4913 183e 6D       		.byte	0x6d
 4914 183f 87180000 		.4byte	0x1887
 4915 1843 32       		.uleb128 0x32
 4916 1844 9F140000 		.4byte	0x149f
 4917 1848 9B010000 		.4byte	.LLST12
 4918 184c 32       		.uleb128 0x32
 4919 184d 93140000 		.4byte	0x1493
 4920 1851 B0010000 		.4byte	.LLST13
 4921 1855 32       		.uleb128 0x32
 4922 1856 87140000 		.4byte	0x1487
 4923 185a C4010000 		.4byte	.LLST14
 4924 185e 29       		.uleb128 0x29
 4925 185f 18000000 		.4byte	.LVL39
 4926 1863 E92A0000 		.4byte	0x2ae9
 4927 1867 27       		.uleb128 0x27
 4928 1868 01       		.uleb128 0x1
 4929 1869 50       		.byte	0x50
 4930 186a 02       		.uleb128 0x2
 4931 186b 74       		.byte	0x74
 4932 186c 00       		.sleb128 0
 4933 186d 27       		.uleb128 0x27
 4934 186e 01       		.uleb128 0x1
 4935 186f 51       		.byte	0x51
 4936 1870 02       		.uleb128 0x2
 4937 1871 08       		.byte	0x8
 4938 1872 57       		.byte	0x57
 4939 1873 27       		.uleb128 0x27
 4940 1874 01       		.uleb128 0x1
 4941 1875 52       		.byte	0x52
 4942 1876 01       		.uleb128 0x1
 4943 1877 30       		.byte	0x30
 4944 1878 27       		.uleb128 0x27
 4945 1879 01       		.uleb128 0x1
 4946 187a 53       		.byte	0x53
 4947 187b 02       		.uleb128 0x2
 4948 187c 08       		.byte	0x8
 4949 187d 64       		.byte	0x64
ARM GAS  C:\Users\gab_1\AppData\Local\Temp\ccTtYdci.s 			page 151


 4950 187e 27       		.uleb128 0x27
 4951 187f 02       		.uleb128 0x2
 4952 1880 7D       		.byte	0x7d
 4953 1881 00       		.sleb128 0
 4954 1882 02       		.uleb128 0x2
 4955 1883 75       		.byte	0x75
 4956 1884 00       		.sleb128 0
 4957 1885 00       		.byte	0
 4958 1886 00       		.byte	0
 4959 1887 31       		.uleb128 0x31
 4960 1888 4C140000 		.4byte	0x144c
 4961 188c 18000000 		.4byte	.LBB73
 4962 1890 0C000000 		.4byte	.LBE73-.LBB73
 4963 1894 02       		.byte	0x2
 4964 1895 6E       		.byte	0x6e
 4965 1896 CF180000 		.4byte	0x18cf
 4966 189a 32       		.uleb128 0x32
 4967 189b 69140000 		.4byte	0x1469
 4968 189f D9010000 		.4byte	.LLST15
 4969 18a3 32       		.uleb128 0x32
 4970 18a4 5D140000 		.4byte	0x145d
 4971 18a8 EE010000 		.4byte	.LLST16
 4972 18ac 29       		.uleb128 0x29
 4973 18ad 24000000 		.4byte	.LVL40
 4974 18b1 DD2A0000 		.4byte	0x2add
 4975 18b5 27       		.uleb128 0x27
 4976 18b6 01       		.uleb128 0x1
 4977 18b7 50       		.byte	0x50
 4978 18b8 02       		.uleb128 0x2
 4979 18b9 74       		.byte	0x74
 4980 18ba 00       		.sleb128 0
 4981 18bb 27       		.uleb128 0x27
 4982 18bc 01       		.uleb128 0x1
 4983 18bd 51       		.byte	0x51
 4984 18be 02       		.uleb128 0x2
 4985 18bf 76       		.byte	0x76
 4986 18c0 00       		.sleb128 0
 4987 18c1 27       		.uleb128 0x27
 4988 18c2 01       		.uleb128 0x1
 4989 18c3 52       		.byte	0x52
 4990 18c4 02       		.uleb128 0x2
 4991 18c5 08       		.byte	0x8
 4992 18c6 64       		.byte	0x64
 4993 18c7 27       		.uleb128 0x27
 4994 18c8 01       		.uleb128 0x1
 4995 18c9 53       		.byte	0x53
 4996 18ca 02       		.uleb128 0x2
 4997 18cb 75       		.byte	0x75
 4998 18cc 00       		.sleb128 0
 4999 18cd 00       		.byte	0
 5000 18ce 00       		.byte	0
 5001 18cf 31       		.uleb128 0x31
 5002 18d0 16140000 		.4byte	0x1416
 5003 18d4 24000000 		.4byte	.LBB75
 5004 18d8 0E000000 		.4byte	.LBE75-.LBB75
 5005 18dc 02       		.byte	0x2
 5006 18dd 6F       		.byte	0x6f
ARM GAS  C:\Users\gab_1\AppData\Local\Temp\ccTtYdci.s 			page 152


 5007 18de 26190000 		.4byte	0x1926
 5008 18e2 32       		.uleb128 0x32
 5009 18e3 3F140000 		.4byte	0x143f
 5010 18e7 01020000 		.4byte	.LLST17
 5011 18eb 32       		.uleb128 0x32
 5012 18ec 33140000 		.4byte	0x1433
 5013 18f0 16020000 		.4byte	.LLST18
 5014 18f4 32       		.uleb128 0x32
 5015 18f5 27140000 		.4byte	0x1427
 5016 18f9 2A020000 		.4byte	.LLST19
 5017 18fd 29       		.uleb128 0x29
 5018 18fe 32000000 		.4byte	.LVL41
 5019 1902 0D2B0000 		.4byte	0x2b0d
 5020 1906 27       		.uleb128 0x27
 5021 1907 01       		.uleb128 0x1
 5022 1908 50       		.byte	0x50
 5023 1909 02       		.uleb128 0x2
 5024 190a 74       		.byte	0x74
 5025 190b 00       		.sleb128 0
 5026 190c 27       		.uleb128 0x27
 5027 190d 01       		.uleb128 0x1
 5028 190e 51       		.byte	0x51
 5029 190f 02       		.uleb128 0x2
 5030 1910 08       		.byte	0x8
 5031 1911 57       		.byte	0x57
 5032 1912 27       		.uleb128 0x27
 5033 1913 01       		.uleb128 0x1
 5034 1914 52       		.byte	0x52
 5035 1915 01       		.uleb128 0x1
 5036 1916 31       		.byte	0x31
 5037 1917 27       		.uleb128 0x27
 5038 1918 01       		.uleb128 0x1
 5039 1919 53       		.byte	0x53
 5040 191a 02       		.uleb128 0x2
 5041 191b 08       		.byte	0x8
 5042 191c 64       		.byte	0x64
 5043 191d 27       		.uleb128 0x27
 5044 191e 02       		.uleb128 0x2
 5045 191f 7D       		.byte	0x7d
 5046 1920 00       		.sleb128 0
 5047 1921 02       		.uleb128 0x2
 5048 1922 75       		.byte	0x75
 5049 1923 00       		.sleb128 0
 5050 1924 00       		.byte	0
 5051 1925 00       		.byte	0
 5052 1926 31       		.uleb128 0x31
 5053 1927 E0130000 		.4byte	0x13e0
 5054 192b 3A000000 		.4byte	.LBB77
 5055 192f 0A000000 		.4byte	.LBE77-.LBB77
 5056 1933 02       		.byte	0x2
 5057 1934 71       		.byte	0x71
 5058 1935 7D190000 		.4byte	0x197d
 5059 1939 32       		.uleb128 0x32
 5060 193a 09140000 		.4byte	0x1409
 5061 193e 3F020000 		.4byte	.LLST20
 5062 1942 32       		.uleb128 0x32
 5063 1943 FD130000 		.4byte	0x13fd
ARM GAS  C:\Users\gab_1\AppData\Local\Temp\ccTtYdci.s 			page 153


 5064 1947 54020000 		.4byte	.LLST21
 5065 194b 32       		.uleb128 0x32
 5066 194c F1130000 		.4byte	0x13f1
 5067 1950 69020000 		.4byte	.LLST22
 5068 1954 29       		.uleb128 0x29
 5069 1955 44000000 		.4byte	.LVL43
 5070 1959 012B0000 		.4byte	0x2b01
 5071 195d 27       		.uleb128 0x27
 5072 195e 01       		.uleb128 0x1
 5073 195f 50       		.byte	0x50
 5074 1960 02       		.uleb128 0x2
 5075 1961 74       		.byte	0x74
 5076 1962 00       		.sleb128 0
 5077 1963 27       		.uleb128 0x27
 5078 1964 01       		.uleb128 0x1
 5079 1965 51       		.byte	0x51
 5080 1966 01       		.uleb128 0x1
 5081 1967 30       		.byte	0x30
 5082 1968 27       		.uleb128 0x27
 5083 1969 01       		.uleb128 0x1
 5084 196a 52       		.byte	0x52
 5085 196b 02       		.uleb128 0x2
 5086 196c 91       		.byte	0x91
 5087 196d 6F       		.sleb128 -17
 5088 196e 27       		.uleb128 0x27
 5089 196f 01       		.uleb128 0x1
 5090 1970 53       		.byte	0x53
 5091 1971 02       		.uleb128 0x2
 5092 1972 08       		.byte	0x8
 5093 1973 64       		.byte	0x64
 5094 1974 27       		.uleb128 0x27
 5095 1975 02       		.uleb128 0x2
 5096 1976 7D       		.byte	0x7d
 5097 1977 00       		.sleb128 0
 5098 1978 02       		.uleb128 0x2
 5099 1979 75       		.byte	0x75
 5100 197a 00       		.sleb128 0
 5101 197b 00       		.byte	0
 5102 197c 00       		.byte	0
 5103 197d 33       		.uleb128 0x33
 5104 197e C2130000 		.4byte	0x13c2
 5105 1982 44000000 		.4byte	.LBB79
 5106 1986 0A000000 		.4byte	.LBE79-.LBB79
 5107 198a 02       		.byte	0x2
 5108 198b 72       		.byte	0x72
 5109 198c 32       		.uleb128 0x32
 5110 198d D3130000 		.4byte	0x13d3
 5111 1991 7D020000 		.4byte	.LLST23
 5112 1995 29       		.uleb128 0x29
 5113 1996 4E000000 		.4byte	.LVL44
 5114 199a F52A0000 		.4byte	0x2af5
 5115 199e 27       		.uleb128 0x27
 5116 199f 01       		.uleb128 0x1
 5117 19a0 50       		.byte	0x50
 5118 19a1 02       		.uleb128 0x2
 5119 19a2 74       		.byte	0x74
 5120 19a3 00       		.sleb128 0
ARM GAS  C:\Users\gab_1\AppData\Local\Temp\ccTtYdci.s 			page 154


 5121 19a4 27       		.uleb128 0x27
 5122 19a5 01       		.uleb128 0x1
 5123 19a6 51       		.byte	0x51
 5124 19a7 02       		.uleb128 0x2
 5125 19a8 08       		.byte	0x8
 5126 19a9 64       		.byte	0x64
 5127 19aa 27       		.uleb128 0x27
 5128 19ab 01       		.uleb128 0x1
 5129 19ac 52       		.byte	0x52
 5130 19ad 02       		.uleb128 0x2
 5131 19ae 75       		.byte	0x75
 5132 19af 00       		.sleb128 0
 5133 19b0 00       		.byte	0
 5134 19b1 00       		.byte	0
 5135 19b2 00       		.byte	0
 5136 19b3 34       		.uleb128 0x34
 5137 19b4 FC150000 		.4byte	.LASF370
 5138 19b8 02       		.byte	0x2
 5139 19b9 76       		.byte	0x76
 5140 19ba 00000000 		.4byte	.LFB698
 5141 19be 48000000 		.4byte	.LFE698-.LFB698
 5142 19c2 01       		.uleb128 0x1
 5143 19c3 9C       		.byte	0x9c
 5144 19c4 031B0000 		.4byte	0x1b03
 5145 19c8 2B       		.uleb128 0x2b
 5146 19c9 39150000 		.4byte	.LASF354
 5147 19cd 02       		.byte	0x2
 5148 19ce 76       		.byte	0x76
 5149 19cf BF000000 		.4byte	0xbf
 5150 19d3 92020000 		.4byte	.LLST24
 5151 19d7 2B       		.uleb128 0x2b
 5152 19d8 5D0C0000 		.4byte	.LASF323
 5153 19dc 02       		.byte	0x2
 5154 19dd 76       		.byte	0x76
 5155 19de BF000000 		.4byte	0xbf
 5156 19e2 B3020000 		.4byte	.LLST25
 5157 19e6 31       		.uleb128 0x31
 5158 19e7 76140000 		.4byte	0x1476
 5159 19eb 08000000 		.4byte	.LBB81
 5160 19ef 12000000 		.4byte	.LBE81-.LBB81
 5161 19f3 02       		.byte	0x2
 5162 19f4 78       		.byte	0x78
 5163 19f5 3D1A0000 		.4byte	0x1a3d
 5164 19f9 32       		.uleb128 0x32
 5165 19fa 9F140000 		.4byte	0x149f
 5166 19fe D4020000 		.4byte	.LLST26
 5167 1a02 32       		.uleb128 0x32
 5168 1a03 93140000 		.4byte	0x1493
 5169 1a07 E9020000 		.4byte	.LLST27
 5170 1a0b 32       		.uleb128 0x32
 5171 1a0c 87140000 		.4byte	0x1487
 5172 1a10 FD020000 		.4byte	.LLST28
 5173 1a14 29       		.uleb128 0x29
 5174 1a15 1A000000 		.4byte	.LVL49
 5175 1a19 E92A0000 		.4byte	0x2ae9
 5176 1a1d 27       		.uleb128 0x27
 5177 1a1e 01       		.uleb128 0x1
ARM GAS  C:\Users\gab_1\AppData\Local\Temp\ccTtYdci.s 			page 155


 5178 1a1f 50       		.byte	0x50
 5179 1a20 02       		.uleb128 0x2
 5180 1a21 74       		.byte	0x74
 5181 1a22 00       		.sleb128 0
 5182 1a23 27       		.uleb128 0x27
 5183 1a24 01       		.uleb128 0x1
 5184 1a25 51       		.byte	0x51
 5185 1a26 02       		.uleb128 0x2
 5186 1a27 08       		.byte	0x8
 5187 1a28 57       		.byte	0x57
 5188 1a29 27       		.uleb128 0x27
 5189 1a2a 01       		.uleb128 0x1
 5190 1a2b 52       		.byte	0x52
 5191 1a2c 01       		.uleb128 0x1
 5192 1a2d 30       		.byte	0x30
 5193 1a2e 27       		.uleb128 0x27
 5194 1a2f 01       		.uleb128 0x1
 5195 1a30 53       		.byte	0x53
 5196 1a31 02       		.uleb128 0x2
 5197 1a32 08       		.byte	0x8
 5198 1a33 64       		.byte	0x64
 5199 1a34 27       		.uleb128 0x27
 5200 1a35 02       		.uleb128 0x2
 5201 1a36 7D       		.byte	0x7d
 5202 1a37 00       		.sleb128 0
 5203 1a38 02       		.uleb128 0x2
 5204 1a39 75       		.byte	0x75
 5205 1a3a 00       		.sleb128 0
 5206 1a3b 00       		.byte	0
 5207 1a3c 00       		.byte	0
 5208 1a3d 31       		.uleb128 0x31
 5209 1a3e 4C140000 		.4byte	0x144c
 5210 1a42 1A000000 		.4byte	.LBB83
 5211 1a46 0C000000 		.4byte	.LBE83-.LBB83
 5212 1a4a 02       		.byte	0x2
 5213 1a4b 79       		.byte	0x79
 5214 1a4c 851A0000 		.4byte	0x1a85
 5215 1a50 32       		.uleb128 0x32
 5216 1a51 69140000 		.4byte	0x1469
 5217 1a55 12030000 		.4byte	.LLST29
 5218 1a59 32       		.uleb128 0x32
 5219 1a5a 5D140000 		.4byte	0x145d
 5220 1a5e 27030000 		.4byte	.LLST30
 5221 1a62 29       		.uleb128 0x29
 5222 1a63 26000000 		.4byte	.LVL50
 5223 1a67 DD2A0000 		.4byte	0x2add
 5224 1a6b 27       		.uleb128 0x27
 5225 1a6c 01       		.uleb128 0x1
 5226 1a6d 50       		.byte	0x50
 5227 1a6e 02       		.uleb128 0x2
 5228 1a6f 74       		.byte	0x74
 5229 1a70 00       		.sleb128 0
 5230 1a71 27       		.uleb128 0x27
 5231 1a72 01       		.uleb128 0x1
 5232 1a73 51       		.byte	0x51
 5233 1a74 02       		.uleb128 0x2
 5234 1a75 77       		.byte	0x77
ARM GAS  C:\Users\gab_1\AppData\Local\Temp\ccTtYdci.s 			page 156


 5235 1a76 00       		.sleb128 0
 5236 1a77 27       		.uleb128 0x27
 5237 1a78 01       		.uleb128 0x1
 5238 1a79 52       		.byte	0x52
 5239 1a7a 02       		.uleb128 0x2
 5240 1a7b 08       		.byte	0x8
 5241 1a7c 64       		.byte	0x64
 5242 1a7d 27       		.uleb128 0x27
 5243 1a7e 01       		.uleb128 0x1
 5244 1a7f 53       		.byte	0x53
 5245 1a80 02       		.uleb128 0x2
 5246 1a81 75       		.byte	0x75
 5247 1a82 00       		.sleb128 0
 5248 1a83 00       		.byte	0
 5249 1a84 00       		.byte	0
 5250 1a85 31       		.uleb128 0x31
 5251 1a86 4C140000 		.4byte	0x144c
 5252 1a8a 26000000 		.4byte	.LBB85
 5253 1a8e 0C000000 		.4byte	.LBE85-.LBB85
 5254 1a92 02       		.byte	0x2
 5255 1a93 7A       		.byte	0x7a
 5256 1a94 CD1A0000 		.4byte	0x1acd
 5257 1a98 32       		.uleb128 0x32
 5258 1a99 69140000 		.4byte	0x1469
 5259 1a9d 3A030000 		.4byte	.LLST31
 5260 1aa1 32       		.uleb128 0x32
 5261 1aa2 5D140000 		.4byte	0x145d
 5262 1aa6 4F030000 		.4byte	.LLST32
 5263 1aaa 29       		.uleb128 0x29
 5264 1aab 32000000 		.4byte	.LVL51
 5265 1aaf DD2A0000 		.4byte	0x2add
 5266 1ab3 27       		.uleb128 0x27
 5267 1ab4 01       		.uleb128 0x1
 5268 1ab5 50       		.byte	0x50
 5269 1ab6 02       		.uleb128 0x2
 5270 1ab7 74       		.byte	0x74
 5271 1ab8 00       		.sleb128 0
 5272 1ab9 27       		.uleb128 0x27
 5273 1aba 01       		.uleb128 0x1
 5274 1abb 51       		.byte	0x51
 5275 1abc 02       		.uleb128 0x2
 5276 1abd 76       		.byte	0x76
 5277 1abe 00       		.sleb128 0
 5278 1abf 27       		.uleb128 0x27
 5279 1ac0 01       		.uleb128 0x1
 5280 1ac1 52       		.byte	0x52
 5281 1ac2 02       		.uleb128 0x2
 5282 1ac3 08       		.byte	0x8
 5283 1ac4 64       		.byte	0x64
 5284 1ac5 27       		.uleb128 0x27
 5285 1ac6 01       		.uleb128 0x1
 5286 1ac7 53       		.byte	0x53
 5287 1ac8 02       		.uleb128 0x2
 5288 1ac9 75       		.byte	0x75
 5289 1aca 00       		.sleb128 0
 5290 1acb 00       		.byte	0
 5291 1acc 00       		.byte	0
ARM GAS  C:\Users\gab_1\AppData\Local\Temp\ccTtYdci.s 			page 157


 5292 1acd 33       		.uleb128 0x33
 5293 1ace C2130000 		.4byte	0x13c2
 5294 1ad2 32000000 		.4byte	.LBB87
 5295 1ad6 0A000000 		.4byte	.LBE87-.LBB87
 5296 1ada 02       		.byte	0x2
 5297 1adb 7B       		.byte	0x7b
 5298 1adc 32       		.uleb128 0x32
 5299 1add D3130000 		.4byte	0x13d3
 5300 1ae1 62030000 		.4byte	.LLST33
 5301 1ae5 29       		.uleb128 0x29
 5302 1ae6 3C000000 		.4byte	.LVL52
 5303 1aea F52A0000 		.4byte	0x2af5
 5304 1aee 27       		.uleb128 0x27
 5305 1aef 01       		.uleb128 0x1
 5306 1af0 50       		.byte	0x50
 5307 1af1 02       		.uleb128 0x2
 5308 1af2 74       		.byte	0x74
 5309 1af3 00       		.sleb128 0
 5310 1af4 27       		.uleb128 0x27
 5311 1af5 01       		.uleb128 0x1
 5312 1af6 51       		.byte	0x51
 5313 1af7 02       		.uleb128 0x2
 5314 1af8 08       		.byte	0x8
 5315 1af9 64       		.byte	0x64
 5316 1afa 27       		.uleb128 0x27
 5317 1afb 01       		.uleb128 0x1
 5318 1afc 52       		.byte	0x52
 5319 1afd 02       		.uleb128 0x2
 5320 1afe 75       		.byte	0x75
 5321 1aff 00       		.sleb128 0
 5322 1b00 00       		.byte	0
 5323 1b01 00       		.byte	0
 5324 1b02 00       		.byte	0
 5325 1b03 34       		.uleb128 0x34
 5326 1b04 7A110000 		.4byte	.LASF371
 5327 1b08 02       		.byte	0x2
 5328 1b09 7F       		.byte	0x7f
 5329 1b0a 00000000 		.4byte	.LFB699
 5330 1b0e 80000000 		.4byte	.LFE699-.LFB699
 5331 1b12 01       		.uleb128 0x1
 5332 1b13 9C       		.byte	0x9c
 5333 1b14 371D0000 		.4byte	0x1d37
 5334 1b18 2B       		.uleb128 0x2b
 5335 1b19 CE190000 		.4byte	.LASF372
 5336 1b1d 02       		.byte	0x2
 5337 1b1e 7F       		.byte	0x7f
 5338 1b1f BF000000 		.4byte	0xbf
 5339 1b23 77030000 		.4byte	.LLST34
 5340 1b27 2B       		.uleb128 0x2b
 5341 1b28 03020000 		.4byte	.LASF373
 5342 1b2c 02       		.byte	0x2
 5343 1b2d 7F       		.byte	0x7f
 5344 1b2e 1C0E0000 		.4byte	0xe1c
 5345 1b32 98030000 		.4byte	.LLST35
 5346 1b36 2B       		.uleb128 0x2b
 5347 1b37 EB120000 		.4byte	.LASF324
 5348 1b3b 02       		.byte	0x2
ARM GAS  C:\Users\gab_1\AppData\Local\Temp\ccTtYdci.s 			page 158


 5349 1b3c 7F       		.byte	0x7f
 5350 1b3d BF000000 		.4byte	0xbf
 5351 1b41 C4030000 		.4byte	.LLST36
 5352 1b45 2E       		.uleb128 0x2e
 5353 1b46 69647800 		.ascii	"idx\000"
 5354 1b4a 02       		.byte	0x2
 5355 1b4b 84       		.byte	0x84
 5356 1b4c BF000000 		.4byte	0xbf
 5357 1b50 E5030000 		.4byte	.LLST37
 5358 1b54 31       		.uleb128 0x31
 5359 1b55 76140000 		.4byte	0x1476
 5360 1b59 0C000000 		.4byte	.LBB89
 5361 1b5d 12000000 		.4byte	.LBE89-.LBB89
 5362 1b61 02       		.byte	0x2
 5363 1b62 81       		.byte	0x81
 5364 1b63 AB1B0000 		.4byte	0x1bab
 5365 1b67 32       		.uleb128 0x32
 5366 1b68 9F140000 		.4byte	0x149f
 5367 1b6c 0F040000 		.4byte	.LLST38
 5368 1b70 32       		.uleb128 0x32
 5369 1b71 93140000 		.4byte	0x1493
 5370 1b75 24040000 		.4byte	.LLST39
 5371 1b79 32       		.uleb128 0x32
 5372 1b7a 87140000 		.4byte	0x1487
 5373 1b7e 38040000 		.4byte	.LLST40
 5374 1b82 29       		.uleb128 0x29
 5375 1b83 1E000000 		.4byte	.LVL58
 5376 1b87 E92A0000 		.4byte	0x2ae9
 5377 1b8b 27       		.uleb128 0x27
 5378 1b8c 01       		.uleb128 0x1
 5379 1b8d 50       		.byte	0x50
 5380 1b8e 02       		.uleb128 0x2
 5381 1b8f 74       		.byte	0x74
 5382 1b90 00       		.sleb128 0
 5383 1b91 27       		.uleb128 0x27
 5384 1b92 01       		.uleb128 0x1
 5385 1b93 51       		.byte	0x51
 5386 1b94 02       		.uleb128 0x2
 5387 1b95 08       		.byte	0x8
 5388 1b96 57       		.byte	0x57
 5389 1b97 27       		.uleb128 0x27
 5390 1b98 01       		.uleb128 0x1
 5391 1b99 52       		.byte	0x52
 5392 1b9a 01       		.uleb128 0x1
 5393 1b9b 30       		.byte	0x30
 5394 1b9c 27       		.uleb128 0x27
 5395 1b9d 01       		.uleb128 0x1
 5396 1b9e 53       		.byte	0x53
 5397 1b9f 02       		.uleb128 0x2
 5398 1ba0 08       		.byte	0x8
 5399 1ba1 64       		.byte	0x64
 5400 1ba2 27       		.uleb128 0x27
 5401 1ba3 02       		.uleb128 0x2
 5402 1ba4 7D       		.byte	0x7d
 5403 1ba5 00       		.sleb128 0
 5404 1ba6 02       		.uleb128 0x2
 5405 1ba7 77       		.byte	0x77
ARM GAS  C:\Users\gab_1\AppData\Local\Temp\ccTtYdci.s 			page 159


 5406 1ba8 00       		.sleb128 0
 5407 1ba9 00       		.byte	0
 5408 1baa 00       		.byte	0
 5409 1bab 31       		.uleb128 0x31
 5410 1bac 4C140000 		.4byte	0x144c
 5411 1bb0 1E000000 		.4byte	.LBB91
 5412 1bb4 0C000000 		.4byte	.LBE91-.LBB91
 5413 1bb8 02       		.byte	0x2
 5414 1bb9 82       		.byte	0x82
 5415 1bba F31B0000 		.4byte	0x1bf3
 5416 1bbe 32       		.uleb128 0x32
 5417 1bbf 69140000 		.4byte	0x1469
 5418 1bc3 4D040000 		.4byte	.LLST41
 5419 1bc7 32       		.uleb128 0x32
 5420 1bc8 5D140000 		.4byte	0x145d
 5421 1bcc 62040000 		.4byte	.LLST42
 5422 1bd0 29       		.uleb128 0x29
 5423 1bd1 2A000000 		.4byte	.LVL59
 5424 1bd5 DD2A0000 		.4byte	0x2add
 5425 1bd9 27       		.uleb128 0x27
 5426 1bda 01       		.uleb128 0x1
 5427 1bdb 50       		.byte	0x50
 5428 1bdc 02       		.uleb128 0x2
 5429 1bdd 74       		.byte	0x74
 5430 1bde 00       		.sleb128 0
 5431 1bdf 27       		.uleb128 0x27
 5432 1be0 01       		.uleb128 0x1
 5433 1be1 51       		.byte	0x51
 5434 1be2 02       		.uleb128 0x2
 5435 1be3 78       		.byte	0x78
 5436 1be4 00       		.sleb128 0
 5437 1be5 27       		.uleb128 0x27
 5438 1be6 01       		.uleb128 0x1
 5439 1be7 52       		.byte	0x52
 5440 1be8 02       		.uleb128 0x2
 5441 1be9 08       		.byte	0x8
 5442 1bea 64       		.byte	0x64
 5443 1beb 27       		.uleb128 0x27
 5444 1bec 01       		.uleb128 0x1
 5445 1bed 53       		.byte	0x53
 5446 1bee 02       		.uleb128 0x2
 5447 1bef 77       		.byte	0x77
 5448 1bf0 00       		.sleb128 0
 5449 1bf1 00       		.byte	0
 5450 1bf2 00       		.byte	0
 5451 1bf3 31       		.uleb128 0x31
 5452 1bf4 16140000 		.4byte	0x1416
 5453 1bf8 2A000000 		.4byte	.LBB93
 5454 1bfc 0E000000 		.4byte	.LBE93-.LBB93
 5455 1c00 02       		.byte	0x2
 5456 1c01 83       		.byte	0x83
 5457 1c02 4A1C0000 		.4byte	0x1c4a
 5458 1c06 32       		.uleb128 0x32
 5459 1c07 3F140000 		.4byte	0x143f
 5460 1c0b 75040000 		.4byte	.LLST43
 5461 1c0f 32       		.uleb128 0x32
 5462 1c10 33140000 		.4byte	0x1433
ARM GAS  C:\Users\gab_1\AppData\Local\Temp\ccTtYdci.s 			page 160


 5463 1c14 8A040000 		.4byte	.LLST44
 5464 1c18 32       		.uleb128 0x32
 5465 1c19 27140000 		.4byte	0x1427
 5466 1c1d 9E040000 		.4byte	.LLST45
 5467 1c21 29       		.uleb128 0x29
 5468 1c22 38000000 		.4byte	.LVL60
 5469 1c26 0D2B0000 		.4byte	0x2b0d
 5470 1c2a 27       		.uleb128 0x27
 5471 1c2b 01       		.uleb128 0x1
 5472 1c2c 50       		.byte	0x50
 5473 1c2d 02       		.uleb128 0x2
 5474 1c2e 74       		.byte	0x74
 5475 1c2f 00       		.sleb128 0
 5476 1c30 27       		.uleb128 0x27
 5477 1c31 01       		.uleb128 0x1
 5478 1c32 51       		.byte	0x51
 5479 1c33 02       		.uleb128 0x2
 5480 1c34 08       		.byte	0x8
 5481 1c35 57       		.byte	0x57
 5482 1c36 27       		.uleb128 0x27
 5483 1c37 01       		.uleb128 0x1
 5484 1c38 52       		.byte	0x52
 5485 1c39 01       		.uleb128 0x1
 5486 1c3a 31       		.byte	0x31
 5487 1c3b 27       		.uleb128 0x27
 5488 1c3c 01       		.uleb128 0x1
 5489 1c3d 53       		.byte	0x53
 5490 1c3e 02       		.uleb128 0x2
 5491 1c3f 08       		.byte	0x8
 5492 1c40 64       		.byte	0x64
 5493 1c41 27       		.uleb128 0x27
 5494 1c42 02       		.uleb128 0x2
 5495 1c43 7D       		.byte	0x7d
 5496 1c44 00       		.sleb128 0
 5497 1c45 02       		.uleb128 0x2
 5498 1c46 77       		.byte	0x77
 5499 1c47 00       		.sleb128 0
 5500 1c48 00       		.byte	0
 5501 1c49 00       		.byte	0
 5502 1c4a 31       		.uleb128 0x31
 5503 1c4b E0130000 		.4byte	0x13e0
 5504 1c4f 3C000000 		.4byte	.LBB95
 5505 1c53 10000000 		.4byte	.LBE95-.LBB95
 5506 1c57 02       		.byte	0x2
 5507 1c58 86       		.byte	0x86
 5508 1c59 A71C0000 		.4byte	0x1ca7
 5509 1c5d 32       		.uleb128 0x32
 5510 1c5e 09140000 		.4byte	0x1409
 5511 1c62 B3040000 		.4byte	.LLST46
 5512 1c66 32       		.uleb128 0x32
 5513 1c67 FD130000 		.4byte	0x13fd
 5514 1c6b C8040000 		.4byte	.LLST47
 5515 1c6f 32       		.uleb128 0x32
 5516 1c70 F1130000 		.4byte	0x13f1
 5517 1c74 FB040000 		.4byte	.LLST48
 5518 1c78 29       		.uleb128 0x29
 5519 1c79 4C000000 		.4byte	.LVL63
ARM GAS  C:\Users\gab_1\AppData\Local\Temp\ccTtYdci.s 			page 161


 5520 1c7d 012B0000 		.4byte	0x2b01
 5521 1c81 27       		.uleb128 0x27
 5522 1c82 01       		.uleb128 0x1
 5523 1c83 50       		.byte	0x50
 5524 1c84 05       		.uleb128 0x5
 5525 1c85 0C       		.byte	0xc
 5526 1c86 00006340 		.4byte	0x40630000
 5527 1c8a 27       		.uleb128 0x27
 5528 1c8b 01       		.uleb128 0x1
 5529 1c8c 51       		.byte	0x51
 5530 1c8d 01       		.uleb128 0x1
 5531 1c8e 30       		.byte	0x30
 5532 1c8f 27       		.uleb128 0x27
 5533 1c90 01       		.uleb128 0x1
 5534 1c91 52       		.byte	0x52
 5535 1c92 05       		.uleb128 0x5
 5536 1c93 75       		.byte	0x75
 5537 1c94 00       		.sleb128 0
 5538 1c95 74       		.byte	0x74
 5539 1c96 00       		.sleb128 0
 5540 1c97 22       		.byte	0x22
 5541 1c98 27       		.uleb128 0x27
 5542 1c99 01       		.uleb128 0x1
 5543 1c9a 53       		.byte	0x53
 5544 1c9b 02       		.uleb128 0x2
 5545 1c9c 08       		.byte	0x8
 5546 1c9d 64       		.byte	0x64
 5547 1c9e 27       		.uleb128 0x27
 5548 1c9f 02       		.uleb128 0x2
 5549 1ca0 7D       		.byte	0x7d
 5550 1ca1 00       		.sleb128 0
 5551 1ca2 02       		.uleb128 0x2
 5552 1ca3 77       		.byte	0x77
 5553 1ca4 00       		.sleb128 0
 5554 1ca5 00       		.byte	0
 5555 1ca6 00       		.byte	0
 5556 1ca7 31       		.uleb128 0x31
 5557 1ca8 E0130000 		.4byte	0x13e0
 5558 1cac 56000000 		.4byte	.LBB97
 5559 1cb0 12000000 		.4byte	.LBE97-.LBB97
 5560 1cb4 02       		.byte	0x2
 5561 1cb5 88       		.byte	0x88
 5562 1cb6 011D0000 		.4byte	0x1d01
 5563 1cba 32       		.uleb128 0x32
 5564 1cbb 09140000 		.4byte	0x1409
 5565 1cbf 0F050000 		.4byte	.LLST49
 5566 1cc3 32       		.uleb128 0x32
 5567 1cc4 FD130000 		.4byte	0x13fd
 5568 1cc8 24050000 		.4byte	.LLST50
 5569 1ccc 32       		.uleb128 0x32
 5570 1ccd F1130000 		.4byte	0x13f1
 5571 1cd1 57050000 		.4byte	.LLST51
 5572 1cd5 29       		.uleb128 0x29
 5573 1cd6 68000000 		.4byte	.LVL68
 5574 1cda 012B0000 		.4byte	0x2b01
 5575 1cde 27       		.uleb128 0x27
 5576 1cdf 01       		.uleb128 0x1
ARM GAS  C:\Users\gab_1\AppData\Local\Temp\ccTtYdci.s 			page 162


 5577 1ce0 50       		.byte	0x50
 5578 1ce1 02       		.uleb128 0x2
 5579 1ce2 76       		.byte	0x76
 5580 1ce3 00       		.sleb128 0
 5581 1ce4 27       		.uleb128 0x27
 5582 1ce5 01       		.uleb128 0x1
 5583 1ce6 51       		.byte	0x51
 5584 1ce7 01       		.uleb128 0x1
 5585 1ce8 31       		.byte	0x31
 5586 1ce9 27       		.uleb128 0x27
 5587 1cea 01       		.uleb128 0x1
 5588 1ceb 52       		.byte	0x52
 5589 1cec 05       		.uleb128 0x5
 5590 1ced 75       		.byte	0x75
 5591 1cee 00       		.sleb128 0
 5592 1cef 74       		.byte	0x74
 5593 1cf0 00       		.sleb128 0
 5594 1cf1 22       		.byte	0x22
 5595 1cf2 27       		.uleb128 0x27
 5596 1cf3 01       		.uleb128 0x1
 5597 1cf4 53       		.byte	0x53
 5598 1cf5 02       		.uleb128 0x2
 5599 1cf6 08       		.byte	0x8
 5600 1cf7 64       		.byte	0x64
 5601 1cf8 27       		.uleb128 0x27
 5602 1cf9 02       		.uleb128 0x2
 5603 1cfa 7D       		.byte	0x7d
 5604 1cfb 00       		.sleb128 0
 5605 1cfc 02       		.uleb128 0x2
 5606 1cfd 77       		.byte	0x77
 5607 1cfe 00       		.sleb128 0
 5608 1cff 00       		.byte	0
 5609 1d00 00       		.byte	0
 5610 1d01 33       		.uleb128 0x33
 5611 1d02 C2130000 		.4byte	0x13c2
 5612 1d06 68000000 		.4byte	.LBB99
 5613 1d0a 0A000000 		.4byte	.LBE99-.LBB99
 5614 1d0e 02       		.byte	0x2
 5615 1d0f 89       		.byte	0x89
 5616 1d10 32       		.uleb128 0x32
 5617 1d11 D3130000 		.4byte	0x13d3
 5618 1d15 6B050000 		.4byte	.LLST52
 5619 1d19 29       		.uleb128 0x29
 5620 1d1a 72000000 		.4byte	.LVL69
 5621 1d1e F52A0000 		.4byte	0x2af5
 5622 1d22 27       		.uleb128 0x27
 5623 1d23 01       		.uleb128 0x1
 5624 1d24 50       		.byte	0x50
 5625 1d25 02       		.uleb128 0x2
 5626 1d26 76       		.byte	0x76
 5627 1d27 00       		.sleb128 0
 5628 1d28 27       		.uleb128 0x27
 5629 1d29 01       		.uleb128 0x1
 5630 1d2a 51       		.byte	0x51
 5631 1d2b 02       		.uleb128 0x2
 5632 1d2c 08       		.byte	0x8
 5633 1d2d 64       		.byte	0x64
ARM GAS  C:\Users\gab_1\AppData\Local\Temp\ccTtYdci.s 			page 163


 5634 1d2e 27       		.uleb128 0x27
 5635 1d2f 01       		.uleb128 0x1
 5636 1d30 52       		.byte	0x52
 5637 1d31 02       		.uleb128 0x2
 5638 1d32 77       		.byte	0x77
 5639 1d33 00       		.sleb128 0
 5640 1d34 00       		.byte	0
 5641 1d35 00       		.byte	0
 5642 1d36 00       		.byte	0
 5643 1d37 22       		.uleb128 0x22
 5644 1d38 34190000 		.4byte	.LASF374
 5645 1d3c 04       		.byte	0x4
 5646 1d3d A305     		.2byte	0x5a3
 5647 1d3f 03       		.byte	0x3
 5648 1d40 5D1D0000 		.4byte	0x1d5d
 5649 1d44 21       		.uleb128 0x21
 5650 1d45 F5060000 		.4byte	.LASF361
 5651 1d49 04       		.byte	0x4
 5652 1d4a A305     		.2byte	0x5a3
 5653 1d4c 5D1D0000 		.4byte	0x1d5d
 5654 1d50 21       		.uleb128 0x21
 5655 1d51 B60A0000 		.4byte	.LASF358
 5656 1d55 04       		.byte	0x4
 5657 1d56 A305     		.2byte	0x5a3
 5658 1d58 C6140000 		.4byte	0x14c6
 5659 1d5c 00       		.byte	0
 5660 1d5d 10       		.uleb128 0x10
 5661 1d5e 04       		.byte	0x4
 5662 1d5f 8F070000 		.4byte	0x78f
 5663 1d63 34       		.uleb128 0x34
 5664 1d64 AD0B0000 		.4byte	.LASF375
 5665 1d68 02       		.byte	0x2
 5666 1d69 8D       		.byte	0x8d
 5667 1d6a 00000000 		.4byte	.LFB700
 5668 1d6e 5C000000 		.4byte	.LFE700-.LFB700
 5669 1d72 01       		.uleb128 0x1
 5670 1d73 9C       		.byte	0x9c
 5671 1d74 1B1E0000 		.4byte	0x1e1b
 5672 1d78 2B       		.uleb128 0x2b
 5673 1d79 8E160000 		.4byte	.LASF376
 5674 1d7d 02       		.byte	0x2
 5675 1d7e 8D       		.byte	0x8d
 5676 1d7f FC0B0000 		.4byte	0xbfc
 5677 1d83 80050000 		.4byte	.LLST53
 5678 1d87 2B       		.uleb128 0x2b
 5679 1d88 4D170000 		.4byte	.LASF377
 5680 1d8c 02       		.byte	0x2
 5681 1d8d 8D       		.byte	0x8d
 5682 1d8e FC0B0000 		.4byte	0xbfc
 5683 1d92 AC050000 		.4byte	.LLST54
 5684 1d96 30       		.uleb128 0x30
 5685 1d97 03020000 		.4byte	.LASF373
 5686 1d9b 02       		.byte	0x2
 5687 1d9c 8F       		.byte	0x8f
 5688 1d9d 1B1E0000 		.4byte	0x1e1b
 5689 1da1 02       		.uleb128 0x2
 5690 1da2 91       		.byte	0x91
ARM GAS  C:\Users\gab_1\AppData\Local\Temp\ccTtYdci.s 			page 164


 5691 1da3 68       		.sleb128 -24
 5692 1da4 31       		.uleb128 0x31
 5693 1da5 AC140000 		.4byte	0x14ac
 5694 1da9 12000000 		.4byte	.LBB105
 5695 1dad 08000000 		.4byte	.LBE105-.LBB105
 5696 1db1 02       		.byte	0x2
 5697 1db2 93       		.byte	0x93
 5698 1db3 001E0000 		.4byte	0x1e00
 5699 1db7 32       		.uleb128 0x32
 5700 1db8 B9140000 		.4byte	0x14b9
 5701 1dbc D8050000 		.4byte	.LLST55
 5702 1dc0 35       		.uleb128 0x35
 5703 1dc1 371D0000 		.4byte	0x1d37
 5704 1dc5 12000000 		.4byte	.LBB106
 5705 1dc9 08000000 		.4byte	.LBE106-.LBB106
 5706 1dcd 13       		.byte	0x13
 5707 1dce BC01     		.2byte	0x1bc
 5708 1dd0 32       		.uleb128 0x32
 5709 1dd1 501D0000 		.4byte	0x1d50
 5710 1dd5 D8050000 		.4byte	.LLST55
 5711 1dd9 32       		.uleb128 0x32
 5712 1dda 441D0000 		.4byte	0x1d44
 5713 1dde F0050000 		.4byte	.LLST57
 5714 1de2 29       		.uleb128 0x29
 5715 1de3 1A000000 		.4byte	.LVL75
 5716 1de7 192B0000 		.4byte	0x2b19
 5717 1deb 27       		.uleb128 0x27
 5718 1dec 01       		.uleb128 0x1
 5719 1ded 50       		.byte	0x50
 5720 1dee 05       		.uleb128 0x5
 5721 1def 0C       		.byte	0xc
 5722 1df0 00006640 		.4byte	0x40660000
 5723 1df4 27       		.uleb128 0x27
 5724 1df5 01       		.uleb128 0x1
 5725 1df6 51       		.byte	0x51
 5726 1df7 05       		.uleb128 0x5
 5727 1df8 03       		.byte	0x3
 5728 1df9 38000000 		.4byte	.LC2
 5729 1dfd 00       		.byte	0
 5730 1dfe 00       		.byte	0
 5731 1dff 00       		.byte	0
 5732 1e00 29       		.uleb128 0x29
 5733 1e01 12000000 		.4byte	.LVL74
 5734 1e05 031B0000 		.4byte	0x1b03
 5735 1e09 27       		.uleb128 0x27
 5736 1e0a 01       		.uleb128 0x1
 5737 1e0b 50       		.byte	0x50
 5738 1e0c 01       		.uleb128 0x1
 5739 1e0d 37       		.byte	0x37
 5740 1e0e 27       		.uleb128 0x27
 5741 1e0f 01       		.uleb128 0x1
 5742 1e10 51       		.byte	0x51
 5743 1e11 02       		.uleb128 0x2
 5744 1e12 7D       		.byte	0x7d
 5745 1e13 00       		.sleb128 0
 5746 1e14 27       		.uleb128 0x27
 5747 1e15 01       		.uleb128 0x1
ARM GAS  C:\Users\gab_1\AppData\Local\Temp\ccTtYdci.s 			page 165


 5748 1e16 52       		.byte	0x52
 5749 1e17 01       		.uleb128 0x1
 5750 1e18 36       		.byte	0x36
 5751 1e19 00       		.byte	0
 5752 1e1a 00       		.byte	0
 5753 1e1b 07       		.uleb128 0x7
 5754 1e1c BF000000 		.4byte	0xbf
 5755 1e20 2B1E0000 		.4byte	0x1e2b
 5756 1e24 08       		.uleb128 0x8
 5757 1e25 F6000000 		.4byte	0xf6
 5758 1e29 05       		.byte	0x5
 5759 1e2a 00       		.byte	0
 5760 1e2b 36       		.uleb128 0x36
 5761 1e2c 830A0000 		.4byte	.LASF378
 5762 1e30 02       		.byte	0x2
 5763 1e31 BA       		.byte	0xba
 5764 1e32 040C0000 		.4byte	0xc04
 5765 1e36 00000000 		.4byte	.LFB702
 5766 1e3a 90000000 		.4byte	.LFE702-.LFB702
 5767 1e3e 01       		.uleb128 0x1
 5768 1e3f 9C       		.byte	0x9c
 5769 1e40 22200000 		.4byte	0x2022
 5770 1e44 31       		.uleb128 0x31
 5771 1e45 D1140000 		.4byte	0x14d1
 5772 1e49 02000000 		.4byte	.LBB118
 5773 1e4d 06000000 		.4byte	.LBE118-.LBB118
 5774 1e51 02       		.byte	0x2
 5775 1e52 BD       		.byte	0xbd
 5776 1e53 731E0000 		.4byte	0x1e73
 5777 1e57 32       		.uleb128 0x32
 5778 1e58 F6140000 		.4byte	0x14f6
 5779 1e5c 08060000 		.4byte	.LLST58
 5780 1e60 32       		.uleb128 0x32
 5781 1e61 EA140000 		.4byte	0x14ea
 5782 1e65 1C060000 		.4byte	.LLST59
 5783 1e69 32       		.uleb128 0x32
 5784 1e6a DE140000 		.4byte	0x14de
 5785 1e6e 30060000 		.4byte	.LLST60
 5786 1e72 00       		.byte	0
 5787 1e73 31       		.uleb128 0x31
 5788 1e74 AC140000 		.4byte	0x14ac
 5789 1e78 08000000 		.4byte	.LBB120
 5790 1e7c 0A000000 		.4byte	.LBE120-.LBB120
 5791 1e80 02       		.byte	0x2
 5792 1e81 BE       		.byte	0xbe
 5793 1e82 CC1E0000 		.4byte	0x1ecc
 5794 1e86 32       		.uleb128 0x32
 5795 1e87 B9140000 		.4byte	0x14b9
 5796 1e8b 48060000 		.4byte	.LLST61
 5797 1e8f 35       		.uleb128 0x35
 5798 1e90 371D0000 		.4byte	0x1d37
 5799 1e94 08000000 		.4byte	.LBB121
 5800 1e98 0A000000 		.4byte	.LBE121-.LBB121
 5801 1e9c 13       		.byte	0x13
 5802 1e9d BC01     		.2byte	0x1bc
 5803 1e9f 32       		.uleb128 0x32
 5804 1ea0 501D0000 		.4byte	0x1d50
ARM GAS  C:\Users\gab_1\AppData\Local\Temp\ccTtYdci.s 			page 166


 5805 1ea4 48060000 		.4byte	.LLST61
 5806 1ea8 32       		.uleb128 0x32
 5807 1ea9 441D0000 		.4byte	0x1d44
 5808 1ead 60060000 		.4byte	.LLST63
 5809 1eb1 29       		.uleb128 0x29
 5810 1eb2 12000000 		.4byte	.LVL79
 5811 1eb6 192B0000 		.4byte	0x2b19
 5812 1eba 27       		.uleb128 0x27
 5813 1ebb 01       		.uleb128 0x1
 5814 1ebc 50       		.byte	0x50
 5815 1ebd 02       		.uleb128 0x2
 5816 1ebe 74       		.byte	0x74
 5817 1ebf 00       		.sleb128 0
 5818 1ec0 27       		.uleb128 0x27
 5819 1ec1 01       		.uleb128 0x1
 5820 1ec2 51       		.byte	0x51
 5821 1ec3 05       		.uleb128 0x5
 5822 1ec4 03       		.byte	0x3
 5823 1ec5 44000000 		.4byte	.LC3
 5824 1ec9 00       		.byte	0
 5825 1eca 00       		.byte	0
 5826 1ecb 00       		.byte	0
 5827 1ecc 31       		.uleb128 0x31
 5828 1ecd AC140000 		.4byte	0x14ac
 5829 1ed1 70000000 		.4byte	.LBB123
 5830 1ed5 08000000 		.4byte	.LBE123-.LBB123
 5831 1ed9 02       		.byte	0x2
 5832 1eda D1       		.byte	0xd1
 5833 1edb 251F0000 		.4byte	0x1f25
 5834 1edf 32       		.uleb128 0x32
 5835 1ee0 B9140000 		.4byte	0x14b9
 5836 1ee4 78060000 		.4byte	.LLST64
 5837 1ee8 35       		.uleb128 0x35
 5838 1ee9 371D0000 		.4byte	0x1d37
 5839 1eed 70000000 		.4byte	.LBB124
 5840 1ef1 08000000 		.4byte	.LBE124-.LBB124
 5841 1ef5 13       		.byte	0x13
 5842 1ef6 BC01     		.2byte	0x1bc
 5843 1ef8 32       		.uleb128 0x32
 5844 1ef9 501D0000 		.4byte	0x1d50
 5845 1efd 78060000 		.4byte	.LLST64
 5846 1f01 32       		.uleb128 0x32
 5847 1f02 441D0000 		.4byte	0x1d44
 5848 1f06 90060000 		.4byte	.LLST66
 5849 1f0a 29       		.uleb128 0x29
 5850 1f0b 78000000 		.4byte	.LVL91
 5851 1f0f 192B0000 		.4byte	0x2b19
 5852 1f13 27       		.uleb128 0x27
 5853 1f14 01       		.uleb128 0x1
 5854 1f15 50       		.byte	0x50
 5855 1f16 02       		.uleb128 0x2
 5856 1f17 74       		.byte	0x74
 5857 1f18 00       		.sleb128 0
 5858 1f19 27       		.uleb128 0x27
 5859 1f1a 01       		.uleb128 0x1
 5860 1f1b 51       		.byte	0x51
 5861 1f1c 05       		.uleb128 0x5
ARM GAS  C:\Users\gab_1\AppData\Local\Temp\ccTtYdci.s 			page 167


 5862 1f1d 03       		.byte	0x3
 5863 1f1e 54000000 		.4byte	.LC4
 5864 1f22 00       		.byte	0
 5865 1f23 00       		.byte	0
 5866 1f24 00       		.byte	0
 5867 1f25 26       		.uleb128 0x26
 5868 1f26 1A000000 		.4byte	.LVL80
 5869 1f2a B3190000 		.4byte	0x19b3
 5870 1f2e 3E1F0000 		.4byte	0x1f3e
 5871 1f32 27       		.uleb128 0x27
 5872 1f33 01       		.uleb128 0x1
 5873 1f34 50       		.byte	0x50
 5874 1f35 01       		.uleb128 0x1
 5875 1f36 39       		.byte	0x39
 5876 1f37 27       		.uleb128 0x27
 5877 1f38 01       		.uleb128 0x1
 5878 1f39 51       		.byte	0x51
 5879 1f3a 02       		.uleb128 0x2
 5880 1f3b 08       		.byte	0x8
 5881 1f3c 40       		.byte	0x40
 5882 1f3d 00       		.byte	0
 5883 1f3e 26       		.uleb128 0x26
 5884 1f3f 22000000 		.4byte	.LVL81
 5885 1f43 242B0000 		.4byte	0x2b24
 5886 1f47 531F0000 		.4byte	0x1f53
 5887 1f4b 27       		.uleb128 0x27
 5888 1f4c 01       		.uleb128 0x1
 5889 1f4d 50       		.byte	0x50
 5890 1f4e 03       		.uleb128 0x3
 5891 1f4f 0A       		.byte	0xa
 5892 1f50 E803     		.2byte	0x3e8
 5893 1f52 00       		.byte	0
 5894 1f53 26       		.uleb128 0x26
 5895 1f54 2A000000 		.4byte	.LVL82
 5896 1f58 B3190000 		.4byte	0x19b3
 5897 1f5c 6C1F0000 		.4byte	0x1f6c
 5898 1f60 27       		.uleb128 0x27
 5899 1f61 01       		.uleb128 0x1
 5900 1f62 50       		.byte	0x50
 5901 1f63 01       		.uleb128 0x1
 5902 1f64 32       		.byte	0x32
 5903 1f65 27       		.uleb128 0x27
 5904 1f66 01       		.uleb128 0x1
 5905 1f67 51       		.byte	0x51
 5906 1f68 02       		.uleb128 0x2
 5907 1f69 09       		.byte	0x9
 5908 1f6a C0       		.byte	0xc0
 5909 1f6b 00       		.byte	0
 5910 1f6c 26       		.uleb128 0x26
 5911 1f6d 32000000 		.4byte	.LVL83
 5912 1f71 B3190000 		.4byte	0x19b3
 5913 1f75 841F0000 		.4byte	0x1f84
 5914 1f79 27       		.uleb128 0x27
 5915 1f7a 01       		.uleb128 0x1
 5916 1f7b 50       		.byte	0x50
 5917 1f7c 01       		.uleb128 0x1
 5918 1f7d 33       		.byte	0x33
ARM GAS  C:\Users\gab_1\AppData\Local\Temp\ccTtYdci.s 			page 168


 5919 1f7e 27       		.uleb128 0x27
 5920 1f7f 01       		.uleb128 0x1
 5921 1f80 51       		.byte	0x51
 5922 1f81 01       		.uleb128 0x1
 5923 1f82 30       		.byte	0x30
 5924 1f83 00       		.byte	0
 5925 1f84 26       		.uleb128 0x26
 5926 1f85 3A000000 		.4byte	.LVL84
 5927 1f89 B3190000 		.4byte	0x19b3
 5928 1f8d 9C1F0000 		.4byte	0x1f9c
 5929 1f91 27       		.uleb128 0x27
 5930 1f92 01       		.uleb128 0x1
 5931 1f93 50       		.byte	0x50
 5932 1f94 01       		.uleb128 0x1
 5933 1f95 36       		.byte	0x36
 5934 1f96 27       		.uleb128 0x27
 5935 1f97 01       		.uleb128 0x1
 5936 1f98 51       		.byte	0x51
 5937 1f99 01       		.uleb128 0x1
 5938 1f9a 30       		.byte	0x30
 5939 1f9b 00       		.byte	0
 5940 1f9c 26       		.uleb128 0x26
 5941 1f9d 42000000 		.4byte	.LVL85
 5942 1fa1 B3190000 		.4byte	0x19b3
 5943 1fa5 B41F0000 		.4byte	0x1fb4
 5944 1fa9 27       		.uleb128 0x27
 5945 1faa 01       		.uleb128 0x1
 5946 1fab 50       		.byte	0x50
 5947 1fac 01       		.uleb128 0x1
 5948 1fad 38       		.byte	0x38
 5949 1fae 27       		.uleb128 0x27
 5950 1faf 01       		.uleb128 0x1
 5951 1fb0 51       		.byte	0x51
 5952 1fb1 01       		.uleb128 0x1
 5953 1fb2 3F       		.byte	0x3f
 5954 1fb3 00       		.byte	0
 5955 1fb4 26       		.uleb128 0x26
 5956 1fb5 4A000000 		.4byte	.LVL86
 5957 1fb9 B3190000 		.4byte	0x19b3
 5958 1fbd CC1F0000 		.4byte	0x1fcc
 5959 1fc1 27       		.uleb128 0x27
 5960 1fc2 01       		.uleb128 0x1
 5961 1fc3 50       		.byte	0x50
 5962 1fc4 01       		.uleb128 0x1
 5963 1fc5 39       		.byte	0x39
 5964 1fc6 27       		.uleb128 0x27
 5965 1fc7 01       		.uleb128 0x1
 5966 1fc8 51       		.byte	0x51
 5967 1fc9 01       		.uleb128 0x1
 5968 1fca 33       		.byte	0x33
 5969 1fcb 00       		.byte	0
 5970 1fcc 26       		.uleb128 0x26
 5971 1fcd 52000000 		.4byte	.LVL87
 5972 1fd1 B3190000 		.4byte	0x19b3
 5973 1fd5 E51F0000 		.4byte	0x1fe5
 5974 1fd9 27       		.uleb128 0x27
 5975 1fda 01       		.uleb128 0x1
ARM GAS  C:\Users\gab_1\AppData\Local\Temp\ccTtYdci.s 			page 169


 5976 1fdb 50       		.byte	0x50
 5977 1fdc 01       		.uleb128 0x1
 5978 1fdd 3A       		.byte	0x3a
 5979 1fde 27       		.uleb128 0x27
 5980 1fdf 01       		.uleb128 0x1
 5981 1fe0 51       		.byte	0x51
 5982 1fe1 02       		.uleb128 0x2
 5983 1fe2 08       		.byte	0x8
 5984 1fe3 47       		.byte	0x47
 5985 1fe4 00       		.byte	0
 5986 1fe5 26       		.uleb128 0x26
 5987 1fe6 5E000000 		.4byte	.LVL88
 5988 1fea B3190000 		.4byte	0x19b3
 5989 1fee F81F0000 		.4byte	0x1ff8
 5990 1ff2 27       		.uleb128 0x27
 5991 1ff3 01       		.uleb128 0x1
 5992 1ff4 50       		.byte	0x50
 5993 1ff5 01       		.uleb128 0x1
 5994 1ff6 3C       		.byte	0x3c
 5995 1ff7 00       		.byte	0
 5996 1ff8 26       		.uleb128 0x26
 5997 1ff9 68000000 		.4byte	.LVL89
 5998 1ffd B3190000 		.4byte	0x19b3
 5999 2001 0B200000 		.4byte	0x200b
 6000 2005 27       		.uleb128 0x27
 6001 2006 01       		.uleb128 0x1
 6002 2007 50       		.byte	0x50
 6003 2008 01       		.uleb128 0x1
 6004 2009 3D       		.byte	0x3d
 6005 200a 00       		.byte	0
 6006 200b 29       		.uleb128 0x29
 6007 200c 70000000 		.4byte	.LVL90
 6008 2010 B3190000 		.4byte	0x19b3
 6009 2014 27       		.uleb128 0x27
 6010 2015 01       		.uleb128 0x1
 6011 2016 50       		.byte	0x50
 6012 2017 02       		.uleb128 0x2
 6013 2018 75       		.byte	0x75
 6014 2019 00       		.sleb128 0
 6015 201a 27       		.uleb128 0x27
 6016 201b 01       		.uleb128 0x1
 6017 201c 51       		.byte	0x51
 6018 201d 02       		.uleb128 0x2
 6019 201e 08       		.byte	0x8
 6020 201f 7F       		.byte	0x7f
 6021 2020 00       		.byte	0
 6022 2021 00       		.byte	0
 6023 2022 37       		.uleb128 0x37
 6024 2023 42170000 		.4byte	.LASF379
 6025 2027 02       		.byte	0x2
 6026 2028 FA       		.byte	0xfa
 6027 2029 00000000 		.4byte	.LFB703
 6028 202d 40030000 		.4byte	.LFE703-.LFB703
 6029 2031 01       		.uleb128 0x1
 6030 2032 9C       		.byte	0x9c
 6031 2033 6C230000 		.4byte	0x236c
 6032 2037 2B       		.uleb128 0x2b
ARM GAS  C:\Users\gab_1\AppData\Local\Temp\ccTtYdci.s 			page 170


 6033 2038 4A050000 		.4byte	.LASF380
 6034 203c 02       		.byte	0x2
 6035 203d FA       		.byte	0xfa
 6036 203e FC0B0000 		.4byte	0xbfc
 6037 2042 A8060000 		.4byte	.LLST67
 6038 2046 2B       		.uleb128 0x2b
 6039 2047 F0160000 		.4byte	.LASF381
 6040 204b 02       		.byte	0x2
 6041 204c FA       		.byte	0xfa
 6042 204d FC0B0000 		.4byte	0xbfc
 6043 2051 C9060000 		.4byte	.LLST68
 6044 2055 38       		.uleb128 0x38
 6045 2056 71070000 		.4byte	.LASF382
 6046 205a 02       		.byte	0x2
 6047 205b 0601     		.2byte	0x106
 6048 205d 25000000 		.4byte	0x25
 6049 2061 02       		.uleb128 0x2
 6050 2062 91       		.byte	0x91
 6051 2063 4C       		.sleb128 -52
 6052 2064 38       		.uleb128 0x38
 6053 2065 550B0000 		.4byte	.LASF383
 6054 2069 02       		.byte	0x2
 6055 206a 0701     		.2byte	0x107
 6056 206c 25000000 		.4byte	0x25
 6057 2070 02       		.uleb128 0x2
 6058 2071 91       		.byte	0x91
 6059 2072 48       		.sleb128 -56
 6060 2073 38       		.uleb128 0x38
 6061 2074 260B0000 		.4byte	.LASF384
 6062 2078 02       		.byte	0x2
 6063 2079 1801     		.2byte	0x118
 6064 207b 25000000 		.4byte	0x25
 6065 207f 02       		.uleb128 0x2
 6066 2080 91       		.byte	0x91
 6067 2081 44       		.sleb128 -60
 6068 2082 38       		.uleb128 0x38
 6069 2083 E3050000 		.4byte	.LASF385
 6070 2087 02       		.byte	0x2
 6071 2088 1901     		.2byte	0x119
 6072 208a 25000000 		.4byte	0x25
 6073 208e 02       		.uleb128 0x2
 6074 208f 91       		.byte	0x91
 6075 2090 40       		.sleb128 -64
 6076 2091 38       		.uleb128 0x38
 6077 2092 8E010000 		.4byte	.LASF386
 6078 2096 02       		.byte	0x2
 6079 2097 1A01     		.2byte	0x11a
 6080 2099 25000000 		.4byte	0x25
 6081 209d 03       		.uleb128 0x3
 6082 209e 91       		.byte	0x91
 6083 209f BC7F     		.sleb128 -68
 6084 20a1 38       		.uleb128 0x38
 6085 20a2 AF100000 		.4byte	.LASF387
 6086 20a6 02       		.byte	0x2
 6087 20a7 1B01     		.2byte	0x11b
 6088 20a9 25000000 		.4byte	0x25
 6089 20ad 03       		.uleb128 0x3
ARM GAS  C:\Users\gab_1\AppData\Local\Temp\ccTtYdci.s 			page 171


 6090 20ae 91       		.byte	0x91
 6091 20af B87F     		.sleb128 -72
 6092 20b1 38       		.uleb128 0x38
 6093 20b2 C5190000 		.4byte	.LASF388
 6094 20b6 02       		.byte	0x2
 6095 20b7 1C01     		.2byte	0x11c
 6096 20b9 EB000000 		.4byte	0xeb
 6097 20bd 03       		.uleb128 0x3
 6098 20be 91       		.byte	0x91
 6099 20bf B47F     		.sleb128 -76
 6100 20c1 39       		.uleb128 0x39
 6101 20c2 5F090000 		.4byte	.LASF389
 6102 20c6 02       		.byte	0x2
 6103 20c7 2301     		.2byte	0x123
 6104 20c9 25000000 		.4byte	0x25
 6105 20cd EA060000 		.4byte	.LLST69
 6106 20d1 39       		.uleb128 0x39
 6107 20d2 94060000 		.4byte	.LASF390
 6108 20d6 02       		.byte	0x2
 6109 20d7 2401     		.2byte	0x124
 6110 20d9 25000000 		.4byte	0x25
 6111 20dd FD060000 		.4byte	.LLST70
 6112 20e1 3A       		.uleb128 0x3a
 6113 20e2 5200     		.ascii	"R\000"
 6114 20e4 02       		.byte	0x2
 6115 20e5 2701     		.2byte	0x127
 6116 20e7 25000000 		.4byte	0x25
 6117 20eb 28070000 		.4byte	.LLST71
 6118 20ef 31       		.uleb128 0x31
 6119 20f0 D1140000 		.4byte	0x14d1
 6120 20f4 0A000000 		.4byte	.LBB126
 6121 20f8 06000000 		.4byte	.LBE126-.LBB126
 6122 20fc 02       		.byte	0x2
 6123 20fd FD       		.byte	0xfd
 6124 20fe 1E210000 		.4byte	0x211e
 6125 2102 32       		.uleb128 0x32
 6126 2103 F6140000 		.4byte	0x14f6
 6127 2107 3C070000 		.4byte	.LLST72
 6128 210b 32       		.uleb128 0x32
 6129 210c EA140000 		.4byte	0x14ea
 6130 2110 3C070000 		.4byte	.LLST72
 6131 2114 32       		.uleb128 0x32
 6132 2115 DE140000 		.4byte	0x14de
 6133 2119 50070000 		.4byte	.LLST74
 6134 211d 00       		.byte	0
 6135 211e 2D       		.uleb128 0x2d
 6136 211f 10000000 		.4byte	.LBB128
 6137 2123 36000000 		.4byte	.LBE128-.LBB128
 6138 2127 3A210000 		.4byte	0x213a
 6139 212b 3A       		.uleb128 0x3a
 6140 212c 6900     		.ascii	"i\000"
 6141 212e 02       		.byte	0x2
 6142 212f 0001     		.2byte	0x100
 6143 2131 A6000000 		.4byte	0xa6
 6144 2135 68070000 		.4byte	.LLST75
 6145 2139 00       		.byte	0
 6146 213a 2D       		.uleb128 0x2d
ARM GAS  C:\Users\gab_1\AppData\Local\Temp\ccTtYdci.s 			page 172


 6147 213b AC010000 		.4byte	.LBB129
 6148 213f 7C000000 		.4byte	.LBE129-.LBB129
 6149 2143 56210000 		.4byte	0x2156
 6150 2147 3A       		.uleb128 0x3a
 6151 2148 6900     		.ascii	"i\000"
 6152 214a 02       		.byte	0x2
 6153 214b 2F01     		.2byte	0x12f
 6154 214d A6000000 		.4byte	0xa6
 6155 2151 87070000 		.4byte	.LLST76
 6156 2155 00       		.byte	0
 6157 2156 2D       		.uleb128 0x2d
 6158 2157 28020000 		.4byte	.LBB130
 6159 215b 30000000 		.4byte	.LBE130-.LBB130
 6160 215f 72210000 		.4byte	0x2172
 6161 2163 3A       		.uleb128 0x3a
 6162 2164 6900     		.ascii	"i\000"
 6163 2166 02       		.byte	0x2
 6164 2167 3601     		.2byte	0x136
 6165 2169 A6000000 		.4byte	0xa6
 6166 216d A6070000 		.4byte	.LLST77
 6167 2171 00       		.byte	0
 6168 2172 3B       		.uleb128 0x3b
 6169 2173 D1140000 		.4byte	0x14d1
 6170 2177 B4020000 		.4byte	.LBB131
 6171 217b 06000000 		.4byte	.LBE131-.LBB131
 6172 217f 02       		.byte	0x2
 6173 2180 4C01     		.2byte	0x14c
 6174 2182 A2210000 		.4byte	0x21a2
 6175 2186 32       		.uleb128 0x32
 6176 2187 F6140000 		.4byte	0x14f6
 6177 218b B9070000 		.4byte	.LLST78
 6178 218f 32       		.uleb128 0x32
 6179 2190 EA140000 		.4byte	0x14ea
 6180 2194 CD070000 		.4byte	.LLST79
 6181 2198 32       		.uleb128 0x32
 6182 2199 DE140000 		.4byte	0x14de
 6183 219d E1070000 		.4byte	.LLST80
 6184 21a1 00       		.byte	0
 6185 21a2 26       		.uleb128 0x26
 6186 21a3 5C000000 		.4byte	.LVL99
 6187 21a7 302B0000 		.4byte	0x2b30
 6188 21ab C3210000 		.4byte	0x21c3
 6189 21af 27       		.uleb128 0x27
 6190 21b0 01       		.uleb128 0x1
 6191 21b1 50       		.byte	0x50
 6192 21b2 02       		.uleb128 0x2
 6193 21b3 78       		.byte	0x78
 6194 21b4 00       		.sleb128 0
 6195 21b5 27       		.uleb128 0x27
 6196 21b6 01       		.uleb128 0x1
 6197 21b7 51       		.byte	0x51
 6198 21b8 03       		.uleb128 0x3
 6199 21b9 0A       		.byte	0xa
 6200 21ba E803     		.2byte	0x3e8
 6201 21bc 27       		.uleb128 0x27
 6202 21bd 01       		.uleb128 0x1
 6203 21be 52       		.byte	0x52
ARM GAS  C:\Users\gab_1\AppData\Local\Temp\ccTtYdci.s 			page 173


 6204 21bf 02       		.uleb128 0x2
 6205 21c0 91       		.byte	0x91
 6206 21c1 4C       		.sleb128 -52
 6207 21c2 00       		.byte	0
 6208 21c3 26       		.uleb128 0x26
 6209 21c4 6C000000 		.4byte	.LVL100
 6210 21c8 302B0000 		.4byte	0x2b30
 6211 21cc E4210000 		.4byte	0x21e4
 6212 21d0 27       		.uleb128 0x27
 6213 21d1 01       		.uleb128 0x1
 6214 21d2 50       		.byte	0x50
 6215 21d3 02       		.uleb128 0x2
 6216 21d4 7B       		.byte	0x7b
 6217 21d5 00       		.sleb128 0
 6218 21d6 27       		.uleb128 0x27
 6219 21d7 01       		.uleb128 0x1
 6220 21d8 51       		.byte	0x51
 6221 21d9 03       		.uleb128 0x3
 6222 21da 0A       		.byte	0xa
 6223 21db E803     		.2byte	0x3e8
 6224 21dd 27       		.uleb128 0x27
 6225 21de 01       		.uleb128 0x1
 6226 21df 52       		.byte	0x52
 6227 21e0 02       		.uleb128 0x2
 6228 21e1 91       		.byte	0x91
 6229 21e2 48       		.sleb128 -56
 6230 21e3 00       		.byte	0
 6231 21e4 26       		.uleb128 0x26
 6232 21e5 8A000000 		.4byte	.LVL101
 6233 21e9 3C2B0000 		.4byte	0x2b3c
 6234 21ed 0A220000 		.4byte	0x220a
 6235 21f1 27       		.uleb128 0x27
 6236 21f2 01       		.uleb128 0x1
 6237 21f3 50       		.byte	0x50
 6238 21f4 02       		.uleb128 0x2
 6239 21f5 75       		.byte	0x75
 6240 21f6 00       		.sleb128 0
 6241 21f7 27       		.uleb128 0x27
 6242 21f8 01       		.uleb128 0x1
 6243 21f9 51       		.byte	0x51
 6244 21fa 02       		.uleb128 0x2
 6245 21fb 08       		.byte	0x8
 6246 21fc 33       		.byte	0x33
 6247 21fd 27       		.uleb128 0x27
 6248 21fe 01       		.uleb128 0x1
 6249 21ff 52       		.byte	0x52
 6250 2200 02       		.uleb128 0x2
 6251 2201 77       		.byte	0x77
 6252 2202 00       		.sleb128 0
 6253 2203 27       		.uleb128 0x27
 6254 2204 01       		.uleb128 0x1
 6255 2205 53       		.byte	0x53
 6256 2206 02       		.uleb128 0x2
 6257 2207 79       		.byte	0x79
 6258 2208 00       		.sleb128 0
 6259 2209 00       		.byte	0
 6260 220a 26       		.uleb128 0x26
ARM GAS  C:\Users\gab_1\AppData\Local\Temp\ccTtYdci.s 			page 174


 6261 220b 9A000000 		.4byte	.LVL102
 6262 220f 482B0000 		.4byte	0x2b48
 6263 2213 31220000 		.4byte	0x2231
 6264 2217 27       		.uleb128 0x27
 6265 2218 01       		.uleb128 0x1
 6266 2219 50       		.byte	0x50
 6267 221a 02       		.uleb128 0x2
 6268 221b 75       		.byte	0x75
 6269 221c 00       		.sleb128 0
 6270 221d 27       		.uleb128 0x27
 6271 221e 01       		.uleb128 0x1
 6272 221f 51       		.byte	0x51
 6273 2220 02       		.uleb128 0x2
 6274 2221 78       		.byte	0x78
 6275 2222 00       		.sleb128 0
 6276 2223 27       		.uleb128 0x27
 6277 2224 01       		.uleb128 0x1
 6278 2225 52       		.byte	0x52
 6279 2226 02       		.uleb128 0x2
 6280 2227 76       		.byte	0x76
 6281 2228 00       		.sleb128 0
 6282 2229 27       		.uleb128 0x27
 6283 222a 01       		.uleb128 0x1
 6284 222b 53       		.byte	0x53
 6285 222c 03       		.uleb128 0x3
 6286 222d 0A       		.byte	0xa
 6287 222e E803     		.2byte	0x3e8
 6288 2230 00       		.byte	0
 6289 2231 26       		.uleb128 0x26
 6290 2232 AC000000 		.4byte	.LVL103
 6291 2236 482B0000 		.4byte	0x2b48
 6292 223a 58220000 		.4byte	0x2258
 6293 223e 27       		.uleb128 0x27
 6294 223f 01       		.uleb128 0x1
 6295 2240 50       		.byte	0x50
 6296 2241 02       		.uleb128 0x2
 6297 2242 75       		.byte	0x75
 6298 2243 00       		.sleb128 0
 6299 2244 27       		.uleb128 0x27
 6300 2245 01       		.uleb128 0x1
 6301 2246 51       		.byte	0x51
 6302 2247 02       		.uleb128 0x2
 6303 2248 7B       		.byte	0x7b
 6304 2249 00       		.sleb128 0
 6305 224a 27       		.uleb128 0x27
 6306 224b 01       		.uleb128 0x1
 6307 224c 52       		.byte	0x52
 6308 224d 02       		.uleb128 0x2
 6309 224e 78       		.byte	0x78
 6310 224f 00       		.sleb128 0
 6311 2250 27       		.uleb128 0x27
 6312 2251 01       		.uleb128 0x1
 6313 2252 53       		.byte	0x53
 6314 2253 03       		.uleb128 0x3
 6315 2254 0A       		.byte	0xa
 6316 2255 E803     		.2byte	0x3e8
 6317 2257 00       		.byte	0
ARM GAS  C:\Users\gab_1\AppData\Local\Temp\ccTtYdci.s 			page 175


 6318 2258 26       		.uleb128 0x26
 6319 2259 C0000000 		.4byte	.LVL104
 6320 225d 3C2B0000 		.4byte	0x2b3c
 6321 2261 7F220000 		.4byte	0x227f
 6322 2265 27       		.uleb128 0x27
 6323 2266 01       		.uleb128 0x1
 6324 2267 50       		.byte	0x50
 6325 2268 02       		.uleb128 0x2
 6326 2269 75       		.byte	0x75
 6327 226a 00       		.sleb128 0
 6328 226b 27       		.uleb128 0x27
 6329 226c 01       		.uleb128 0x1
 6330 226d 51       		.byte	0x51
 6331 226e 02       		.uleb128 0x2
 6332 226f 08       		.byte	0x8
 6333 2270 33       		.byte	0x33
 6334 2271 27       		.uleb128 0x27
 6335 2272 01       		.uleb128 0x1
 6336 2273 52       		.byte	0x52
 6337 2274 03       		.uleb128 0x3
 6338 2275 77       		.byte	0x77
 6339 2276 CC01     		.sleb128 204
 6340 2278 27       		.uleb128 0x27
 6341 2279 01       		.uleb128 0x1
 6342 227a 53       		.byte	0x53
 6343 227b 02       		.uleb128 0x2
 6344 227c 79       		.byte	0x79
 6345 227d 00       		.sleb128 0
 6346 227e 00       		.byte	0
 6347 227f 26       		.uleb128 0x26
 6348 2280 D0000000 		.4byte	.LVL105
 6349 2284 482B0000 		.4byte	0x2b48
 6350 2288 A6220000 		.4byte	0x22a6
 6351 228c 27       		.uleb128 0x27
 6352 228d 01       		.uleb128 0x1
 6353 228e 50       		.byte	0x50
 6354 228f 02       		.uleb128 0x2
 6355 2290 75       		.byte	0x75
 6356 2291 00       		.sleb128 0
 6357 2292 27       		.uleb128 0x27
 6358 2293 01       		.uleb128 0x1
 6359 2294 51       		.byte	0x51
 6360 2295 02       		.uleb128 0x2
 6361 2296 76       		.byte	0x76
 6362 2297 00       		.sleb128 0
 6363 2298 27       		.uleb128 0x27
 6364 2299 01       		.uleb128 0x1
 6365 229a 52       		.byte	0x52
 6366 229b 02       		.uleb128 0x2
 6367 229c 77       		.byte	0x77
 6368 229d 00       		.sleb128 0
 6369 229e 27       		.uleb128 0x27
 6370 229f 01       		.uleb128 0x1
 6371 22a0 53       		.byte	0x53
 6372 22a1 03       		.uleb128 0x3
 6373 22a2 0A       		.byte	0xa
 6374 22a3 E803     		.2byte	0x3e8
ARM GAS  C:\Users\gab_1\AppData\Local\Temp\ccTtYdci.s 			page 176


 6375 22a5 00       		.byte	0
 6376 22a6 26       		.uleb128 0x26
 6377 22a7 E0000000 		.4byte	.LVL106
 6378 22ab 482B0000 		.4byte	0x2b48
 6379 22af CD220000 		.4byte	0x22cd
 6380 22b3 27       		.uleb128 0x27
 6381 22b4 01       		.uleb128 0x1
 6382 22b5 50       		.byte	0x50
 6383 22b6 02       		.uleb128 0x2
 6384 22b7 75       		.byte	0x75
 6385 22b8 00       		.sleb128 0
 6386 22b9 27       		.uleb128 0x27
 6387 22ba 01       		.uleb128 0x1
 6388 22bb 51       		.byte	0x51
 6389 22bc 02       		.uleb128 0x2
 6390 22bd 78       		.byte	0x78
 6391 22be 00       		.sleb128 0
 6392 22bf 27       		.uleb128 0x27
 6393 22c0 01       		.uleb128 0x1
 6394 22c1 52       		.byte	0x52
 6395 22c2 02       		.uleb128 0x2
 6396 22c3 76       		.byte	0x76
 6397 22c4 00       		.sleb128 0
 6398 22c5 27       		.uleb128 0x27
 6399 22c6 01       		.uleb128 0x1
 6400 22c7 53       		.byte	0x53
 6401 22c8 03       		.uleb128 0x3
 6402 22c9 0A       		.byte	0xa
 6403 22ca E803     		.2byte	0x3e8
 6404 22cc 00       		.byte	0
 6405 22cd 26       		.uleb128 0x26
 6406 22ce F6000000 		.4byte	.LVL107
 6407 22d2 542B0000 		.4byte	0x2b54
 6408 22d6 F5220000 		.4byte	0x22f5
 6409 22da 27       		.uleb128 0x27
 6410 22db 01       		.uleb128 0x1
 6411 22dc 50       		.byte	0x50
 6412 22dd 02       		.uleb128 0x2
 6413 22de 77       		.byte	0x77
 6414 22df 00       		.sleb128 0
 6415 22e0 27       		.uleb128 0x27
 6416 22e1 01       		.uleb128 0x1
 6417 22e2 51       		.byte	0x51
 6418 22e3 03       		.uleb128 0x3
 6419 22e4 0A       		.byte	0xa
 6420 22e5 E803     		.2byte	0x3e8
 6421 22e7 27       		.uleb128 0x27
 6422 22e8 01       		.uleb128 0x1
 6423 22e9 52       		.byte	0x52
 6424 22ea 02       		.uleb128 0x2
 6425 22eb 91       		.byte	0x91
 6426 22ec 44       		.sleb128 -60
 6427 22ed 27       		.uleb128 0x27
 6428 22ee 01       		.uleb128 0x1
 6429 22ef 53       		.byte	0x53
 6430 22f0 03       		.uleb128 0x3
 6431 22f1 91       		.byte	0x91
ARM GAS  C:\Users\gab_1\AppData\Local\Temp\ccTtYdci.s 			page 177


 6432 22f2 B47F     		.sleb128 -76
 6433 22f4 00       		.byte	0
 6434 22f5 26       		.uleb128 0x26
 6435 22f6 04010000 		.4byte	.LVL108
 6436 22fa 542B0000 		.4byte	0x2b54
 6437 22fe 1D230000 		.4byte	0x231d
 6438 2302 27       		.uleb128 0x27
 6439 2303 01       		.uleb128 0x1
 6440 2304 50       		.byte	0x50
 6441 2305 02       		.uleb128 0x2
 6442 2306 76       		.byte	0x76
 6443 2307 00       		.sleb128 0
 6444 2308 27       		.uleb128 0x27
 6445 2309 01       		.uleb128 0x1
 6446 230a 51       		.byte	0x51
 6447 230b 03       		.uleb128 0x3
 6448 230c 0A       		.byte	0xa
 6449 230d E803     		.2byte	0x3e8
 6450 230f 27       		.uleb128 0x27
 6451 2310 01       		.uleb128 0x1
 6452 2311 52       		.byte	0x52
 6453 2312 02       		.uleb128 0x2
 6454 2313 91       		.byte	0x91
 6455 2314 40       		.sleb128 -64
 6456 2315 27       		.uleb128 0x27
 6457 2316 01       		.uleb128 0x1
 6458 2317 53       		.byte	0x53
 6459 2318 03       		.uleb128 0x3
 6460 2319 91       		.byte	0x91
 6461 231a B47F     		.sleb128 -76
 6462 231c 00       		.byte	0
 6463 231d 26       		.uleb128 0x26
 6464 231e 12010000 		.4byte	.LVL109
 6465 2322 602B0000 		.4byte	0x2b60
 6466 2326 46230000 		.4byte	0x2346
 6467 232a 27       		.uleb128 0x27
 6468 232b 01       		.uleb128 0x1
 6469 232c 50       		.byte	0x50
 6470 232d 02       		.uleb128 0x2
 6471 232e 77       		.byte	0x77
 6472 232f 00       		.sleb128 0
 6473 2330 27       		.uleb128 0x27
 6474 2331 01       		.uleb128 0x1
 6475 2332 51       		.byte	0x51
 6476 2333 03       		.uleb128 0x3
 6477 2334 0A       		.byte	0xa
 6478 2335 E803     		.2byte	0x3e8
 6479 2337 27       		.uleb128 0x27
 6480 2338 01       		.uleb128 0x1
 6481 2339 52       		.byte	0x52
 6482 233a 03       		.uleb128 0x3
 6483 233b 91       		.byte	0x91
 6484 233c BC7F     		.sleb128 -68
 6485 233e 27       		.uleb128 0x27
 6486 233f 01       		.uleb128 0x1
 6487 2340 53       		.byte	0x53
 6488 2341 03       		.uleb128 0x3
ARM GAS  C:\Users\gab_1\AppData\Local\Temp\ccTtYdci.s 			page 178


 6489 2342 91       		.byte	0x91
 6490 2343 B47F     		.sleb128 -76
 6491 2345 00       		.byte	0
 6492 2346 29       		.uleb128 0x29
 6493 2347 20010000 		.4byte	.LVL110
 6494 234b 602B0000 		.4byte	0x2b60
 6495 234f 27       		.uleb128 0x27
 6496 2350 01       		.uleb128 0x1
 6497 2351 50       		.byte	0x50
 6498 2352 02       		.uleb128 0x2
 6499 2353 76       		.byte	0x76
 6500 2354 00       		.sleb128 0
 6501 2355 27       		.uleb128 0x27
 6502 2356 01       		.uleb128 0x1
 6503 2357 51       		.byte	0x51
 6504 2358 03       		.uleb128 0x3
 6505 2359 0A       		.byte	0xa
 6506 235a E803     		.2byte	0x3e8
 6507 235c 27       		.uleb128 0x27
 6508 235d 01       		.uleb128 0x1
 6509 235e 52       		.byte	0x52
 6510 235f 03       		.uleb128 0x3
 6511 2360 91       		.byte	0x91
 6512 2361 B87F     		.sleb128 -72
 6513 2363 27       		.uleb128 0x27
 6514 2364 01       		.uleb128 0x1
 6515 2365 53       		.byte	0x53
 6516 2366 03       		.uleb128 0x3
 6517 2367 91       		.byte	0x91
 6518 2368 B47F     		.sleb128 -76
 6519 236a 00       		.byte	0
 6520 236b 00       		.byte	0
 6521 236c 34       		.uleb128 0x34
 6522 236d E9150000 		.4byte	.LASF391
 6523 2371 02       		.byte	0x2
 6524 2372 9B       		.byte	0x9b
 6525 2373 00000000 		.4byte	.LFB701
 6526 2377 90000000 		.4byte	.LFE701-.LFB701
 6527 237b 01       		.uleb128 0x1
 6528 237c 9C       		.byte	0x9c
 6529 237d 4D250000 		.4byte	0x254d
 6530 2381 30       		.uleb128 0x30
 6531 2382 49090000 		.4byte	.LASF392
 6532 2386 02       		.byte	0x2
 6533 2387 A6       		.byte	0xa6
 6534 2388 4D250000 		.4byte	0x254d
 6535 238c 03       		.uleb128 0x3
 6536 238d 91       		.byte	0x91
 6537 238e D07E     		.sleb128 -176
 6538 2390 3C       		.uleb128 0x3c
 6539 2391 D0010000 		.4byte	.LASF393
 6540 2395 02       		.byte	0x2
 6541 2396 B4       		.byte	0xb4
 6542 2397 A1230000 		.4byte	0x23a1
 6543 239b 16       		.uleb128 0x16
 6544 239c 020C0000 		.4byte	0xc02
 6545 23a0 00       		.byte	0
ARM GAS  C:\Users\gab_1\AppData\Local\Temp\ccTtYdci.s 			page 179


 6546 23a1 31       		.uleb128 0x31
 6547 23a2 AC140000 		.4byte	0x14ac
 6548 23a6 04000000 		.4byte	.LBB150
 6549 23aa 0A000000 		.4byte	.LBE150-.LBB150
 6550 23ae 02       		.byte	0x2
 6551 23af A2       		.byte	0xa2
 6552 23b0 FA230000 		.4byte	0x23fa
 6553 23b4 32       		.uleb128 0x32
 6554 23b5 B9140000 		.4byte	0x14b9
 6555 23b9 F9070000 		.4byte	.LLST81
 6556 23bd 35       		.uleb128 0x35
 6557 23be 371D0000 		.4byte	0x1d37
 6558 23c2 04000000 		.4byte	.LBB151
 6559 23c6 0A000000 		.4byte	.LBE151-.LBB151
 6560 23ca 13       		.byte	0x13
 6561 23cb BC01     		.2byte	0x1bc
 6562 23cd 32       		.uleb128 0x32
 6563 23ce 501D0000 		.4byte	0x1d50
 6564 23d2 F9070000 		.4byte	.LLST81
 6565 23d6 32       		.uleb128 0x32
 6566 23d7 441D0000 		.4byte	0x1d44
 6567 23db 11080000 		.4byte	.LLST83
 6568 23df 29       		.uleb128 0x29
 6569 23e0 0E000000 		.4byte	.LVL137
 6570 23e4 192B0000 		.4byte	0x2b19
 6571 23e8 27       		.uleb128 0x27
 6572 23e9 01       		.uleb128 0x1
 6573 23ea 50       		.byte	0x50
 6574 23eb 02       		.uleb128 0x2
 6575 23ec 75       		.byte	0x75
 6576 23ed 00       		.sleb128 0
 6577 23ee 27       		.uleb128 0x27
 6578 23ef 01       		.uleb128 0x1
 6579 23f0 51       		.byte	0x51
 6580 23f1 05       		.uleb128 0x5
 6581 23f2 03       		.byte	0x3
 6582 23f3 68000000 		.4byte	.LC5
 6583 23f7 00       		.byte	0
 6584 23f8 00       		.byte	0
 6585 23f9 00       		.byte	0
 6586 23fa 31       		.uleb128 0x31
 6587 23fb AC140000 		.4byte	0x14ac
 6588 23ff 20000000 		.4byte	.LBB153
 6589 2403 08000000 		.4byte	.LBE153-.LBB153
 6590 2407 02       		.byte	0x2
 6591 2408 A5       		.byte	0xa5
 6592 2409 53240000 		.4byte	0x2453
 6593 240d 32       		.uleb128 0x32
 6594 240e B9140000 		.4byte	0x14b9
 6595 2412 29080000 		.4byte	.LLST84
 6596 2416 35       		.uleb128 0x35
 6597 2417 371D0000 		.4byte	0x1d37
 6598 241b 20000000 		.4byte	.LBB154
 6599 241f 08000000 		.4byte	.LBE154-.LBB154
 6600 2423 13       		.byte	0x13
 6601 2424 BC01     		.2byte	0x1bc
 6602 2426 32       		.uleb128 0x32
ARM GAS  C:\Users\gab_1\AppData\Local\Temp\ccTtYdci.s 			page 180


 6603 2427 501D0000 		.4byte	0x1d50
 6604 242b 29080000 		.4byte	.LLST84
 6605 242f 32       		.uleb128 0x32
 6606 2430 441D0000 		.4byte	0x1d44
 6607 2434 41080000 		.4byte	.LLST86
 6608 2438 29       		.uleb128 0x29
 6609 2439 28000000 		.4byte	.LVL139
 6610 243d 192B0000 		.4byte	0x2b19
 6611 2441 27       		.uleb128 0x27
 6612 2442 01       		.uleb128 0x1
 6613 2443 50       		.byte	0x50
 6614 2444 02       		.uleb128 0x2
 6615 2445 75       		.byte	0x75
 6616 2446 00       		.sleb128 0
 6617 2447 27       		.uleb128 0x27
 6618 2448 01       		.uleb128 0x1
 6619 2449 51       		.byte	0x51
 6620 244a 05       		.uleb128 0x5
 6621 244b 03       		.byte	0x3
 6622 244c 74000000 		.4byte	.LC6
 6623 2450 00       		.byte	0
 6624 2451 00       		.byte	0
 6625 2452 00       		.byte	0
 6626 2453 31       		.uleb128 0x31
 6627 2454 AC140000 		.4byte	0x14ac
 6628 2458 3A000000 		.4byte	.LBB156
 6629 245c 08000000 		.4byte	.LBE156-.LBB156
 6630 2460 02       		.byte	0x2
 6631 2461 AA       		.byte	0xaa
 6632 2462 A9240000 		.4byte	0x24a9
 6633 2466 32       		.uleb128 0x32
 6634 2467 B9140000 		.4byte	0x14b9
 6635 246b 59080000 		.4byte	.LLST87
 6636 246f 35       		.uleb128 0x35
 6637 2470 371D0000 		.4byte	0x1d37
 6638 2474 3A000000 		.4byte	.LBB157
 6639 2478 08000000 		.4byte	.LBE157-.LBB157
 6640 247c 13       		.byte	0x13
 6641 247d BC01     		.2byte	0x1bc
 6642 247f 32       		.uleb128 0x32
 6643 2480 501D0000 		.4byte	0x1d50
 6644 2484 59080000 		.4byte	.LLST87
 6645 2488 32       		.uleb128 0x32
 6646 2489 441D0000 		.4byte	0x1d44
 6647 248d 6C080000 		.4byte	.LLST89
 6648 2491 29       		.uleb128 0x29
 6649 2492 42000000 		.4byte	.LVL141
 6650 2496 192B0000 		.4byte	0x2b19
 6651 249a 27       		.uleb128 0x27
 6652 249b 01       		.uleb128 0x1
 6653 249c 50       		.byte	0x50
 6654 249d 02       		.uleb128 0x2
 6655 249e 75       		.byte	0x75
 6656 249f 00       		.sleb128 0
 6657 24a0 27       		.uleb128 0x27
 6658 24a1 01       		.uleb128 0x1
 6659 24a2 51       		.byte	0x51
ARM GAS  C:\Users\gab_1\AppData\Local\Temp\ccTtYdci.s 			page 181


 6660 24a3 02       		.uleb128 0x2
 6661 24a4 7D       		.byte	0x7d
 6662 24a5 00       		.sleb128 0
 6663 24a6 00       		.byte	0
 6664 24a7 00       		.byte	0
 6665 24a8 00       		.byte	0
 6666 24a9 2D       		.uleb128 0x2d
 6667 24aa 50000000 		.4byte	.LBB159
 6668 24ae 0E000000 		.4byte	.LBE159-.LBB159
 6669 24b2 D1240000 		.4byte	0x24d1
 6670 24b6 3D       		.uleb128 0x3d
 6671 24b7 42170000 		.4byte	.LASF379
 6672 24bb 02       		.byte	0x2
 6673 24bc B0       		.byte	0xb0
 6674 24bd A6000000 		.4byte	0xa6
 6675 24c1 C7240000 		.4byte	0x24c7
 6676 24c5 3E       		.uleb128 0x3e
 6677 24c6 00       		.byte	0
 6678 24c7 3F       		.uleb128 0x3f
 6679 24c8 5A000000 		.4byte	.LVL142
 6680 24cc 22200000 		.4byte	0x2022
 6681 24d0 00       		.byte	0
 6682 24d1 31       		.uleb128 0x31
 6683 24d2 AC140000 		.4byte	0x14ac
 6684 24d6 5E000000 		.4byte	.LBB160
 6685 24da 08000000 		.4byte	.LBE160-.LBB160
 6686 24de 02       		.byte	0x2
 6687 24df B6       		.byte	0xb6
 6688 24e0 2A250000 		.4byte	0x252a
 6689 24e4 32       		.uleb128 0x32
 6690 24e5 B9140000 		.4byte	0x14b9
 6691 24e9 84080000 		.4byte	.LLST90
 6692 24ed 35       		.uleb128 0x35
 6693 24ee 371D0000 		.4byte	0x1d37
 6694 24f2 5E000000 		.4byte	.LBB161
 6695 24f6 08000000 		.4byte	.LBE161-.LBB161
 6696 24fa 13       		.byte	0x13
 6697 24fb BC01     		.2byte	0x1bc
 6698 24fd 32       		.uleb128 0x32
 6699 24fe 501D0000 		.4byte	0x1d50
 6700 2502 84080000 		.4byte	.LLST90
 6701 2506 32       		.uleb128 0x32
 6702 2507 441D0000 		.4byte	0x1d44
 6703 250b 9C080000 		.4byte	.LLST92
 6704 250f 29       		.uleb128 0x29
 6705 2510 66000000 		.4byte	.LVL144
 6706 2514 192B0000 		.4byte	0x2b19
 6707 2518 27       		.uleb128 0x27
 6708 2519 01       		.uleb128 0x1
 6709 251a 50       		.byte	0x50
 6710 251b 02       		.uleb128 0x2
 6711 251c 75       		.byte	0x75
 6712 251d 00       		.sleb128 0
 6713 251e 27       		.uleb128 0x27
 6714 251f 01       		.uleb128 0x1
 6715 2520 51       		.byte	0x51
 6716 2521 05       		.uleb128 0x5
ARM GAS  C:\Users\gab_1\AppData\Local\Temp\ccTtYdci.s 			page 182


 6717 2522 03       		.byte	0x3
 6718 2523 94000000 		.4byte	.LC8
 6719 2527 00       		.byte	0
 6720 2528 00       		.byte	0
 6721 2529 00       		.byte	0
 6722 252a 3F       		.uleb128 0x3f
 6723 252b 20000000 		.4byte	.LVL138
 6724 252f 631D0000 		.4byte	0x1d63
 6725 2533 29       		.uleb128 0x29
 6726 2534 3A000000 		.4byte	.LVL140
 6727 2538 6C2B0000 		.4byte	0x2b6c
 6728 253c 27       		.uleb128 0x27
 6729 253d 01       		.uleb128 0x1
 6730 253e 50       		.byte	0x50
 6731 253f 02       		.uleb128 0x2
 6732 2540 7D       		.byte	0x7d
 6733 2541 00       		.sleb128 0
 6734 2542 27       		.uleb128 0x27
 6735 2543 01       		.uleb128 0x1
 6736 2544 51       		.byte	0x51
 6737 2545 05       		.uleb128 0x5
 6738 2546 03       		.byte	0x3
 6739 2547 84000000 		.4byte	.LC7
 6740 254b 00       		.byte	0
 6741 254c 00       		.byte	0
 6742 254d 07       		.uleb128 0x7
 6743 254e CA0B0000 		.4byte	0xbca
 6744 2552 5D250000 		.4byte	0x255d
 6745 2556 08       		.uleb128 0x8
 6746 2557 F6000000 		.4byte	0xf6
 6747 255b 95       		.byte	0x95
 6748 255c 00       		.byte	0
 6749 255d 40       		.uleb128 0x40
 6750 255e D0010000 		.4byte	.LASF393
 6751 2562 02       		.byte	0x2
 6752 2563 3E       		.byte	0x3e
 6753 2564 00000000 		.4byte	.LFB696
 6754 2568 6C000000 		.4byte	.LFE696-.LFB696
 6755 256c 01       		.uleb128 0x1
 6756 256d 9C       		.byte	0x9c
 6757 256e C8260000 		.4byte	0x26c8
 6758 2572 2C       		.uleb128 0x2c
 6759 2573 61726700 		.ascii	"arg\000"
 6760 2577 02       		.byte	0x2
 6761 2578 3E       		.byte	0x3e
 6762 2579 020C0000 		.4byte	0xc02
 6763 257d B4080000 		.4byte	.LLST93
 6764 2581 41       		.uleb128 0x41
 6765 2582 61636300 		.ascii	"acc\000"
 6766 2586 02       		.byte	0x2
 6767 2587 43       		.byte	0x43
 6768 2588 3C110000 		.4byte	0x113c
 6769 258c 02       		.uleb128 0x2
 6770 258d 91       		.byte	0x91
 6771 258e 6C       		.sleb128 -20
 6772 258f 2E       		.uleb128 0x2e
 6773 2590 787800   		.ascii	"xx\000"
ARM GAS  C:\Users\gab_1\AppData\Local\Temp\ccTtYdci.s 			page 183


 6774 2593 02       		.byte	0x2
 6775 2594 44       		.byte	0x44
 6776 2595 A6000000 		.4byte	0xa6
 6777 2599 D5080000 		.4byte	.LLST94
 6778 259d 31       		.uleb128 0x31
 6779 259e AC140000 		.4byte	0x14ac
 6780 25a2 30000000 		.4byte	.LBB172
 6781 25a6 08000000 		.4byte	.LBE172-.LBB172
 6782 25aa 02       		.byte	0x2
 6783 25ab 50       		.byte	0x50
 6784 25ac F9250000 		.4byte	0x25f9
 6785 25b0 32       		.uleb128 0x32
 6786 25b1 B9140000 		.4byte	0x14b9
 6787 25b5 0D090000 		.4byte	.LLST95
 6788 25b9 35       		.uleb128 0x35
 6789 25ba 371D0000 		.4byte	0x1d37
 6790 25be 30000000 		.4byte	.LBB173
 6791 25c2 08000000 		.4byte	.LBE173-.LBB173
 6792 25c6 13       		.byte	0x13
 6793 25c7 BC01     		.2byte	0x1bc
 6794 25c9 32       		.uleb128 0x32
 6795 25ca 501D0000 		.4byte	0x1d50
 6796 25ce 0D090000 		.4byte	.LLST95
 6797 25d2 32       		.uleb128 0x32
 6798 25d3 441D0000 		.4byte	0x1d44
 6799 25d7 25090000 		.4byte	.LLST97
 6800 25db 29       		.uleb128 0x29
 6801 25dc 38000000 		.4byte	.LVL153
 6802 25e0 192B0000 		.4byte	0x2b19
 6803 25e4 27       		.uleb128 0x27
 6804 25e5 01       		.uleb128 0x1
 6805 25e6 50       		.byte	0x50
 6806 25e7 05       		.uleb128 0x5
 6807 25e8 0C       		.byte	0xc
 6808 25e9 00006640 		.4byte	0x40660000
 6809 25ed 27       		.uleb128 0x27
 6810 25ee 01       		.uleb128 0x1
 6811 25ef 51       		.byte	0x51
 6812 25f0 05       		.uleb128 0x5
 6813 25f1 03       		.byte	0x3
 6814 25f2 A0000000 		.4byte	.LC9
 6815 25f6 00       		.byte	0
 6816 25f7 00       		.byte	0
 6817 25f8 00       		.byte	0
 6818 25f9 31       		.uleb128 0x31
 6819 25fa D1140000 		.4byte	0x14d1
 6820 25fe 38000000 		.4byte	.LBB175
 6821 2602 08000000 		.4byte	.LBE175-.LBB175
 6822 2606 02       		.byte	0x2
 6823 2607 51       		.byte	0x51
 6824 2608 28260000 		.4byte	0x2628
 6825 260c 32       		.uleb128 0x32
 6826 260d F6140000 		.4byte	0x14f6
 6827 2611 3D090000 		.4byte	.LLST98
 6828 2615 32       		.uleb128 0x32
 6829 2616 EA140000 		.4byte	0x14ea
 6830 261a 51090000 		.4byte	.LLST99
ARM GAS  C:\Users\gab_1\AppData\Local\Temp\ccTtYdci.s 			page 184


 6831 261e 32       		.uleb128 0x32
 6832 261f DE140000 		.4byte	0x14de
 6833 2623 65090000 		.4byte	.LLST100
 6834 2627 00       		.byte	0
 6835 2628 2D       		.uleb128 0x2d
 6836 2629 46000000 		.4byte	.LBB177
 6837 262d 0A000000 		.4byte	.LBE177-.LBB177
 6838 2631 7F260000 		.4byte	0x267f
 6839 2635 3D       		.uleb128 0x3d
 6840 2636 E9150000 		.4byte	.LASF391
 6841 263a 02       		.byte	0x2
 6842 263b 57       		.byte	0x57
 6843 263c A6000000 		.4byte	0xa6
 6844 2640 46260000 		.4byte	0x2646
 6845 2644 3E       		.uleb128 0x3e
 6846 2645 00       		.byte	0
 6847 2646 31       		.uleb128 0x31
 6848 2647 D1140000 		.4byte	0x14d1
 6849 264b 46000000 		.4byte	.LBB178
 6850 264f 06000000 		.4byte	.LBE178-.LBB178
 6851 2653 02       		.byte	0x2
 6852 2654 55       		.byte	0x55
 6853 2655 75260000 		.4byte	0x2675
 6854 2659 32       		.uleb128 0x32
 6855 265a F6140000 		.4byte	0x14f6
 6856 265e 7D090000 		.4byte	.LLST101
 6857 2662 32       		.uleb128 0x32
 6858 2663 EA140000 		.4byte	0x14ea
 6859 2667 91090000 		.4byte	.LLST102
 6860 266b 32       		.uleb128 0x32
 6861 266c DE140000 		.4byte	0x14de
 6862 2670 A5090000 		.4byte	.LLST103
 6863 2674 00       		.byte	0
 6864 2675 3F       		.uleb128 0x3f
 6865 2676 50000000 		.4byte	.LVL157
 6866 267a 6C230000 		.4byte	0x236c
 6867 267e 00       		.byte	0
 6868 267f 3F       		.uleb128 0x3f
 6869 2680 08000000 		.4byte	.LVL146
 6870 2684 772B0000 		.4byte	0x2b77
 6871 2688 3F       		.uleb128 0x3f
 6872 2689 0C000000 		.4byte	.LVL147
 6873 268d 0B150000 		.4byte	0x150b
 6874 2691 26       		.uleb128 0x26
 6875 2692 1A000000 		.4byte	.LVL149
 6876 2696 822B0000 		.4byte	0x2b82
 6877 269a B8260000 		.4byte	0x26b8
 6878 269e 27       		.uleb128 0x27
 6879 269f 01       		.uleb128 0x1
 6880 26a0 50       		.byte	0x50
 6881 26a1 01       		.uleb128 0x1
 6882 26a2 31       		.byte	0x31
 6883 26a3 27       		.uleb128 0x27
 6884 26a4 01       		.uleb128 0x1
 6885 26a5 51       		.byte	0x51
 6886 26a6 02       		.uleb128 0x2
 6887 26a7 91       		.byte	0x91
ARM GAS  C:\Users\gab_1\AppData\Local\Temp\ccTtYdci.s 			page 185


 6888 26a8 6C       		.sleb128 -20
 6889 26a9 27       		.uleb128 0x27
 6890 26aa 01       		.uleb128 0x1
 6891 26ab 52       		.byte	0x52
 6892 26ac 01       		.uleb128 0x1
 6893 26ad 30       		.byte	0x30
 6894 26ae 27       		.uleb128 0x27
 6895 26af 01       		.uleb128 0x1
 6896 26b0 53       		.byte	0x53
 6897 26b1 05       		.uleb128 0x5
 6898 26b2 03       		.byte	0x3
 6899 26b3 00000000 		.4byte	.LANCHOR0
 6900 26b7 00       		.byte	0
 6901 26b8 29       		.uleb128 0x29
 6902 26b9 20000000 		.4byte	.LVL150
 6903 26bd AC2A0000 		.4byte	0x2aac
 6904 26c1 27       		.uleb128 0x27
 6905 26c2 01       		.uleb128 0x1
 6906 26c3 50       		.byte	0x50
 6907 26c4 01       		.uleb128 0x1
 6908 26c5 32       		.byte	0x32
 6909 26c6 00       		.byte	0
 6910 26c7 00       		.byte	0
 6911 26c8 42       		.uleb128 0x42
 6912 26c9 10180000 		.4byte	.LASF458
 6913 26cd 02       		.byte	0x2
 6914 26ce 5A01     		.2byte	0x15a
 6915 26d0 A6000000 		.4byte	0xa6
 6916 26d4 00000000 		.4byte	.LFB704
 6917 26d8 8C000000 		.4byte	.LFE704-.LFB704
 6918 26dc 01       		.uleb128 0x1
 6919 26dd 9C       		.byte	0x9c
 6920 26de 13280000 		.4byte	0x2813
 6921 26e2 43       		.uleb128 0x43
 6922 26e3 03150000 		.4byte	0x1503
 6923 26e7 04000000 		.4byte	.LBB180
 6924 26eb 02000000 		.4byte	.LBE180-.LBB180
 6925 26ef 02       		.byte	0x2
 6926 26f0 5D01     		.2byte	0x15d
 6927 26f2 3B       		.uleb128 0x3b
 6928 26f3 D1140000 		.4byte	0x14d1
 6929 26f7 06000000 		.4byte	.LBB182
 6930 26fb 06000000 		.4byte	.LBE182-.LBB182
 6931 26ff 02       		.byte	0x2
 6932 2700 5E01     		.2byte	0x15e
 6933 2702 22270000 		.4byte	0x2722
 6934 2706 32       		.uleb128 0x32
 6935 2707 F6140000 		.4byte	0x14f6
 6936 270b BD090000 		.4byte	.LLST104
 6937 270f 32       		.uleb128 0x32
 6938 2710 EA140000 		.4byte	0x14ea
 6939 2714 D1090000 		.4byte	.LLST105
 6940 2718 32       		.uleb128 0x32
 6941 2719 DE140000 		.4byte	0x14de
 6942 271d E5090000 		.4byte	.LLST106
 6943 2721 00       		.byte	0
 6944 2722 3F       		.uleb128 0x3f
ARM GAS  C:\Users\gab_1\AppData\Local\Temp\ccTtYdci.s 			page 186


 6945 2723 10000000 		.4byte	.LVL161
 6946 2727 8E2B0000 		.4byte	0x2b8e
 6947 272b 3F       		.uleb128 0x3f
 6948 272c 14000000 		.4byte	.LVL162
 6949 2730 992B0000 		.4byte	0x2b99
 6950 2734 3F       		.uleb128 0x3f
 6951 2735 18000000 		.4byte	.LVL163
 6952 2739 A42B0000 		.4byte	0x2ba4
 6953 273d 3F       		.uleb128 0x3f
 6954 273e 1C000000 		.4byte	.LVL164
 6955 2742 AF2B0000 		.4byte	0x2baf
 6956 2746 3F       		.uleb128 0x3f
 6957 2747 20000000 		.4byte	.LVL165
 6958 274b 2B1E0000 		.4byte	0x1e2b
 6959 274f 3F       		.uleb128 0x3f
 6960 2750 24000000 		.4byte	.LVL166
 6961 2754 BA2B0000 		.4byte	0x2bba
 6962 2758 3F       		.uleb128 0x3f
 6963 2759 28000000 		.4byte	.LVL167
 6964 275d AF2B0000 		.4byte	0x2baf
 6965 2761 26       		.uleb128 0x26
 6966 2762 3E000000 		.4byte	.LVL168
 6967 2766 C62B0000 		.4byte	0x2bc6
 6968 276a 9C270000 		.4byte	0x279c
 6969 276e 27       		.uleb128 0x27
 6970 276f 01       		.uleb128 0x1
 6971 2770 50       		.byte	0x50
 6972 2771 05       		.uleb128 0x5
 6973 2772 03       		.byte	0x3
 6974 2773 00000000 		.4byte	motionTask
 6975 2777 27       		.uleb128 0x27
 6976 2778 01       		.uleb128 0x1
 6977 2779 51       		.byte	0x51
 6978 277a 05       		.uleb128 0x5
 6979 277b 03       		.byte	0x3
 6980 277c C8000000 		.4byte	.LC10
 6981 2780 27       		.uleb128 0x27
 6982 2781 01       		.uleb128 0x1
 6983 2782 52       		.byte	0x52
 6984 2783 03       		.uleb128 0x3
 6985 2784 0A       		.byte	0xa
 6986 2785 9001     		.2byte	0x190
 6987 2787 27       		.uleb128 0x27
 6988 2788 01       		.uleb128 0x1
 6989 2789 53       		.byte	0x53
 6990 278a 02       		.uleb128 0x2
 6991 278b 74       		.byte	0x74
 6992 278c 00       		.sleb128 0
 6993 278d 27       		.uleb128 0x27
 6994 278e 02       		.uleb128 0x2
 6995 278f 7D       		.byte	0x7d
 6996 2790 00       		.sleb128 0
 6997 2791 02       		.uleb128 0x2
 6998 2792 75       		.byte	0x75
 6999 2793 00       		.sleb128 0
 7000 2794 27       		.uleb128 0x27
 7001 2795 02       		.uleb128 0x2
ARM GAS  C:\Users\gab_1\AppData\Local\Temp\ccTtYdci.s 			page 187


 7002 2796 7D       		.byte	0x7d
 7003 2797 04       		.sleb128 4
 7004 2798 02       		.uleb128 0x2
 7005 2799 74       		.byte	0x74
 7006 279a 00       		.sleb128 0
 7007 279b 00       		.byte	0
 7008 279c 26       		.uleb128 0x26
 7009 279d 50000000 		.4byte	.LVL169
 7010 27a1 C62B0000 		.4byte	0x2bc6
 7011 27a5 CE270000 		.4byte	0x27ce
 7012 27a9 27       		.uleb128 0x27
 7013 27aa 01       		.uleb128 0x1
 7014 27ab 51       		.byte	0x51
 7015 27ac 05       		.uleb128 0x5
 7016 27ad 03       		.byte	0x3
 7017 27ae D4000000 		.4byte	.LC11
 7018 27b2 27       		.uleb128 0x27
 7019 27b3 01       		.uleb128 0x1
 7020 27b4 52       		.byte	0x52
 7021 27b5 03       		.uleb128 0x3
 7022 27b6 0A       		.byte	0xa
 7023 27b7 9001     		.2byte	0x190
 7024 27b9 27       		.uleb128 0x27
 7025 27ba 01       		.uleb128 0x1
 7026 27bb 53       		.byte	0x53
 7027 27bc 02       		.uleb128 0x2
 7028 27bd 74       		.byte	0x74
 7029 27be 00       		.sleb128 0
 7030 27bf 27       		.uleb128 0x27
 7031 27c0 02       		.uleb128 0x2
 7032 27c1 7D       		.byte	0x7d
 7033 27c2 00       		.sleb128 0
 7034 27c3 02       		.uleb128 0x2
 7035 27c4 75       		.byte	0x75
 7036 27c5 00       		.sleb128 0
 7037 27c6 27       		.uleb128 0x27
 7038 27c7 02       		.uleb128 0x2
 7039 27c8 7D       		.byte	0x7d
 7040 27c9 04       		.sleb128 4
 7041 27ca 02       		.uleb128 0x2
 7042 27cb 74       		.byte	0x74
 7043 27cc 00       		.sleb128 0
 7044 27cd 00       		.byte	0
 7045 27ce 26       		.uleb128 0x26
 7046 27cf 62000000 		.4byte	.LVL170
 7047 27d3 C62B0000 		.4byte	0x2bc6
 7048 27d7 00280000 		.4byte	0x2800
 7049 27db 27       		.uleb128 0x27
 7050 27dc 01       		.uleb128 0x1
 7051 27dd 51       		.byte	0x51
 7052 27de 05       		.uleb128 0x5
 7053 27df 03       		.byte	0x3
 7054 27e0 E4000000 		.4byte	.LC12
 7055 27e4 27       		.uleb128 0x27
 7056 27e5 01       		.uleb128 0x1
 7057 27e6 52       		.byte	0x52
 7058 27e7 03       		.uleb128 0x3
ARM GAS  C:\Users\gab_1\AppData\Local\Temp\ccTtYdci.s 			page 188


 7059 27e8 0A       		.byte	0xa
 7060 27e9 9001     		.2byte	0x190
 7061 27eb 27       		.uleb128 0x27
 7062 27ec 01       		.uleb128 0x1
 7063 27ed 53       		.byte	0x53
 7064 27ee 02       		.uleb128 0x2
 7065 27ef 74       		.byte	0x74
 7066 27f0 00       		.sleb128 0
 7067 27f1 27       		.uleb128 0x27
 7068 27f2 02       		.uleb128 0x2
 7069 27f3 7D       		.byte	0x7d
 7070 27f4 00       		.sleb128 0
 7071 27f5 02       		.uleb128 0x2
 7072 27f6 75       		.byte	0x75
 7073 27f7 00       		.sleb128 0
 7074 27f8 27       		.uleb128 0x27
 7075 27f9 02       		.uleb128 0x2
 7076 27fa 7D       		.byte	0x7d
 7077 27fb 04       		.sleb128 4
 7078 27fc 02       		.uleb128 0x2
 7079 27fd 74       		.byte	0x74
 7080 27fe 00       		.sleb128 0
 7081 27ff 00       		.byte	0
 7082 2800 3F       		.uleb128 0x3f
 7083 2801 66000000 		.4byte	.LVL171
 7084 2805 D22B0000 		.4byte	0x2bd2
 7085 2809 3F       		.uleb128 0x3f
 7086 280a 6A000000 		.4byte	.LVL172
 7087 280e DE2B0000 		.4byte	0x2bde
 7088 2812 00       		.byte	0
 7089 2813 30       		.uleb128 0x30
 7090 2814 9D0F0000 		.4byte	.LASF395
 7091 2818 01       		.byte	0x1
 7092 2819 13       		.byte	0x13
 7093 281a EC120000 		.4byte	0x12ec
 7094 281e 05       		.uleb128 0x5
 7095 281f 03       		.byte	0x3
 7096 2820 00000000 		.4byte	bmi160Dev
 7097 2824 07       		.uleb128 0x7
 7098 2825 D10B0000 		.4byte	0xbd1
 7099 2829 35280000 		.4byte	0x2835
 7100 282d 0E       		.uleb128 0xe
 7101 282e F6000000 		.4byte	0xf6
 7102 2832 4307     		.2byte	0x743
 7103 2834 00       		.byte	0
 7104 2835 30       		.uleb128 0x30
 7105 2836 6B0A0000 		.4byte	.LASF396
 7106 283a 02       		.byte	0x2
 7107 283b 34       		.byte	0x34
 7108 283c 24280000 		.4byte	0x2824
 7109 2840 05       		.uleb128 0x5
 7110 2841 03       		.byte	0x3
 7111 2842 2C000000 		.4byte	firStateF32
 7112 2846 44       		.uleb128 0x44
 7113 2847 5E0A0000 		.4byte	.LASF397
 7114 284b 14       		.byte	0x14
 7115 284c 0108     		.2byte	0x801
ARM GAS  C:\Users\gab_1\AppData\Local\Temp\ccTtYdci.s 			page 189


 7116 284e 52280000 		.4byte	0x2852
 7117 2852 05       		.uleb128 0x5
 7118 2853 E0000000 		.4byte	0xe0
 7119 2857 45       		.uleb128 0x45
 7120 2858 76000000 		.4byte	.LASF398
 7121 285c 0C       		.byte	0xc
 7122 285d A7       		.byte	0xa7
 7123 285e 62280000 		.4byte	0x2862
 7124 2862 10       		.uleb128 0x10
 7125 2863 04       		.byte	0x4
 7126 2864 68280000 		.4byte	0x2868
 7127 2868 06       		.uleb128 0x6
 7128 2869 B30B0000 		.4byte	0xbb3
 7129 286d 45       		.uleb128 0x45
 7130 286e 3C010000 		.4byte	.LASF399
 7131 2872 15       		.byte	0x15
 7132 2873 5E       		.byte	0x5e
 7133 2874 C20E0000 		.4byte	0xec2
 7134 2878 45       		.uleb128 0x45
 7135 2879 BF0D0000 		.4byte	.LASF400
 7136 287d 16       		.byte	0x16
 7137 287e 1F       		.byte	0x1f
 7138 287f 83280000 		.4byte	0x2883
 7139 2883 06       		.uleb128 0x6
 7140 2884 9B100000 		.4byte	0x109b
 7141 2888 45       		.uleb128 0x45
 7142 2889 170B0000 		.4byte	.LASF401
 7143 288d 13       		.byte	0x13
 7144 288e 87       		.byte	0x87
 7145 288f 9E0F0000 		.4byte	0xf9e
 7146 2893 45       		.uleb128 0x45
 7147 2894 4D0F0000 		.4byte	.LASF402
 7148 2898 17       		.byte	0x17
 7149 2899 7F       		.byte	0x7f
 7150 289a 270E0000 		.4byte	0xe27
 7151 289e 45       		.uleb128 0x45
 7152 289f 3D160000 		.4byte	.LASF403
 7153 28a3 03       		.byte	0x3
 7154 28a4 7F       		.byte	0x7f
 7155 28a5 270E0000 		.4byte	0xe27
 7156 28a9 46       		.uleb128 0x46
 7157 28aa F50A0000 		.4byte	.LASF404
 7158 28ae 02       		.byte	0x2
 7159 28af 36       		.byte	0x36
 7160 28b0 220E0000 		.4byte	0xe22
 7161 28b4 05       		.uleb128 0x5
 7162 28b5 03       		.byte	0x3
 7163 28b6 00000000 		.4byte	Index
 7164 28ba 45       		.uleb128 0x45
 7165 28bb BC0B0000 		.4byte	.LASF405
 7166 28bf 02       		.byte	0x2
 7167 28c0 37       		.byte	0x37
 7168 28c1 040C0000 		.4byte	0xc04
 7169 28c5 45       		.uleb128 0x45
 7170 28c6 690E0000 		.4byte	.LASF406
 7171 28ca 02       		.byte	0x2
 7172 28cb 38       		.byte	0x38
ARM GAS  C:\Users\gab_1\AppData\Local\Temp\ccTtYdci.s 			page 190


 7173 28cc D0280000 		.4byte	0x28d0
 7174 28d0 05       		.uleb128 0x5
 7175 28d1 A6000000 		.4byte	0xa6
 7176 28d5 07       		.uleb128 0x7
 7177 28d6 25000000 		.4byte	0x25
 7178 28da E6280000 		.4byte	0x28e6
 7179 28de 0E       		.uleb128 0xe
 7180 28df F6000000 		.4byte	0xf6
 7181 28e3 E703     		.2byte	0x3e7
 7182 28e5 00       		.byte	0
 7183 28e6 46       		.uleb128 0x46
 7184 28e7 FE160000 		.4byte	.LASF407
 7185 28eb 02       		.byte	0x2
 7186 28ec 5F       		.byte	0x5f
 7187 28ed D5280000 		.4byte	0x28d5
 7188 28f1 05       		.uleb128 0x5
 7189 28f2 03       		.byte	0x3
 7190 28f3 00000000 		.4byte	DataRouge
 7191 28f7 46       		.uleb128 0x46
 7192 28f8 4A050000 		.4byte	.LASF380
 7193 28fc 02       		.byte	0x2
 7194 28fd 60       		.byte	0x60
 7195 28fe D5280000 		.4byte	0x28d5
 7196 2902 05       		.uleb128 0x5
 7197 2903 03       		.byte	0x3
 7198 2904 00000000 		.4byte	DataIR
 7199 2908 07       		.uleb128 0x7
 7200 2909 EB000000 		.4byte	0xeb
 7201 290d 19290000 		.4byte	0x2919
 7202 2911 0E       		.uleb128 0xe
 7203 2912 F6000000 		.4byte	0xf6
 7204 2916 E703     		.2byte	0x3e7
 7205 2918 00       		.byte	0
 7206 2919 46       		.uleb128 0x46
 7207 291a 60110000 		.4byte	.LASF408
 7208 291e 02       		.byte	0x2
 7209 291f 63       		.byte	0x63
 7210 2920 08290000 		.4byte	0x2908
 7211 2924 05       		.uleb128 0x5
 7212 2925 03       		.byte	0x3
 7213 2926 00000000 		.4byte	bufferROUGE
 7214 292a 46       		.uleb128 0x46
 7215 292b 2C0B0000 		.4byte	.LASF409
 7216 292f 02       		.byte	0x2
 7217 2930 64       		.byte	0x64
 7218 2931 08290000 		.4byte	0x2908
 7219 2935 05       		.uleb128 0x5
 7220 2936 03       		.byte	0x3
 7221 2937 00000000 		.4byte	bufferINFRAROUGE
 7222 293b 46       		.uleb128 0x46
 7223 293c CB110000 		.4byte	.LASF410
 7224 2940 02       		.byte	0x2
 7225 2941 65       		.byte	0x65
 7226 2942 D5000000 		.4byte	0xd5
 7227 2946 05       		.uleb128 0x5
 7228 2947 03       		.byte	0x3
 7229 2948 00000000 		.4byte	indice
ARM GAS  C:\Users\gab_1\AppData\Local\Temp\ccTtYdci.s 			page 191


 7230 294c 46       		.uleb128 0x46
 7231 294d 41150000 		.4byte	.LASF411
 7232 2951 02       		.byte	0x2
 7233 2952 67       		.byte	0x67
 7234 2953 FC0B0000 		.4byte	0xbfc
 7235 2957 05       		.uleb128 0x5
 7236 2958 03       		.byte	0x3
 7237 2959 00000000 		.4byte	pointeurIr
 7238 295d 46       		.uleb128 0x46
 7239 295e 9E170000 		.4byte	.LASF412
 7240 2962 02       		.byte	0x2
 7241 2963 68       		.byte	0x68
 7242 2964 FC0B0000 		.4byte	0xbfc
 7243 2968 05       		.uleb128 0x5
 7244 2969 03       		.byte	0x3
 7245 296a 00000000 		.4byte	pointeurRed
 7246 296e 07       		.uleb128 0x7
 7247 296f EF100000 		.4byte	0x10ef
 7248 2973 7E290000 		.4byte	0x297e
 7249 2977 08       		.uleb128 0x8
 7250 2978 F6000000 		.4byte	0xf6
 7251 297c 32       		.byte	0x32
 7252 297d 00       		.byte	0
 7253 297e 46       		.uleb128 0x46
 7254 297f B9140000 		.4byte	.LASF413
 7255 2983 02       		.byte	0x2
 7256 2984 DF       		.byte	0xdf
 7257 2985 8F290000 		.4byte	0x298f
 7258 2989 05       		.uleb128 0x5
 7259 298a 03       		.byte	0x3
 7260 298b 00000000 		.4byte	PasseHaut
 7261 298f 06       		.uleb128 0x6
 7262 2990 6E290000 		.4byte	0x296e
 7263 2994 46       		.uleb128 0x46
 7264 2995 B8020000 		.4byte	.LASF414
 7265 2999 02       		.byte	0x2
 7266 299a E0       		.byte	0xe0
 7267 299b A5290000 		.4byte	0x29a5
 7268 299f 05       		.uleb128 0x5
 7269 29a0 03       		.byte	0x3
 7270 29a1 00000000 		.4byte	PasseBas
 7271 29a5 06       		.uleb128 0x6
 7272 29a6 6E290000 		.4byte	0x296e
 7273 29aa 46       		.uleb128 0x46
 7274 29ab 8A0F0000 		.4byte	.LASF415
 7275 29af 02       		.byte	0x2
 7276 29b0 E3       		.byte	0xe3
 7277 29b1 EB000000 		.4byte	0xeb
 7278 29b5 05       		.uleb128 0x5
 7279 29b6 03       		.byte	0x3
 7280 29b7 00000000 		.4byte	blockSize
 7281 29bb 47       		.uleb128 0x47
 7282 29bc 5300     		.ascii	"S\000"
 7283 29be 02       		.byte	0x2
 7284 29bf E4       		.byte	0xe4
 7285 29c0 E3100000 		.4byte	0x10e3
 7286 29c4 05       		.uleb128 0x5
ARM GAS  C:\Users\gab_1\AppData\Local\Temp\ccTtYdci.s 			page 192


 7287 29c5 03       		.byte	0x3
 7288 29c6 00000000 		.4byte	S
 7289 29ca 46       		.uleb128 0x46
 7290 29cb 11030000 		.4byte	.LASF416
 7291 29cf 02       		.byte	0x2
 7292 29d0 E5       		.byte	0xe5
 7293 29d1 DB290000 		.4byte	0x29db
 7294 29d5 05       		.uleb128 0x5
 7295 29d6 03       		.byte	0x3
 7296 29d7 00000000 		.4byte	SpO2
 7297 29db 05       		.uleb128 0x5
 7298 29dc 25000000 		.4byte	0x25
 7299 29e0 47       		.uleb128 0x47
 7300 29e1 62706D00 		.ascii	"bpm\000"
 7301 29e5 02       		.byte	0x2
 7302 29e6 E6       		.byte	0xe6
 7303 29e7 D0280000 		.4byte	0x28d0
 7304 29eb 05       		.uleb128 0x5
 7305 29ec 03       		.byte	0x3
 7306 29ed 00000000 		.4byte	bpm
 7307 29f1 46       		.uleb128 0x46
 7308 29f2 E1150000 		.4byte	.LASF417
 7309 29f6 02       		.byte	0x2
 7310 29f7 E7       		.byte	0xe7
 7311 29f8 D0280000 		.4byte	0x28d0
 7312 29fc 05       		.uleb128 0x5
 7313 29fd 03       		.byte	0x3
 7314 29fe 00000000 		.4byte	NbreMax
 7315 2a02 46       		.uleb128 0x46
 7316 2a03 700C0000 		.4byte	.LASF418
 7317 2a07 02       		.byte	0x2
 7318 2a08 E8       		.byte	0xe8
 7319 2a09 D0280000 		.4byte	0x28d0
 7320 2a0d 05       		.uleb128 0x5
 7321 2a0e 03       		.byte	0x3
 7322 2a0f 00000000 		.4byte	NbreSec
 7323 2a13 46       		.uleb128 0x46
 7324 2a14 940F0000 		.4byte	.LASF419
 7325 2a18 02       		.byte	0x2
 7326 2a19 EB       		.byte	0xeb
 7327 2a1a D0280000 		.4byte	0x28d0
 7328 2a1e 05       		.uleb128 0x5
 7329 2a1f 03       		.byte	0x3
 7330 2a20 00000000 		.4byte	borneSup
 7331 2a24 46       		.uleb128 0x46
 7332 2a25 E1030000 		.4byte	.LASF420
 7333 2a29 02       		.byte	0x2
 7334 2a2a EC       		.byte	0xec
 7335 2a2b D0280000 		.4byte	0x28d0
 7336 2a2f 05       		.uleb128 0x5
 7337 2a30 03       		.byte	0x3
 7338 2a31 00000000 		.4byte	borneInf
 7339 2a35 07       		.uleb128 0x7
 7340 2a36 F00B0000 		.4byte	0xbf0
 7341 2a3a 462A0000 		.4byte	0x2a46
 7342 2a3e 0E       		.uleb128 0xe
 7343 2a3f F6000000 		.4byte	0xf6
ARM GAS  C:\Users\gab_1\AppData\Local\Temp\ccTtYdci.s 			page 193


 7344 2a43 E703     		.2byte	0x3e7
 7345 2a45 00       		.byte	0
 7346 2a46 46       		.uleb128 0x46
 7347 2a47 EA070000 		.4byte	.LASF421
 7348 2a4b 02       		.byte	0x2
 7349 2a4c F0       		.byte	0xf0
 7350 2a4d 352A0000 		.4byte	0x2a35
 7351 2a51 05       		.uleb128 0x5
 7352 2a52 03       		.byte	0x3
 7353 2a53 00000000 		.4byte	IrFiltre
 7354 2a57 46       		.uleb128 0x46
 7355 2a58 C1110000 		.4byte	.LASF422
 7356 2a5c 02       		.byte	0x2
 7357 2a5d F1       		.byte	0xf1
 7358 2a5e 352A0000 		.4byte	0x2a35
 7359 2a62 05       		.uleb128 0x5
 7360 2a63 03       		.byte	0x3
 7361 2a64 00000000 		.4byte	RedFiltre
 7362 2a68 46       		.uleb128 0x46
 7363 2a69 1A060000 		.4byte	.LASF423
 7364 2a6d 02       		.byte	0x2
 7365 2a6e F2       		.byte	0xf2
 7366 2a6f D5280000 		.4byte	0x28d5
 7367 2a73 05       		.uleb128 0x5
 7368 2a74 03       		.byte	0x3
 7369 2a75 00000000 		.4byte	IrFiltre1
 7370 2a79 46       		.uleb128 0x46
 7371 2a7a C1150000 		.4byte	.LASF424
 7372 2a7e 02       		.byte	0x2
 7373 2a7f F3       		.byte	0xf3
 7374 2a80 D5280000 		.4byte	0x28d5
 7375 2a84 05       		.uleb128 0x5
 7376 2a85 03       		.byte	0x3
 7377 2a86 00000000 		.4byte	RedFiltre1
 7378 2a8a 46       		.uleb128 0x46
 7379 2a8b 30100000 		.4byte	.LASF425
 7380 2a8f 02       		.byte	0x2
 7381 2a90 F4       		.byte	0xf4
 7382 2a91 D5280000 		.4byte	0x28d5
 7383 2a95 05       		.uleb128 0x5
 7384 2a96 03       		.byte	0x3
 7385 2a97 00000000 		.4byte	dataIR
 7386 2a9b 46       		.uleb128 0x46
 7387 2a9c 69160000 		.4byte	.LASF426
 7388 2aa0 02       		.byte	0x2
 7389 2aa1 F5       		.byte	0xf5
 7390 2aa2 D5280000 		.4byte	0x28d5
 7391 2aa6 05       		.uleb128 0x5
 7392 2aa7 03       		.byte	0x3
 7393 2aa8 00000000 		.4byte	dataRed
 7394 2aac 48       		.uleb128 0x48
 7395 2aad AB090000 		.4byte	.LASF427
 7396 2ab1 AB090000 		.4byte	.LASF427
 7397 2ab5 18       		.byte	0x18
 7398 2ab6 ED02     		.2byte	0x2ed
 7399 2ab8 49       		.uleb128 0x49
 7400 2ab9 67190000 		.4byte	.LASF428
ARM GAS  C:\Users\gab_1\AppData\Local\Temp\ccTtYdci.s 			page 194


 7401 2abd 67190000 		.4byte	.LASF428
 7402 2ac1 19       		.byte	0x19
 7403 2ac2 55       		.byte	0x55
 7404 2ac3 4A       		.uleb128 0x4a
 7405 2ac4 38090000 		.4byte	.LASF459
 7406 2ac8 D10C0000 		.4byte	.LASF460
 7407 2acc 1F       		.byte	0x1f
 7408 2acd 00       		.byte	0
 7409 2ace 38090000 		.4byte	.LASF459
 7410 2ad2 49       		.uleb128 0x49
 7411 2ad3 390C0000 		.4byte	.LASF429
 7412 2ad7 390C0000 		.4byte	.LASF429
 7413 2adb 19       		.byte	0x19
 7414 2adc B6       		.byte	0xb6
 7415 2add 48       		.uleb128 0x48
 7416 2ade FE070000 		.4byte	.LASF430
 7417 2ae2 FE070000 		.4byte	.LASF430
 7418 2ae6 0E       		.byte	0xe
 7419 2ae7 5A03     		.2byte	0x35a
 7420 2ae9 48       		.uleb128 0x48
 7421 2aea DA0F0000 		.4byte	.LASF431
 7422 2aee DA0F0000 		.4byte	.LASF431
 7423 2af2 0E       		.byte	0xe
 7424 2af3 5303     		.2byte	0x353
 7425 2af5 48       		.uleb128 0x48
 7426 2af6 320E0000 		.4byte	.LASF432
 7427 2afa 320E0000 		.4byte	.LASF432
 7428 2afe 0E       		.byte	0xe
 7429 2aff 5703     		.2byte	0x357
 7430 2b01 48       		.uleb128 0x48
 7431 2b02 EA130000 		.4byte	.LASF433
 7432 2b06 EA130000 		.4byte	.LASF433
 7433 2b0a 0E       		.byte	0xe
 7434 2b0b 5803     		.2byte	0x358
 7435 2b0d 48       		.uleb128 0x48
 7436 2b0e C4070000 		.4byte	.LASF434
 7437 2b12 C4070000 		.4byte	.LASF434
 7438 2b16 0E       		.byte	0xe
 7439 2b17 5503     		.2byte	0x355
 7440 2b19 49       		.uleb128 0x49
 7441 2b1a 5E070000 		.4byte	.LASF435
 7442 2b1e 5E070000 		.4byte	.LASF435
 7443 2b22 1A       		.byte	0x1a
 7444 2b23 E3       		.byte	0xe3
 7445 2b24 48       		.uleb128 0x48
 7446 2b25 FA060000 		.4byte	.LASF436
 7447 2b29 FA060000 		.4byte	.LASF436
 7448 2b2d 0D       		.byte	0xd
 7449 2b2e 8903     		.2byte	0x389
 7450 2b30 48       		.uleb128 0x48
 7451 2b31 5C0E0000 		.4byte	.LASF437
 7452 2b35 5C0E0000 		.4byte	.LASF437
 7453 2b39 11       		.byte	0x11
 7454 2b3a 1D18     		.2byte	0x181d
 7455 2b3c 48       		.uleb128 0x48
 7456 2b3d C10F0000 		.4byte	.LASF438
 7457 2b41 C10F0000 		.4byte	.LASF438
ARM GAS  C:\Users\gab_1\AppData\Local\Temp\ccTtYdci.s 			page 195


 7458 2b45 11       		.byte	0x11
 7459 2b46 A604     		.2byte	0x4a6
 7460 2b48 48       		.uleb128 0x48
 7461 2b49 7B060000 		.4byte	.LASF439
 7462 2b4d 7B060000 		.4byte	.LASF439
 7463 2b51 11       		.byte	0x11
 7464 2b52 9704     		.2byte	0x497
 7465 2b54 48       		.uleb128 0x48
 7466 2b55 72050000 		.4byte	.LASF440
 7467 2b59 72050000 		.4byte	.LASF440
 7468 2b5d 11       		.byte	0x11
 7469 2b5e 7619     		.2byte	0x1976
 7470 2b60 48       		.uleb128 0x48
 7471 2b61 780C0000 		.4byte	.LASF441
 7472 2b65 780C0000 		.4byte	.LASF441
 7473 2b69 11       		.byte	0x11
 7474 2b6a 3E19     		.2byte	0x193e
 7475 2b6c 49       		.uleb128 0x49
 7476 2b6d DF100000 		.4byte	.LASF442
 7477 2b71 DF100000 		.4byte	.LASF442
 7478 2b75 1B       		.byte	0x1b
 7479 2b76 E7       		.byte	0xe7
 7480 2b77 49       		.uleb128 0x49
 7481 2b78 F2120000 		.4byte	.LASF443
 7482 2b7c F2120000 		.4byte	.LASF443
 7483 2b80 17       		.byte	0x17
 7484 2b81 2E       		.byte	0x2e
 7485 2b82 48       		.uleb128 0x48
 7486 2b83 17040000 		.4byte	.LASF444
 7487 2b87 17040000 		.4byte	.LASF444
 7488 2b8b 19       		.byte	0x19
 7489 2b8c 1E01     		.2byte	0x11e
 7490 2b8e 49       		.uleb128 0x49
 7491 2b8f 16030000 		.4byte	.LASF445
 7492 2b93 16030000 		.4byte	.LASF445
 7493 2b97 1C       		.byte	0x1c
 7494 2b98 3A       		.byte	0x3a
 7495 2b99 49       		.uleb128 0x49
 7496 2b9a 2A170000 		.4byte	.LASF446
 7497 2b9e 2A170000 		.4byte	.LASF446
 7498 2ba2 1D       		.byte	0x1d
 7499 2ba3 55       		.byte	0x55
 7500 2ba4 49       		.uleb128 0x49
 7501 2ba5 5B0F0000 		.4byte	.LASF447
 7502 2ba9 5B0F0000 		.4byte	.LASF447
 7503 2bad 03       		.byte	0x3
 7504 2bae 2E       		.byte	0x2e
 7505 2baf 49       		.uleb128 0x49
 7506 2bb0 3F140000 		.4byte	.LASF448
 7507 2bb4 3F140000 		.4byte	.LASF448
 7508 2bb8 13       		.byte	0x13
 7509 2bb9 31       		.byte	0x31
 7510 2bba 48       		.uleb128 0x48
 7511 2bbb 5C190000 		.4byte	.LASF449
 7512 2bbf 5C190000 		.4byte	.LASF449
 7513 2bc3 1E       		.byte	0x1e
 7514 2bc4 1902     		.2byte	0x219
ARM GAS  C:\Users\gab_1\AppData\Local\Temp\ccTtYdci.s 			page 196


 7515 2bc6 48       		.uleb128 0x48
 7516 2bc7 08170000 		.4byte	.LASF450
 7517 2bcb 08170000 		.4byte	.LASF450
 7518 2bcf 18       		.byte	0x18
 7519 2bd0 4101     		.2byte	0x141
 7520 2bd2 48       		.uleb128 0x48
 7521 2bd3 5D0D0000 		.4byte	.LASF451
 7522 2bd7 5D0D0000 		.4byte	.LASF451
 7523 2bdb 18       		.byte	0x18
 7524 2bdc 8E04     		.2byte	0x48e
 7525 2bde 49       		.uleb128 0x49
 7526 2bdf EA030000 		.4byte	.LASF452
 7527 2be3 EA030000 		.4byte	.LASF452
 7528 2be7 1D       		.byte	0x1d
 7529 2be8 56       		.byte	0x56
 7530 2be9 00       		.byte	0
 7531              		.section	.debug_abbrev,"",%progbits
 7532              	.Ldebug_abbrev0:
 7533 0000 01       		.uleb128 0x1
 7534 0001 11       		.uleb128 0x11
 7535 0002 01       		.byte	0x1
 7536 0003 25       		.uleb128 0x25
 7537 0004 0E       		.uleb128 0xe
 7538 0005 13       		.uleb128 0x13
 7539 0006 0B       		.uleb128 0xb
 7540 0007 03       		.uleb128 0x3
 7541 0008 0E       		.uleb128 0xe
 7542 0009 1B       		.uleb128 0x1b
 7543 000a 0E       		.uleb128 0xe
 7544 000b 55       		.uleb128 0x55
 7545 000c 17       		.uleb128 0x17
 7546 000d 11       		.uleb128 0x11
 7547 000e 01       		.uleb128 0x1
 7548 000f 10       		.uleb128 0x10
 7549 0010 17       		.uleb128 0x17
 7550 0011 00       		.byte	0
 7551 0012 00       		.byte	0
 7552 0013 02       		.uleb128 0x2
 7553 0014 24       		.uleb128 0x24
 7554 0015 00       		.byte	0
 7555 0016 0B       		.uleb128 0xb
 7556 0017 0B       		.uleb128 0xb
 7557 0018 3E       		.uleb128 0x3e
 7558 0019 0B       		.uleb128 0xb
 7559 001a 03       		.uleb128 0x3
 7560 001b 0E       		.uleb128 0xe
 7561 001c 00       		.byte	0
 7562 001d 00       		.byte	0
 7563 001e 03       		.uleb128 0x3
 7564 001f 16       		.uleb128 0x16
 7565 0020 00       		.byte	0
 7566 0021 03       		.uleb128 0x3
 7567 0022 0E       		.uleb128 0xe
 7568 0023 3A       		.uleb128 0x3a
 7569 0024 0B       		.uleb128 0xb
 7570 0025 3B       		.uleb128 0x3b
 7571 0026 0B       		.uleb128 0xb
ARM GAS  C:\Users\gab_1\AppData\Local\Temp\ccTtYdci.s 			page 197


 7572 0027 49       		.uleb128 0x49
 7573 0028 13       		.uleb128 0x13
 7574 0029 00       		.byte	0
 7575 002a 00       		.byte	0
 7576 002b 04       		.uleb128 0x4
 7577 002c 24       		.uleb128 0x24
 7578 002d 00       		.byte	0
 7579 002e 0B       		.uleb128 0xb
 7580 002f 0B       		.uleb128 0xb
 7581 0030 3E       		.uleb128 0x3e
 7582 0031 0B       		.uleb128 0xb
 7583 0032 03       		.uleb128 0x3
 7584 0033 08       		.uleb128 0x8
 7585 0034 00       		.byte	0
 7586 0035 00       		.byte	0
 7587 0036 05       		.uleb128 0x5
 7588 0037 35       		.uleb128 0x35
 7589 0038 00       		.byte	0
 7590 0039 49       		.uleb128 0x49
 7591 003a 13       		.uleb128 0x13
 7592 003b 00       		.byte	0
 7593 003c 00       		.byte	0
 7594 003d 06       		.uleb128 0x6
 7595 003e 26       		.uleb128 0x26
 7596 003f 00       		.byte	0
 7597 0040 49       		.uleb128 0x49
 7598 0041 13       		.uleb128 0x13
 7599 0042 00       		.byte	0
 7600 0043 00       		.byte	0
 7601 0044 07       		.uleb128 0x7
 7602 0045 01       		.uleb128 0x1
 7603 0046 01       		.byte	0x1
 7604 0047 49       		.uleb128 0x49
 7605 0048 13       		.uleb128 0x13
 7606 0049 01       		.uleb128 0x1
 7607 004a 13       		.uleb128 0x13
 7608 004b 00       		.byte	0
 7609 004c 00       		.byte	0
 7610 004d 08       		.uleb128 0x8
 7611 004e 21       		.uleb128 0x21
 7612 004f 00       		.byte	0
 7613 0050 49       		.uleb128 0x49
 7614 0051 13       		.uleb128 0x13
 7615 0052 2F       		.uleb128 0x2f
 7616 0053 0B       		.uleb128 0xb
 7617 0054 00       		.byte	0
 7618 0055 00       		.byte	0
 7619 0056 09       		.uleb128 0x9
 7620 0057 13       		.uleb128 0x13
 7621 0058 01       		.byte	0x1
 7622 0059 0B       		.uleb128 0xb
 7623 005a 0B       		.uleb128 0xb
 7624 005b 3A       		.uleb128 0x3a
 7625 005c 0B       		.uleb128 0xb
 7626 005d 3B       		.uleb128 0x3b
 7627 005e 0B       		.uleb128 0xb
 7628 005f 01       		.uleb128 0x1
ARM GAS  C:\Users\gab_1\AppData\Local\Temp\ccTtYdci.s 			page 198


 7629 0060 13       		.uleb128 0x13
 7630 0061 00       		.byte	0
 7631 0062 00       		.byte	0
 7632 0063 0A       		.uleb128 0xa
 7633 0064 0D       		.uleb128 0xd
 7634 0065 00       		.byte	0
 7635 0066 03       		.uleb128 0x3
 7636 0067 08       		.uleb128 0x8
 7637 0068 3A       		.uleb128 0x3a
 7638 0069 0B       		.uleb128 0xb
 7639 006a 3B       		.uleb128 0x3b
 7640 006b 0B       		.uleb128 0xb
 7641 006c 49       		.uleb128 0x49
 7642 006d 13       		.uleb128 0x13
 7643 006e 38       		.uleb128 0x38
 7644 006f 0B       		.uleb128 0xb
 7645 0070 00       		.byte	0
 7646 0071 00       		.byte	0
 7647 0072 0B       		.uleb128 0xb
 7648 0073 0D       		.uleb128 0xd
 7649 0074 00       		.byte	0
 7650 0075 03       		.uleb128 0x3
 7651 0076 0E       		.uleb128 0xe
 7652 0077 3A       		.uleb128 0x3a
 7653 0078 0B       		.uleb128 0xb
 7654 0079 3B       		.uleb128 0x3b
 7655 007a 0B       		.uleb128 0xb
 7656 007b 49       		.uleb128 0x49
 7657 007c 13       		.uleb128 0x13
 7658 007d 38       		.uleb128 0x38
 7659 007e 0B       		.uleb128 0xb
 7660 007f 00       		.byte	0
 7661 0080 00       		.byte	0
 7662 0081 0C       		.uleb128 0xc
 7663 0082 13       		.uleb128 0x13
 7664 0083 01       		.byte	0x1
 7665 0084 0B       		.uleb128 0xb
 7666 0085 05       		.uleb128 0x5
 7667 0086 3A       		.uleb128 0x3a
 7668 0087 0B       		.uleb128 0xb
 7669 0088 3B       		.uleb128 0x3b
 7670 0089 0B       		.uleb128 0xb
 7671 008a 01       		.uleb128 0x1
 7672 008b 13       		.uleb128 0x13
 7673 008c 00       		.byte	0
 7674 008d 00       		.byte	0
 7675 008e 0D       		.uleb128 0xd
 7676 008f 0D       		.uleb128 0xd
 7677 0090 00       		.byte	0
 7678 0091 03       		.uleb128 0x3
 7679 0092 0E       		.uleb128 0xe
 7680 0093 3A       		.uleb128 0x3a
 7681 0094 0B       		.uleb128 0xb
 7682 0095 3B       		.uleb128 0x3b
 7683 0096 0B       		.uleb128 0xb
 7684 0097 49       		.uleb128 0x49
 7685 0098 13       		.uleb128 0x13
ARM GAS  C:\Users\gab_1\AppData\Local\Temp\ccTtYdci.s 			page 199


 7686 0099 38       		.uleb128 0x38
 7687 009a 05       		.uleb128 0x5
 7688 009b 00       		.byte	0
 7689 009c 00       		.byte	0
 7690 009d 0E       		.uleb128 0xe
 7691 009e 21       		.uleb128 0x21
 7692 009f 00       		.byte	0
 7693 00a0 49       		.uleb128 0x49
 7694 00a1 13       		.uleb128 0x13
 7695 00a2 2F       		.uleb128 0x2f
 7696 00a3 05       		.uleb128 0x5
 7697 00a4 00       		.byte	0
 7698 00a5 00       		.byte	0
 7699 00a6 0F       		.uleb128 0xf
 7700 00a7 16       		.uleb128 0x16
 7701 00a8 00       		.byte	0
 7702 00a9 03       		.uleb128 0x3
 7703 00aa 0E       		.uleb128 0xe
 7704 00ab 3A       		.uleb128 0x3a
 7705 00ac 0B       		.uleb128 0xb
 7706 00ad 3B       		.uleb128 0x3b
 7707 00ae 05       		.uleb128 0x5
 7708 00af 49       		.uleb128 0x49
 7709 00b0 13       		.uleb128 0x13
 7710 00b1 00       		.byte	0
 7711 00b2 00       		.byte	0
 7712 00b3 10       		.uleb128 0x10
 7713 00b4 0F       		.uleb128 0xf
 7714 00b5 00       		.byte	0
 7715 00b6 0B       		.uleb128 0xb
 7716 00b7 0B       		.uleb128 0xb
 7717 00b8 49       		.uleb128 0x49
 7718 00b9 13       		.uleb128 0x13
 7719 00ba 00       		.byte	0
 7720 00bb 00       		.byte	0
 7721 00bc 11       		.uleb128 0x11
 7722 00bd 0F       		.uleb128 0xf
 7723 00be 00       		.byte	0
 7724 00bf 0B       		.uleb128 0xb
 7725 00c0 0B       		.uleb128 0xb
 7726 00c1 00       		.byte	0
 7727 00c2 00       		.byte	0
 7728 00c3 12       		.uleb128 0x12
 7729 00c4 04       		.uleb128 0x4
 7730 00c5 01       		.byte	0x1
 7731 00c6 0B       		.uleb128 0xb
 7732 00c7 0B       		.uleb128 0xb
 7733 00c8 49       		.uleb128 0x49
 7734 00c9 13       		.uleb128 0x13
 7735 00ca 3A       		.uleb128 0x3a
 7736 00cb 0B       		.uleb128 0xb
 7737 00cc 3B       		.uleb128 0x3b
 7738 00cd 05       		.uleb128 0x5
 7739 00ce 01       		.uleb128 0x1
 7740 00cf 13       		.uleb128 0x13
 7741 00d0 00       		.byte	0
 7742 00d1 00       		.byte	0
ARM GAS  C:\Users\gab_1\AppData\Local\Temp\ccTtYdci.s 			page 200


 7743 00d2 13       		.uleb128 0x13
 7744 00d3 28       		.uleb128 0x28
 7745 00d4 00       		.byte	0
 7746 00d5 03       		.uleb128 0x3
 7747 00d6 0E       		.uleb128 0xe
 7748 00d7 1C       		.uleb128 0x1c
 7749 00d8 0B       		.uleb128 0xb
 7750 00d9 00       		.byte	0
 7751 00da 00       		.byte	0
 7752 00db 14       		.uleb128 0x14
 7753 00dc 28       		.uleb128 0x28
 7754 00dd 00       		.byte	0
 7755 00de 03       		.uleb128 0x3
 7756 00df 0E       		.uleb128 0xe
 7757 00e0 1C       		.uleb128 0x1c
 7758 00e1 06       		.uleb128 0x6
 7759 00e2 00       		.byte	0
 7760 00e3 00       		.byte	0
 7761 00e4 15       		.uleb128 0x15
 7762 00e5 15       		.uleb128 0x15
 7763 00e6 01       		.byte	0x1
 7764 00e7 27       		.uleb128 0x27
 7765 00e8 19       		.uleb128 0x19
 7766 00e9 01       		.uleb128 0x1
 7767 00ea 13       		.uleb128 0x13
 7768 00eb 00       		.byte	0
 7769 00ec 00       		.byte	0
 7770 00ed 16       		.uleb128 0x16
 7771 00ee 05       		.uleb128 0x5
 7772 00ef 00       		.byte	0
 7773 00f0 49       		.uleb128 0x49
 7774 00f1 13       		.uleb128 0x13
 7775 00f2 00       		.byte	0
 7776 00f3 00       		.byte	0
 7777 00f4 17       		.uleb128 0x17
 7778 00f5 15       		.uleb128 0x15
 7779 00f6 01       		.byte	0x1
 7780 00f7 27       		.uleb128 0x27
 7781 00f8 19       		.uleb128 0x19
 7782 00f9 49       		.uleb128 0x49
 7783 00fa 13       		.uleb128 0x13
 7784 00fb 01       		.uleb128 0x1
 7785 00fc 13       		.uleb128 0x13
 7786 00fd 00       		.byte	0
 7787 00fe 00       		.byte	0
 7788 00ff 18       		.uleb128 0x18
 7789 0100 13       		.uleb128 0x13
 7790 0101 01       		.byte	0x1
 7791 0102 03       		.uleb128 0x3
 7792 0103 0E       		.uleb128 0xe
 7793 0104 0B       		.uleb128 0xb
 7794 0105 0B       		.uleb128 0xb
 7795 0106 3A       		.uleb128 0x3a
 7796 0107 0B       		.uleb128 0xb
 7797 0108 3B       		.uleb128 0x3b
 7798 0109 05       		.uleb128 0x5
 7799 010a 01       		.uleb128 0x1
ARM GAS  C:\Users\gab_1\AppData\Local\Temp\ccTtYdci.s 			page 201


 7800 010b 13       		.uleb128 0x13
 7801 010c 00       		.byte	0
 7802 010d 00       		.byte	0
 7803 010e 19       		.uleb128 0x19
 7804 010f 0D       		.uleb128 0xd
 7805 0110 00       		.byte	0
 7806 0111 03       		.uleb128 0x3
 7807 0112 0E       		.uleb128 0xe
 7808 0113 3A       		.uleb128 0x3a
 7809 0114 0B       		.uleb128 0xb
 7810 0115 3B       		.uleb128 0x3b
 7811 0116 05       		.uleb128 0x5
 7812 0117 49       		.uleb128 0x49
 7813 0118 13       		.uleb128 0x13
 7814 0119 38       		.uleb128 0x38
 7815 011a 0B       		.uleb128 0xb
 7816 011b 00       		.byte	0
 7817 011c 00       		.byte	0
 7818 011d 1A       		.uleb128 0x1a
 7819 011e 13       		.uleb128 0x13
 7820 011f 01       		.byte	0x1
 7821 0120 03       		.uleb128 0x3
 7822 0121 0E       		.uleb128 0xe
 7823 0122 0B       		.uleb128 0xb
 7824 0123 0B       		.uleb128 0xb
 7825 0124 3A       		.uleb128 0x3a
 7826 0125 0B       		.uleb128 0xb
 7827 0126 3B       		.uleb128 0x3b
 7828 0127 0B       		.uleb128 0xb
 7829 0128 01       		.uleb128 0x1
 7830 0129 13       		.uleb128 0x13
 7831 012a 00       		.byte	0
 7832 012b 00       		.byte	0
 7833 012c 1B       		.uleb128 0x1b
 7834 012d 13       		.uleb128 0x13
 7835 012e 01       		.byte	0x1
 7836 012f 0B       		.uleb128 0xb
 7837 0130 0B       		.uleb128 0xb
 7838 0131 3A       		.uleb128 0x3a
 7839 0132 0B       		.uleb128 0xb
 7840 0133 3B       		.uleb128 0x3b
 7841 0134 05       		.uleb128 0x5
 7842 0135 01       		.uleb128 0x1
 7843 0136 13       		.uleb128 0x13
 7844 0137 00       		.byte	0
 7845 0138 00       		.byte	0
 7846 0139 1C       		.uleb128 0x1c
 7847 013a 0D       		.uleb128 0xd
 7848 013b 00       		.byte	0
 7849 013c 03       		.uleb128 0x3
 7850 013d 08       		.uleb128 0x8
 7851 013e 3A       		.uleb128 0x3a
 7852 013f 0B       		.uleb128 0xb
 7853 0140 3B       		.uleb128 0x3b
 7854 0141 05       		.uleb128 0x5
 7855 0142 49       		.uleb128 0x49
 7856 0143 13       		.uleb128 0x13
ARM GAS  C:\Users\gab_1\AppData\Local\Temp\ccTtYdci.s 			page 202


 7857 0144 38       		.uleb128 0x38
 7858 0145 0B       		.uleb128 0xb
 7859 0146 00       		.byte	0
 7860 0147 00       		.byte	0
 7861 0148 1D       		.uleb128 0x1d
 7862 0149 04       		.uleb128 0x4
 7863 014a 01       		.byte	0x1
 7864 014b 03       		.uleb128 0x3
 7865 014c 0E       		.uleb128 0xe
 7866 014d 0B       		.uleb128 0xb
 7867 014e 0B       		.uleb128 0xb
 7868 014f 49       		.uleb128 0x49
 7869 0150 13       		.uleb128 0x13
 7870 0151 3A       		.uleb128 0x3a
 7871 0152 0B       		.uleb128 0xb
 7872 0153 3B       		.uleb128 0x3b
 7873 0154 05       		.uleb128 0x5
 7874 0155 01       		.uleb128 0x1
 7875 0156 13       		.uleb128 0x13
 7876 0157 00       		.byte	0
 7877 0158 00       		.byte	0
 7878 0159 1E       		.uleb128 0x1e
 7879 015a 0D       		.uleb128 0xd
 7880 015b 00       		.byte	0
 7881 015c 03       		.uleb128 0x3
 7882 015d 0E       		.uleb128 0xe
 7883 015e 3A       		.uleb128 0x3a
 7884 015f 0B       		.uleb128 0xb
 7885 0160 3B       		.uleb128 0x3b
 7886 0161 05       		.uleb128 0x5
 7887 0162 49       		.uleb128 0x49
 7888 0163 13       		.uleb128 0x13
 7889 0164 0B       		.uleb128 0xb
 7890 0165 0B       		.uleb128 0xb
 7891 0166 0D       		.uleb128 0xd
 7892 0167 0B       		.uleb128 0xb
 7893 0168 0C       		.uleb128 0xc
 7894 0169 0B       		.uleb128 0xb
 7895 016a 38       		.uleb128 0x38
 7896 016b 0B       		.uleb128 0xb
 7897 016c 00       		.byte	0
 7898 016d 00       		.byte	0
 7899 016e 1F       		.uleb128 0x1f
 7900 016f 28       		.uleb128 0x28
 7901 0170 00       		.byte	0
 7902 0171 03       		.uleb128 0x3
 7903 0172 0E       		.uleb128 0xe
 7904 0173 1C       		.uleb128 0x1c
 7905 0174 0D       		.uleb128 0xd
 7906 0175 00       		.byte	0
 7907 0176 00       		.byte	0
 7908 0177 20       		.uleb128 0x20
 7909 0178 2E       		.uleb128 0x2e
 7910 0179 01       		.byte	0x1
 7911 017a 03       		.uleb128 0x3
 7912 017b 0E       		.uleb128 0xe
 7913 017c 3A       		.uleb128 0x3a
ARM GAS  C:\Users\gab_1\AppData\Local\Temp\ccTtYdci.s 			page 203


 7914 017d 0B       		.uleb128 0xb
 7915 017e 3B       		.uleb128 0x3b
 7916 017f 05       		.uleb128 0x5
 7917 0180 27       		.uleb128 0x27
 7918 0181 19       		.uleb128 0x19
 7919 0182 49       		.uleb128 0x49
 7920 0183 13       		.uleb128 0x13
 7921 0184 20       		.uleb128 0x20
 7922 0185 0B       		.uleb128 0xb
 7923 0186 01       		.uleb128 0x1
 7924 0187 13       		.uleb128 0x13
 7925 0188 00       		.byte	0
 7926 0189 00       		.byte	0
 7927 018a 21       		.uleb128 0x21
 7928 018b 05       		.uleb128 0x5
 7929 018c 00       		.byte	0
 7930 018d 03       		.uleb128 0x3
 7931 018e 0E       		.uleb128 0xe
 7932 018f 3A       		.uleb128 0x3a
 7933 0190 0B       		.uleb128 0xb
 7934 0191 3B       		.uleb128 0x3b
 7935 0192 05       		.uleb128 0x5
 7936 0193 49       		.uleb128 0x49
 7937 0194 13       		.uleb128 0x13
 7938 0195 00       		.byte	0
 7939 0196 00       		.byte	0
 7940 0197 22       		.uleb128 0x22
 7941 0198 2E       		.uleb128 0x2e
 7942 0199 01       		.byte	0x1
 7943 019a 03       		.uleb128 0x3
 7944 019b 0E       		.uleb128 0xe
 7945 019c 3A       		.uleb128 0x3a
 7946 019d 0B       		.uleb128 0xb
 7947 019e 3B       		.uleb128 0x3b
 7948 019f 05       		.uleb128 0x5
 7949 01a0 27       		.uleb128 0x27
 7950 01a1 19       		.uleb128 0x19
 7951 01a2 20       		.uleb128 0x20
 7952 01a3 0B       		.uleb128 0xb
 7953 01a4 01       		.uleb128 0x1
 7954 01a5 13       		.uleb128 0x13
 7955 01a6 00       		.byte	0
 7956 01a7 00       		.byte	0
 7957 01a8 23       		.uleb128 0x23
 7958 01a9 2E       		.uleb128 0x2e
 7959 01aa 00       		.byte	0
 7960 01ab 03       		.uleb128 0x3
 7961 01ac 0E       		.uleb128 0xe
 7962 01ad 3A       		.uleb128 0x3a
 7963 01ae 0B       		.uleb128 0xb
 7964 01af 3B       		.uleb128 0x3b
 7965 01b0 0B       		.uleb128 0xb
 7966 01b1 27       		.uleb128 0x27
 7967 01b2 19       		.uleb128 0x19
 7968 01b3 20       		.uleb128 0x20
 7969 01b4 0B       		.uleb128 0xb
 7970 01b5 00       		.byte	0
ARM GAS  C:\Users\gab_1\AppData\Local\Temp\ccTtYdci.s 			page 204


 7971 01b6 00       		.byte	0
 7972 01b7 24       		.uleb128 0x24
 7973 01b8 2E       		.uleb128 0x2e
 7974 01b9 01       		.byte	0x1
 7975 01ba 03       		.uleb128 0x3
 7976 01bb 0E       		.uleb128 0xe
 7977 01bc 3A       		.uleb128 0x3a
 7978 01bd 0B       		.uleb128 0xb
 7979 01be 3B       		.uleb128 0x3b
 7980 01bf 0B       		.uleb128 0xb
 7981 01c0 27       		.uleb128 0x27
 7982 01c1 19       		.uleb128 0x19
 7983 01c2 11       		.uleb128 0x11
 7984 01c3 01       		.uleb128 0x1
 7985 01c4 12       		.uleb128 0x12
 7986 01c5 06       		.uleb128 0x6
 7987 01c6 40       		.uleb128 0x40
 7988 01c7 18       		.uleb128 0x18
 7989 01c8 9742     		.uleb128 0x2117
 7990 01ca 19       		.uleb128 0x19
 7991 01cb 01       		.uleb128 0x1
 7992 01cc 13       		.uleb128 0x13
 7993 01cd 00       		.byte	0
 7994 01ce 00       		.byte	0
 7995 01cf 25       		.uleb128 0x25
 7996 01d0 34       		.uleb128 0x34
 7997 01d1 00       		.byte	0
 7998 01d2 03       		.uleb128 0x3
 7999 01d3 0E       		.uleb128 0xe
 8000 01d4 3A       		.uleb128 0x3a
 8001 01d5 0B       		.uleb128 0xb
 8002 01d6 3B       		.uleb128 0x3b
 8003 01d7 0B       		.uleb128 0xb
 8004 01d8 49       		.uleb128 0x49
 8005 01d9 13       		.uleb128 0x13
 8006 01da 02       		.uleb128 0x2
 8007 01db 17       		.uleb128 0x17
 8008 01dc 00       		.byte	0
 8009 01dd 00       		.byte	0
 8010 01de 26       		.uleb128 0x26
 8011 01df 898201   		.uleb128 0x4109
 8012 01e2 01       		.byte	0x1
 8013 01e3 11       		.uleb128 0x11
 8014 01e4 01       		.uleb128 0x1
 8015 01e5 31       		.uleb128 0x31
 8016 01e6 13       		.uleb128 0x13
 8017 01e7 01       		.uleb128 0x1
 8018 01e8 13       		.uleb128 0x13
 8019 01e9 00       		.byte	0
 8020 01ea 00       		.byte	0
 8021 01eb 27       		.uleb128 0x27
 8022 01ec 8A8201   		.uleb128 0x410a
 8023 01ef 00       		.byte	0
 8024 01f0 02       		.uleb128 0x2
 8025 01f1 18       		.uleb128 0x18
 8026 01f2 9142     		.uleb128 0x2111
 8027 01f4 18       		.uleb128 0x18
ARM GAS  C:\Users\gab_1\AppData\Local\Temp\ccTtYdci.s 			page 205


 8028 01f5 00       		.byte	0
 8029 01f6 00       		.byte	0
 8030 01f7 28       		.uleb128 0x28
 8031 01f8 898201   		.uleb128 0x4109
 8032 01fb 01       		.byte	0x1
 8033 01fc 11       		.uleb128 0x11
 8034 01fd 01       		.uleb128 0x1
 8035 01fe 01       		.uleb128 0x1
 8036 01ff 13       		.uleb128 0x13
 8037 0200 00       		.byte	0
 8038 0201 00       		.byte	0
 8039 0202 29       		.uleb128 0x29
 8040 0203 898201   		.uleb128 0x4109
 8041 0206 01       		.byte	0x1
 8042 0207 11       		.uleb128 0x11
 8043 0208 01       		.uleb128 0x1
 8044 0209 31       		.uleb128 0x31
 8045 020a 13       		.uleb128 0x13
 8046 020b 00       		.byte	0
 8047 020c 00       		.byte	0
 8048 020d 2A       		.uleb128 0x2a
 8049 020e 2E       		.uleb128 0x2e
 8050 020f 01       		.byte	0x1
 8051 0210 03       		.uleb128 0x3
 8052 0211 0E       		.uleb128 0xe
 8053 0212 3A       		.uleb128 0x3a
 8054 0213 0B       		.uleb128 0xb
 8055 0214 3B       		.uleb128 0x3b
 8056 0215 0B       		.uleb128 0xb
 8057 0216 27       		.uleb128 0x27
 8058 0217 19       		.uleb128 0x19
 8059 0218 49       		.uleb128 0x49
 8060 0219 13       		.uleb128 0x13
 8061 021a 11       		.uleb128 0x11
 8062 021b 01       		.uleb128 0x1
 8063 021c 12       		.uleb128 0x12
 8064 021d 06       		.uleb128 0x6
 8065 021e 40       		.uleb128 0x40
 8066 021f 18       		.uleb128 0x18
 8067 0220 9742     		.uleb128 0x2117
 8068 0222 19       		.uleb128 0x19
 8069 0223 01       		.uleb128 0x1
 8070 0224 13       		.uleb128 0x13
 8071 0225 00       		.byte	0
 8072 0226 00       		.byte	0
 8073 0227 2B       		.uleb128 0x2b
 8074 0228 05       		.uleb128 0x5
 8075 0229 00       		.byte	0
 8076 022a 03       		.uleb128 0x3
 8077 022b 0E       		.uleb128 0xe
 8078 022c 3A       		.uleb128 0x3a
 8079 022d 0B       		.uleb128 0xb
 8080 022e 3B       		.uleb128 0x3b
 8081 022f 0B       		.uleb128 0xb
 8082 0230 49       		.uleb128 0x49
 8083 0231 13       		.uleb128 0x13
 8084 0232 02       		.uleb128 0x2
ARM GAS  C:\Users\gab_1\AppData\Local\Temp\ccTtYdci.s 			page 206


 8085 0233 17       		.uleb128 0x17
 8086 0234 00       		.byte	0
 8087 0235 00       		.byte	0
 8088 0236 2C       		.uleb128 0x2c
 8089 0237 05       		.uleb128 0x5
 8090 0238 00       		.byte	0
 8091 0239 03       		.uleb128 0x3
 8092 023a 08       		.uleb128 0x8
 8093 023b 3A       		.uleb128 0x3a
 8094 023c 0B       		.uleb128 0xb
 8095 023d 3B       		.uleb128 0x3b
 8096 023e 0B       		.uleb128 0xb
 8097 023f 49       		.uleb128 0x49
 8098 0240 13       		.uleb128 0x13
 8099 0241 02       		.uleb128 0x2
 8100 0242 17       		.uleb128 0x17
 8101 0243 00       		.byte	0
 8102 0244 00       		.byte	0
 8103 0245 2D       		.uleb128 0x2d
 8104 0246 0B       		.uleb128 0xb
 8105 0247 01       		.byte	0x1
 8106 0248 11       		.uleb128 0x11
 8107 0249 01       		.uleb128 0x1
 8108 024a 12       		.uleb128 0x12
 8109 024b 06       		.uleb128 0x6
 8110 024c 01       		.uleb128 0x1
 8111 024d 13       		.uleb128 0x13
 8112 024e 00       		.byte	0
 8113 024f 00       		.byte	0
 8114 0250 2E       		.uleb128 0x2e
 8115 0251 34       		.uleb128 0x34
 8116 0252 00       		.byte	0
 8117 0253 03       		.uleb128 0x3
 8118 0254 08       		.uleb128 0x8
 8119 0255 3A       		.uleb128 0x3a
 8120 0256 0B       		.uleb128 0xb
 8121 0257 3B       		.uleb128 0x3b
 8122 0258 0B       		.uleb128 0xb
 8123 0259 49       		.uleb128 0x49
 8124 025a 13       		.uleb128 0x13
 8125 025b 02       		.uleb128 0x2
 8126 025c 17       		.uleb128 0x17
 8127 025d 00       		.byte	0
 8128 025e 00       		.byte	0
 8129 025f 2F       		.uleb128 0x2f
 8130 0260 2E       		.uleb128 0x2e
 8131 0261 01       		.byte	0x1
 8132 0262 3F       		.uleb128 0x3f
 8133 0263 19       		.uleb128 0x19
 8134 0264 03       		.uleb128 0x3
 8135 0265 0E       		.uleb128 0xe
 8136 0266 3A       		.uleb128 0x3a
 8137 0267 0B       		.uleb128 0xb
 8138 0268 3B       		.uleb128 0x3b
 8139 0269 0B       		.uleb128 0xb
 8140 026a 27       		.uleb128 0x27
 8141 026b 19       		.uleb128 0x19
ARM GAS  C:\Users\gab_1\AppData\Local\Temp\ccTtYdci.s 			page 207


 8142 026c 49       		.uleb128 0x49
 8143 026d 13       		.uleb128 0x13
 8144 026e 11       		.uleb128 0x11
 8145 026f 01       		.uleb128 0x1
 8146 0270 12       		.uleb128 0x12
 8147 0271 06       		.uleb128 0x6
 8148 0272 40       		.uleb128 0x40
 8149 0273 18       		.uleb128 0x18
 8150 0274 9742     		.uleb128 0x2117
 8151 0276 19       		.uleb128 0x19
 8152 0277 01       		.uleb128 0x1
 8153 0278 13       		.uleb128 0x13
 8154 0279 00       		.byte	0
 8155 027a 00       		.byte	0
 8156 027b 30       		.uleb128 0x30
 8157 027c 34       		.uleb128 0x34
 8158 027d 00       		.byte	0
 8159 027e 03       		.uleb128 0x3
 8160 027f 0E       		.uleb128 0xe
 8161 0280 3A       		.uleb128 0x3a
 8162 0281 0B       		.uleb128 0xb
 8163 0282 3B       		.uleb128 0x3b
 8164 0283 0B       		.uleb128 0xb
 8165 0284 49       		.uleb128 0x49
 8166 0285 13       		.uleb128 0x13
 8167 0286 02       		.uleb128 0x2
 8168 0287 18       		.uleb128 0x18
 8169 0288 00       		.byte	0
 8170 0289 00       		.byte	0
 8171 028a 31       		.uleb128 0x31
 8172 028b 1D       		.uleb128 0x1d
 8173 028c 01       		.byte	0x1
 8174 028d 31       		.uleb128 0x31
 8175 028e 13       		.uleb128 0x13
 8176 028f 11       		.uleb128 0x11
 8177 0290 01       		.uleb128 0x1
 8178 0291 12       		.uleb128 0x12
 8179 0292 06       		.uleb128 0x6
 8180 0293 58       		.uleb128 0x58
 8181 0294 0B       		.uleb128 0xb
 8182 0295 59       		.uleb128 0x59
 8183 0296 0B       		.uleb128 0xb
 8184 0297 01       		.uleb128 0x1
 8185 0298 13       		.uleb128 0x13
 8186 0299 00       		.byte	0
 8187 029a 00       		.byte	0
 8188 029b 32       		.uleb128 0x32
 8189 029c 05       		.uleb128 0x5
 8190 029d 00       		.byte	0
 8191 029e 31       		.uleb128 0x31
 8192 029f 13       		.uleb128 0x13
 8193 02a0 02       		.uleb128 0x2
 8194 02a1 17       		.uleb128 0x17
 8195 02a2 00       		.byte	0
 8196 02a3 00       		.byte	0
 8197 02a4 33       		.uleb128 0x33
 8198 02a5 1D       		.uleb128 0x1d
ARM GAS  C:\Users\gab_1\AppData\Local\Temp\ccTtYdci.s 			page 208


 8199 02a6 01       		.byte	0x1
 8200 02a7 31       		.uleb128 0x31
 8201 02a8 13       		.uleb128 0x13
 8202 02a9 11       		.uleb128 0x11
 8203 02aa 01       		.uleb128 0x1
 8204 02ab 12       		.uleb128 0x12
 8205 02ac 06       		.uleb128 0x6
 8206 02ad 58       		.uleb128 0x58
 8207 02ae 0B       		.uleb128 0xb
 8208 02af 59       		.uleb128 0x59
 8209 02b0 0B       		.uleb128 0xb
 8210 02b1 00       		.byte	0
 8211 02b2 00       		.byte	0
 8212 02b3 34       		.uleb128 0x34
 8213 02b4 2E       		.uleb128 0x2e
 8214 02b5 01       		.byte	0x1
 8215 02b6 3F       		.uleb128 0x3f
 8216 02b7 19       		.uleb128 0x19
 8217 02b8 03       		.uleb128 0x3
 8218 02b9 0E       		.uleb128 0xe
 8219 02ba 3A       		.uleb128 0x3a
 8220 02bb 0B       		.uleb128 0xb
 8221 02bc 3B       		.uleb128 0x3b
 8222 02bd 0B       		.uleb128 0xb
 8223 02be 27       		.uleb128 0x27
 8224 02bf 19       		.uleb128 0x19
 8225 02c0 11       		.uleb128 0x11
 8226 02c1 01       		.uleb128 0x1
 8227 02c2 12       		.uleb128 0x12
 8228 02c3 06       		.uleb128 0x6
 8229 02c4 40       		.uleb128 0x40
 8230 02c5 18       		.uleb128 0x18
 8231 02c6 9742     		.uleb128 0x2117
 8232 02c8 19       		.uleb128 0x19
 8233 02c9 01       		.uleb128 0x1
 8234 02ca 13       		.uleb128 0x13
 8235 02cb 00       		.byte	0
 8236 02cc 00       		.byte	0
 8237 02cd 35       		.uleb128 0x35
 8238 02ce 1D       		.uleb128 0x1d
 8239 02cf 01       		.byte	0x1
 8240 02d0 31       		.uleb128 0x31
 8241 02d1 13       		.uleb128 0x13
 8242 02d2 11       		.uleb128 0x11
 8243 02d3 01       		.uleb128 0x1
 8244 02d4 12       		.uleb128 0x12
 8245 02d5 06       		.uleb128 0x6
 8246 02d6 58       		.uleb128 0x58
 8247 02d7 0B       		.uleb128 0xb
 8248 02d8 59       		.uleb128 0x59
 8249 02d9 05       		.uleb128 0x5
 8250 02da 00       		.byte	0
 8251 02db 00       		.byte	0
 8252 02dc 36       		.uleb128 0x36
 8253 02dd 2E       		.uleb128 0x2e
 8254 02de 01       		.byte	0x1
 8255 02df 3F       		.uleb128 0x3f
ARM GAS  C:\Users\gab_1\AppData\Local\Temp\ccTtYdci.s 			page 209


 8256 02e0 19       		.uleb128 0x19
 8257 02e1 03       		.uleb128 0x3
 8258 02e2 0E       		.uleb128 0xe
 8259 02e3 3A       		.uleb128 0x3a
 8260 02e4 0B       		.uleb128 0xb
 8261 02e5 3B       		.uleb128 0x3b
 8262 02e6 0B       		.uleb128 0xb
 8263 02e7 49       		.uleb128 0x49
 8264 02e8 13       		.uleb128 0x13
 8265 02e9 11       		.uleb128 0x11
 8266 02ea 01       		.uleb128 0x1
 8267 02eb 12       		.uleb128 0x12
 8268 02ec 06       		.uleb128 0x6
 8269 02ed 40       		.uleb128 0x40
 8270 02ee 18       		.uleb128 0x18
 8271 02ef 9742     		.uleb128 0x2117
 8272 02f1 19       		.uleb128 0x19
 8273 02f2 01       		.uleb128 0x1
 8274 02f3 13       		.uleb128 0x13
 8275 02f4 00       		.byte	0
 8276 02f5 00       		.byte	0
 8277 02f6 37       		.uleb128 0x37
 8278 02f7 2E       		.uleb128 0x2e
 8279 02f8 01       		.byte	0x1
 8280 02f9 3F       		.uleb128 0x3f
 8281 02fa 19       		.uleb128 0x19
 8282 02fb 03       		.uleb128 0x3
 8283 02fc 0E       		.uleb128 0xe
 8284 02fd 3A       		.uleb128 0x3a
 8285 02fe 0B       		.uleb128 0xb
 8286 02ff 3B       		.uleb128 0x3b
 8287 0300 0B       		.uleb128 0xb
 8288 0301 27       		.uleb128 0x27
 8289 0302 19       		.uleb128 0x19
 8290 0303 11       		.uleb128 0x11
 8291 0304 01       		.uleb128 0x1
 8292 0305 12       		.uleb128 0x12
 8293 0306 06       		.uleb128 0x6
 8294 0307 40       		.uleb128 0x40
 8295 0308 18       		.uleb128 0x18
 8296 0309 9642     		.uleb128 0x2116
 8297 030b 19       		.uleb128 0x19
 8298 030c 01       		.uleb128 0x1
 8299 030d 13       		.uleb128 0x13
 8300 030e 00       		.byte	0
 8301 030f 00       		.byte	0
 8302 0310 38       		.uleb128 0x38
 8303 0311 34       		.uleb128 0x34
 8304 0312 00       		.byte	0
 8305 0313 03       		.uleb128 0x3
 8306 0314 0E       		.uleb128 0xe
 8307 0315 3A       		.uleb128 0x3a
 8308 0316 0B       		.uleb128 0xb
 8309 0317 3B       		.uleb128 0x3b
 8310 0318 05       		.uleb128 0x5
 8311 0319 49       		.uleb128 0x49
 8312 031a 13       		.uleb128 0x13
ARM GAS  C:\Users\gab_1\AppData\Local\Temp\ccTtYdci.s 			page 210


 8313 031b 02       		.uleb128 0x2
 8314 031c 18       		.uleb128 0x18
 8315 031d 00       		.byte	0
 8316 031e 00       		.byte	0
 8317 031f 39       		.uleb128 0x39
 8318 0320 34       		.uleb128 0x34
 8319 0321 00       		.byte	0
 8320 0322 03       		.uleb128 0x3
 8321 0323 0E       		.uleb128 0xe
 8322 0324 3A       		.uleb128 0x3a
 8323 0325 0B       		.uleb128 0xb
 8324 0326 3B       		.uleb128 0x3b
 8325 0327 05       		.uleb128 0x5
 8326 0328 49       		.uleb128 0x49
 8327 0329 13       		.uleb128 0x13
 8328 032a 02       		.uleb128 0x2
 8329 032b 17       		.uleb128 0x17
 8330 032c 00       		.byte	0
 8331 032d 00       		.byte	0
 8332 032e 3A       		.uleb128 0x3a
 8333 032f 34       		.uleb128 0x34
 8334 0330 00       		.byte	0
 8335 0331 03       		.uleb128 0x3
 8336 0332 08       		.uleb128 0x8
 8337 0333 3A       		.uleb128 0x3a
 8338 0334 0B       		.uleb128 0xb
 8339 0335 3B       		.uleb128 0x3b
 8340 0336 05       		.uleb128 0x5
 8341 0337 49       		.uleb128 0x49
 8342 0338 13       		.uleb128 0x13
 8343 0339 02       		.uleb128 0x2
 8344 033a 17       		.uleb128 0x17
 8345 033b 00       		.byte	0
 8346 033c 00       		.byte	0
 8347 033d 3B       		.uleb128 0x3b
 8348 033e 1D       		.uleb128 0x1d
 8349 033f 01       		.byte	0x1
 8350 0340 31       		.uleb128 0x31
 8351 0341 13       		.uleb128 0x13
 8352 0342 11       		.uleb128 0x11
 8353 0343 01       		.uleb128 0x1
 8354 0344 12       		.uleb128 0x12
 8355 0345 06       		.uleb128 0x6
 8356 0346 58       		.uleb128 0x58
 8357 0347 0B       		.uleb128 0xb
 8358 0348 59       		.uleb128 0x59
 8359 0349 05       		.uleb128 0x5
 8360 034a 01       		.uleb128 0x1
 8361 034b 13       		.uleb128 0x13
 8362 034c 00       		.byte	0
 8363 034d 00       		.byte	0
 8364 034e 3C       		.uleb128 0x3c
 8365 034f 2E       		.uleb128 0x2e
 8366 0350 01       		.byte	0x1
 8367 0351 3F       		.uleb128 0x3f
 8368 0352 19       		.uleb128 0x19
 8369 0353 03       		.uleb128 0x3
ARM GAS  C:\Users\gab_1\AppData\Local\Temp\ccTtYdci.s 			page 211


 8370 0354 0E       		.uleb128 0xe
 8371 0355 3A       		.uleb128 0x3a
 8372 0356 0B       		.uleb128 0xb
 8373 0357 3B       		.uleb128 0x3b
 8374 0358 0B       		.uleb128 0xb
 8375 0359 27       		.uleb128 0x27
 8376 035a 19       		.uleb128 0x19
 8377 035b 3C       		.uleb128 0x3c
 8378 035c 19       		.uleb128 0x19
 8379 035d 01       		.uleb128 0x1
 8380 035e 13       		.uleb128 0x13
 8381 035f 00       		.byte	0
 8382 0360 00       		.byte	0
 8383 0361 3D       		.uleb128 0x3d
 8384 0362 2E       		.uleb128 0x2e
 8385 0363 01       		.byte	0x1
 8386 0364 3F       		.uleb128 0x3f
 8387 0365 19       		.uleb128 0x19
 8388 0366 03       		.uleb128 0x3
 8389 0367 0E       		.uleb128 0xe
 8390 0368 3A       		.uleb128 0x3a
 8391 0369 0B       		.uleb128 0xb
 8392 036a 3B       		.uleb128 0x3b
 8393 036b 0B       		.uleb128 0xb
 8394 036c 49       		.uleb128 0x49
 8395 036d 13       		.uleb128 0x13
 8396 036e 3C       		.uleb128 0x3c
 8397 036f 19       		.uleb128 0x19
 8398 0370 01       		.uleb128 0x1
 8399 0371 13       		.uleb128 0x13
 8400 0372 00       		.byte	0
 8401 0373 00       		.byte	0
 8402 0374 3E       		.uleb128 0x3e
 8403 0375 18       		.uleb128 0x18
 8404 0376 00       		.byte	0
 8405 0377 00       		.byte	0
 8406 0378 00       		.byte	0
 8407 0379 3F       		.uleb128 0x3f
 8408 037a 898201   		.uleb128 0x4109
 8409 037d 00       		.byte	0
 8410 037e 11       		.uleb128 0x11
 8411 037f 01       		.uleb128 0x1
 8412 0380 31       		.uleb128 0x31
 8413 0381 13       		.uleb128 0x13
 8414 0382 00       		.byte	0
 8415 0383 00       		.byte	0
 8416 0384 40       		.uleb128 0x40
 8417 0385 2E       		.uleb128 0x2e
 8418 0386 01       		.byte	0x1
 8419 0387 3F       		.uleb128 0x3f
 8420 0388 19       		.uleb128 0x19
 8421 0389 03       		.uleb128 0x3
 8422 038a 0E       		.uleb128 0xe
 8423 038b 3A       		.uleb128 0x3a
 8424 038c 0B       		.uleb128 0xb
 8425 038d 3B       		.uleb128 0x3b
 8426 038e 0B       		.uleb128 0xb
ARM GAS  C:\Users\gab_1\AppData\Local\Temp\ccTtYdci.s 			page 212


 8427 038f 27       		.uleb128 0x27
 8428 0390 19       		.uleb128 0x19
 8429 0391 8701     		.uleb128 0x87
 8430 0393 19       		.uleb128 0x19
 8431 0394 11       		.uleb128 0x11
 8432 0395 01       		.uleb128 0x1
 8433 0396 12       		.uleb128 0x12
 8434 0397 06       		.uleb128 0x6
 8435 0398 40       		.uleb128 0x40
 8436 0399 18       		.uleb128 0x18
 8437 039a 9742     		.uleb128 0x2117
 8438 039c 19       		.uleb128 0x19
 8439 039d 01       		.uleb128 0x1
 8440 039e 13       		.uleb128 0x13
 8441 039f 00       		.byte	0
 8442 03a0 00       		.byte	0
 8443 03a1 41       		.uleb128 0x41
 8444 03a2 34       		.uleb128 0x34
 8445 03a3 00       		.byte	0
 8446 03a4 03       		.uleb128 0x3
 8447 03a5 08       		.uleb128 0x8
 8448 03a6 3A       		.uleb128 0x3a
 8449 03a7 0B       		.uleb128 0xb
 8450 03a8 3B       		.uleb128 0x3b
 8451 03a9 0B       		.uleb128 0xb
 8452 03aa 49       		.uleb128 0x49
 8453 03ab 13       		.uleb128 0x13
 8454 03ac 02       		.uleb128 0x2
 8455 03ad 18       		.uleb128 0x18
 8456 03ae 00       		.byte	0
 8457 03af 00       		.byte	0
 8458 03b0 42       		.uleb128 0x42
 8459 03b1 2E       		.uleb128 0x2e
 8460 03b2 01       		.byte	0x1
 8461 03b3 3F       		.uleb128 0x3f
 8462 03b4 19       		.uleb128 0x19
 8463 03b5 03       		.uleb128 0x3
 8464 03b6 0E       		.uleb128 0xe
 8465 03b7 3A       		.uleb128 0x3a
 8466 03b8 0B       		.uleb128 0xb
 8467 03b9 3B       		.uleb128 0x3b
 8468 03ba 05       		.uleb128 0x5
 8469 03bb 27       		.uleb128 0x27
 8470 03bc 19       		.uleb128 0x19
 8471 03bd 49       		.uleb128 0x49
 8472 03be 13       		.uleb128 0x13
 8473 03bf 8701     		.uleb128 0x87
 8474 03c1 19       		.uleb128 0x19
 8475 03c2 11       		.uleb128 0x11
 8476 03c3 01       		.uleb128 0x1
 8477 03c4 12       		.uleb128 0x12
 8478 03c5 06       		.uleb128 0x6
 8479 03c6 40       		.uleb128 0x40
 8480 03c7 18       		.uleb128 0x18
 8481 03c8 9742     		.uleb128 0x2117
 8482 03ca 19       		.uleb128 0x19
 8483 03cb 01       		.uleb128 0x1
ARM GAS  C:\Users\gab_1\AppData\Local\Temp\ccTtYdci.s 			page 213


 8484 03cc 13       		.uleb128 0x13
 8485 03cd 00       		.byte	0
 8486 03ce 00       		.byte	0
 8487 03cf 43       		.uleb128 0x43
 8488 03d0 1D       		.uleb128 0x1d
 8489 03d1 00       		.byte	0
 8490 03d2 31       		.uleb128 0x31
 8491 03d3 13       		.uleb128 0x13
 8492 03d4 11       		.uleb128 0x11
 8493 03d5 01       		.uleb128 0x1
 8494 03d6 12       		.uleb128 0x12
 8495 03d7 06       		.uleb128 0x6
 8496 03d8 58       		.uleb128 0x58
 8497 03d9 0B       		.uleb128 0xb
 8498 03da 59       		.uleb128 0x59
 8499 03db 05       		.uleb128 0x5
 8500 03dc 00       		.byte	0
 8501 03dd 00       		.byte	0
 8502 03de 44       		.uleb128 0x44
 8503 03df 34       		.uleb128 0x34
 8504 03e0 00       		.byte	0
 8505 03e1 03       		.uleb128 0x3
 8506 03e2 0E       		.uleb128 0xe
 8507 03e3 3A       		.uleb128 0x3a
 8508 03e4 0B       		.uleb128 0xb
 8509 03e5 3B       		.uleb128 0x3b
 8510 03e6 05       		.uleb128 0x5
 8511 03e7 49       		.uleb128 0x49
 8512 03e8 13       		.uleb128 0x13
 8513 03e9 3F       		.uleb128 0x3f
 8514 03ea 19       		.uleb128 0x19
 8515 03eb 3C       		.uleb128 0x3c
 8516 03ec 19       		.uleb128 0x19
 8517 03ed 00       		.byte	0
 8518 03ee 00       		.byte	0
 8519 03ef 45       		.uleb128 0x45
 8520 03f0 34       		.uleb128 0x34
 8521 03f1 00       		.byte	0
 8522 03f2 03       		.uleb128 0x3
 8523 03f3 0E       		.uleb128 0xe
 8524 03f4 3A       		.uleb128 0x3a
 8525 03f5 0B       		.uleb128 0xb
 8526 03f6 3B       		.uleb128 0x3b
 8527 03f7 0B       		.uleb128 0xb
 8528 03f8 49       		.uleb128 0x49
 8529 03f9 13       		.uleb128 0x13
 8530 03fa 3F       		.uleb128 0x3f
 8531 03fb 19       		.uleb128 0x19
 8532 03fc 3C       		.uleb128 0x3c
 8533 03fd 19       		.uleb128 0x19
 8534 03fe 00       		.byte	0
 8535 03ff 00       		.byte	0
 8536 0400 46       		.uleb128 0x46
 8537 0401 34       		.uleb128 0x34
 8538 0402 00       		.byte	0
 8539 0403 03       		.uleb128 0x3
 8540 0404 0E       		.uleb128 0xe
ARM GAS  C:\Users\gab_1\AppData\Local\Temp\ccTtYdci.s 			page 214


 8541 0405 3A       		.uleb128 0x3a
 8542 0406 0B       		.uleb128 0xb
 8543 0407 3B       		.uleb128 0x3b
 8544 0408 0B       		.uleb128 0xb
 8545 0409 49       		.uleb128 0x49
 8546 040a 13       		.uleb128 0x13
 8547 040b 3F       		.uleb128 0x3f
 8548 040c 19       		.uleb128 0x19
 8549 040d 02       		.uleb128 0x2
 8550 040e 18       		.uleb128 0x18
 8551 040f 00       		.byte	0
 8552 0410 00       		.byte	0
 8553 0411 47       		.uleb128 0x47
 8554 0412 34       		.uleb128 0x34
 8555 0413 00       		.byte	0
 8556 0414 03       		.uleb128 0x3
 8557 0415 08       		.uleb128 0x8
 8558 0416 3A       		.uleb128 0x3a
 8559 0417 0B       		.uleb128 0xb
 8560 0418 3B       		.uleb128 0x3b
 8561 0419 0B       		.uleb128 0xb
 8562 041a 49       		.uleb128 0x49
 8563 041b 13       		.uleb128 0x13
 8564 041c 3F       		.uleb128 0x3f
 8565 041d 19       		.uleb128 0x19
 8566 041e 02       		.uleb128 0x2
 8567 041f 18       		.uleb128 0x18
 8568 0420 00       		.byte	0
 8569 0421 00       		.byte	0
 8570 0422 48       		.uleb128 0x48
 8571 0423 2E       		.uleb128 0x2e
 8572 0424 00       		.byte	0
 8573 0425 3F       		.uleb128 0x3f
 8574 0426 19       		.uleb128 0x19
 8575 0427 3C       		.uleb128 0x3c
 8576 0428 19       		.uleb128 0x19
 8577 0429 6E       		.uleb128 0x6e
 8578 042a 0E       		.uleb128 0xe
 8579 042b 03       		.uleb128 0x3
 8580 042c 0E       		.uleb128 0xe
 8581 042d 3A       		.uleb128 0x3a
 8582 042e 0B       		.uleb128 0xb
 8583 042f 3B       		.uleb128 0x3b
 8584 0430 05       		.uleb128 0x5
 8585 0431 00       		.byte	0
 8586 0432 00       		.byte	0
 8587 0433 49       		.uleb128 0x49
 8588 0434 2E       		.uleb128 0x2e
 8589 0435 00       		.byte	0
 8590 0436 3F       		.uleb128 0x3f
 8591 0437 19       		.uleb128 0x19
 8592 0438 3C       		.uleb128 0x3c
 8593 0439 19       		.uleb128 0x19
 8594 043a 6E       		.uleb128 0x6e
 8595 043b 0E       		.uleb128 0xe
 8596 043c 03       		.uleb128 0x3
 8597 043d 0E       		.uleb128 0xe
ARM GAS  C:\Users\gab_1\AppData\Local\Temp\ccTtYdci.s 			page 215


 8598 043e 3A       		.uleb128 0x3a
 8599 043f 0B       		.uleb128 0xb
 8600 0440 3B       		.uleb128 0x3b
 8601 0441 0B       		.uleb128 0xb
 8602 0442 00       		.byte	0
 8603 0443 00       		.byte	0
 8604 0444 4A       		.uleb128 0x4a
 8605 0445 2E       		.uleb128 0x2e
 8606 0446 00       		.byte	0
 8607 0447 3F       		.uleb128 0x3f
 8608 0448 19       		.uleb128 0x19
 8609 0449 3C       		.uleb128 0x3c
 8610 044a 19       		.uleb128 0x19
 8611 044b 6E       		.uleb128 0x6e
 8612 044c 0E       		.uleb128 0xe
 8613 044d 03       		.uleb128 0x3
 8614 044e 0E       		.uleb128 0xe
 8615 044f 3A       		.uleb128 0x3a
 8616 0450 0B       		.uleb128 0xb
 8617 0451 3B       		.uleb128 0x3b
 8618 0452 0B       		.uleb128 0xb
 8619 0453 6E       		.uleb128 0x6e
 8620 0454 0E       		.uleb128 0xe
 8621 0455 00       		.byte	0
 8622 0456 00       		.byte	0
 8623 0457 00       		.byte	0
 8624              		.section	.debug_loc,"",%progbits
 8625              	.Ldebug_loc0:
 8626              	.LLST0:
 8627 0000 20000000 		.4byte	.LVL1
 8628 0004 24000000 		.4byte	.LVL2
 8629 0008 0100     		.2byte	0x1
 8630 000a 50       		.byte	0x50
 8631 000b 56000000 		.4byte	.LVL6
 8632 000f 58000000 		.4byte	.LVL7
 8633 0013 0100     		.2byte	0x1
 8634 0015 50       		.byte	0x50
 8635 0016 00000000 		.4byte	0
 8636 001a 00000000 		.4byte	0
 8637              	.LLST1:
 8638 001e 00000000 		.4byte	.LVL9
 8639 0022 1A000000 		.4byte	.LVL13
 8640 0026 0100     		.2byte	0x1
 8641 0028 50       		.byte	0x50
 8642 0029 1A000000 		.4byte	.LVL13
 8643 002d 5C000000 		.4byte	.LFE693
 8644 0031 0400     		.2byte	0x4
 8645 0033 F3       		.byte	0xf3
 8646 0034 01       		.uleb128 0x1
 8647 0035 50       		.byte	0x50
 8648 0036 9F       		.byte	0x9f
 8649 0037 00000000 		.4byte	0
 8650 003b 00000000 		.4byte	0
 8651              	.LLST2:
 8652 003f 00000000 		.4byte	.LVL9
 8653 0043 18000000 		.4byte	.LVL12
 8654 0047 0100     		.2byte	0x1
ARM GAS  C:\Users\gab_1\AppData\Local\Temp\ccTtYdci.s 			page 216


 8655 0049 51       		.byte	0x51
 8656 004a 18000000 		.4byte	.LVL12
 8657 004e 5C000000 		.4byte	.LFE693
 8658 0052 0400     		.2byte	0x4
 8659 0054 F3       		.byte	0xf3
 8660 0055 01       		.uleb128 0x1
 8661 0056 51       		.byte	0x51
 8662 0057 9F       		.byte	0x9f
 8663 0058 00000000 		.4byte	0
 8664 005c 00000000 		.4byte	0
 8665              	.LLST3:
 8666 0060 00000000 		.4byte	.LVL9
 8667 0064 16000000 		.4byte	.LVL11
 8668 0068 0100     		.2byte	0x1
 8669 006a 52       		.byte	0x52
 8670 006b 16000000 		.4byte	.LVL11
 8671 006f 52000000 		.4byte	.LVL20
 8672 0073 0100     		.2byte	0x1
 8673 0075 56       		.byte	0x56
 8674 0076 52000000 		.4byte	.LVL20
 8675 007a 5C000000 		.4byte	.LFE693
 8676 007e 0400     		.2byte	0x4
 8677 0080 F3       		.byte	0xf3
 8678 0081 01       		.uleb128 0x1
 8679 0082 52       		.byte	0x52
 8680 0083 9F       		.byte	0x9f
 8681 0084 00000000 		.4byte	0
 8682 0088 00000000 		.4byte	0
 8683              	.LLST4:
 8684 008c 00000000 		.4byte	.LVL9
 8685 0090 14000000 		.4byte	.LVL10
 8686 0094 0100     		.2byte	0x1
 8687 0096 53       		.byte	0x53
 8688 0097 14000000 		.4byte	.LVL10
 8689 009b 5C000000 		.4byte	.LFE693
 8690 009f 0400     		.2byte	0x4
 8691 00a1 F3       		.byte	0xf3
 8692 00a2 01       		.uleb128 0x1
 8693 00a3 53       		.byte	0x53
 8694 00a4 9F       		.byte	0x9f
 8695 00a5 00000000 		.4byte	0
 8696 00a9 00000000 		.4byte	0
 8697              	.LLST5:
 8698 00ad 2A000000 		.4byte	.LVL15
 8699 00b1 2E000000 		.4byte	.LVL16
 8700 00b5 0200     		.2byte	0x2
 8701 00b7 30       		.byte	0x30
 8702 00b8 9F       		.byte	0x9f
 8703 00b9 2E000000 		.4byte	.LVL16
 8704 00bd 52000000 		.4byte	.LVL20
 8705 00c1 0100     		.2byte	0x1
 8706 00c3 54       		.byte	0x54
 8707 00c4 00000000 		.4byte	0
 8708 00c8 00000000 		.4byte	0
 8709              	.LLST6:
 8710 00cc 00000000 		.4byte	.LVL21
 8711 00d0 1C000000 		.4byte	.LVL25
ARM GAS  C:\Users\gab_1\AppData\Local\Temp\ccTtYdci.s 			page 217


 8712 00d4 0100     		.2byte	0x1
 8713 00d6 50       		.byte	0x50
 8714 00d7 1C000000 		.4byte	.LVL25
 8715 00db 84000000 		.4byte	.LFE694
 8716 00df 0400     		.2byte	0x4
 8717 00e1 F3       		.byte	0xf3
 8718 00e2 01       		.uleb128 0x1
 8719 00e3 50       		.byte	0x50
 8720 00e4 9F       		.byte	0x9f
 8721 00e5 00000000 		.4byte	0
 8722 00e9 00000000 		.4byte	0
 8723              	.LLST7:
 8724 00ed 00000000 		.4byte	.LVL21
 8725 00f1 1A000000 		.4byte	.LVL24
 8726 00f5 0100     		.2byte	0x1
 8727 00f7 51       		.byte	0x51
 8728 00f8 1A000000 		.4byte	.LVL24
 8729 00fc 84000000 		.4byte	.LFE694
 8730 0100 0400     		.2byte	0x4
 8731 0102 F3       		.byte	0xf3
 8732 0103 01       		.uleb128 0x1
 8733 0104 51       		.byte	0x51
 8734 0105 9F       		.byte	0x9f
 8735 0106 00000000 		.4byte	0
 8736 010a 00000000 		.4byte	0
 8737              	.LLST8:
 8738 010e 00000000 		.4byte	.LVL21
 8739 0112 18000000 		.4byte	.LVL23
 8740 0116 0100     		.2byte	0x1
 8741 0118 52       		.byte	0x52
 8742 0119 18000000 		.4byte	.LVL23
 8743 011d 7C000000 		.4byte	.LVL35
 8744 0121 0100     		.2byte	0x1
 8745 0123 56       		.byte	0x56
 8746 0124 7C000000 		.4byte	.LVL35
 8747 0128 84000000 		.4byte	.LFE694
 8748 012c 0400     		.2byte	0x4
 8749 012e F3       		.byte	0xf3
 8750 012f 01       		.uleb128 0x1
 8751 0130 52       		.byte	0x52
 8752 0131 9F       		.byte	0x9f
 8753 0132 00000000 		.4byte	0
 8754 0136 00000000 		.4byte	0
 8755              	.LLST9:
 8756 013a 00000000 		.4byte	.LVL21
 8757 013e 16000000 		.4byte	.LVL22
 8758 0142 0100     		.2byte	0x1
 8759 0144 53       		.byte	0x53
 8760 0145 16000000 		.4byte	.LVL22
 8761 0149 84000000 		.4byte	.LFE694
 8762 014d 0400     		.2byte	0x4
 8763 014f F3       		.byte	0xf3
 8764 0150 01       		.uleb128 0x1
 8765 0151 53       		.byte	0x53
 8766 0152 9F       		.byte	0x9f
 8767 0153 00000000 		.4byte	0
 8768 0157 00000000 		.4byte	0
ARM GAS  C:\Users\gab_1\AppData\Local\Temp\ccTtYdci.s 			page 218


 8769              	.LLST10:
 8770 015b 3A000000 		.4byte	.LVL28
 8771 015f 3E000000 		.4byte	.LVL29
 8772 0163 0200     		.2byte	0x2
 8773 0165 30       		.byte	0x30
 8774 0166 9F       		.byte	0x9f
 8775 0167 3E000000 		.4byte	.LVL29
 8776 016b 5A000000 		.4byte	.LVL32
 8777 016f 0100     		.2byte	0x1
 8778 0171 54       		.byte	0x54
 8779 0172 00000000 		.4byte	0
 8780 0176 00000000 		.4byte	0
 8781              	.LLST11:
 8782 017a 00000000 		.4byte	.LVL36
 8783 017e 14000000 		.4byte	.LVL38
 8784 0182 0100     		.2byte	0x1
 8785 0184 50       		.byte	0x50
 8786 0185 14000000 		.4byte	.LVL38
 8787 0189 60000000 		.4byte	.LFE697
 8788 018d 0400     		.2byte	0x4
 8789 018f F3       		.byte	0xf3
 8790 0190 01       		.uleb128 0x1
 8791 0191 50       		.byte	0x50
 8792 0192 9F       		.byte	0x9f
 8793 0193 00000000 		.4byte	0
 8794 0197 00000000 		.4byte	0
 8795              	.LLST12:
 8796 019b 06000000 		.4byte	.LVL37
 8797 019f 18000000 		.4byte	.LVL39
 8798 01a3 0300     		.2byte	0x3
 8799 01a5 08       		.byte	0x8
 8800 01a6 64       		.byte	0x64
 8801 01a7 9F       		.byte	0x9f
 8802 01a8 00000000 		.4byte	0
 8803 01ac 00000000 		.4byte	0
 8804              	.LLST13:
 8805 01b0 06000000 		.4byte	.LVL37
 8806 01b4 18000000 		.4byte	.LVL39
 8807 01b8 0200     		.2byte	0x2
 8808 01ba 30       		.byte	0x30
 8809 01bb 9F       		.byte	0x9f
 8810 01bc 00000000 		.4byte	0
 8811 01c0 00000000 		.4byte	0
 8812              	.LLST14:
 8813 01c4 06000000 		.4byte	.LVL37
 8814 01c8 18000000 		.4byte	.LVL39
 8815 01cc 0300     		.2byte	0x3
 8816 01ce 08       		.byte	0x8
 8817 01cf 57       		.byte	0x57
 8818 01d0 9F       		.byte	0x9f
 8819 01d1 00000000 		.4byte	0
 8820 01d5 00000000 		.4byte	0
 8821              	.LLST15:
 8822 01d9 18000000 		.4byte	.LVL39
 8823 01dd 24000000 		.4byte	.LVL40
 8824 01e1 0300     		.2byte	0x3
 8825 01e3 08       		.byte	0x8
ARM GAS  C:\Users\gab_1\AppData\Local\Temp\ccTtYdci.s 			page 219


 8826 01e4 64       		.byte	0x64
 8827 01e5 9F       		.byte	0x9f
 8828 01e6 00000000 		.4byte	0
 8829 01ea 00000000 		.4byte	0
 8830              	.LLST16:
 8831 01ee 18000000 		.4byte	.LVL39
 8832 01f2 24000000 		.4byte	.LVL40
 8833 01f6 0100     		.2byte	0x1
 8834 01f8 56       		.byte	0x56
 8835 01f9 00000000 		.4byte	0
 8836 01fd 00000000 		.4byte	0
 8837              	.LLST17:
 8838 0201 24000000 		.4byte	.LVL40
 8839 0205 32000000 		.4byte	.LVL41
 8840 0209 0300     		.2byte	0x3
 8841 020b 08       		.byte	0x8
 8842 020c 64       		.byte	0x64
 8843 020d 9F       		.byte	0x9f
 8844 020e 00000000 		.4byte	0
 8845 0212 00000000 		.4byte	0
 8846              	.LLST18:
 8847 0216 24000000 		.4byte	.LVL40
 8848 021a 32000000 		.4byte	.LVL41
 8849 021e 0200     		.2byte	0x2
 8850 0220 31       		.byte	0x31
 8851 0221 9F       		.byte	0x9f
 8852 0222 00000000 		.4byte	0
 8853 0226 00000000 		.4byte	0
 8854              	.LLST19:
 8855 022a 24000000 		.4byte	.LVL40
 8856 022e 32000000 		.4byte	.LVL41
 8857 0232 0300     		.2byte	0x3
 8858 0234 08       		.byte	0x8
 8859 0235 57       		.byte	0x57
 8860 0236 9F       		.byte	0x9f
 8861 0237 00000000 		.4byte	0
 8862 023b 00000000 		.4byte	0
 8863              	.LLST20:
 8864 023f 3A000000 		.4byte	.LVL42
 8865 0243 44000000 		.4byte	.LVL43
 8866 0247 0300     		.2byte	0x3
 8867 0249 08       		.byte	0x8
 8868 024a 64       		.byte	0x64
 8869 024b 9F       		.byte	0x9f
 8870 024c 00000000 		.4byte	0
 8871 0250 00000000 		.4byte	0
 8872              	.LLST21:
 8873 0254 3A000000 		.4byte	.LVL42
 8874 0258 44000000 		.4byte	.LVL43
 8875 025c 0300     		.2byte	0x3
 8876 025e 91       		.byte	0x91
 8877 025f 6F       		.sleb128 -17
 8878 0260 9F       		.byte	0x9f
 8879 0261 00000000 		.4byte	0
 8880 0265 00000000 		.4byte	0
 8881              	.LLST22:
 8882 0269 3A000000 		.4byte	.LVL42
ARM GAS  C:\Users\gab_1\AppData\Local\Temp\ccTtYdci.s 			page 220


 8883 026d 44000000 		.4byte	.LVL43
 8884 0271 0200     		.2byte	0x2
 8885 0273 30       		.byte	0x30
 8886 0274 9F       		.byte	0x9f
 8887 0275 00000000 		.4byte	0
 8888 0279 00000000 		.4byte	0
 8889              	.LLST23:
 8890 027d 44000000 		.4byte	.LVL43
 8891 0281 4E000000 		.4byte	.LVL44
 8892 0285 0300     		.2byte	0x3
 8893 0287 08       		.byte	0x8
 8894 0288 64       		.byte	0x64
 8895 0289 9F       		.byte	0x9f
 8896 028a 00000000 		.4byte	0
 8897 028e 00000000 		.4byte	0
 8898              	.LLST24:
 8899 0292 00000000 		.4byte	.LVL45
 8900 0296 16000000 		.4byte	.LVL48
 8901 029a 0100     		.2byte	0x1
 8902 029c 50       		.byte	0x50
 8903 029d 16000000 		.4byte	.LVL48
 8904 02a1 48000000 		.4byte	.LFE698
 8905 02a5 0400     		.2byte	0x4
 8906 02a7 F3       		.byte	0xf3
 8907 02a8 01       		.uleb128 0x1
 8908 02a9 50       		.byte	0x50
 8909 02aa 9F       		.byte	0x9f
 8910 02ab 00000000 		.4byte	0
 8911 02af 00000000 		.4byte	0
 8912              	.LLST25:
 8913 02b3 00000000 		.4byte	.LVL45
 8914 02b7 14000000 		.4byte	.LVL47
 8915 02bb 0100     		.2byte	0x1
 8916 02bd 51       		.byte	0x51
 8917 02be 14000000 		.4byte	.LVL47
 8918 02c2 48000000 		.4byte	.LFE698
 8919 02c6 0400     		.2byte	0x4
 8920 02c8 F3       		.byte	0xf3
 8921 02c9 01       		.uleb128 0x1
 8922 02ca 51       		.byte	0x51
 8923 02cb 9F       		.byte	0x9f
 8924 02cc 00000000 		.4byte	0
 8925 02d0 00000000 		.4byte	0
 8926              	.LLST26:
 8927 02d4 08000000 		.4byte	.LVL46
 8928 02d8 1A000000 		.4byte	.LVL49
 8929 02dc 0300     		.2byte	0x3
 8930 02de 08       		.byte	0x8
 8931 02df 64       		.byte	0x64
 8932 02e0 9F       		.byte	0x9f
 8933 02e1 00000000 		.4byte	0
 8934 02e5 00000000 		.4byte	0
 8935              	.LLST27:
 8936 02e9 08000000 		.4byte	.LVL46
 8937 02ed 1A000000 		.4byte	.LVL49
 8938 02f1 0200     		.2byte	0x2
 8939 02f3 30       		.byte	0x30
ARM GAS  C:\Users\gab_1\AppData\Local\Temp\ccTtYdci.s 			page 221


 8940 02f4 9F       		.byte	0x9f
 8941 02f5 00000000 		.4byte	0
 8942 02f9 00000000 		.4byte	0
 8943              	.LLST28:
 8944 02fd 08000000 		.4byte	.LVL46
 8945 0301 1A000000 		.4byte	.LVL49
 8946 0305 0300     		.2byte	0x3
 8947 0307 08       		.byte	0x8
 8948 0308 57       		.byte	0x57
 8949 0309 9F       		.byte	0x9f
 8950 030a 00000000 		.4byte	0
 8951 030e 00000000 		.4byte	0
 8952              	.LLST29:
 8953 0312 1A000000 		.4byte	.LVL49
 8954 0316 26000000 		.4byte	.LVL50
 8955 031a 0300     		.2byte	0x3
 8956 031c 08       		.byte	0x8
 8957 031d 64       		.byte	0x64
 8958 031e 9F       		.byte	0x9f
 8959 031f 00000000 		.4byte	0
 8960 0323 00000000 		.4byte	0
 8961              	.LLST30:
 8962 0327 1A000000 		.4byte	.LVL49
 8963 032b 26000000 		.4byte	.LVL50
 8964 032f 0100     		.2byte	0x1
 8965 0331 57       		.byte	0x57
 8966 0332 00000000 		.4byte	0
 8967 0336 00000000 		.4byte	0
 8968              	.LLST31:
 8969 033a 26000000 		.4byte	.LVL50
 8970 033e 32000000 		.4byte	.LVL51
 8971 0342 0300     		.2byte	0x3
 8972 0344 08       		.byte	0x8
 8973 0345 64       		.byte	0x64
 8974 0346 9F       		.byte	0x9f
 8975 0347 00000000 		.4byte	0
 8976 034b 00000000 		.4byte	0
 8977              	.LLST32:
 8978 034f 26000000 		.4byte	.LVL50
 8979 0353 32000000 		.4byte	.LVL51
 8980 0357 0100     		.2byte	0x1
 8981 0359 56       		.byte	0x56
 8982 035a 00000000 		.4byte	0
 8983 035e 00000000 		.4byte	0
 8984              	.LLST33:
 8985 0362 32000000 		.4byte	.LVL51
 8986 0366 3C000000 		.4byte	.LVL52
 8987 036a 0300     		.2byte	0x3
 8988 036c 08       		.byte	0x8
 8989 036d 64       		.byte	0x64
 8990 036e 9F       		.byte	0x9f
 8991 036f 00000000 		.4byte	0
 8992 0373 00000000 		.4byte	0
 8993              	.LLST34:
 8994 0377 00000000 		.4byte	.LVL53
 8995 037b 1A000000 		.4byte	.LVL57
 8996 037f 0100     		.2byte	0x1
ARM GAS  C:\Users\gab_1\AppData\Local\Temp\ccTtYdci.s 			page 222


 8997 0381 50       		.byte	0x50
 8998 0382 1A000000 		.4byte	.LVL57
 8999 0386 80000000 		.4byte	.LFE699
 9000 038a 0400     		.2byte	0x4
 9001 038c F3       		.byte	0xf3
 9002 038d 01       		.uleb128 0x1
 9003 038e 50       		.byte	0x50
 9004 038f 9F       		.byte	0x9f
 9005 0390 00000000 		.4byte	0
 9006 0394 00000000 		.4byte	0
 9007              	.LLST35:
 9008 0398 00000000 		.4byte	.LVL53
 9009 039c 18000000 		.4byte	.LVL56
 9010 03a0 0100     		.2byte	0x1
 9011 03a2 51       		.byte	0x51
 9012 03a3 18000000 		.4byte	.LVL56
 9013 03a7 78000000 		.4byte	.LVL70
 9014 03ab 0100     		.2byte	0x1
 9015 03ad 55       		.byte	0x55
 9016 03ae 78000000 		.4byte	.LVL70
 9017 03b2 80000000 		.4byte	.LFE699
 9018 03b6 0400     		.2byte	0x4
 9019 03b8 F3       		.byte	0xf3
 9020 03b9 01       		.uleb128 0x1
 9021 03ba 51       		.byte	0x51
 9022 03bb 9F       		.byte	0x9f
 9023 03bc 00000000 		.4byte	0
 9024 03c0 00000000 		.4byte	0
 9025              	.LLST36:
 9026 03c4 00000000 		.4byte	.LVL53
 9027 03c8 16000000 		.4byte	.LVL55
 9028 03cc 0100     		.2byte	0x1
 9029 03ce 52       		.byte	0x52
 9030 03cf 16000000 		.4byte	.LVL55
 9031 03d3 80000000 		.4byte	.LFE699
 9032 03d7 0400     		.2byte	0x4
 9033 03d9 F3       		.byte	0xf3
 9034 03da 01       		.uleb128 0x1
 9035 03db 52       		.byte	0x52
 9036 03dc 9F       		.byte	0x9f
 9037 03dd 00000000 		.4byte	0
 9038 03e1 00000000 		.4byte	0
 9039              	.LLST37:
 9040 03e5 38000000 		.4byte	.LVL60
 9041 03e9 3C000000 		.4byte	.LVL61
 9042 03ed 0200     		.2byte	0x2
 9043 03ef 30       		.byte	0x30
 9044 03f0 9F       		.byte	0x9f
 9045 03f1 3C000000 		.4byte	.LVL61
 9046 03f5 4E000000 		.4byte	.LVL64
 9047 03f9 0100     		.2byte	0x1
 9048 03fb 54       		.byte	0x54
 9049 03fc 50000000 		.4byte	.LVL65
 9050 0400 78000000 		.4byte	.LVL70
 9051 0404 0100     		.2byte	0x1
 9052 0406 54       		.byte	0x54
 9053 0407 00000000 		.4byte	0
ARM GAS  C:\Users\gab_1\AppData\Local\Temp\ccTtYdci.s 			page 223


 9054 040b 00000000 		.4byte	0
 9055              	.LLST38:
 9056 040f 0C000000 		.4byte	.LVL54
 9057 0413 1E000000 		.4byte	.LVL58
 9058 0417 0300     		.2byte	0x3
 9059 0419 08       		.byte	0x8
 9060 041a 64       		.byte	0x64
 9061 041b 9F       		.byte	0x9f
 9062 041c 00000000 		.4byte	0
 9063 0420 00000000 		.4byte	0
 9064              	.LLST39:
 9065 0424 0C000000 		.4byte	.LVL54
 9066 0428 1E000000 		.4byte	.LVL58
 9067 042c 0200     		.2byte	0x2
 9068 042e 30       		.byte	0x30
 9069 042f 9F       		.byte	0x9f
 9070 0430 00000000 		.4byte	0
 9071 0434 00000000 		.4byte	0
 9072              	.LLST40:
 9073 0438 0C000000 		.4byte	.LVL54
 9074 043c 1E000000 		.4byte	.LVL58
 9075 0440 0300     		.2byte	0x3
 9076 0442 08       		.byte	0x8
 9077 0443 57       		.byte	0x57
 9078 0444 9F       		.byte	0x9f
 9079 0445 00000000 		.4byte	0
 9080 0449 00000000 		.4byte	0
 9081              	.LLST41:
 9082 044d 1E000000 		.4byte	.LVL58
 9083 0451 2A000000 		.4byte	.LVL59
 9084 0455 0300     		.2byte	0x3
 9085 0457 08       		.byte	0x8
 9086 0458 64       		.byte	0x64
 9087 0459 9F       		.byte	0x9f
 9088 045a 00000000 		.4byte	0
 9089 045e 00000000 		.4byte	0
 9090              	.LLST42:
 9091 0462 1E000000 		.4byte	.LVL58
 9092 0466 2A000000 		.4byte	.LVL59
 9093 046a 0100     		.2byte	0x1
 9094 046c 58       		.byte	0x58
 9095 046d 00000000 		.4byte	0
 9096 0471 00000000 		.4byte	0
 9097              	.LLST43:
 9098 0475 2A000000 		.4byte	.LVL59
 9099 0479 38000000 		.4byte	.LVL60
 9100 047d 0300     		.2byte	0x3
 9101 047f 08       		.byte	0x8
 9102 0480 64       		.byte	0x64
 9103 0481 9F       		.byte	0x9f
 9104 0482 00000000 		.4byte	0
 9105 0486 00000000 		.4byte	0
 9106              	.LLST44:
 9107 048a 2A000000 		.4byte	.LVL59
 9108 048e 38000000 		.4byte	.LVL60
 9109 0492 0200     		.2byte	0x2
 9110 0494 31       		.byte	0x31
ARM GAS  C:\Users\gab_1\AppData\Local\Temp\ccTtYdci.s 			page 224


 9111 0495 9F       		.byte	0x9f
 9112 0496 00000000 		.4byte	0
 9113 049a 00000000 		.4byte	0
 9114              	.LLST45:
 9115 049e 2A000000 		.4byte	.LVL59
 9116 04a2 38000000 		.4byte	.LVL60
 9117 04a6 0300     		.2byte	0x3
 9118 04a8 08       		.byte	0x8
 9119 04a9 57       		.byte	0x57
 9120 04aa 9F       		.byte	0x9f
 9121 04ab 00000000 		.4byte	0
 9122 04af 00000000 		.4byte	0
 9123              	.LLST46:
 9124 04b3 3C000000 		.4byte	.LVL61
 9125 04b7 4C000000 		.4byte	.LVL63
 9126 04bb 0300     		.2byte	0x3
 9127 04bd 08       		.byte	0x8
 9128 04be 64       		.byte	0x64
 9129 04bf 9F       		.byte	0x9f
 9130 04c0 00000000 		.4byte	0
 9131 04c4 00000000 		.4byte	0
 9132              	.LLST47:
 9133 04c8 3C000000 		.4byte	.LVL61
 9134 04cc 44000000 		.4byte	.LVL62
 9135 04d0 0600     		.2byte	0x6
 9136 04d2 75       		.byte	0x75
 9137 04d3 00       		.sleb128 0
 9138 04d4 74       		.byte	0x74
 9139 04d5 00       		.sleb128 0
 9140 04d6 22       		.byte	0x22
 9141 04d7 9F       		.byte	0x9f
 9142 04d8 44000000 		.4byte	.LVL62
 9143 04dc 4B000000 		.4byte	.LVL63-1
 9144 04e0 0100     		.2byte	0x1
 9145 04e2 52       		.byte	0x52
 9146 04e3 4B000000 		.4byte	.LVL63-1
 9147 04e7 4C000000 		.4byte	.LVL63
 9148 04eb 0600     		.2byte	0x6
 9149 04ed 75       		.byte	0x75
 9150 04ee 00       		.sleb128 0
 9151 04ef 74       		.byte	0x74
 9152 04f0 00       		.sleb128 0
 9153 04f1 22       		.byte	0x22
 9154 04f2 9F       		.byte	0x9f
 9155 04f3 00000000 		.4byte	0
 9156 04f7 00000000 		.4byte	0
 9157              	.LLST48:
 9158 04fb 3C000000 		.4byte	.LVL61
 9159 04ff 4C000000 		.4byte	.LVL63
 9160 0503 0200     		.2byte	0x2
 9161 0505 30       		.byte	0x30
 9162 0506 9F       		.byte	0x9f
 9163 0507 00000000 		.4byte	0
 9164 050b 00000000 		.4byte	0
 9165              	.LLST49:
 9166 050f 56000000 		.4byte	.LVL66
 9167 0513 68000000 		.4byte	.LVL68
ARM GAS  C:\Users\gab_1\AppData\Local\Temp\ccTtYdci.s 			page 225


 9168 0517 0300     		.2byte	0x3
 9169 0519 08       		.byte	0x8
 9170 051a 64       		.byte	0x64
 9171 051b 9F       		.byte	0x9f
 9172 051c 00000000 		.4byte	0
 9173 0520 00000000 		.4byte	0
 9174              	.LLST50:
 9175 0524 56000000 		.4byte	.LVL66
 9176 0528 60000000 		.4byte	.LVL67
 9177 052c 0600     		.2byte	0x6
 9178 052e 75       		.byte	0x75
 9179 052f 00       		.sleb128 0
 9180 0530 74       		.byte	0x74
 9181 0531 00       		.sleb128 0
 9182 0532 22       		.byte	0x22
 9183 0533 9F       		.byte	0x9f
 9184 0534 60000000 		.4byte	.LVL67
 9185 0538 67000000 		.4byte	.LVL68-1
 9186 053c 0100     		.2byte	0x1
 9187 053e 52       		.byte	0x52
 9188 053f 67000000 		.4byte	.LVL68-1
 9189 0543 68000000 		.4byte	.LVL68
 9190 0547 0600     		.2byte	0x6
 9191 0549 75       		.byte	0x75
 9192 054a 00       		.sleb128 0
 9193 054b 74       		.byte	0x74
 9194 054c 00       		.sleb128 0
 9195 054d 22       		.byte	0x22
 9196 054e 9F       		.byte	0x9f
 9197 054f 00000000 		.4byte	0
 9198 0553 00000000 		.4byte	0
 9199              	.LLST51:
 9200 0557 56000000 		.4byte	.LVL66
 9201 055b 68000000 		.4byte	.LVL68
 9202 055f 0200     		.2byte	0x2
 9203 0561 31       		.byte	0x31
 9204 0562 9F       		.byte	0x9f
 9205 0563 00000000 		.4byte	0
 9206 0567 00000000 		.4byte	0
 9207              	.LLST52:
 9208 056b 68000000 		.4byte	.LVL68
 9209 056f 72000000 		.4byte	.LVL69
 9210 0573 0300     		.2byte	0x3
 9211 0575 08       		.byte	0x8
 9212 0576 64       		.byte	0x64
 9213 0577 9F       		.byte	0x9f
 9214 0578 00000000 		.4byte	0
 9215 057c 00000000 		.4byte	0
 9216              	.LLST53:
 9217 0580 00000000 		.4byte	.LVL71
 9218 0584 0E000000 		.4byte	.LVL73
 9219 0588 0100     		.2byte	0x1
 9220 058a 50       		.byte	0x50
 9221 058b 0E000000 		.4byte	.LVL73
 9222 058f 52000000 		.4byte	.LVL76
 9223 0593 0100     		.2byte	0x1
 9224 0595 55       		.byte	0x55
ARM GAS  C:\Users\gab_1\AppData\Local\Temp\ccTtYdci.s 			page 226


 9225 0596 52000000 		.4byte	.LVL76
 9226 059a 5C000000 		.4byte	.LFE700
 9227 059e 0400     		.2byte	0x4
 9228 05a0 F3       		.byte	0xf3
 9229 05a1 01       		.uleb128 0x1
 9230 05a2 50       		.byte	0x50
 9231 05a3 9F       		.byte	0x9f
 9232 05a4 00000000 		.4byte	0
 9233 05a8 00000000 		.4byte	0
 9234              	.LLST54:
 9235 05ac 00000000 		.4byte	.LVL71
 9236 05b0 0C000000 		.4byte	.LVL72
 9237 05b4 0100     		.2byte	0x1
 9238 05b6 51       		.byte	0x51
 9239 05b7 0C000000 		.4byte	.LVL72
 9240 05bb 52000000 		.4byte	.LVL76
 9241 05bf 0100     		.2byte	0x1
 9242 05c1 54       		.byte	0x54
 9243 05c2 52000000 		.4byte	.LVL76
 9244 05c6 5C000000 		.4byte	.LFE700
 9245 05ca 0400     		.2byte	0x4
 9246 05cc F3       		.byte	0xf3
 9247 05cd 01       		.uleb128 0x1
 9248 05ce 51       		.byte	0x51
 9249 05cf 9F       		.byte	0x9f
 9250 05d0 00000000 		.4byte	0
 9251 05d4 00000000 		.4byte	0
 9252              	.LLST55:
 9253 05d8 12000000 		.4byte	.LVL74
 9254 05dc 1A000000 		.4byte	.LVL75
 9255 05e0 0600     		.2byte	0x6
 9256 05e2 03       		.byte	0x3
 9257 05e3 38000000 		.4byte	.LC2
 9258 05e7 9F       		.byte	0x9f
 9259 05e8 00000000 		.4byte	0
 9260 05ec 00000000 		.4byte	0
 9261              	.LLST57:
 9262 05f0 12000000 		.4byte	.LVL74
 9263 05f4 1A000000 		.4byte	.LVL75
 9264 05f8 0600     		.2byte	0x6
 9265 05fa 0C       		.byte	0xc
 9266 05fb 00006640 		.4byte	0x40660000
 9267 05ff 9F       		.byte	0x9f
 9268 0600 00000000 		.4byte	0
 9269 0604 00000000 		.4byte	0
 9270              	.LLST58:
 9271 0608 02000000 		.4byte	.LVL77
 9272 060c 08000000 		.4byte	.LVL78
 9273 0610 0200     		.2byte	0x2
 9274 0612 31       		.byte	0x31
 9275 0613 9F       		.byte	0x9f
 9276 0614 00000000 		.4byte	0
 9277 0618 00000000 		.4byte	0
 9278              	.LLST59:
 9279 061c 02000000 		.4byte	.LVL77
 9280 0620 08000000 		.4byte	.LVL78
 9281 0624 0200     		.2byte	0x2
ARM GAS  C:\Users\gab_1\AppData\Local\Temp\ccTtYdci.s 			page 227


 9282 0626 34       		.byte	0x34
 9283 0627 9F       		.byte	0x9f
 9284 0628 00000000 		.4byte	0
 9285 062c 00000000 		.4byte	0
 9286              	.LLST60:
 9287 0630 02000000 		.4byte	.LVL77
 9288 0634 08000000 		.4byte	.LVL78
 9289 0638 0600     		.2byte	0x6
 9290 063a 0C       		.byte	0xc
 9291 063b 80043240 		.4byte	0x40320480
 9292 063f 9F       		.byte	0x9f
 9293 0640 00000000 		.4byte	0
 9294 0644 00000000 		.4byte	0
 9295              	.LLST61:
 9296 0648 08000000 		.4byte	.LVL78
 9297 064c 12000000 		.4byte	.LVL79
 9298 0650 0600     		.2byte	0x6
 9299 0652 03       		.byte	0x3
 9300 0653 44000000 		.4byte	.LC3
 9301 0657 9F       		.byte	0x9f
 9302 0658 00000000 		.4byte	0
 9303 065c 00000000 		.4byte	0
 9304              	.LLST63:
 9305 0660 08000000 		.4byte	.LVL78
 9306 0664 12000000 		.4byte	.LVL79
 9307 0668 0600     		.2byte	0x6
 9308 066a 0C       		.byte	0xc
 9309 066b 00006640 		.4byte	0x40660000
 9310 066f 9F       		.byte	0x9f
 9311 0670 00000000 		.4byte	0
 9312 0674 00000000 		.4byte	0
 9313              	.LLST64:
 9314 0678 70000000 		.4byte	.LVL90
 9315 067c 78000000 		.4byte	.LVL91
 9316 0680 0600     		.2byte	0x6
 9317 0682 03       		.byte	0x3
 9318 0683 54000000 		.4byte	.LC4
 9319 0687 9F       		.byte	0x9f
 9320 0688 00000000 		.4byte	0
 9321 068c 00000000 		.4byte	0
 9322              	.LLST66:
 9323 0690 70000000 		.4byte	.LVL90
 9324 0694 78000000 		.4byte	.LVL91
 9325 0698 0600     		.2byte	0x6
 9326 069a 0C       		.byte	0xc
 9327 069b 00006640 		.4byte	0x40660000
 9328 069f 9F       		.byte	0x9f
 9329 06a0 00000000 		.4byte	0
 9330 06a4 00000000 		.4byte	0
 9331              	.LLST67:
 9332 06a8 00000000 		.4byte	.LVL92
 9333 06ac 58000000 		.4byte	.LVL98
 9334 06b0 0100     		.2byte	0x1
 9335 06b2 50       		.byte	0x50
 9336 06b3 58000000 		.4byte	.LVL98
 9337 06b7 40030000 		.4byte	.LFE703
 9338 06bb 0400     		.2byte	0x4
ARM GAS  C:\Users\gab_1\AppData\Local\Temp\ccTtYdci.s 			page 228


 9339 06bd F3       		.byte	0xf3
 9340 06be 01       		.uleb128 0x1
 9341 06bf 50       		.byte	0x50
 9342 06c0 9F       		.byte	0x9f
 9343 06c1 00000000 		.4byte	0
 9344 06c5 00000000 		.4byte	0
 9345              	.LLST68:
 9346 06c9 00000000 		.4byte	.LVL92
 9347 06cd 56000000 		.4byte	.LVL97
 9348 06d1 0100     		.2byte	0x1
 9349 06d3 51       		.byte	0x51
 9350 06d4 56000000 		.4byte	.LVL97
 9351 06d8 40030000 		.4byte	.LFE703
 9352 06dc 0400     		.2byte	0x4
 9353 06de F3       		.byte	0xf3
 9354 06df 01       		.uleb128 0x1
 9355 06e0 51       		.byte	0x51
 9356 06e1 9F       		.byte	0x9f
 9357 06e2 00000000 		.4byte	0
 9358 06e6 00000000 		.4byte	0
 9359              	.LLST69:
 9360 06ea 30010000 		.4byte	.LVL111
 9361 06ee E4020000 		.4byte	.LVL135
 9362 06f2 0100     		.2byte	0x1
 9363 06f4 55       		.byte	0x55
 9364 06f5 00000000 		.4byte	0
 9365 06f9 00000000 		.4byte	0
 9366              	.LLST70:
 9367 06fd 3C010000 		.4byte	.LVL112
 9368 0701 50010000 		.4byte	.LVL113
 9369 0705 0200     		.2byte	0x2
 9370 0707 90       		.byte	0x90
 9371 0708 4F       		.uleb128 0x4f
 9372 0709 50010000 		.4byte	.LVL113
 9373 070d 5F010000 		.4byte	.LVL115-1
 9374 0711 0D00     		.2byte	0xd
 9375 0713 91       		.byte	0x91
 9376 0714 40       		.sleb128 -64
 9377 0715 F6       		.byte	0xf6
 9378 0716 04       		.byte	0x4
 9379 0717 25       		.uleb128 0x25
 9380 0718 91       		.byte	0x91
 9381 0719 B87F     		.sleb128 -72
 9382 071b F6       		.byte	0xf6
 9383 071c 04       		.byte	0x4
 9384 071d 25       		.uleb128 0x25
 9385 071e 1C       		.byte	0x1c
 9386 071f 9F       		.byte	0x9f
 9387 0720 00000000 		.4byte	0
 9388 0724 00000000 		.4byte	0
 9389              	.LLST71:
 9390 0728 54010000 		.4byte	.LVL114
 9391 072c E0020000 		.4byte	.LVL134
 9392 0730 0200     		.2byte	0x2
 9393 0732 90       		.byte	0x90
 9394 0733 50       		.uleb128 0x50
 9395 0734 00000000 		.4byte	0
ARM GAS  C:\Users\gab_1\AppData\Local\Temp\ccTtYdci.s 			page 229


 9396 0738 00000000 		.4byte	0
 9397              	.LLST72:
 9398 073c 0A000000 		.4byte	.LVL93
 9399 0740 10000000 		.4byte	.LVL94
 9400 0744 0200     		.2byte	0x2
 9401 0746 31       		.byte	0x31
 9402 0747 9F       		.byte	0x9f
 9403 0748 00000000 		.4byte	0
 9404 074c 00000000 		.4byte	0
 9405              	.LLST74:
 9406 0750 0A000000 		.4byte	.LVL93
 9407 0754 10000000 		.4byte	.LVL94
 9408 0758 0600     		.2byte	0x6
 9409 075a 0C       		.byte	0xc
 9410 075b 80053240 		.4byte	0x40320580
 9411 075f 9F       		.byte	0x9f
 9412 0760 00000000 		.4byte	0
 9413 0764 00000000 		.4byte	0
 9414              	.LLST75:
 9415 0768 10000000 		.4byte	.LVL94
 9416 076c 14000000 		.4byte	.LVL95
 9417 0770 0200     		.2byte	0x2
 9418 0772 30       		.byte	0x30
 9419 0773 9F       		.byte	0x9f
 9420 0774 14000000 		.4byte	.LVL95
 9421 0778 5B000000 		.4byte	.LVL99-1
 9422 077c 0100     		.2byte	0x1
 9423 077e 53       		.byte	0x53
 9424 077f 00000000 		.4byte	0
 9425 0783 00000000 		.4byte	0
 9426              	.LLST76:
 9427 0787 AC010000 		.4byte	.LVL122
 9428 078b B0010000 		.4byte	.LVL123
 9429 078f 0200     		.2byte	0x2
 9430 0791 31       		.byte	0x31
 9431 0792 9F       		.byte	0x9f
 9432 0793 B0010000 		.4byte	.LVL123
 9433 0797 E4020000 		.4byte	.LVL135
 9434 079b 0100     		.2byte	0x1
 9435 079d 54       		.byte	0x54
 9436 079e 00000000 		.4byte	0
 9437 07a2 00000000 		.4byte	0
 9438              	.LLST77:
 9439 07a6 28020000 		.4byte	.LVL129
 9440 07aa D0020000 		.4byte	.LVL133
 9441 07ae 0100     		.2byte	0x1
 9442 07b0 51       		.byte	0x51
 9443 07b1 00000000 		.4byte	0
 9444 07b5 00000000 		.4byte	0
 9445              	.LLST78:
 9446 07b9 B4020000 		.4byte	.LVL131
 9447 07bd BA020000 		.4byte	.LVL132
 9448 07c1 0200     		.2byte	0x2
 9449 07c3 30       		.byte	0x30
 9450 07c4 9F       		.byte	0x9f
 9451 07c5 00000000 		.4byte	0
 9452 07c9 00000000 		.4byte	0
ARM GAS  C:\Users\gab_1\AppData\Local\Temp\ccTtYdci.s 			page 230


 9453              	.LLST79:
 9454 07cd B4020000 		.4byte	.LVL131
 9455 07d1 BA020000 		.4byte	.LVL132
 9456 07d5 0200     		.2byte	0x2
 9457 07d7 31       		.byte	0x31
 9458 07d8 9F       		.byte	0x9f
 9459 07d9 00000000 		.4byte	0
 9460 07dd 00000000 		.4byte	0
 9461              	.LLST80:
 9462 07e1 B4020000 		.4byte	.LVL131
 9463 07e5 BA020000 		.4byte	.LVL132
 9464 07e9 0600     		.2byte	0x6
 9465 07eb 0C       		.byte	0xc
 9466 07ec 80053240 		.4byte	0x40320580
 9467 07f0 9F       		.byte	0x9f
 9468 07f1 00000000 		.4byte	0
 9469 07f5 00000000 		.4byte	0
 9470              	.LLST81:
 9471 07f9 04000000 		.4byte	.LVL136
 9472 07fd 0E000000 		.4byte	.LVL137
 9473 0801 0600     		.2byte	0x6
 9474 0803 03       		.byte	0x3
 9475 0804 68000000 		.4byte	.LC5
 9476 0808 9F       		.byte	0x9f
 9477 0809 00000000 		.4byte	0
 9478 080d 00000000 		.4byte	0
 9479              	.LLST83:
 9480 0811 04000000 		.4byte	.LVL136
 9481 0815 0E000000 		.4byte	.LVL137
 9482 0819 0600     		.2byte	0x6
 9483 081b 0C       		.byte	0xc
 9484 081c 00006640 		.4byte	0x40660000
 9485 0820 9F       		.byte	0x9f
 9486 0821 00000000 		.4byte	0
 9487 0825 00000000 		.4byte	0
 9488              	.LLST84:
 9489 0829 20000000 		.4byte	.LVL138
 9490 082d 28000000 		.4byte	.LVL139
 9491 0831 0600     		.2byte	0x6
 9492 0833 03       		.byte	0x3
 9493 0834 74000000 		.4byte	.LC6
 9494 0838 9F       		.byte	0x9f
 9495 0839 00000000 		.4byte	0
 9496 083d 00000000 		.4byte	0
 9497              	.LLST86:
 9498 0841 20000000 		.4byte	.LVL138
 9499 0845 28000000 		.4byte	.LVL139
 9500 0849 0600     		.2byte	0x6
 9501 084b 0C       		.byte	0xc
 9502 084c 00006640 		.4byte	0x40660000
 9503 0850 9F       		.byte	0x9f
 9504 0851 00000000 		.4byte	0
 9505 0855 00000000 		.4byte	0
 9506              	.LLST87:
 9507 0859 3A000000 		.4byte	.LVL140
 9508 085d 42000000 		.4byte	.LVL141
 9509 0861 0100     		.2byte	0x1
ARM GAS  C:\Users\gab_1\AppData\Local\Temp\ccTtYdci.s 			page 231


 9510 0863 5D       		.byte	0x5d
 9511 0864 00000000 		.4byte	0
 9512 0868 00000000 		.4byte	0
 9513              	.LLST89:
 9514 086c 3A000000 		.4byte	.LVL140
 9515 0870 42000000 		.4byte	.LVL141
 9516 0874 0600     		.2byte	0x6
 9517 0876 0C       		.byte	0xc
 9518 0877 00006640 		.4byte	0x40660000
 9519 087b 9F       		.byte	0x9f
 9520 087c 00000000 		.4byte	0
 9521 0880 00000000 		.4byte	0
 9522              	.LLST90:
 9523 0884 5E000000 		.4byte	.LVL143
 9524 0888 66000000 		.4byte	.LVL144
 9525 088c 0600     		.2byte	0x6
 9526 088e 03       		.byte	0x3
 9527 088f 94000000 		.4byte	.LC8
 9528 0893 9F       		.byte	0x9f
 9529 0894 00000000 		.4byte	0
 9530 0898 00000000 		.4byte	0
 9531              	.LLST92:
 9532 089c 5E000000 		.4byte	.LVL143
 9533 08a0 66000000 		.4byte	.LVL144
 9534 08a4 0600     		.2byte	0x6
 9535 08a6 0C       		.byte	0xc
 9536 08a7 00006640 		.4byte	0x40660000
 9537 08ab 9F       		.byte	0x9f
 9538 08ac 00000000 		.4byte	0
 9539 08b0 00000000 		.4byte	0
 9540              	.LLST93:
 9541 08b4 00000000 		.4byte	.LVL145
 9542 08b8 07000000 		.4byte	.LVL146-1
 9543 08bc 0100     		.2byte	0x1
 9544 08be 50       		.byte	0x50
 9545 08bf 07000000 		.4byte	.LVL146-1
 9546 08c3 6C000000 		.4byte	.LFE696
 9547 08c7 0400     		.2byte	0x4
 9548 08c9 F3       		.byte	0xf3
 9549 08ca 01       		.uleb128 0x1
 9550 08cb 50       		.byte	0x50
 9551 08cc 9F       		.byte	0x9f
 9552 08cd 00000000 		.4byte	0
 9553 08d1 00000000 		.4byte	0
 9554              	.LLST94:
 9555 08d5 0C000000 		.4byte	.LVL147
 9556 08d9 0E000000 		.4byte	.LVL148
 9557 08dd 0200     		.2byte	0x2
 9558 08df 30       		.byte	0x30
 9559 08e0 9F       		.byte	0x9f
 9560 08e1 0E000000 		.4byte	.LVL148
 9561 08e5 26000000 		.4byte	.LVL151
 9562 08e9 0100     		.2byte	0x1
 9563 08eb 54       		.byte	0x54
 9564 08ec 26000000 		.4byte	.LVL151
 9565 08f0 4C000000 		.4byte	.LVL156
 9566 08f4 0400     		.2byte	0x4
ARM GAS  C:\Users\gab_1\AppData\Local\Temp\ccTtYdci.s 			page 232


 9567 08f6 74       		.byte	0x74
 9568 08f7 B87E     		.sleb128 -200
 9569 08f9 9F       		.byte	0x9f
 9570 08fa 54000000 		.4byte	.LVL158
 9571 08fe 6C000000 		.4byte	.LFE696
 9572 0902 0100     		.2byte	0x1
 9573 0904 54       		.byte	0x54
 9574 0905 00000000 		.4byte	0
 9575 0909 00000000 		.4byte	0
 9576              	.LLST95:
 9577 090d 30000000 		.4byte	.LVL152
 9578 0911 38000000 		.4byte	.LVL153
 9579 0915 0600     		.2byte	0x6
 9580 0917 03       		.byte	0x3
 9581 0918 A0000000 		.4byte	.LC9
 9582 091c 9F       		.byte	0x9f
 9583 091d 00000000 		.4byte	0
 9584 0921 00000000 		.4byte	0
 9585              	.LLST97:
 9586 0925 30000000 		.4byte	.LVL152
 9587 0929 38000000 		.4byte	.LVL153
 9588 092d 0600     		.2byte	0x6
 9589 092f 0C       		.byte	0xc
 9590 0930 00006640 		.4byte	0x40660000
 9591 0934 9F       		.byte	0x9f
 9592 0935 00000000 		.4byte	0
 9593 0939 00000000 		.4byte	0
 9594              	.LLST98:
 9595 093d 38000000 		.4byte	.LVL153
 9596 0941 40000000 		.4byte	.LVL154
 9597 0945 0200     		.2byte	0x2
 9598 0947 30       		.byte	0x30
 9599 0948 9F       		.byte	0x9f
 9600 0949 00000000 		.4byte	0
 9601 094d 00000000 		.4byte	0
 9602              	.LLST99:
 9603 0951 38000000 		.4byte	.LVL153
 9604 0955 40000000 		.4byte	.LVL154
 9605 0959 0200     		.2byte	0x2
 9606 095b 33       		.byte	0x33
 9607 095c 9F       		.byte	0x9f
 9608 095d 00000000 		.4byte	0
 9609 0961 00000000 		.4byte	0
 9610              	.LLST100:
 9611 0965 38000000 		.4byte	.LVL153
 9612 0969 40000000 		.4byte	.LVL154
 9613 096d 0600     		.2byte	0x6
 9614 096f 0C       		.byte	0xc
 9615 0970 00003240 		.4byte	0x40320000
 9616 0974 9F       		.byte	0x9f
 9617 0975 00000000 		.4byte	0
 9618 0979 00000000 		.4byte	0
 9619              	.LLST101:
 9620 097d 46000000 		.4byte	.LVL155
 9621 0981 4C000000 		.4byte	.LVL156
 9622 0985 0200     		.2byte	0x2
 9623 0987 31       		.byte	0x31
ARM GAS  C:\Users\gab_1\AppData\Local\Temp\ccTtYdci.s 			page 233


 9624 0988 9F       		.byte	0x9f
 9625 0989 00000000 		.4byte	0
 9626 098d 00000000 		.4byte	0
 9627              	.LLST102:
 9628 0991 46000000 		.4byte	.LVL155
 9629 0995 4C000000 		.4byte	.LVL156
 9630 0999 0200     		.2byte	0x2
 9631 099b 33       		.byte	0x33
 9632 099c 9F       		.byte	0x9f
 9633 099d 00000000 		.4byte	0
 9634 09a1 00000000 		.4byte	0
 9635              	.LLST103:
 9636 09a5 46000000 		.4byte	.LVL155
 9637 09a9 4C000000 		.4byte	.LVL156
 9638 09ad 0600     		.2byte	0x6
 9639 09af 0C       		.byte	0xc
 9640 09b0 00003240 		.4byte	0x40320000
 9641 09b4 9F       		.byte	0x9f
 9642 09b5 00000000 		.4byte	0
 9643 09b9 00000000 		.4byte	0
 9644              	.LLST104:
 9645 09bd 06000000 		.4byte	.LVL159
 9646 09c1 0C000000 		.4byte	.LVL160
 9647 09c5 0200     		.2byte	0x2
 9648 09c7 31       		.byte	0x31
 9649 09c8 9F       		.byte	0x9f
 9650 09c9 00000000 		.4byte	0
 9651 09cd 00000000 		.4byte	0
 9652              	.LLST105:
 9653 09d1 06000000 		.4byte	.LVL159
 9654 09d5 0C000000 		.4byte	.LVL160
 9655 09d9 0200     		.2byte	0x2
 9656 09db 33       		.byte	0x33
 9657 09dc 9F       		.byte	0x9f
 9658 09dd 00000000 		.4byte	0
 9659 09e1 00000000 		.4byte	0
 9660              	.LLST106:
 9661 09e5 06000000 		.4byte	.LVL159
 9662 09e9 0C000000 		.4byte	.LVL160
 9663 09ed 0600     		.2byte	0x6
 9664 09ef 0C       		.byte	0xc
 9665 09f0 00003240 		.4byte	0x40320000
 9666 09f4 9F       		.byte	0x9f
 9667 09f5 00000000 		.4byte	0
 9668 09f9 00000000 		.4byte	0
 9669              		.section	.debug_aranges,"",%progbits
 9670 0000 74000000 		.4byte	0x74
 9671 0004 0200     		.2byte	0x2
 9672 0006 00000000 		.4byte	.Ldebug_info0
 9673 000a 04       		.byte	0x4
 9674 000b 00       		.byte	0
 9675 000c 0000     		.2byte	0
 9676 000e 0000     		.2byte	0
 9677 0010 00000000 		.4byte	.LFB695
 9678 0014 78000000 		.4byte	.LFE695-.LFB695
 9679 0018 00000000 		.4byte	.LFB693
 9680 001c 5C000000 		.4byte	.LFE693-.LFB693
ARM GAS  C:\Users\gab_1\AppData\Local\Temp\ccTtYdci.s 			page 234


 9681 0020 00000000 		.4byte	.LFB694
 9682 0024 84000000 		.4byte	.LFE694-.LFB694
 9683 0028 00000000 		.4byte	.LFB697
 9684 002c 60000000 		.4byte	.LFE697-.LFB697
 9685 0030 00000000 		.4byte	.LFB698
 9686 0034 48000000 		.4byte	.LFE698-.LFB698
 9687 0038 00000000 		.4byte	.LFB699
 9688 003c 80000000 		.4byte	.LFE699-.LFB699
 9689 0040 00000000 		.4byte	.LFB700
 9690 0044 5C000000 		.4byte	.LFE700-.LFB700
 9691 0048 00000000 		.4byte	.LFB702
 9692 004c 90000000 		.4byte	.LFE702-.LFB702
 9693 0050 00000000 		.4byte	.LFB703
 9694 0054 40030000 		.4byte	.LFE703-.LFB703
 9695 0058 00000000 		.4byte	.LFB701
 9696 005c 90000000 		.4byte	.LFE701-.LFB701
 9697 0060 00000000 		.4byte	.LFB696
 9698 0064 6C000000 		.4byte	.LFE696-.LFB696
 9699 0068 00000000 		.4byte	.LFB704
 9700 006c 8C000000 		.4byte	.LFE704-.LFB704
 9701 0070 00000000 		.4byte	0
 9702 0074 00000000 		.4byte	0
 9703              		.section	.debug_ranges,"",%progbits
 9704              	.Ldebug_ranges0:
 9705 0000 00000000 		.4byte	.LFB695
 9706 0004 78000000 		.4byte	.LFE695
 9707 0008 00000000 		.4byte	.LFB693
 9708 000c 5C000000 		.4byte	.LFE693
 9709 0010 00000000 		.4byte	.LFB694
 9710 0014 84000000 		.4byte	.LFE694
 9711 0018 00000000 		.4byte	.LFB697
 9712 001c 60000000 		.4byte	.LFE697
 9713 0020 00000000 		.4byte	.LFB698
 9714 0024 48000000 		.4byte	.LFE698
 9715 0028 00000000 		.4byte	.LFB699
 9716 002c 80000000 		.4byte	.LFE699
 9717 0030 00000000 		.4byte	.LFB700
 9718 0034 5C000000 		.4byte	.LFE700
 9719 0038 00000000 		.4byte	.LFB702
 9720 003c 90000000 		.4byte	.LFE702
 9721 0040 00000000 		.4byte	.LFB703
 9722 0044 40030000 		.4byte	.LFE703
 9723 0048 00000000 		.4byte	.LFB701
 9724 004c 90000000 		.4byte	.LFE701
 9725 0050 00000000 		.4byte	.LFB696
 9726 0054 6C000000 		.4byte	.LFE696
 9727 0058 00000000 		.4byte	.LFB704
 9728 005c 8C000000 		.4byte	.LFE704
 9729 0060 00000000 		.4byte	0
 9730 0064 00000000 		.4byte	0
 9731              		.section	.debug_line,"",%progbits
 9732              	.Ldebug_line0:
 9733 0000 15080000 		.section	.debug_str,"MS",%progbits,1
 9733      02003705 
 9733      00000201 
 9733      FB0E0D00 
 9733      01010101 
ARM GAS  C:\Users\gab_1\AppData\Local\Temp\ccTtYdci.s 			page 235


 9734              	.LASF162:
 9735 0000 666C6173 		.ascii	"flashCtlMainWs1Freq\000"
 9735      6843746C 
 9735      4D61696E 
 9735      57733146 
 9735      72657100 
 9736              	.LASF34:
 9737 0014 52455345 		.ascii	"RESERVED\000"
 9737      52564544 
 9737      00
 9738              	.LASF342:
 9739 001d 70726576 		.ascii	"prev_aux_cfg\000"
 9739      5F617578 
 9739      5F636667 
 9739      00
 9740              	.LASF253:
 9741 002a 63795F63 		.ascii	"cy_cb_scb_spi_handle_events_t\000"
 9741      625F7363 
 9741      625F7370 
 9741      695F6861 
 9741      6E646C65 
 9742              	.LASF291:
 9743 0048 73746F70 		.ascii	"stopInputMode\000"
 9743      496E7075 
 9743      744D6F64 
 9743      6500
 9744              	.LASF317:
 9745 0056 626D6931 		.ascii	"bmi160_select_sensor\000"
 9745      36305F73 
 9745      656C6563 
 9745      745F7365 
 9745      6E736F72 
 9746              	.LASF454:
 9747 006b 6D61696E 		.ascii	"main_cm4.c\000"
 9747      5F636D34 
 9747      2E6300
 9748              	.LASF398:
 9749 0076 63795F64 		.ascii	"cy_device\000"
 9749      65766963 
 9749      6500
 9750              	.LASF187:
 9751 0080 6770696F 		.ascii	"gpioPrtCfgOutOffset\000"
 9751      50727443 
 9751      66674F75 
 9751      744F6666 
 9751      73657400 
 9752              	.LASF189:
 9753 0094 63707573 		.ascii	"cpussCm0ClockCtlOffset\000"
 9753      73436D30 
 9753      436C6F63 
 9753      6B43746C 
 9753      4F666673 
 9754              	.LASF148:
 9755 00ab 70657269 		.ascii	"periClockNr\000"
 9755      436C6F63 
 9755      6B4E7200 
 9756              	.LASF347:
ARM GAS  C:\Users\gab_1\AppData\Local\Temp\ccTtYdci.s 			page 236


 9757 00b7 72656164 		.ascii	"read_write_len\000"
 9757      5F777269 
 9757      74655F6C 
 9757      656E00
 9758              	.LASF455:
 9759 00c6 443A5C44 		.ascii	"D:\\Documents\\PSoC Creator\\VERSION FINALE DE FINA"
 9759      6F63756D 
 9759      656E7473 
 9759      5C50536F 
 9759      43204372 
 9760 00f6 4C204649 		.ascii	"L FINAL FINAL projet\\Laboratoire3(nouvelleVersion)"
 9760      4E414C20 
 9760      46494E41 
 9760      4C207072 
 9760      6F6A6574 
 9761 0128 5C4C6162 		.ascii	"\\Laboratoire3.cydsn\000"
 9761      6F726174 
 9761      6F697265 
 9761      332E6379 
 9761      64736E00 
 9762              	.LASF399:
 9763 013c 43595F45 		.ascii	"CY_EINK_SPIM_context\000"
 9763      494E4B5F 
 9763      5350494D 
 9763      5F636F6E 
 9763      74657874 
 9764              	.LASF303:
 9765 0151 626D6931 		.ascii	"bmi160_sensor_data\000"
 9765      36305F73 
 9765      656E736F 
 9765      725F6461 
 9765      746100
 9766              	.LASF267:
 9767 0164 74785374 		.ascii	"txStatus\000"
 9767      61747573 
 9767      00
 9768              	.LASF220:
 9769 016d 43595F53 		.ascii	"CY_SCB_I2C_MASTER_MANUAL_BUS_ERR\000"
 9769      43425F49 
 9769      32435F4D 
 9769      41535445 
 9769      525F4D41 
 9770              	.LASF386:
 9771 018e 6D696E49 		.ascii	"minIR\000"
 9771      5200
 9772              	.LASF51:
 9773 0194 434D445F 		.ascii	"CMD_RESP_STATUS\000"
 9773      52455350 
 9773      5F535441 
 9773      54555300 
 9774              	.LASF245:
 9775 01a4 736C6176 		.ascii	"slaveTxBufferIdx\000"
 9775      65547842 
 9775      75666665 
 9775      72496478 
 9775      00
 9776              	.LASF366:
ARM GAS  C:\Users\gab_1\AppData\Local\Temp\ccTtYdci.s 			page 237


 9777 01b5 72736C74 		.ascii	"rslt\000"
 9777      00
 9778              	.LASF107:
 9779 01ba 494E5452 		.ascii	"INTR_TX_MASK\000"
 9779      5F54585F 
 9779      4D41534B 
 9779      00
 9780              	.LASF121:
 9781 01c7 70657269 		.ascii	"periBase\000"
 9781      42617365 
 9781      00
 9782              	.LASF393:
 9783 01d0 6D6F7469 		.ascii	"motionTask\000"
 9783      6F6E5461 
 9783      736B00
 9784              	.LASF308:
 9785 01db 626D6931 		.ascii	"bmi160_cfg\000"
 9785      36305F63 
 9785      666700
 9786              	.LASF224:
 9787 01e6 43595F53 		.ascii	"CY_SCB_I2C_READ_XFER\000"
 9787      43425F49 
 9787      32435F52 
 9787      4541445F 
 9787      58464552 
 9788              	.LASF315:
 9789 01fb 6175785F 		.ascii	"aux_odr\000"
 9789      6F647200 
 9790              	.LASF373:
 9791 0203 62756666 		.ascii	"buffer\000"
 9791      657200
 9792              	.LASF301:
 9793 020a 626D6931 		.ascii	"bmi160_write_fptr_t\000"
 9793      36305F77 
 9793      72697465 
 9793      5F667074 
 9793      725F7400 
 9794              	.LASF167:
 9795 021e 64774368 		.ascii	"dwChSize\000"
 9795      53697A65 
 9795      00
 9796              	.LASF68:
 9797 0227 54585F46 		.ascii	"TX_FIFO_STATUS\000"
 9797      49464F5F 
 9797      53544154 
 9797      555300
 9798              	.LASF241:
 9799 0236 736C6176 		.ascii	"slaveStatus\000"
 9799      65537461 
 9799      74757300 
 9800              	.LASF45:
 9801 0242 5644445F 		.ascii	"VDD_INTR_MASKED\000"
 9801      494E5452 
 9801      5F4D4153 
 9801      4B454400 
 9802              	.LASF229:
 9803 0252 63795F63 		.ascii	"cy_cb_scb_i2c_handle_events_t\000"
ARM GAS  C:\Users\gab_1\AppData\Local\Temp\ccTtYdci.s 			page 238


 9803      625F7363 
 9803      625F6932 
 9803      635F6861 
 9803      6E646C65 
 9804              	.LASF239:
 9805 0270 6D617374 		.ascii	"masterBufferIdx\000"
 9805      65724275 
 9805      66666572 
 9805      49647800 
 9806              	.LASF83:
 9807 0280 494E5452 		.ascii	"INTR_CAUSE\000"
 9807      5F434155 
 9807      534500
 9808              	.LASF149:
 9809 028b 736D6966 		.ascii	"smifDeviceNr\000"
 9809      44657669 
 9809      63654E72 
 9809      00
 9810              	.LASF179:
 9811 0298 70657269 		.ascii	"periDivCmdPaTypeSelPos\000"
 9811      44697643 
 9811      6D645061 
 9811      54797065 
 9811      53656C50 
 9812              	.LASF262:
 9813 02af 74784275 		.ascii	"txBufIdx\000"
 9813      66496478 
 9813      00
 9814              	.LASF414:
 9815 02b8 50617373 		.ascii	"PasseBas\000"
 9815      65426173 
 9815      00
 9816              	.LASF290:
 9817 02c1 73746172 		.ascii	"startInput\000"
 9817      74496E70 
 9817      757400
 9818              	.LASF369:
 9819 02cc 72656756 		.ascii	"regValue\000"
 9819      616C7565 
 9819      00
 9820              	.LASF9:
 9821 02d5 5F5F696E 		.ascii	"__int32_t\000"
 9821      7433325F 
 9821      7400
 9822              	.LASF274:
 9823 02df 63795F73 		.ascii	"cy_stc_scb_uart_context_t\000"
 9823      74635F73 
 9823      63625F75 
 9823      6172745F 
 9823      636F6E74 
 9824              	.LASF119:
 9825 02f9 63707573 		.ascii	"cpussBase\000"
 9825      73426173 
 9825      6500
 9826              	.LASF247:
 9827 0303 736C6176 		.ascii	"slaveRxBuffer\000"
 9827      65527842 
ARM GAS  C:\Users\gab_1\AppData\Local\Temp\ccTtYdci.s 			page 239


 9827      75666665 
 9827      7200
 9828              	.LASF416:
 9829 0311 53704F32 		.ascii	"SpO2\000"
 9829      00
 9830              	.LASF445:
 9831 0316 43617053 		.ascii	"CapSense_Start\000"
 9831      656E7365 
 9831      5F537461 
 9831      727400
 9832              	.LASF101:
 9833 0325 494E5452 		.ascii	"INTR_S_SET\000"
 9833      5F535F53 
 9833      455400
 9834              	.LASF251:
 9835 0330 63624164 		.ascii	"cbAddr\000"
 9835      647200
 9836              	.LASF113:
 9837 0337 494E5452 		.ascii	"INTR_RX_MASKED\000"
 9837      5F52585F 
 9837      4D41534B 
 9837      454400
 9838              	.LASF226:
 9839 0346 43595F53 		.ascii	"CY_SCB_I2C_ACK\000"
 9839      43425F49 
 9839      32435F41 
 9839      434B00
 9840              	.LASF292:
 9841 0355 73746F70 		.ascii	"stopInput\000"
 9841      496E7075 
 9841      7400
 9842              	.LASF270:
 9843 035f 72785269 		.ascii	"rxRingBufSize\000"
 9843      6E674275 
 9843      6653697A 
 9843      6500
 9844              	.LASF258:
 9845 036d 72784275 		.ascii	"rxBufSize\000"
 9845      6653697A 
 9845      6500
 9846              	.LASF228:
 9847 0377 63795F65 		.ascii	"cy_en_scb_i2c_command_t\000"
 9847      6E5F7363 
 9847      625F6932 
 9847      635F636F 
 9847      6D6D616E 
 9848              	.LASF175:
 9849 038f 70657269 		.ascii	"periTrGrSize\000"
 9849      54724772 
 9849      53697A65 
 9849      00
 9850              	.LASF178:
 9851 039c 70657269 		.ascii	"periDivCmdPaDivSelPos\000"
 9851      44697643 
 9851      6D645061 
 9851      44697653 
 9851      656C506F 
ARM GAS  C:\Users\gab_1\AppData\Local\Temp\ccTtYdci.s 			page 240


 9852              	.LASF29:
 9853 03b2 494E5452 		.ascii	"INTR_SET\000"
 9853      5F534554 
 9853      00
 9854              	.LASF155:
 9855 03bb 63727970 		.ascii	"cryptoMemSize\000"
 9855      746F4D65 
 9855      6D53697A 
 9855      6500
 9856              	.LASF62:
 9857 03c9 4932435F 		.ascii	"I2C_M_CMD\000"
 9857      4D5F434D 
 9857      4400
 9858              	.LASF201:
 9859 03d3 63707573 		.ascii	"cpussRam1Ctl0\000"
 9859      7352616D 
 9859      3143746C 
 9859      3000
 9860              	.LASF420:
 9861 03e1 626F726E 		.ascii	"borneInf\000"
 9861      65496E66 
 9861      00
 9862              	.LASF452:
 9863 03ea 43617053 		.ascii	"CapSense_IsBusy\000"
 9863      656E7365 
 9863      5F497342 
 9863      75737900 
 9864              	.LASF203:
 9865 03fa 69706353 		.ascii	"ipcStructSize\000"
 9865      74727563 
 9865      7453697A 
 9865      6500
 9866              	.LASF227:
 9867 0408 43595F53 		.ascii	"CY_SCB_I2C_NAK\000"
 9867      43425F49 
 9867      32435F4E 
 9867      414B00
 9868              	.LASF444:
 9869 0417 626D6931 		.ascii	"bmi160_get_sensor_data\000"
 9869      36305F67 
 9869      65745F73 
 9869      656E736F 
 9869      725F6461 
 9870              	.LASF143:
 9871 042e 63707573 		.ascii	"cpussFmIrq\000"
 9871      73466D49 
 9871      727100
 9872              	.LASF319:
 9873 0439 424D4931 		.ascii	"BMI160_BOTH_ANY_SIG_MOTION_DISABLED\000"
 9873      36305F42 
 9873      4F54485F 
 9873      414E595F 
 9873      5349475F 
 9874              	.LASF230:
 9875 045d 63795F63 		.ascii	"cy_cb_scb_i2c_handle_addr_t\000"
 9875      625F7363 
 9875      625F6932 
ARM GAS  C:\Users\gab_1\AppData\Local\Temp\ccTtYdci.s 			page 241


 9875      635F6861 
 9875      6E646C65 
 9876              	.LASF281:
 9877 0479 636F6D70 		.ascii	"compare0\000"
 9877      61726530 
 9877      00
 9878              	.LASF282:
 9879 0482 636F6D70 		.ascii	"compare1\000"
 9879      61726531 
 9879      00
 9880              	.LASF453:
 9881 048b 474E5520 		.ascii	"GNU C11 5.4.1 20160609 (release) [ARM/embedded-5-br"
 9881      43313120 
 9881      352E342E 
 9881      31203230 
 9881      31363036 
 9882 04be 616E6368 		.ascii	"anch revision 237715] -mcpu=cortex-m4 -mfloat-abi=s"
 9882      20726576 
 9882      6973696F 
 9882      6E203233 
 9882      37373135 
 9883 04f1 6F667466 		.ascii	"oftfp -mfpu=fpv4-sp-d16 -mthumb -g -Og -ffunction-s"
 9883      70202D6D 
 9883      6670753D 
 9883      66707634 
 9883      2D73702D 
 9884 0524 65637469 		.ascii	"ections -ffat-lto-objects\000"
 9884      6F6E7320 
 9884      2D666661 
 9884      742D6C74 
 9884      6F2D6F62 
 9885              	.LASF137:
 9886 053e 70726F74 		.ascii	"protVersion\000"
 9886      56657273 
 9886      696F6E00 
 9887              	.LASF380:
 9888 054a 44617461 		.ascii	"DataIR\000"
 9888      495200
 9889              	.LASF56:
 9890 0551 55415254 		.ascii	"UART_RX_CTRL\000"
 9890      5F52585F 
 9890      4354524C 
 9890      00
 9891              	.LASF302:
 9892 055e 626D6931 		.ascii	"bmi160_delay_fptr_t\000"
 9892      36305F64 
 9892      656C6179 
 9892      5F667074 
 9892      725F7400 
 9893              	.LASF440:
 9894 0572 61726D5F 		.ascii	"arm_max_f32\000"
 9894      6D61785F 
 9894      66333200 
 9895              	.LASF177:
 9896 057e 70657269 		.ascii	"periDivCmdTypeSelPos\000"
 9896      44697643 
 9896      6D645479 
ARM GAS  C:\Users\gab_1\AppData\Local\Temp\ccTtYdci.s 			page 242


 9896      70655365 
 9896      6C506F73 
 9897              	.LASF194:
 9898 0593 63707573 		.ascii	"cpussTrimRamCtlOffset\000"
 9898      73547269 
 9898      6D52616D 
 9898      43746C4F 
 9898      66667365 
 9899              	.LASF117:
 9900 05a9 43795343 		.ascii	"CySCB_Type\000"
 9900      425F5479 
 9900      706500
 9901              	.LASF197:
 9902 05b4 63707573 		.ascii	"cpussCm0NmiCtlOffset\000"
 9902      73436D30 
 9902      4E6D6943 
 9902      746C4F66 
 9902      66736574 
 9903              	.LASF326:
 9904 05c9 6669666F 		.ascii	"fifo_header_enable\000"
 9904      5F686561 
 9904      6465725F 
 9904      656E6162 
 9904      6C6500
 9905              	.LASF31:
 9906 05dc 4346475F 		.ascii	"CFG_IN\000"
 9906      494E00
 9907              	.LASF385:
 9908 05e3 6D617852 		.ascii	"maxRed\000"
 9908      656400
 9909              	.LASF64:
 9910 05ea 4932435F 		.ascii	"I2C_CFG\000"
 9910      43464700 
 9911              	.LASF321:
 9912 05f2 424D4931 		.ascii	"BMI160_SIG_MOTION_ENABLED\000"
 9912      36305F53 
 9912      49475F4D 
 9912      4F54494F 
 9912      4E5F454E 
 9913              	.LASF243:
 9914 060c 736C6176 		.ascii	"slaveTxBuffer\000"
 9914      65547842 
 9914      75666665 
 9914      7200
 9915              	.LASF423:
 9916 061a 49724669 		.ascii	"IrFiltre1\000"
 9916      6C747265 
 9916      3100
 9917              	.LASF348:
 9918 0624 4932435F 		.ascii	"I2C_MasterSendStop\000"
 9918      4D617374 
 9918      65725365 
 9918      6E645374 
 9918      6F7000
 9919              	.LASF79:
 9920 0637 52585F46 		.ascii	"RX_FIFO_RD_SILENT\000"
 9920      49464F5F 
ARM GAS  C:\Users\gab_1\AppData\Local\Temp\ccTtYdci.s 			page 243


 9920      52445F53 
 9920      494C454E 
 9920      5400
 9921              	.LASF284:
 9922 0649 696E7465 		.ascii	"interruptSources\000"
 9922      72727570 
 9922      74536F75 
 9922      72636573 
 9922      00
 9923              	.LASF21:
 9924 065a 75696E74 		.ascii	"uint32_t\000"
 9924      33325F74 
 9924      00
 9925              	.LASF16:
 9926 0663 696E7438 		.ascii	"int8_t\000"
 9926      5F7400
 9927              	.LASF309:
 9928 066a 706F7765 		.ascii	"power\000"
 9928      7200
 9929              	.LASF96:
 9930 0670 494E5452 		.ascii	"INTR_M_SET\000"
 9930      5F4D5F53 
 9930      455400
 9931              	.LASF439:
 9932 067b 61726D5F 		.ascii	"arm_fir_f32\000"
 9932      6669725F 
 9932      66333200 
 9933              	.LASF47:
 9934 0687 4750494F 		.ascii	"GPIO_V1_Type\000"
 9934      5F56315F 
 9934      54797065 
 9934      00
 9935              	.LASF390:
 9936 0694 41435265 		.ascii	"ACRed\000"
 9936      6400
 9937              	.LASF108:
 9938 069a 494E5452 		.ascii	"INTR_TX_MASKED\000"
 9938      5F54585F 
 9938      4D41534B 
 9938      454400
 9939              	.LASF26:
 9940 06a9 494E5452 		.ascii	"INTR\000"
 9940      00
 9941              	.LASF14:
 9942 06ae 6C6F6E67 		.ascii	"long long unsigned int\000"
 9942      206C6F6E 
 9942      6720756E 
 9942      7369676E 
 9942      65642069 
 9943              	.LASF24:
 9944 06c5 4F55545F 		.ascii	"OUT_SET\000"
 9944      53455400 
 9945              	.LASF130:
 9946 06cd 63727970 		.ascii	"cryptoVersion\000"
 9946      746F5665 
 9946      7273696F 
 9946      6E00
ARM GAS  C:\Users\gab_1\AppData\Local\Temp\ccTtYdci.s 			page 244


 9947              	.LASF98:
 9948 06db 494E5452 		.ascii	"INTR_M_MASKED\000"
 9948      5F4D5F4D 
 9948      41534B45 
 9948      4400
 9949              	.LASF151:
 9950 06e9 65704D6F 		.ascii	"epMonitorNr\000"
 9950      6E69746F 
 9950      724E7200 
 9951              	.LASF361:
 9952 06f5 62617365 		.ascii	"base\000"
 9952      00
 9953              	.LASF436:
 9954 06fa 43795F53 		.ascii	"Cy_SysLib_Delay\000"
 9954      79734C69 
 9954      625F4465 
 9954      6C617900 
 9955              	.LASF234:
 9956 070a 6D617374 		.ascii	"masterStatus\000"
 9956      65725374 
 9956      61747573 
 9956      00
 9957              	.LASF266:
 9958 0717 63795F73 		.ascii	"cy_stc_scb_uart_context\000"
 9958      74635F73 
 9958      63625F75 
 9958      6172745F 
 9958      636F6E74 
 9959              	.LASF23:
 9960 072f 4F55545F 		.ascii	"OUT_CLR\000"
 9960      434C5200 
 9961              	.LASF288:
 9962 0737 72656C6F 		.ascii	"reloadInput\000"
 9962      6164496E 
 9962      70757400 
 9963              	.LASF18:
 9964 0743 696E7431 		.ascii	"int16_t\000"
 9964      365F7400 
 9965              	.LASF186:
 9966 074b 6770696F 		.ascii	"gpioPrtCfgInOffset\000"
 9966      50727443 
 9966      6667496E 
 9966      4F666673 
 9966      657400
 9967              	.LASF435:
 9968 075e 43795F53 		.ascii	"Cy_SCB_WriteString\000"
 9968      43425F57 
 9968      72697465 
 9968      53747269 
 9968      6E6700
 9969              	.LASF382:
 9970 0771 44434952 		.ascii	"DCIR\000"
 9970      00
 9971              	.LASF350:
 9972 0776 74696D65 		.ascii	"timeoutMs\000"
 9972      6F75744D 
 9972      7300
ARM GAS  C:\Users\gab_1\AppData\Local\Temp\ccTtYdci.s 			page 245


 9973              	.LASF183:
 9974 0780 70657269 		.ascii	"periDiv24_5CtlOffset\000"
 9974      44697632 
 9974      345F3543 
 9974      746C4F66 
 9974      66736574 
 9975              	.LASF188:
 9976 0795 6770696F 		.ascii	"gpioPrtCfgSioOffset\000"
 9976      50727443 
 9976      66675369 
 9976      6F4F6666 
 9976      73657400 
 9977              	.LASF360:
 9978 07a9 43795F47 		.ascii	"Cy_GPIO_Write\000"
 9978      50494F5F 
 9978      57726974 
 9978      6500
 9979              	.LASF142:
 9980 07b7 63707573 		.ascii	"cpussIpc0Irq\000"
 9980      73497063 
 9980      30497271 
 9980      00
 9981              	.LASF434:
 9982 07c4 43795F53 		.ascii	"Cy_SCB_I2C_MasterSendReStart\000"
 9982      43425F49 
 9982      32435F4D 
 9982      61737465 
 9982      7253656E 
 9983              	.LASF259:
 9984 07e1 72784275 		.ascii	"rxBufIdx\000"
 9984      66496478 
 9984      00
 9985              	.LASF421:
 9986 07ea 49724669 		.ascii	"IrFiltre\000"
 9986      6C747265 
 9986      00
 9987              	.LASF89:
 9988 07f3 52455345 		.ascii	"RESERVED12\000"
 9988      52564544 
 9988      313200
 9989              	.LASF430:
 9990 07fe 43795F53 		.ascii	"Cy_SCB_I2C_MasterWriteByte\000"
 9990      43425F49 
 9990      32435F4D 
 9990      61737465 
 9990      72577269 
 9991              	.LASF122:
 9992 0819 75646242 		.ascii	"udbBase\000"
 9992      61736500 
 9993              	.LASF244:
 9994 0821 736C6176 		.ascii	"slaveTxBufferSize\000"
 9994      65547842 
 9994      75666665 
 9994      7253697A 
 9994      6500
 9995              	.LASF35:
 9996 0833 4346475F 		.ascii	"CFG_IN_GPIO5V\000"
ARM GAS  C:\Users\gab_1\AppData\Local\Temp\ccTtYdci.s 			page 246


 9996      494E5F47 
 9996      50494F35 
 9996      5600
 9997              	.LASF208:
 9998 0841 666C6F61 		.ascii	"float32_t\000"
 9998      7433325F 
 9998      7400
 9999              	.LASF242:
 10000 084b 736C6176 		.ascii	"slaveRdBufEmpty\000"
 10000      65526442 
 10000      7566456D 
 10000      70747900 
 10001              	.LASF191:
 10002 085b 63707573 		.ascii	"cpussCm4StatusOffset\000"
 10002      73436D34 
 10002      53746174 
 10002      75734F66 
 10002      66736574 
 10003              	.LASF131:
 10004 0870 64775665 		.ascii	"dwVersion\000"
 10004      7273696F 
 10004      6E00
 10005              	.LASF289:
 10006 087a 73746172 		.ascii	"startInputMode\000"
 10006      74496E70 
 10006      75744D6F 
 10006      646500
 10007              	.LASF66:
 10008 0889 54585F43 		.ascii	"TX_CTRL\000"
 10008      54524C00 
 10009              	.LASF106:
 10010 0891 494E5452 		.ascii	"INTR_TX_SET\000"
 10010      5F54585F 
 10010      53455400 
 10011              	.LASF285:
 10012 089d 63617074 		.ascii	"captureInputMode\000"
 10012      75726549 
 10012      6E707574 
 10012      4D6F6465 
 10012      00
 10013              	.LASF55:
 10014 08ae 55415254 		.ascii	"UART_TX_CTRL\000"
 10014      5F54585F 
 10014      4354524C 
 10014      00
 10015              	.LASF363:
 10016 08bb 76616C75 		.ascii	"value\000"
 10016      6500
 10017              	.LASF32:
 10018 08c1 4346475F 		.ascii	"CFG_OUT\000"
 10018      4F555400 
 10019              	.LASF268:
 10020 08c9 72785374 		.ascii	"rxStatus\000"
 10020      61747573 
 10020      00
 10021              	.LASF351:
 10022 08d2 61636B4E 		.ascii	"ackNack\000"
ARM GAS  C:\Users\gab_1\AppData\Local\Temp\ccTtYdci.s 			page 247


 10022      61636B00 
 10023              	.LASF336:
 10024 08da 616E795F 		.ascii	"any_sig_sel\000"
 10024      7369675F 
 10024      73656C00 
 10025              	.LASF164:
 10026 08e6 666C6173 		.ascii	"flashCtlMainWs3Freq\000"
 10026      6843746C 
 10026      4D61696E 
 10026      57733346 
 10026      72657100 
 10027              	.LASF305:
 10028 08fa 424D4931 		.ascii	"BMI160_ACCEL_ONLY\000"
 10028      36305F41 
 10028      4343454C 
 10028      5F4F4E4C 
 10028      5900
 10029              	.LASF357:
 10030 090c 4932435F 		.ascii	"I2C_MasterSendStart\000"
 10030      4D617374 
 10030      65725365 
 10030      6E645374 
 10030      61727400 
 10031              	.LASF146:
 10032 0920 73727373 		.ascii	"srssNumPll\000"
 10032      4E756D50 
 10032      6C6C00
 10033              	.LASF334:
 10034 092b 63686970 		.ascii	"chip_id\000"
 10034      5F696400 
 10035              	.LASF343:
 10036 0933 6669666F 		.ascii	"fifo\000"
 10036      00
 10037              	.LASF459:
 10038 0938 70757473 		.ascii	"puts\000"
 10038      00
 10039              	.LASF331:
 10040 093d 73656E73 		.ascii	"sensor_time\000"
 10040      6F725F74 
 10040      696D6500 
 10041              	.LASF392:
 10042 0949 4F757450 		.ascii	"OutPutStream\000"
 10042      75745374 
 10042      7265616D 
 10042      00
 10043              	.LASF125:
 10044 0956 6770696F 		.ascii	"gpioBase\000"
 10044      42617365 
 10044      00
 10045              	.LASF389:
 10046 095f 41434972 		.ascii	"ACIr\000"
 10046      00
 10047              	.LASF90:
 10048 0964 494E5452 		.ascii	"INTR_SPI_EC\000"
 10048      5F535049 
 10048      5F454300 
 10049              	.LASF157:
ARM GAS  C:\Users\gab_1\AppData\Local\Temp\ccTtYdci.s 			page 248


 10050 0970 666C6173 		.ascii	"flashPipeRequired\000"
 10050      68506970 
 10050      65526571 
 10050      75697265 
 10050      6400
 10051              	.LASF320:
 10052 0982 424D4931 		.ascii	"BMI160_ANY_MOTION_ENABLED\000"
 10052      36305F41 
 10052      4E595F4D 
 10052      4F54494F 
 10052      4E5F454E 
 10053              	.LASF257:
 10054 099c 72784275 		.ascii	"rxBuf\000"
 10054      6600
 10055              	.LASF250:
 10056 09a2 63624576 		.ascii	"cbEvents\000"
 10056      656E7473 
 10056      00
 10057              	.LASF427:
 10058 09ab 76546173 		.ascii	"vTaskDelay\000"
 10058      6B44656C 
 10058      617900
 10059              	.LASF254:
 10060 09b6 63795F73 		.ascii	"cy_stc_scb_i2c_context\000"
 10060      74635F73 
 10060      63625F69 
 10060      32635F63 
 10060      6F6E7465 
 10061              	.LASF209:
 10062 09cd 646F7562 		.ascii	"double\000"
 10062      6C6500
 10063              	.LASF298:
 10064 09d4 70436F65 		.ascii	"pCoeffs\000"
 10064      66667300 
 10065              	.LASF76:
 10066 09dc 52585F4D 		.ascii	"RX_MATCH\000"
 10066      41544348 
 10066      00
 10067              	.LASF215:
 10068 09e5 43595F53 		.ascii	"CY_SCB_I2C_MASTER_NOT_READY\000"
 10068      43425F49 
 10068      32435F4D 
 10068      41535445 
 10068      525F4E4F 
 10069              	.LASF275:
 10070 0a01 63795F73 		.ascii	"cy_stc_tcpwm_counter_config\000"
 10070      74635F74 
 10070      6370776D 
 10070      5F636F75 
 10070      6E746572 
 10071              	.LASF219:
 10072 0a1d 43595F53 		.ascii	"CY_SCB_I2C_MASTER_MANUAL_ARB_LOST\000"
 10072      43425F49 
 10072      32435F4D 
 10072      41535445 
 10072      525F4D41 
 10073              	.LASF140:
ARM GAS  C:\Users\gab_1\AppData\Local\Temp\ccTtYdci.s 			page 249


 10074 0a3f 63707573 		.ascii	"cpussDwChNr\000"
 10074      73447743 
 10074      684E7200 
 10075              	.LASF231:
 10076 0a4b 75736552 		.ascii	"useRxFifo\000"
 10076      78466966 
 10076      6F00
 10077              	.LASF43:
 10078 0a55 5644445F 		.ascii	"VDD_INTR\000"
 10078      494E5452 
 10078      00
 10079              	.LASF397:
 10080 0a5e 49544D5F 		.ascii	"ITM_RxBuffer\000"
 10080      52784275 
 10080      66666572 
 10080      00
 10081              	.LASF396:
 10082 0a6b 66697253 		.ascii	"firStateF32\000"
 10082      74617465 
 10082      46333200 
 10083              	.LASF85:
 10084 0a77 494E5452 		.ascii	"INTR_I2C_EC\000"
 10084      5F493243 
 10084      5F454300 
 10085              	.LASF378:
 10086 0a83 6D617869 		.ascii	"maxim_max30102_init\000"
 10086      6D5F6D61 
 10086      78333031 
 10086      30325F69 
 10086      6E697400 
 10087              	.LASF367:
 10088 0a97 424D4931 		.ascii	"BMI160BurstWrite\000"
 10088      36304275 
 10088      72737457 
 10088      72697465 
 10088      00
 10089              	.LASF103:
 10090 0aa8 494E5452 		.ascii	"INTR_S_MASKED\000"
 10090      5F535F4D 
 10090      41534B45 
 10090      4400
 10091              	.LASF358:
 10092 0ab6 73747269 		.ascii	"string\000"
 10092      6E6700
 10093              	.LASF346:
 10094 0abd 64656C61 		.ascii	"delay_ms\000"
 10094      795F6D73 
 10094      00
 10095              	.LASF196:
 10096 0ac6 63707573 		.ascii	"cpussSysTickCtlOffset\000"
 10096      73537973 
 10096      5469636B 
 10096      43746C4F 
 10096      66667365 
 10097              	.LASF152:
 10098 0adc 75646250 		.ascii	"udbPresent\000"
 10098      72657365 
ARM GAS  C:\Users\gab_1\AppData\Local\Temp\ccTtYdci.s 			page 250


 10098      6E7400
 10099              	.LASF115:
 10100 0ae7 4750494F 		.ascii	"GPIO_PRT_Type\000"
 10100      5F505254 
 10100      5F547970 
 10100      6500
 10101              	.LASF404:
 10102 0af5 496E6465 		.ascii	"Index\000"
 10102      7800
 10103              	.LASF170:
 10104 0afb 64775374 		.ascii	"dwStatusChIdxPos\000"
 10104      61747573 
 10104      43684964 
 10104      78506F73 
 10104      00
 10105              	.LASF7:
 10106 0b0c 5F5F7569 		.ascii	"__uint16_t\000"
 10106      6E743136 
 10106      5F7400
 10107              	.LASF401:
 10108 0b17 55415254 		.ascii	"UART_1_context\000"
 10108      5F315F63 
 10108      6F6E7465 
 10108      787400
 10109              	.LASF384:
 10110 0b26 6D617849 		.ascii	"maxIR\000"
 10110      5200
 10111              	.LASF409:
 10112 0b2c 62756666 		.ascii	"bufferINFRAROUGE\000"
 10112      6572494E 
 10112      46524152 
 10112      4F554745 
 10112      00
 10113              	.LASF365:
 10114 0b3d 7265675F 		.ascii	"reg_addr\000"
 10114      61646472 
 10114      00
 10115              	.LASF240:
 10116 0b46 6D617374 		.ascii	"masterNumBytes\000"
 10116      65724E75 
 10116      6D427974 
 10116      657300
 10117              	.LASF383:
 10118 0b55 44435245 		.ascii	"DCRED\000"
 10118      4400
 10119              	.LASF141:
 10120 0b5b 63707573 		.ascii	"cpussFlashPaSize\000"
 10120      73466C61 
 10120      73685061 
 10120      53697A65 
 10120      00
 10121              	.LASF286:
 10122 0b6c 63617074 		.ascii	"captureInput\000"
 10122      75726549 
 10122      6E707574 
 10122      00
 10123              	.LASF120:
ARM GAS  C:\Users\gab_1\AppData\Local\Temp\ccTtYdci.s 			page 251


 10124 0b79 666C6173 		.ascii	"flashcBase\000"
 10124      68634261 
 10124      736500
 10125              	.LASF207:
 10126 0b84 63686172 		.ascii	"char\000"
 10126      00
 10127              	.LASF114:
 10128 0b89 43795343 		.ascii	"CySCB_V1_Type\000"
 10128      425F5631 
 10128      5F547970 
 10128      6500
 10129              	.LASF341:
 10130 0b97 6175785F 		.ascii	"aux_cfg\000"
 10130      63666700 
 10131              	.LASF272:
 10132 0b9f 72785269 		.ascii	"rxRingBufTail\000"
 10132      6E674275 
 10132      66546169 
 10132      6C00
 10133              	.LASF375:
 10134 0bad 72656164 		.ascii	"read_FIFO_DATA\000"
 10134      5F464946 
 10134      4F5F4441 
 10134      544100
 10135              	.LASF405:
 10136 0bbc 666C6167 		.ascii	"flagAlarme\000"
 10136      416C6172 
 10136      6D6500
 10137              	.LASF102:
 10138 0bc7 494E5452 		.ascii	"INTR_S_MASK\000"
 10138      5F535F4D 
 10138      41534B00 
 10139              	.LASF349:
 10140 0bd3 4932435F 		.ascii	"I2C_MasterReadByte\000"
 10140      4D617374 
 10140      65725265 
 10140      61644279 
 10140      746500
 10141              	.LASF153:
 10142 0be6 73797350 		.ascii	"sysPmSimoPresent\000"
 10142      6D53696D 
 10142      6F507265 
 10142      73656E74 
 10142      00
 10143              	.LASF238:
 10144 0bf7 6D617374 		.ascii	"masterBufferSize\000"
 10144      65724275 
 10144      66666572 
 10144      53697A65 
 10144      00
 10145              	.LASF213:
 10146 0c08 43595F53 		.ascii	"CY_SCB_I2C_SUCCESS\000"
 10146      43425F49 
 10146      32435F53 
 10146      55434345 
 10146      535300
 10147              	.LASF88:
ARM GAS  C:\Users\gab_1\AppData\Local\Temp\ccTtYdci.s 			page 252


 10148 0c1b 494E5452 		.ascii	"INTR_I2C_EC_MASKED\000"
 10148      5F493243 
 10148      5F45435F 
 10148      4D41534B 
 10148      454400
 10149              	.LASF333:
 10150 0c2e 626D6931 		.ascii	"bmi160_dev\000"
 10150      36305F64 
 10150      657600
 10151              	.LASF429:
 10152 0c39 626D6931 		.ascii	"bmi160_set_sens_conf\000"
 10152      36305F73 
 10152      65745F73 
 10152      656E735F 
 10152      636F6E66 
 10153              	.LASF277:
 10154 0c4e 636C6F63 		.ascii	"clockPrescaler\000"
 10154      6B507265 
 10154      7363616C 
 10154      657200
 10155              	.LASF323:
 10156 0c5d 64617461 		.ascii	"data\000"
 10156      00
 10157              	.LASF13:
 10158 0c62 6C6F6E67 		.ascii	"long long int\000"
 10158      206C6F6E 
 10158      6720696E 
 10158      7400
 10159              	.LASF418:
 10160 0c70 4E627265 		.ascii	"NbreSec\000"
 10160      53656300 
 10161              	.LASF441:
 10162 0c78 61726D5F 		.ascii	"arm_min_f32\000"
 10162      6D696E5F 
 10162      66333200 
 10163              	.LASF211:
 10164 0c84 666C6F61 		.ascii	"float32\000"
 10164      74333200 
 10165              	.LASF263:
 10166 0c8c 696E6974 		.ascii	"initKey\000"
 10166      4B657900 
 10167              	.LASF394:
 10168 0c94 72656164 		.ascii	"read_MAX30102_Register\000"
 10168      5F4D4158 
 10168      33303130 
 10168      325F5265 
 10168      67697374 
 10169              	.LASF171:
 10170 0cab 64775374 		.ascii	"dwStatusChIdxMsk\000"
 10170      61747573 
 10170      43684964 
 10170      784D736B 
 10170      00
 10171              	.LASF73:
 10172 0cbc 52585F46 		.ascii	"RX_FIFO_CTRL\000"
 10172      49464F5F 
 10172      4354524C 
ARM GAS  C:\Users\gab_1\AppData\Local\Temp\ccTtYdci.s 			page 253


 10172      00
 10173              	.LASF17:
 10174 0cc9 75696E74 		.ascii	"uint8_t\000"
 10174      385F7400 
 10175              	.LASF460:
 10176 0cd1 5F5F6275 		.ascii	"__builtin_puts\000"
 10176      696C7469 
 10176      6E5F7075 
 10176      747300
 10177              	.LASF256:
 10178 0ce0 73746174 		.ascii	"status\000"
 10178      757300
 10179              	.LASF297:
 10180 0ce7 70537461 		.ascii	"pState\000"
 10180      746500
 10181              	.LASF216:
 10182 0cee 43595F53 		.ascii	"CY_SCB_I2C_MASTER_MANUAL_TIMEOUT\000"
 10182      43425F49 
 10182      32435F4D 
 10182      41535445 
 10182      525F4D41 
 10183              	.LASF246:
 10184 0d0f 736C6176 		.ascii	"slaveTxBufferCnt\000"
 10184      65547842 
 10184      75666665 
 10184      72436E74 
 10184      00
 10185              	.LASF327:
 10186 0d20 6669666F 		.ascii	"fifo_data_enable\000"
 10186      5F646174 
 10186      615F656E 
 10186      61626C65 
 10186      00
 10187              	.LASF176:
 10188 0d31 70657269 		.ascii	"periDivCmdDivSelMsk\000"
 10188      44697643 
 10188      6D644469 
 10188      7653656C 
 10188      4D736B00 
 10189              	.LASF40:
 10190 0d45 494E5452 		.ascii	"INTR_CAUSE2\000"
 10190      5F434155 
 10190      53453200 
 10191              	.LASF41:
 10192 0d51 494E5452 		.ascii	"INTR_CAUSE3\000"
 10192      5F434155 
 10192      53453300 
 10193              	.LASF451:
 10194 0d5d 76546173 		.ascii	"vTaskStartScheduler\000"
 10194      6B537461 
 10194      72745363 
 10194      68656475 
 10194      6C657200 
 10195              	.LASF184:
 10196 0d71 6770696F 		.ascii	"gpioPrtIntrCfgOffset\000"
 10196      50727449 
 10196      6E747243 
ARM GAS  C:\Users\gab_1\AppData\Local\Temp\ccTtYdci.s 			page 254


 10196      66674F66 
 10196      66736574 
 10197              	.LASF182:
 10198 0d86 70657269 		.ascii	"periDiv16_5CtlOffset\000"
 10198      44697631 
 10198      365F3543 
 10198      746C4F66 
 10198      66736574 
 10199              	.LASF265:
 10200 0d9b 63795F63 		.ascii	"cy_cb_scb_uart_handle_events_t\000"
 10200      625F7363 
 10200      625F7561 
 10200      72745F68 
 10200      616E646C 
 10201              	.LASF335:
 10202 0dba 696E7466 		.ascii	"intf\000"
 10202      00
 10203              	.LASF400:
 10204 0dbf 43595F45 		.ascii	"CY_EINK_Timer_config\000"
 10204      494E4B5F 
 10204      54696D65 
 10204      725F636F 
 10204      6E666967 
 10205              	.LASF200:
 10206 0dd4 63707573 		.ascii	"cpussRam0Ctl0\000"
 10206      7352616D 
 10206      3043746C 
 10206      3000
 10207              	.LASF330:
 10208 0de2 6175785F 		.ascii	"aux_byte_start_idx\000"
 10208      62797465 
 10208      5F737461 
 10208      72745F69 
 10208      647800
 10209              	.LASF127:
 10210 0df5 69706342 		.ascii	"ipcBase\000"
 10210      61736500 
 10211              	.LASF168:
 10212 0dfd 64774368 		.ascii	"dwChCtlPrioPos\000"
 10212      43746C50 
 10212      72696F50 
 10212      6F7300
 10213              	.LASF345:
 10214 0e0c 77726974 		.ascii	"write\000"
 10214      6500
 10215              	.LASF128:
 10216 0e12 63727970 		.ascii	"cryptoBase\000"
 10216      746F4261 
 10216      736500
 10217              	.LASF214:
 10218 0e1d 43595F53 		.ascii	"CY_SCB_I2C_BAD_PARAM\000"
 10218      43425F49 
 10218      32435F42 
 10218      41445F50 
 10218      4152414D 
 10219              	.LASF432:
 10220 0e32 43795F53 		.ascii	"Cy_SCB_I2C_MasterSendStop\000"
ARM GAS  C:\Users\gab_1\AppData\Local\Temp\ccTtYdci.s 			page 255


 10220      43425F49 
 10220      32435F4D 
 10220      61737465 
 10220      7253656E 
 10221              	.LASF158:
 10222 0e4c 666C6173 		.ascii	"flashWriteDelay\000"
 10222      68577269 
 10222      74654465 
 10222      6C617900 
 10223              	.LASF437:
 10224 0e5c 61726D5F 		.ascii	"arm_mean_f32\000"
 10224      6D65616E 
 10224      5F663332 
 10224      00
 10225              	.LASF406:
 10226 0e69 636F7572 		.ascii	"courantDEL\000"
 10226      616E7444 
 10226      454C00
 10227              	.LASF232:
 10228 0e74 75736554 		.ascii	"useTxFifo\000"
 10228      78466966 
 10228      6F00
 10229              	.LASF359:
 10230 0e7e 55415254 		.ascii	"UART_1_PutString\000"
 10230      5F315F50 
 10230      75745374 
 10230      72696E67 
 10230      00
 10231              	.LASF6:
 10232 0e8f 5F5F696E 		.ascii	"__int16_t\000"
 10232      7431365F 
 10232      7400
 10233              	.LASF58:
 10234 0e99 55415254 		.ascii	"UART_FLOW_CTRL\000"
 10234      5F464C4F 
 10234      575F4354 
 10234      524C00
 10235              	.LASF339:
 10236 0ea8 6779726F 		.ascii	"gyro_cfg\000"
 10236      5F636667 
 10236      00
 10237              	.LASF124:
 10238 0eb1 6873696F 		.ascii	"hsiomBase\000"
 10238      6D426173 
 10238      6500
 10239              	.LASF236:
 10240 0ebb 6D617374 		.ascii	"masterRdDir\000"
 10240      65725264 
 10240      44697200 
 10241              	.LASF174:
 10242 0ec7 70657269 		.ascii	"periTrGrOffset\000"
 10242      54724772 
 10242      4F666673 
 10242      657400
 10243              	.LASF144:
 10244 0ed6 63707573 		.ascii	"cpussNotConnectedIrq\000"
 10244      734E6F74 
ARM GAS  C:\Users\gab_1\AppData\Local\Temp\ccTtYdci.s 			page 256


 10244      436F6E6E 
 10244      65637465 
 10244      64497271 
 10245              	.LASF264:
 10246 0eeb 63795F73 		.ascii	"cy_stc_scb_spi_context_t\000"
 10246      74635F73 
 10246      63625F73 
 10246      70695F63 
 10246      6F6E7465 
 10247              	.LASF271:
 10248 0f04 72785269 		.ascii	"rxRingBufHead\000"
 10248      6E674275 
 10248      66486561 
 10248      6400
 10249              	.LASF340:
 10250 0f12 70726576 		.ascii	"prev_gyro_cfg\000"
 10250      5F677972 
 10250      6F5F6366 
 10250      6700
 10251              	.LASF287:
 10252 0f20 72656C6F 		.ascii	"reloadInputMode\000"
 10252      6164496E 
 10252      7075744D 
 10252      6F646500 
 10253              	.LASF27:
 10254 0f30 494E5452 		.ascii	"INTR_MASK\000"
 10254      5F4D4153 
 10254      4B00
 10255              	.LASF300:
 10256 0f3a 626D6931 		.ascii	"bmi160_read_fptr_t\000"
 10256      36305F72 
 10256      6561645F 
 10256      66707472 
 10256      5F7400
 10257              	.LASF402:
 10258 0f4d 4932435F 		.ascii	"I2C_1_context\000"
 10258      315F636F 
 10258      6E746578 
 10258      7400
 10259              	.LASF447:
 10260 0f5b 4932435F 		.ascii	"I2C_Start\000"
 10260      53746172 
 10260      7400
 10261              	.LASF310:
 10262 0f65 72616E67 		.ascii	"range\000"
 10262      6500
 10263              	.LASF261:
 10264 0f6b 74784275 		.ascii	"txBufSize\000"
 10264      6653697A 
 10264      6500
 10265              	.LASF138:
 10266 0f75 63707573 		.ascii	"cpussIpcNr\000"
 10266      73497063 
 10266      4E7200
 10267              	.LASF1:
 10268 0f80 73686F72 		.ascii	"short int\000"
 10268      7420696E 
ARM GAS  C:\Users\gab_1\AppData\Local\Temp\ccTtYdci.s 			page 257


 10268      7400
 10269              	.LASF415:
 10270 0f8a 626C6F63 		.ascii	"blockSize\000"
 10270      6B53697A 
 10270      6500
 10271              	.LASF419:
 10272 0f94 626F726E 		.ascii	"borneSup\000"
 10272      65537570 
 10272      00
 10273              	.LASF395:
 10274 0f9d 626D6931 		.ascii	"bmi160Dev\000"
 10274      36304465 
 10274      7600
 10275              	.LASF202:
 10276 0fa7 63707573 		.ascii	"cpussRam2Ctl0\000"
 10276      7352616D 
 10276      3243746C 
 10276      3000
 10277              	.LASF235:
 10278 0fb5 6D617374 		.ascii	"masterPause\000"
 10278      65725061 
 10278      75736500 
 10279              	.LASF438:
 10280 0fc1 61726D5F 		.ascii	"arm_fir_init_f32\000"
 10280      6669725F 
 10280      696E6974 
 10280      5F663332 
 10280      00
 10281              	.LASF81:
 10282 0fd2 455A5F44 		.ascii	"EZ_DATA\000"
 10282      41544100 
 10283              	.LASF431:
 10284 0fda 43795F53 		.ascii	"Cy_SCB_I2C_MasterSendStart\000"
 10284      43425F49 
 10284      32435F4D 
 10284      61737465 
 10284      7253656E 
 10285              	.LASF110:
 10286 0ff5 494E5452 		.ascii	"INTR_RX\000"
 10286      5F525800 
 10287              	.LASF337:
 10288 0ffd 61636365 		.ascii	"accel_cfg\000"
 10288      6C5F6366 
 10288      6700
 10289              	.LASF338:
 10290 1007 70726576 		.ascii	"prev_accel_cfg\000"
 10290      5F616363 
 10290      656C5F63 
 10290      666700
 10291              	.LASF260:
 10292 1016 74784275 		.ascii	"txBuf\000"
 10292      6600
 10293              	.LASF329:
 10294 101c 6779726F 		.ascii	"gyro_byte_start_idx\000"
 10294      5F627974 
 10294      655F7374 
 10294      6172745F 
ARM GAS  C:\Users\gab_1\AppData\Local\Temp\ccTtYdci.s 			page 258


 10294      69647800 
 10295              	.LASF425:
 10296 1030 64617461 		.ascii	"dataIR\000"
 10296      495200
 10297              	.LASF159:
 10298 1037 666C6173 		.ascii	"flashProgramDelay\000"
 10298      6850726F 
 10298      6772616D 
 10298      44656C61 
 10298      7900
 10299              	.LASF181:
 10300 1049 70657269 		.ascii	"periDiv16CtlOffset\000"
 10300      44697631 
 10300      3643746C 
 10300      4F666673 
 10300      657400
 10301              	.LASF356:
 10302 105c 4932435F 		.ascii	"I2C_MasterWriteByte\000"
 10302      4D617374 
 10302      65725772 
 10302      69746542 
 10302      79746500 
 10303              	.LASF248:
 10304 1070 736C6176 		.ascii	"slaveRxBufferSize\000"
 10304      65527842 
 10304      75666665 
 10304      7253697A 
 10304      6500
 10305              	.LASF318:
 10306 1082 626D6931 		.ascii	"bmi160_any_sig_motion_active_interrupt_state\000"
 10306      36305F61 
 10306      6E795F73 
 10306      69675F6D 
 10306      6F74696F 
 10307              	.LASF387:
 10308 10af 6D696E52 		.ascii	"minRed\000"
 10308      656400
 10309              	.LASF8:
 10310 10b6 73686F72 		.ascii	"short unsigned int\000"
 10310      7420756E 
 10310      7369676E 
 10310      65642069 
 10310      6E7400
 10311              	.LASF269:
 10312 10c9 72785269 		.ascii	"rxRingBuf\000"
 10312      6E674275 
 10312      6600
 10313              	.LASF118:
 10314 10d3 6C6F6E67 		.ascii	"long double\000"
 10314      20646F75 
 10314      626C6500 
 10315              	.LASF442:
 10316 10df 73707269 		.ascii	"sprintf\000"
 10316      6E746600 
 10317              	.LASF19:
 10318 10e7 75696E74 		.ascii	"uint16_t\000"
 10318      31365F74 
ARM GAS  C:\Users\gab_1\AppData\Local\Temp\ccTtYdci.s 			page 259


 10318      00
 10319              	.LASF87:
 10320 10f0 494E5452 		.ascii	"INTR_I2C_EC_MASK\000"
 10320      5F493243 
 10320      5F45435F 
 10320      4D41534B 
 10320      00
 10321              	.LASF123:
 10322 1101 70726F74 		.ascii	"protBase\000"
 10322      42617365 
 10322      00
 10323              	.LASF46:
 10324 110a 5644445F 		.ascii	"VDD_INTR_SET\000"
 10324      494E5452 
 10324      5F534554 
 10324      00
 10325              	.LASF278:
 10326 1117 72756E4D 		.ascii	"runMode\000"
 10326      6F646500 
 10327              	.LASF173:
 10328 111f 70657269 		.ascii	"periTrCmdGrSelMsk\000"
 10328      5472436D 
 10328      64477253 
 10328      656C4D73 
 10328      6B00
 10329              	.LASF217:
 10330 1131 43595F53 		.ascii	"CY_SCB_I2C_MASTER_MANUAL_ADDR_NAK\000"
 10330      43425F49 
 10330      32435F4D 
 10330      41535445 
 10330      525F4D41 
 10331              	.LASF237:
 10332 1153 6D617374 		.ascii	"masterBuffer\000"
 10332      65724275 
 10332      66666572 
 10332      00
 10333              	.LASF408:
 10334 1160 62756666 		.ascii	"bufferROUGE\000"
 10334      6572524F 
 10334      55474500 
 10335              	.LASF147:
 10336 116c 73727373 		.ascii	"srssNumHfroot\000"
 10336      4E756D48 
 10336      66726F6F 
 10336      7400
 10337              	.LASF371:
 10338 117a 62757273 		.ascii	"burstRead_MAX30102\000"
 10338      74526561 
 10338      645F4D41 
 10338      58333031 
 10338      303200
 10339              	.LASF295:
 10340 118d 63795F73 		.ascii	"cy_stc_tcpwm_counter_config_t\000"
 10340      74635F74 
 10340      6370776D 
 10340      5F636F75 
 10340      6E746572 
ARM GAS  C:\Users\gab_1\AppData\Local\Temp\ccTtYdci.s 			page 260


 10341              	.LASF169:
 10342 11ab 64774368 		.ascii	"dwChCtlPreemptablePos\000"
 10342      43746C50 
 10342      7265656D 
 10342      70746162 
 10342      6C65506F 
 10343              	.LASF422:
 10344 11c1 52656446 		.ascii	"RedFiltre\000"
 10344      696C7472 
 10344      6500
 10345              	.LASF410:
 10346 11cb 696E6469 		.ascii	"indice\000"
 10346      636500
 10347              	.LASF92:
 10348 11d2 494E5452 		.ascii	"INTR_SPI_EC_MASK\000"
 10348      5F535049 
 10348      5F45435F 
 10348      4D41534B 
 10348      00
 10349              	.LASF5:
 10350 11e3 756E7369 		.ascii	"unsigned char\000"
 10350      676E6564 
 10350      20636861 
 10350      7200
 10351              	.LASF22:
 10352 11f1 73697A65 		.ascii	"sizetype\000"
 10352      74797065 
 10352      00
 10353              	.LASF63:
 10354 11fa 4932435F 		.ascii	"I2C_S_CMD\000"
 10354      535F434D 
 10354      4400
 10355              	.LASF198:
 10356 1204 63707573 		.ascii	"cpussCm4NmiCtlOffset\000"
 10356      73436D34 
 10356      4E6D6943 
 10356      746C4F66 
 10356      66736574 
 10357              	.LASF280:
 10358 1219 636F6D70 		.ascii	"compareOrCapture\000"
 10358      6172654F 
 10358      72436170 
 10358      74757265 
 10358      00
 10359              	.LASF180:
 10360 122a 70657269 		.ascii	"periDiv8CtlOffset\000"
 10360      44697638 
 10360      43746C4F 
 10360      66667365 
 10360      7400
 10361              	.LASF59:
 10362 123c 52455345 		.ascii	"RESERVED2\000"
 10362      52564544 
 10362      3200
 10363              	.LASF65:
 10364 1246 52455345 		.ascii	"RESERVED3\000"
 10364      52564544 
ARM GAS  C:\Users\gab_1\AppData\Local\Temp\ccTtYdci.s 			page 261


 10364      3300
 10365              	.LASF69:
 10366 1250 52455345 		.ascii	"RESERVED4\000"
 10366      52564544 
 10366      3400
 10367              	.LASF71:
 10368 125a 52455345 		.ascii	"RESERVED5\000"
 10368      52564544 
 10368      3500
 10369              	.LASF75:
 10370 1264 52455345 		.ascii	"RESERVED6\000"
 10370      52564544 
 10370      3600
 10371              	.LASF307:
 10372 126e 424D4931 		.ascii	"BMI160_BOTH_ACCEL_AND_GYRO\000"
 10372      36305F42 
 10372      4F54485F 
 10372      41434345 
 10372      4C5F414E 
 10373              	.LASF80:
 10374 1289 52455345 		.ascii	"RESERVED8\000"
 10374      52564544 
 10374      3800
 10375              	.LASF82:
 10376 1293 52455345 		.ascii	"RESERVED9\000"
 10376      52564544 
 10376      3900
 10377              	.LASF283:
 10378 129d 656E6162 		.ascii	"enableCompareSwap\000"
 10378      6C65436F 
 10378      6D706172 
 10378      65537761 
 10378      7000
 10379              	.LASF10:
 10380 12af 6C6F6E67 		.ascii	"long int\000"
 10380      20696E74 
 10380      00
 10381              	.LASF129:
 10382 12b8 63707573 		.ascii	"cpussVersion\000"
 10382      73566572 
 10382      73696F6E 
 10382      00
 10383              	.LASF61:
 10384 12c5 4932435F 		.ascii	"I2C_STATUS\000"
 10384      53544154 
 10384      555300
 10385              	.LASF293:
 10386 12d0 636F756E 		.ascii	"countInputMode\000"
 10386      74496E70 
 10386      75744D6F 
 10386      646500
 10387              	.LASF133:
 10388 12df 6770696F 		.ascii	"gpioVersion\000"
 10388      56657273 
 10388      696F6E00 
 10389              	.LASF324:
 10390 12eb 6C656E67 		.ascii	"length\000"
ARM GAS  C:\Users\gab_1\AppData\Local\Temp\ccTtYdci.s 			page 262


 10390      746800
 10391              	.LASF443:
 10392 12f2 4932435F 		.ascii	"I2C_1_Start\000"
 10392      315F5374 
 10392      61727400 
 10393              	.LASF132:
 10394 12fe 666C6173 		.ascii	"flashcVersion\000"
 10394      68635665 
 10394      7273696F 
 10394      6E00
 10395              	.LASF154:
 10396 130c 70726F74 		.ascii	"protBusMasterMask\000"
 10396      4275734D 
 10396      61737465 
 10396      724D6173 
 10396      6B00
 10397              	.LASF279:
 10398 131e 636F756E 		.ascii	"countDirection\000"
 10398      74446972 
 10398      65637469 
 10398      6F6E00
 10399              	.LASF37:
 10400 132d 4750494F 		.ascii	"GPIO_PRT_V1_Type\000"
 10400      5F505254 
 10400      5F56315F 
 10400      54797065 
 10400      00
 10401              	.LASF312:
 10402 133e 6175785F 		.ascii	"aux_sensor_enable\000"
 10402      73656E73 
 10402      6F725F65 
 10402      6E61626C 
 10402      6500
 10403              	.LASF364:
 10404 1350 6465765F 		.ascii	"dev_addr\000"
 10404      61646472 
 10404      00
 10405              	.LASF218:
 10406 1359 43595F53 		.ascii	"CY_SCB_I2C_MASTER_MANUAL_NAK\000"
 10406      43425F49 
 10406      32435F4D 
 10406      41535445 
 10406      525F4D41 
 10407              	.LASF206:
 10408 1376 63686172 		.ascii	"char_t\000"
 10408      5F7400
 10409              	.LASF313:
 10410 137d 6D616E75 		.ascii	"manual_enable\000"
 10410      616C5F65 
 10410      6E61626C 
 10410      6500
 10411              	.LASF105:
 10412 138b 494E5452 		.ascii	"INTR_TX\000"
 10412      5F545800 
 10413              	.LASF57:
 10414 1393 55415254 		.ascii	"UART_RX_STATUS\000"
 10414      5F52585F 
ARM GAS  C:\Users\gab_1\AppData\Local\Temp\ccTtYdci.s 			page 263


 10414      53544154 
 10414      555300
 10415              	.LASF273:
 10416 13a2 74784C65 		.ascii	"txLeftToTransmit\000"
 10416      6674546F 
 10416      5472616E 
 10416      736D6974 
 10416      00
 10417              	.LASF160:
 10418 13b3 666C6173 		.ascii	"flashEraseDelay\000"
 10418      68457261 
 10418      73654465 
 10418      6C617900 
 10419              	.LASF25:
 10420 13c3 4F55545F 		.ascii	"OUT_INV\000"
 10420      494E5600 
 10421              	.LASF193:
 10422 13cb 63707573 		.ascii	"cpussCm4PwrCtlOffset\000"
 10422      73436D34 
 10422      50777243 
 10422      746C4F66 
 10422      66736574 
 10423              	.LASF4:
 10424 13e0 5F5F7569 		.ascii	"__uint8_t\000"
 10424      6E74385F 
 10424      7400
 10425              	.LASF433:
 10426 13ea 43795F53 		.ascii	"Cy_SCB_I2C_MasterReadByte\000"
 10426      43425F49 
 10426      32435F4D 
 10426      61737465 
 10426      72526561 
 10427              	.LASF67:
 10428 1404 54585F46 		.ascii	"TX_FIFO_CTRL\000"
 10428      49464F5F 
 10428      4354524C 
 10428      00
 10429              	.LASF344:
 10430 1411 72656164 		.ascii	"read\000"
 10430      00
 10431              	.LASF223:
 10432 1416 43595F53 		.ascii	"CY_SCB_I2C_WRITE_XFER\000"
 10432      43425F49 
 10432      32435F57 
 10432      52495445 
 10432      5F584645 
 10433              	.LASF93:
 10434 142c 494E5452 		.ascii	"INTR_SPI_EC_MASKED\000"
 10434      5F535049 
 10434      5F45435F 
 10434      4D41534B 
 10434      454400
 10435              	.LASF448:
 10436 143f 55415254 		.ascii	"UART_1_Start\000"
 10436      5F315F53 
 10436      74617274 
 10436      00
ARM GAS  C:\Users\gab_1\AppData\Local\Temp\ccTtYdci.s 			page 264


 10437              	.LASF15:
 10438 144c 756E7369 		.ascii	"unsigned int\000"
 10438      676E6564 
 10438      20696E74 
 10438      00
 10439              	.LASF52:
 10440 1459 5350495F 		.ascii	"SPI_CTRL\000"
 10440      4354524C 
 10440      00
 10441              	.LASF322:
 10442 1462 626D6931 		.ascii	"bmi160_fifo_frame\000"
 10442      36305F66 
 10442      69666F5F 
 10442      6672616D 
 10442      6500
 10443              	.LASF221:
 10444 1474 43595F53 		.ascii	"CY_SCB_I2C_MASTER_MANUAL_ABORT_START\000"
 10444      43425F49 
 10444      32435F4D 
 10444      41535445 
 10444      525F4D41 
 10445              	.LASF3:
 10446 1499 5F5F696E 		.ascii	"__int8_t\000"
 10446      74385F74 
 10446      00
 10447              	.LASF190:
 10448 14a2 63707573 		.ascii	"cpussCm4ClockCtlOffset\000"
 10448      73436D34 
 10448      436C6F63 
 10448      6B43746C 
 10448      4F666673 
 10449              	.LASF413:
 10450 14b9 50617373 		.ascii	"PasseHaut\000"
 10450      65486175 
 10450      7400
 10451              	.LASF28:
 10452 14c3 494E5452 		.ascii	"INTR_MASKED\000"
 10452      5F4D4153 
 10452      4B454400 
 10453              	.LASF72:
 10454 14cf 52585F43 		.ascii	"RX_CTRL\000"
 10454      54524C00 
 10455              	.LASF195:
 10456 14d7 63707573 		.ascii	"cpussTrimRomCtlOffset\000"
 10456      73547269 
 10456      6D526F6D 
 10456      43746C4F 
 10456      66667365 
 10457              	.LASF222:
 10458 14ed 63795F65 		.ascii	"cy_en_scb_i2c_status_t\000"
 10458      6E5F7363 
 10458      625F6932 
 10458      635F7374 
 10458      61747573 
 10459              	.LASF60:
 10460 1504 4932435F 		.ascii	"I2C_CTRL\000"
 10460      4354524C 
ARM GAS  C:\Users\gab_1\AppData\Local\Temp\ccTtYdci.s 			page 265


 10460      00
 10461              	.LASF134:
 10462 150d 6873696F 		.ascii	"hsiomVersion\000"
 10462      6D566572 
 10462      73696F6E 
 10462      00
 10463              	.LASF316:
 10464 151a 6175785F 		.ascii	"aux_i2c_addr\000"
 10464      6932635F 
 10464      61646472 
 10464      00
 10465              	.LASF12:
 10466 1527 6C6F6E67 		.ascii	"long unsigned int\000"
 10466      20756E73 
 10466      69676E65 
 10466      6420696E 
 10466      7400
 10467              	.LASF354:
 10468 1539 61646472 		.ascii	"address\000"
 10468      65737300 
 10469              	.LASF411:
 10470 1541 706F696E 		.ascii	"pointeurIr\000"
 10470      74657572 
 10470      497200
 10471              	.LASF95:
 10472 154c 494E5452 		.ascii	"INTR_M\000"
 10472      5F4D00
 10473              	.LASF199:
 10474 1553 63707573 		.ascii	"cpussRomCtl\000"
 10474      73526F6D 
 10474      43746C00 
 10475              	.LASF0:
 10476 155f 666C6F61 		.ascii	"float\000"
 10476      7400
 10477              	.LASF100:
 10478 1565 494E5452 		.ascii	"INTR_S\000"
 10478      5F5300
 10479              	.LASF20:
 10480 156c 696E7433 		.ascii	"int32_t\000"
 10480      325F7400 
 10481              	.LASF299:
 10482 1574 61726D5F 		.ascii	"arm_fir_instance_f32\000"
 10482      6669725F 
 10482      696E7374 
 10482      616E6365 
 10482      5F663332 
 10483              	.LASF97:
 10484 1589 494E5452 		.ascii	"INTR_M_MASK\000"
 10484      5F4D5F4D 
 10484      41534B00 
 10485              	.LASF352:
 10486 1595 62797465 		.ascii	"byte\000"
 10486      00
 10487              	.LASF353:
 10488 159a 4932435F 		.ascii	"I2C_MasterSendReStart\000"
 10488      4D617374 
 10488      65725365 
ARM GAS  C:\Users\gab_1\AppData\Local\Temp\ccTtYdci.s 			page 266


 10488      6E645265 
 10488      53746172 
 10489              	.LASF306:
 10490 15b0 424D4931 		.ascii	"BMI160_GYRO_ONLY\000"
 10490      36305F47 
 10490      59524F5F 
 10490      4F4E4C59 
 10490      00
 10491              	.LASF424:
 10492 15c1 52656446 		.ascii	"RedFiltre1\000"
 10492      696C7472 
 10492      653100
 10493              	.LASF192:
 10494 15cc 63707573 		.ascii	"cpussCm0StatusOffset\000"
 10494      73436D30 
 10494      53746174 
 10494      75734F66 
 10494      66736574 
 10495              	.LASF417:
 10496 15e1 4E627265 		.ascii	"NbreMax\000"
 10496      4D617800 
 10497              	.LASF391:
 10498 15e9 696E7465 		.ascii	"interrupt_MAX30102\000"
 10498      72727570 
 10498      745F4D41 
 10498      58333031 
 10498      303200
 10499              	.LASF370:
 10500 15fc 77726974 		.ascii	"write_MAX30102_Register\000"
 10500      655F4D41 
 10500      58333031 
 10500      30325F52 
 10500      65676973 
 10501              	.LASF11:
 10502 1614 5F5F7569 		.ascii	"__uint32_t\000"
 10502      6E743332 
 10502      5F7400
 10503              	.LASF116:
 10504 161f 4750494F 		.ascii	"GPIO_Type\000"
 10504      5F547970 
 10504      6500
 10505              	.LASF204:
 10506 1629 6970634C 		.ascii	"ipcLockStatusOffset\000"
 10506      6F636B53 
 10506      74617475 
 10506      734F6666 
 10506      73657400 
 10507              	.LASF403:
 10508 163d 4932435F 		.ascii	"I2C_context\000"
 10508      636F6E74 
 10508      65787400 
 10509              	.LASF294:
 10510 1649 636F756E 		.ascii	"countInput\000"
 10510      74496E70 
 10510      757400
 10511              	.LASF30:
 10512 1654 494E5452 		.ascii	"INTR_CFG\000"
ARM GAS  C:\Users\gab_1\AppData\Local\Temp\ccTtYdci.s 			page 267


 10512      5F434647 
 10512      00
 10513              	.LASF39:
 10514 165d 494E5452 		.ascii	"INTR_CAUSE1\000"
 10514      5F434155 
 10514      53453100 
 10515              	.LASF426:
 10516 1669 64617461 		.ascii	"dataRed\000"
 10516      52656400 
 10517              	.LASF49:
 10518 1671 53544154 		.ascii	"STATUS\000"
 10518      555300
 10519              	.LASF84:
 10520 1678 52455345 		.ascii	"RESERVED10\000"
 10520      52564544 
 10520      313000
 10521              	.LASF86:
 10522 1683 52455345 		.ascii	"RESERVED11\000"
 10522      52564544 
 10522      313100
 10523              	.LASF376:
 10524 168e 62756666 		.ascii	"bufferR\000"
 10524      65725200 
 10525              	.LASF91:
 10526 1696 52455345 		.ascii	"RESERVED13\000"
 10526      52564544 
 10526      313300
 10527              	.LASF94:
 10528 16a1 52455345 		.ascii	"RESERVED14\000"
 10528      52564544 
 10528      313400
 10529              	.LASF99:
 10530 16ac 52455345 		.ascii	"RESERVED15\000"
 10530      52564544 
 10530      313500
 10531              	.LASF104:
 10532 16b7 52455345 		.ascii	"RESERVED16\000"
 10532      52564544 
 10532      313600
 10533              	.LASF109:
 10534 16c2 52455345 		.ascii	"RESERVED17\000"
 10534      52564544 
 10534      313700
 10535              	.LASF74:
 10536 16cd 52585F46 		.ascii	"RX_FIFO_STATUS\000"
 10536      49464F5F 
 10536      53544154 
 10536      555300
 10537              	.LASF161:
 10538 16dc 666C6173 		.ascii	"flashCtlMainWs0Freq\000"
 10538      6843746C 
 10538      4D61696E 
 10538      57733046 
 10538      72657100 
 10539              	.LASF381:
 10540 16f0 44617461 		.ascii	"DataRed\000"
 10540      52656400 
ARM GAS  C:\Users\gab_1\AppData\Local\Temp\ccTtYdci.s 			page 268


 10541              	.LASF233:
 10542 16f8 73746174 		.ascii	"state\000"
 10542      6500
 10543              	.LASF407:
 10544 16fe 44617461 		.ascii	"DataRouge\000"
 10544      526F7567 
 10544      6500
 10545              	.LASF450:
 10546 1708 78546173 		.ascii	"xTaskCreate\000"
 10546      6B437265 
 10546      61746500 
 10547              	.LASF70:
 10548 1714 54585F46 		.ascii	"TX_FIFO_WR\000"
 10548      49464F5F 
 10548      575200
 10549              	.LASF304:
 10550 171f 73656E73 		.ascii	"sensortime\000"
 10550      6F727469 
 10550      6D6500
 10551              	.LASF446:
 10552 172a 43617053 		.ascii	"CapSense_ScanAllWidgets\000"
 10552      656E7365 
 10552      5F536361 
 10552      6E416C6C 
 10552      57696467 
 10553              	.LASF379:
 10554 1742 73617475 		.ascii	"saturation\000"
 10554      72617469 
 10554      6F6E00
 10555              	.LASF377:
 10556 174d 62756666 		.ascii	"bufferIR\000"
 10556      65724952 
 10556      00
 10557              	.LASF156:
 10558 1756 666C6173 		.ascii	"flashRwwRequired\000"
 10558      68527777 
 10558      52657175 
 10558      69726564 
 10558      00
 10559              	.LASF185:
 10560 1767 6770696F 		.ascii	"gpioPrtCfgOffset\000"
 10560      50727443 
 10560      66674F66 
 10560      66736574 
 10560      00
 10561              	.LASF53:
 10562 1778 5350495F 		.ascii	"SPI_STATUS\000"
 10562      53544154 
 10562      555300
 10563              	.LASF362:
 10564 1783 70696E4E 		.ascii	"pinNum\000"
 10564      756D00
 10565              	.LASF44:
 10566 178a 5644445F 		.ascii	"VDD_INTR_MASK\000"
 10566      494E5452 
 10566      5F4D4153 
 10566      4B00
ARM GAS  C:\Users\gab_1\AppData\Local\Temp\ccTtYdci.s 			page 269


 10567              	.LASF212:
 10568 1798 5F426F6F 		.ascii	"_Bool\000"
 10568      6C00
 10569              	.LASF412:
 10570 179e 706F696E 		.ascii	"pointeurRed\000"
 10570      74657572 
 10570      52656400 
 10571              	.LASF2:
 10572 17aa 7369676E 		.ascii	"signed char\000"
 10572      65642063 
 10572      68617200 
 10573              	.LASF276:
 10574 17b6 70657269 		.ascii	"period\000"
 10574      6F6400
 10575              	.LASF166:
 10576 17bd 64774368 		.ascii	"dwChOffset\000"
 10576      4F666673 
 10576      657400
 10577              	.LASF54:
 10578 17c8 55415254 		.ascii	"UART_CTRL\000"
 10578      5F435452 
 10578      4C00
 10579              	.LASF139:
 10580 17d2 63707573 		.ascii	"cpussIpcIrqNr\000"
 10580      73497063 
 10580      4972714E 
 10580      7200
 10581              	.LASF112:
 10582 17e0 494E5452 		.ascii	"INTR_RX_MASK\000"
 10582      5F52585F 
 10582      4D41534B 
 10582      00
 10583              	.LASF311:
 10584 17ed 626D6931 		.ascii	"bmi160_aux_cfg\000"
 10584      36305F61 
 10584      75785F63 
 10584      666700
 10585              	.LASF332:
 10586 17fc 736B6970 		.ascii	"skipped_frame_count\000"
 10586      7065645F 
 10586      6672616D 
 10586      655F636F 
 10586      756E7400 
 10587              	.LASF458:
 10588 1810 6D61696E 		.ascii	"main\000"
 10588      00
 10589              	.LASF38:
 10590 1815 494E5452 		.ascii	"INTR_CAUSE0\000"
 10590      5F434155 
 10590      53453000 
 10591              	.LASF249:
 10592 1821 736C6176 		.ascii	"slaveRxBufferIdx\000"
 10592      65527842 
 10592      75666665 
 10592      72496478 
 10592      00
 10593              	.LASF50:
ARM GAS  C:\Users\gab_1\AppData\Local\Temp\ccTtYdci.s 			page 270


 10594 1832 434D445F 		.ascii	"CMD_RESP_CTRL\000"
 10594      52455350 
 10594      5F435452 
 10594      4C00
 10595              	.LASF205:
 10596 1840 63795F73 		.ascii	"cy_stc_device_t\000"
 10596      74635F64 
 10596      65766963 
 10596      655F7400 
 10597              	.LASF42:
 10598 1850 5644445F 		.ascii	"VDD_ACTIVE\000"
 10598      41435449 
 10598      564500
 10599              	.LASF456:
 10600 185b 5F5F656E 		.ascii	"__enable_irq\000"
 10600      61626C65 
 10600      5F697271 
 10600      00
 10601              	.LASF328:
 10602 1868 61636365 		.ascii	"accel_byte_start_idx\000"
 10602      6C5F6279 
 10602      74655F73 
 10602      74617274 
 10602      5F696478 
 10603              	.LASF136:
 10604 187d 70657269 		.ascii	"periVersion\000"
 10604      56657273 
 10604      696F6E00 
 10605              	.LASF255:
 10606 1889 63795F73 		.ascii	"cy_stc_scb_spi_context\000"
 10606      74635F73 
 10606      63625F73 
 10606      70695F63 
 10606      6F6E7465 
 10607              	.LASF210:
 10608 18a0 75696E74 		.ascii	"uint8\000"
 10608      3800
 10609              	.LASF150:
 10610 18a6 70617373 		.ascii	"passSarChannels\000"
 10610      53617243 
 10610      68616E6E 
 10610      656C7300 
 10611              	.LASF126:
 10612 18b6 70617373 		.ascii	"passBase\000"
 10612      42617365 
 10612      00
 10613              	.LASF163:
 10614 18bf 666C6173 		.ascii	"flashCtlMainWs2Freq\000"
 10614      6843746C 
 10614      4D61696E 
 10614      57733246 
 10614      72657100 
 10615              	.LASF111:
 10616 18d3 494E5452 		.ascii	"INTR_RX_SET\000"
 10616      5F52585F 
 10616      53455400 
 10617              	.LASF36:
ARM GAS  C:\Users\gab_1\AppData\Local\Temp\ccTtYdci.s 			page 271


 10618 18df 52455345 		.ascii	"RESERVED1\000"
 10618      52564544 
 10618      3100
 10619              	.LASF145:
 10620 18e9 73727373 		.ascii	"srssNumClkpath\000"
 10620      4E756D43 
 10620      6C6B7061 
 10620      746800
 10621              	.LASF355:
 10622 18f8 62697452 		.ascii	"bitRnW\000"
 10622      6E5700
 10623              	.LASF252:
 10624 18ff 63795F73 		.ascii	"cy_stc_scb_i2c_context_t\000"
 10624      74635F73 
 10624      63625F69 
 10624      32635F63 
 10624      6F6E7465 
 10625              	.LASF33:
 10626 1918 4346475F 		.ascii	"CFG_SIO\000"
 10626      53494F00 
 10627              	.LASF165:
 10628 1920 666C6173 		.ascii	"flashCtlMainWs4Freq\000"
 10628      6843746C 
 10628      4D61696E 
 10628      57733446 
 10628      72657100 
 10629              	.LASF374:
 10630 1934 43795F53 		.ascii	"Cy_SCB_UART_PutString\000"
 10630      43425F55 
 10630      4152545F 
 10630      50757453 
 10630      7472696E 
 10631              	.LASF77:
 10632 194a 52455345 		.ascii	"RESERVED7\000"
 10632      52564544 
 10632      3700
 10633              	.LASF296:
 10634 1954 6E756D54 		.ascii	"numTaps\000"
 10634      61707300 
 10635              	.LASF449:
 10636 195c 53797374 		.ascii	"SystemInit\000"
 10636      656D496E 
 10636      697400
 10637              	.LASF428:
 10638 1967 626D6931 		.ascii	"bmi160_init\000"
 10638      36305F69 
 10638      6E697400 
 10639              	.LASF78:
 10640 1973 52585F46 		.ascii	"RX_FIFO_RD\000"
 10640      49464F5F 
 10640      524400
 10641              	.LASF135:
 10642 197e 69706356 		.ascii	"ipcVersion\000"
 10642      65727369 
 10642      6F6E00
 10643              	.LASF368:
 10644 1989 424D4931 		.ascii	"BMI160BurstRead\000"
ARM GAS  C:\Users\gab_1\AppData\Local\Temp\ccTtYdci.s 			page 272


 10644      36304275 
 10644      72737452 
 10644      65616400 
 10645              	.LASF225:
 10646 1999 63795F65 		.ascii	"cy_en_scb_i2c_direction_t\000"
 10646      6E5F7363 
 10646      625F6932 
 10646      635F6469 
 10646      72656374 
 10647              	.LASF457:
 10648 19b3 73656E73 		.ascii	"sensorsDeviceInit\000"
 10648      6F727344 
 10648      65766963 
 10648      65496E69 
 10648      7400
 10649              	.LASF388:
 10650 19c5 706F7369 		.ascii	"position\000"
 10650      74696F6E 
 10650      00
 10651              	.LASF372:
 10652 19ce 62617365 		.ascii	"baseAddress\000"
 10652      41646472 
 10652      65737300 
 10653              	.LASF314:
 10654 19da 6175785F 		.ascii	"aux_rd_burst_len\000"
 10654      72645F62 
 10654      75727374 
 10654      5F6C656E 
 10654      00
 10655              	.LASF172:
 10656 19eb 70657269 		.ascii	"periTrCmdOffset\000"
 10656      5472436D 
 10656      644F6666 
 10656      73657400 
 10657              	.LASF325:
 10658 19fb 6669666F 		.ascii	"fifo_time_enable\000"
 10658      5F74696D 
 10658      655F656E 
 10658      61626C65 
 10658      00
 10659              	.LASF48:
 10660 1a0c 4354524C 		.ascii	"CTRL\000"
 10660      00
 10661              		.ident	"GCC: (GNU Tools for ARM Embedded Processors) 5.4.1 20160609 (release) [ARM/embedded-5-bran
