ARM GAS  C:\Users\gab_1\AppData\Local\Temp\ccTtYdci.s 			page 1


   1              		.syntax unified
   2              		.cpu cortex-m4
   3              		.eabi_attribute 27, 1
   4              		.fpu fpv4-sp-d16
   5              		.eabi_attribute 20, 1
   6              		.eabi_attribute 21, 1
   7              		.eabi_attribute 23, 3
   8              		.eabi_attribute 24, 1
   9              		.eabi_attribute 25, 1
  10              		.eabi_attribute 26, 1
  11              		.eabi_attribute 30, 1
  12              		.eabi_attribute 34, 1
  13              		.eabi_attribute 18, 4
  14              		.thumb
  15              		.syntax unified
  16              		.file	"main_cm4.c"
  17              		.text
  18              	.Ltext0:
  19              		.cfi_sections	.debug_frame
  20              		.section	.text.sensorsDeviceInit,"ax",%progbits
  21              		.align	2
  22              		.thumb
  23              		.thumb_func
  24              		.type	sensorsDeviceInit, %function
  25              	sensorsDeviceInit:
  26              	.LFB695:
  27              		.file 1 "codeBmi.c"
   1:codeBmi.c     **** /* ========================================
   2:codeBmi.c     ****  *
   3:codeBmi.c     ****  * Copyright YOUR COMPANY, THE YEAR
   4:codeBmi.c     ****  * All Rights Reserved
   5:codeBmi.c     ****  * UNPUBLISHED, LICENSED SOFTWARE.
   6:codeBmi.c     ****  *
   7:codeBmi.c     ****  * CONFIDENTIAL AND PROPRIETARY INFORMATION
   8:codeBmi.c     ****  * WHICH IS THE PROPERTY OF your company.
   9:codeBmi.c     ****  *
  10:codeBmi.c     ****  * ========================================
  11:codeBmi.c     **** */
  12:codeBmi.c     **** 
  13:codeBmi.c     **** #include "project.h"
  14:codeBmi.c     **** #include "FreeRTOS.h"
  15:codeBmi.c     **** #include "task.h"
  16:codeBmi.c     **** #include <stdio.h>
  17:codeBmi.c     **** #include "bmi160.h"
  18:codeBmi.c     **** 
  19:codeBmi.c     **** static struct bmi160_dev bmi160Dev; //structure du capteur
  20:codeBmi.c     **** 
  21:codeBmi.c     **** static int8_t BMI160BurstWrite(uint8_t dev_addr, uint8_t reg_addr,uint8_t *data, uint16_t len) // 4
  22:codeBmi.c     **** {
  23:codeBmi.c     ****     
  24:codeBmi.c     ****     Cy_SCB_I2C_MasterSendStart(I2C_1_HW,dev_addr,CY_SCB_I2C_WRITE_XFER,0,&I2C_1_context); // on dé
  25:codeBmi.c     ****     
  26:codeBmi.c     ****     Cy_SCB_I2C_MasterWriteByte(I2C_1_HW,reg_addr,0,&I2C_1_context); // on envoie le registre où l'
  27:codeBmi.c     ****     
  28:codeBmi.c     ****     for(int i = 0;i<len; i++) // loop pour tous les bytes
  29:codeBmi.c     ****     { 
  30:codeBmi.c     ****         
ARM GAS  C:\Users\gab_1\AppData\Local\Temp\ccTtYdci.s 			page 2


  31:codeBmi.c     ****         Cy_SCB_I2C_MasterWriteByte(I2C_1_HW,data[i],0,&I2C_1_context); //on écrit tous les bytes a
  32:codeBmi.c     ****         
  33:codeBmi.c     ****     }
  34:codeBmi.c     ****     
  35:codeBmi.c     ****     Cy_SCB_I2C_MasterSendStop(I2C_1_HW,0,&I2C_1_context);// on arrête la fonction
  36:codeBmi.c     ****     
  37:codeBmi.c     ****     return 0;
  38:codeBmi.c     **** }
  39:codeBmi.c     **** 
  40:codeBmi.c     **** static int8_t BMI160BurstRead(uint8_t dev_addr, uint8_t reg_addr,uint8_t *data, uint16_t len) //fon
  41:codeBmi.c     **** {
  42:codeBmi.c     ****     
  43:codeBmi.c     ****     Cy_SCB_I2C_MasterSendStart(I2C_1_HW,dev_addr,CY_SCB_I2C_WRITE_XFER,0,&I2C_1_context); //I2C STA
  44:codeBmi.c     ****     
  45:codeBmi.c     ****     Cy_SCB_I2C_MasterWriteByte(I2C_1_HW,reg_addr,0,&I2C_1_context); //écrit l'addresse que l'on ve
  46:codeBmi.c     ****     
  47:codeBmi.c     ****     Cy_SCB_I2C_MasterSendReStart(I2C_1_HW,dev_addr,CY_SCB_I2C_READ_XFER,0,&I2C_1_context); //I2C RE
  48:codeBmi.c     ****     
  49:codeBmi.c     ****     for(int i = 0;i<len-1; i++)
  50:codeBmi.c     ****     {
  51:codeBmi.c     ****         
  52:codeBmi.c     ****         Cy_SCB_I2C_MasterReadByte(I2C_1_HW,CY_SCB_I2C_ACK,&data[i],0,&I2C_1_context); //fonction av
  53:codeBmi.c     ****         
  54:codeBmi.c     ****     }
  55:codeBmi.c     ****     
  56:codeBmi.c     ****     Cy_SCB_I2C_MasterReadByte(I2C_1_HW,CY_SCB_I2C_NAK,&data[len-1],0,&I2C_1_context); //fonction po
  57:codeBmi.c     ****     
  58:codeBmi.c     ****     Cy_SCB_I2C_MasterSendStop(I2C_1_HW,0,&I2C_1_context); //on arrête la fonction
  59:codeBmi.c     ****     
  60:codeBmi.c     ****     
  61:codeBmi.c     ****     return 0;
  62:codeBmi.c     **** }
  63:codeBmi.c     **** 
  64:codeBmi.c     **** 
  65:codeBmi.c     **** static void sensorsDeviceInit(void)
  66:codeBmi.c     **** {
  28              		.loc 1 66 0
  29              		.cfi_startproc
  30              		@ args = 0, pretend = 0, frame = 0
  31              		@ frame_needed = 0, uses_anonymous_args = 0
  32 0000 10B5     		push	{r4, lr}
  33              		.cfi_def_cfa_offset 8
  34              		.cfi_offset 4, -8
  35              		.cfi_offset 14, -4
  67:codeBmi.c     **** 
  68:codeBmi.c     ****   int8_t rslt;
  69:codeBmi.c     ****     
  70:codeBmi.c     ****   vTaskDelay(500); 
  36              		.loc 1 70 0
  37 0002 4FF4FA70 		mov	r0, #500
  38 0006 FFF7FEFF 		bl	vTaskDelay
  39              	.LVL0:
  71:codeBmi.c     **** 
  72:codeBmi.c     ****   bmi160Dev.read = (bmi160_read_fptr_t)BMI160BurstRead;
  40              		.loc 1 72 0
  41 000a 1548     		ldr	r0, .L5
  42 000c 154B     		ldr	r3, .L5+4
ARM GAS  C:\Users\gab_1\AppData\Local\Temp\ccTtYdci.s 			page 3


  43 000e C361     		str	r3, [r0, #28]
  73:codeBmi.c     **** 
  74:codeBmi.c     ****   bmi160Dev.write = (bmi160_write_fptr_t)BMI160BurstWrite;
  44              		.loc 1 74 0
  45 0010 154B     		ldr	r3, .L5+8
  46 0012 0362     		str	r3, [r0, #32]
  75:codeBmi.c     **** 
  76:codeBmi.c     ****   bmi160Dev.delay_ms = (bmi160_delay_fptr_t)vTaskDelay;
  47              		.loc 1 76 0
  48 0014 154B     		ldr	r3, .L5+12
  49 0016 4362     		str	r3, [r0, #36]
  77:codeBmi.c     ****   
  78:codeBmi.c     ****   bmi160Dev.id = BMI160_I2C_ADDR;  
  50              		.loc 1 78 0
  51 0018 6823     		movs	r3, #104
  52 001a 4370     		strb	r3, [r0, #1]
  79:codeBmi.c     **** 
  80:codeBmi.c     ****   rslt = bmi160_init(&bmi160Dev); 
  53              		.loc 1 80 0
  54 001c FFF7FEFF 		bl	bmi160_init
  55              	.LVL1:
  81:codeBmi.c     **** 
  82:codeBmi.c     ****   if (rslt == 0)
  56              		.loc 1 82 0
  57 0020 C8B9     		cbnz	r0, .L2
  83:codeBmi.c     ****     {
  84:codeBmi.c     ****         
  85:codeBmi.c     ****       printf("Determination des valeurs du mouvement\n");
  58              		.loc 1 85 0
  59 0022 1348     		ldr	r0, .L5+16
  60              	.LVL2:
  61 0024 FFF7FEFF 		bl	puts
  62              	.LVL3:
  86:codeBmi.c     ****       bmi160Dev.gyro_cfg.odr = BMI160_GYRO_ODR_800HZ;
  63              		.loc 1 86 0
  64 0028 0D4C     		ldr	r4, .L5
  65 002a 0B23     		movs	r3, #11
  66 002c 6373     		strb	r3, [r4, #13]
  87:codeBmi.c     ****       bmi160Dev.gyro_cfg.range = BMI160_GYRO_RANGE_125_DPS;
  67              		.loc 1 87 0
  68 002e 0423     		movs	r3, #4
  69 0030 A373     		strb	r3, [r4, #14]
  88:codeBmi.c     ****       bmi160Dev.gyro_cfg.bw = BMI160_GYRO_BW_OSR4_MODE;
  70              		.loc 1 88 0
  71 0032 0023     		movs	r3, #0
  72 0034 E373     		strb	r3, [r4, #15]
  89:codeBmi.c     **** 
  90:codeBmi.c     ****       bmi160Dev.gyro_cfg.power = BMI160_GYRO_NORMAL_MODE;
  73              		.loc 1 90 0
  74 0036 1522     		movs	r2, #21
  75 0038 2273     		strb	r2, [r4, #12]
  91:codeBmi.c     **** 
  92:codeBmi.c     ****       bmi160Dev.accel_cfg.odr = BMI160_ACCEL_ODR_1600HZ;
  76              		.loc 1 92 0
  77 003a 0C22     		movs	r2, #12
  78 003c 6271     		strb	r2, [r4, #5]
  93:codeBmi.c     ****       bmi160Dev.accel_cfg.range = BMI160_ACCEL_RANGE_4G;
ARM GAS  C:\Users\gab_1\AppData\Local\Temp\ccTtYdci.s 			page 4


  79              		.loc 1 93 0
  80 003e 0522     		movs	r2, #5
  81 0040 A271     		strb	r2, [r4, #6]
  94:codeBmi.c     ****       bmi160Dev.accel_cfg.bw = BMI160_ACCEL_BW_OSR4_AVG1;
  82              		.loc 1 94 0
  83 0042 E371     		strb	r3, [r4, #7]
  95:codeBmi.c     ****       bmi160Dev.accel_cfg.power = BMI160_ACCEL_NORMAL_MODE;
  84              		.loc 1 95 0
  85 0044 1123     		movs	r3, #17
  86 0046 2371     		strb	r3, [r4, #4]
  96:codeBmi.c     **** 
  97:codeBmi.c     ****       bmi160_set_sens_conf(&bmi160Dev);
  87              		.loc 1 97 0
  88 0048 2046     		mov	r0, r4
  89 004a FFF7FEFF 		bl	bmi160_set_sens_conf
  90              	.LVL4:
  98:codeBmi.c     ****       bmi160Dev.delay_ms(50);
  91              		.loc 1 98 0
  92 004e 636A     		ldr	r3, [r4, #36]
  93 0050 3220     		movs	r0, #50
  94 0052 9847     		blx	r3
  95              	.LVL5:
  96 0054 10BD     		pop	{r4, pc}
  97              	.LVL6:
  98              	.L2:
  99:codeBmi.c     ****     
 100:codeBmi.c     ****     }
 101:codeBmi.c     ****     
 102:codeBmi.c     ****   else
 103:codeBmi.c     ****     
 104:codeBmi.c     ****     {
 105:codeBmi.c     ****         
 106:codeBmi.c     ****       printf("ALERTE: erreur\n");
  99              		.loc 1 106 0
 100 0056 0748     		ldr	r0, .L5+20
 101              	.LVL7:
 102 0058 FFF7FEFF 		bl	puts
 103              	.LVL8:
 104 005c 10BD     		pop	{r4, pc}
 105              	.L6:
 106 005e 00BF     		.align	2
 107              	.L5:
 108 0060 00000000 		.word	.LANCHOR0
 109 0064 00000000 		.word	BMI160BurstRead
 110 0068 00000000 		.word	BMI160BurstWrite
 111 006c 00000000 		.word	vTaskDelay
 112 0070 00000000 		.word	.LC0
 113 0074 28000000 		.word	.LC1
 114              		.cfi_endproc
 115              	.LFE695:
 116              		.size	sensorsDeviceInit, .-sensorsDeviceInit
 117              		.section	.text.BMI160BurstWrite,"ax",%progbits
 118              		.align	2
 119              		.thumb
 120              		.thumb_func
 121              		.type	BMI160BurstWrite, %function
 122              	BMI160BurstWrite:
ARM GAS  C:\Users\gab_1\AppData\Local\Temp\ccTtYdci.s 			page 5


 123              	.LFB693:
  22:codeBmi.c     ****     
 124              		.loc 1 22 0
 125              		.cfi_startproc
 126              		@ args = 0, pretend = 0, frame = 0
 127              		@ frame_needed = 0, uses_anonymous_args = 0
 128              	.LVL9:
 129 0000 2DE9F041 		push	{r4, r5, r6, r7, r8, lr}
 130              		.cfi_def_cfa_offset 24
 131              		.cfi_offset 4, -24
 132              		.cfi_offset 5, -20
 133              		.cfi_offset 6, -16
 134              		.cfi_offset 7, -12
 135              		.cfi_offset 8, -8
 136              		.cfi_offset 14, -4
 137 0004 82B0     		sub	sp, sp, #8
 138              		.cfi_def_cfa_offset 32
 139 0006 8846     		mov	r8, r1
 140 0008 1646     		mov	r6, r2
 141 000a 1D46     		mov	r5, r3
  24:codeBmi.c     ****     
 142              		.loc 1 24 0
 143 000c 114C     		ldr	r4, .L11
 144 000e 124F     		ldr	r7, .L11+4
 145 0010 0097     		str	r7, [sp]
 146 0012 0023     		movs	r3, #0
 147              	.LVL10:
 148 0014 1A46     		mov	r2, r3
 149              	.LVL11:
 150 0016 0146     		mov	r1, r0
 151              	.LVL12:
 152 0018 2046     		mov	r0, r4
 153              	.LVL13:
 154 001a FFF7FEFF 		bl	Cy_SCB_I2C_MasterSendStart
 155              	.LVL14:
  26:codeBmi.c     ****     
 156              		.loc 1 26 0
 157 001e 3B46     		mov	r3, r7
 158 0020 0022     		movs	r2, #0
 159 0022 4146     		mov	r1, r8
 160 0024 2046     		mov	r0, r4
 161 0026 FFF7FEFF 		bl	Cy_SCB_I2C_MasterWriteByte
 162              	.LVL15:
 163              	.LBB69:
  28:codeBmi.c     ****     { 
 164              		.loc 1 28 0
 165 002a 0024     		movs	r4, #0
 166 002c 06E0     		b	.L8
 167              	.LVL16:
 168              	.L9:
  31:codeBmi.c     ****         
 169              		.loc 1 31 0 discriminator 3
 170 002e 0A4B     		ldr	r3, .L11+4
 171 0030 0022     		movs	r2, #0
 172 0032 315D     		ldrb	r1, [r6, r4]	@ zero_extendqisi2
 173 0034 0748     		ldr	r0, .L11
 174 0036 FFF7FEFF 		bl	Cy_SCB_I2C_MasterWriteByte
ARM GAS  C:\Users\gab_1\AppData\Local\Temp\ccTtYdci.s 			page 6


 175              	.LVL17:
  28:codeBmi.c     ****     { 
 176              		.loc 1 28 0 discriminator 3
 177 003a 0134     		adds	r4, r4, #1
 178              	.LVL18:
 179              	.L8:
  28:codeBmi.c     ****     { 
 180              		.loc 1 28 0 is_stmt 0 discriminator 1
 181 003c AC42     		cmp	r4, r5
 182 003e F6DB     		blt	.L9
 183              	.LBE69:
  35:codeBmi.c     ****     
 184              		.loc 1 35 0 is_stmt 1
 185 0040 054A     		ldr	r2, .L11+4
 186 0042 0021     		movs	r1, #0
 187 0044 0348     		ldr	r0, .L11
 188 0046 FFF7FEFF 		bl	Cy_SCB_I2C_MasterSendStop
 189              	.LVL19:
  38:codeBmi.c     **** 
 190              		.loc 1 38 0
 191 004a 0020     		movs	r0, #0
 192 004c 02B0     		add	sp, sp, #8
 193              		.cfi_def_cfa_offset 24
 194              		@ sp needed
 195 004e BDE8F081 		pop	{r4, r5, r6, r7, r8, pc}
 196              	.LVL20:
 197              	.L12:
 198 0052 00BF     		.align	2
 199              	.L11:
 200 0054 00006440 		.word	1080295424
 201 0058 00000000 		.word	I2C_1_context
 202              		.cfi_endproc
 203              	.LFE693:
 204              		.size	BMI160BurstWrite, .-BMI160BurstWrite
 205              		.section	.text.BMI160BurstRead,"ax",%progbits
 206              		.align	2
 207              		.thumb
 208              		.thumb_func
 209              		.type	BMI160BurstRead, %function
 210              	BMI160BurstRead:
 211              	.LFB694:
  41:codeBmi.c     ****     
 212              		.loc 1 41 0
 213              		.cfi_startproc
 214              		@ args = 0, pretend = 0, frame = 0
 215              		@ frame_needed = 0, uses_anonymous_args = 0
 216              	.LVL21:
 217 0000 2DE9F043 		push	{r4, r5, r6, r7, r8, r9, lr}
 218              		.cfi_def_cfa_offset 28
 219              		.cfi_offset 4, -28
 220              		.cfi_offset 5, -24
 221              		.cfi_offset 6, -20
 222              		.cfi_offset 7, -16
 223              		.cfi_offset 8, -12
 224              		.cfi_offset 9, -8
 225              		.cfi_offset 14, -4
 226 0004 83B0     		sub	sp, sp, #12
ARM GAS  C:\Users\gab_1\AppData\Local\Temp\ccTtYdci.s 			page 7


 227              		.cfi_def_cfa_offset 40
 228 0006 8046     		mov	r8, r0
 229 0008 8946     		mov	r9, r1
 230 000a 1646     		mov	r6, r2
 231 000c 1D46     		mov	r5, r3
  43:codeBmi.c     ****     
 232              		.loc 1 43 0
 233 000e 1B4C     		ldr	r4, .L17
 234 0010 1B4F     		ldr	r7, .L17+4
 235 0012 0097     		str	r7, [sp]
 236 0014 0023     		movs	r3, #0
 237              	.LVL22:
 238 0016 1A46     		mov	r2, r3
 239              	.LVL23:
 240 0018 0146     		mov	r1, r0
 241              	.LVL24:
 242 001a 2046     		mov	r0, r4
 243              	.LVL25:
 244 001c FFF7FEFF 		bl	Cy_SCB_I2C_MasterSendStart
 245              	.LVL26:
  45:codeBmi.c     ****     
 246              		.loc 1 45 0
 247 0020 3B46     		mov	r3, r7
 248 0022 0022     		movs	r2, #0
 249 0024 4946     		mov	r1, r9
 250 0026 2046     		mov	r0, r4
 251 0028 FFF7FEFF 		bl	Cy_SCB_I2C_MasterWriteByte
 252              	.LVL27:
  47:codeBmi.c     ****     
 253              		.loc 1 47 0
 254 002c 0097     		str	r7, [sp]
 255 002e 0023     		movs	r3, #0
 256 0030 0122     		movs	r2, #1
 257 0032 4146     		mov	r1, r8
 258 0034 2046     		mov	r0, r4
 259 0036 FFF7FEFF 		bl	Cy_SCB_I2C_MasterSendReStart
 260              	.LVL28:
 261              	.LBB70:
  49:codeBmi.c     ****     {
 262              		.loc 1 49 0
 263 003a 0024     		movs	r4, #0
 264 003c 08E0     		b	.L14
 265              	.LVL29:
 266              	.L15:
  52:codeBmi.c     ****         
 267              		.loc 1 52 0 discriminator 3
 268 003e 104B     		ldr	r3, .L17+4
 269 0040 0093     		str	r3, [sp]
 270 0042 0023     		movs	r3, #0
 271 0044 3219     		adds	r2, r6, r4
 272 0046 1946     		mov	r1, r3
 273 0048 0C48     		ldr	r0, .L17
 274 004a FFF7FEFF 		bl	Cy_SCB_I2C_MasterReadByte
 275              	.LVL30:
  49:codeBmi.c     ****     {
 276              		.loc 1 49 0 discriminator 3
 277 004e 0134     		adds	r4, r4, #1
ARM GAS  C:\Users\gab_1\AppData\Local\Temp\ccTtYdci.s 			page 8


 278              	.LVL31:
 279              	.L14:
  49:codeBmi.c     ****     {
 280              		.loc 1 49 0 is_stmt 0 discriminator 1
 281 0050 6B1E     		subs	r3, r5, #1
 282 0052 9C42     		cmp	r4, r3
 283 0054 F3DB     		blt	.L15
 284              	.LBE70:
  56:codeBmi.c     ****     
 285              		.loc 1 56 0 is_stmt 1
 286 0056 1A46     		mov	r2, r3
 287 0058 084C     		ldr	r4, .L17
 288              	.LVL32:
 289 005a 094D     		ldr	r5, .L17+4
 290 005c 0095     		str	r5, [sp]
 291 005e 0023     		movs	r3, #0
 292 0060 3244     		add	r2, r2, r6
 293 0062 0121     		movs	r1, #1
 294 0064 2046     		mov	r0, r4
 295 0066 FFF7FEFF 		bl	Cy_SCB_I2C_MasterReadByte
 296              	.LVL33:
  58:codeBmi.c     ****     
 297              		.loc 1 58 0
 298 006a 2A46     		mov	r2, r5
 299 006c 0021     		movs	r1, #0
 300 006e 2046     		mov	r0, r4
 301 0070 FFF7FEFF 		bl	Cy_SCB_I2C_MasterSendStop
 302              	.LVL34:
  62:codeBmi.c     **** 
 303              		.loc 1 62 0
 304 0074 0020     		movs	r0, #0
 305 0076 03B0     		add	sp, sp, #12
 306              		.cfi_def_cfa_offset 28
 307              		@ sp needed
 308 0078 BDE8F083 		pop	{r4, r5, r6, r7, r8, r9, pc}
 309              	.LVL35:
 310              	.L18:
 311              		.align	2
 312              	.L17:
 313 007c 00006440 		.word	1080295424
 314 0080 00000000 		.word	I2C_1_context
 315              		.cfi_endproc
 316              	.LFE694:
 317              		.size	BMI160BurstRead, .-BMI160BurstRead
 318              		.section	.text.read_MAX30102_Register,"ax",%progbits
 319              		.align	2
 320              		.global	read_MAX30102_Register
 321              		.thumb
 322              		.thumb_func
 323              		.type	read_MAX30102_Register, %function
 324              	read_MAX30102_Register:
 325              	.LFB697:
 326              		.file 2 "main_cm4.c"
   1:main_cm4.c    **** /******************************************************************************
   2:main_cm4.c    **** * File Name: main_cm4.c
   3:main_cm4.c    **** *
   4:main_cm4.c    **** * Code final - Oxymètre de pouls 6688
ARM GAS  C:\Users\gab_1\AppData\Local\Temp\ccTtYdci.s 			page 9


   5:main_cm4.c    **** * Par :
   6:main_cm4.c    **** * Lauriane Grondin-Reiher (2011285)
   7:main_cm4.c    **** * Gabriel Lopez-Garcia (2017012)
   8:main_cm4.c    **** * Joëlle Morissette (2017462)
   9:main_cm4.c    **** * Yi Yang Yu (2017484)
  10:main_cm4.c    **** * 
  11:main_cm4.c    **** *
  12:main_cm4.c    **** ********************************************************************************/
  13:main_cm4.c    **** 
  14:main_cm4.c    **** // LA VERSION FINALEEEEEEEEEEEEEEEEEEEEEEEEEEEEEEEEEEEEEEEEEEEEEEEEEEEEEEEEEEEEEEEEEEEE !!!!!!!! 
  15:main_cm4.c    **** 
  16:main_cm4.c    **** // inclure tous les fichiers pertinents
  17:main_cm4.c    **** #include "project.h" 
  18:main_cm4.c    **** #include "GUI.h"
  19:main_cm4.c    **** #include "pervasive_eink_hardware_driver.h"
  20:main_cm4.c    **** #include "cy_eink_library.h"
  21:main_cm4.c    **** #include "LCDConf.h"
  22:main_cm4.c    **** #include <stdlib.h>
  23:main_cm4.c    **** #include "LCDConf.h"
  24:main_cm4.c    **** #include <stdio.h>
  25:main_cm4.c    **** #include "FreeRTOS.h"
  26:main_cm4.c    **** #include "display_task.h"
  27:main_cm4.c    **** #include "task.h"
  28:main_cm4.c    **** #include "queue.h"
  29:main_cm4.c    **** #include <arm_math.h> 
  30:main_cm4.c    **** #include <core_cm4.h>
  31:main_cm4.c    **** #include "bmi160.h"
  32:main_cm4.c    **** #include "codeBmi.c"
  33:main_cm4.c    **** #include "math.h"
  34:main_cm4.c    **** 
  35:main_cm4.c    **** 
  36:main_cm4.c    **** // Définitions - Acquisition
  37:main_cm4.c    **** #define SLAVEADRESS 0x57
  38:main_cm4.c    **** #define REG_FIFO_DATA 0x07
  39:main_cm4.c    **** 
  40:main_cm4.c    **** // Définitions - Interface
  41:main_cm4.c    **** #define TASK_DISPLAY_PRIORITY    (1u)
  42:main_cm4.c    **** #define TASK_DISPLAY_STACK_SIZE  (2048u)
  43:main_cm4.c    **** #define TASK_TOUCH_STACK_SIZE    (configMINIMAL_STACK_SIZE)
  44:main_cm4.c    **** #define TOUCH_QUEUE_LENGHT       (1u)
  45:main_cm4.c    **** 
  46:main_cm4.c    **** // Définitions - Traitement de signal
  47:main_cm4.c    **** #define TEST_LENGTH_SAMPLES  1000 
  48:main_cm4.c    **** #define BLOCK_SIZE 1000 
  49:main_cm4.c    **** #define FILTER_TAP_NUM 861 // 
  50:main_cm4.c    **** #define FILTER_TAP_HAUT 51
  51:main_cm4.c    **** #define FILTER_TAP_BAS 51
  52:main_cm4.c    **** static float32_t firStateF32[BLOCK_SIZE + FILTER_TAP_NUM -1];
  53:main_cm4.c    **** 
  54:main_cm4.c    **** volatile bool Index = false;
  55:main_cm4.c    **** extern bool flagAlarme;
  56:main_cm4.c    **** extern volatile int courantDEL;
  57:main_cm4.c    **** 
  58:main_cm4.c    **** // PARTIE ACQUISITION
  59:main_cm4.c    **** 
  60:main_cm4.c    **** 
  61:main_cm4.c    **** // Trouver la position du capteur afin de déterminer s'il y a un mouvement important 
ARM GAS  C:\Users\gab_1\AppData\Local\Temp\ccTtYdci.s 			page 10


  62:main_cm4.c    **** void motionTask(void *arg)
  63:main_cm4.c    **** {
  64:main_cm4.c    ****     (void)arg;
  65:main_cm4.c    ****     I2C_1_Start();
  66:main_cm4.c    ****     sensorsDeviceInit();
  67:main_cm4.c    ****     struct bmi160_sensor_data acc;
  68:main_cm4.c    ****     int xx = 0;
  69:main_cm4.c    **** 
  70:main_cm4.c    ****     while(1)
  71:main_cm4.c    ****     {
  72:main_cm4.c    ****         bmi160_get_sensor_data(BMI160_ACCEL_ONLY, &acc, NULL, &bmi160Dev);
  73:main_cm4.c    ****         //printf("x=%4d y=%4d z=%4d\r\n",acc.x,acc.y,acc.z); // Décommenter pour voir les coordonn
  74:main_cm4.c    **** 
  75:main_cm4.c    ****         vTaskDelay(2);
  76:main_cm4.c    ****         
  77:main_cm4.c    ****         // Si mouvement trop important, on allume une DEL rouge
  78:main_cm4.c    ****         if (acc.x > xx + 200 && flagAlarme == true  /*|| acc.y > yy + 200*/ )
  79:main_cm4.c    ****         {   
  80:main_cm4.c    ****             UART_1_PutString("\r\n ATTENTION: Veuillez ne pas bouger \r\n");
  81:main_cm4.c    ****             Cy_GPIO_Write(RED_PORT,RED_NUM,0);
  82:main_cm4.c    ****         }
  83:main_cm4.c    ****         
  84:main_cm4.c    ****         else if(acc.x<600){
  85:main_cm4.c    ****             Cy_GPIO_Write(RED_PORT,RED_NUM,1);
  86:main_cm4.c    ****             xx = acc.x;
  87:main_cm4.c    ****             interrupt_MAX30102();
  88:main_cm4.c    ****         }    
  89:main_cm4.c    ****         
  90:main_cm4.c    ****         xx = acc.x;
  91:main_cm4.c    ****     }
  92:main_cm4.c    **** }
  93:main_cm4.c    **** 
  94:main_cm4.c    **** // Définition des données qui seront utiles au transfer de données dans le traitement de signal
  95:main_cm4.c    **** float DataRouge[1000];
  96:main_cm4.c    **** float DataIR[1000];
  97:main_cm4.c    **** 
  98:main_cm4.c    **** 
  99:main_cm4.c    **** uint32_t bufferROUGE[1000];
 100:main_cm4.c    **** uint32_t bufferINFRAROUGE[1000];
 101:main_cm4.c    **** uint16_t indice;
 102:main_cm4.c    **** 
 103:main_cm4.c    **** uint32_t* pointeurIr =&bufferINFRAROUGE[0];
 104:main_cm4.c    **** uint32_t*pointeurRed =&bufferROUGE[0];
 105:main_cm4.c    **** 
 106:main_cm4.c    **** // Lecture des registres 
 107:main_cm4.c    **** uint8_t read_MAX30102_Register(uint8_t address)
 108:main_cm4.c    **** {
 327              		.loc 2 108 0
 328              		.cfi_startproc
 329              		@ args = 0, pretend = 0, frame = 8
 330              		@ frame_needed = 0, uses_anonymous_args = 0
 331              	.LVL36:
 332 0000 70B5     		push	{r4, r5, r6, lr}
 333              		.cfi_def_cfa_offset 16
 334              		.cfi_offset 4, -16
 335              		.cfi_offset 5, -12
 336              		.cfi_offset 6, -8
ARM GAS  C:\Users\gab_1\AppData\Local\Temp\ccTtYdci.s 			page 11


 337              		.cfi_offset 14, -4
 338 0002 84B0     		sub	sp, sp, #16
 339              		.cfi_def_cfa_offset 32
 340 0004 0646     		mov	r6, r0
 341              	.LVL37:
 342              	.LBB71:
 343              	.LBB72:
 344              		.file 3 "Generated_Source\\PSoC6/I2C.h"
   1:Generated_Source\PSoC6/I2C.h **** /***************************************************************************//**
   2:Generated_Source\PSoC6/I2C.h **** * \file I2C.c
   3:Generated_Source\PSoC6/I2C.h **** * \version 2.0
   4:Generated_Source\PSoC6/I2C.h **** *
   5:Generated_Source\PSoC6/I2C.h **** *  This file provides constants and parameter values for the I2C component.
   6:Generated_Source\PSoC6/I2C.h **** *
   7:Generated_Source\PSoC6/I2C.h **** ********************************************************************************
   8:Generated_Source\PSoC6/I2C.h **** * \copyright
   9:Generated_Source\PSoC6/I2C.h **** * Copyright 2016-2017, Cypress Semiconductor Corporation. All rights reserved.
  10:Generated_Source\PSoC6/I2C.h **** * You may use this file only in accordance with the license, terms, conditions,
  11:Generated_Source\PSoC6/I2C.h **** * disclaimers, and limitations in the end user license agreement accompanying
  12:Generated_Source\PSoC6/I2C.h **** * the software package with which this file was provided.
  13:Generated_Source\PSoC6/I2C.h **** *******************************************************************************/
  14:Generated_Source\PSoC6/I2C.h **** 
  15:Generated_Source\PSoC6/I2C.h **** #if !defined(I2C_CY_SCB_I2C_PDL_H)
  16:Generated_Source\PSoC6/I2C.h **** #define I2C_CY_SCB_I2C_PDL_H
  17:Generated_Source\PSoC6/I2C.h **** 
  18:Generated_Source\PSoC6/I2C.h **** #include "cyfitter.h"
  19:Generated_Source\PSoC6/I2C.h **** #include "scb/cy_scb_i2c.h"
  20:Generated_Source\PSoC6/I2C.h **** 
  21:Generated_Source\PSoC6/I2C.h **** #if defined(__cplusplus)
  22:Generated_Source\PSoC6/I2C.h **** extern "C" {
  23:Generated_Source\PSoC6/I2C.h **** #endif
  24:Generated_Source\PSoC6/I2C.h **** 
  25:Generated_Source\PSoC6/I2C.h **** /***************************************
  26:Generated_Source\PSoC6/I2C.h **** *   Initial Parameter Constants
  27:Generated_Source\PSoC6/I2C.h **** ****************************************/
  28:Generated_Source\PSoC6/I2C.h **** 
  29:Generated_Source\PSoC6/I2C.h **** #define I2C_MODE               (0x2U)
  30:Generated_Source\PSoC6/I2C.h **** #define I2C_MODE_SLAVE_MASK    (0x1U)
  31:Generated_Source\PSoC6/I2C.h **** #define I2C_MODE_MASTER_MASK   (0x2U)
  32:Generated_Source\PSoC6/I2C.h **** 
  33:Generated_Source\PSoC6/I2C.h **** #define I2C_ENABLE_SLAVE       (0UL != (I2C_MODE & I2C_MODE_SLAVE_MASK))
  34:Generated_Source\PSoC6/I2C.h **** #define I2C_ENABLE_MASTER      (0UL != (I2C_MODE & I2C_MODE_MASTER_MASK))
  35:Generated_Source\PSoC6/I2C.h **** #define I2C_MANUAL_SCL_CONTROL (0U)
  36:Generated_Source\PSoC6/I2C.h **** 
  37:Generated_Source\PSoC6/I2C.h **** 
  38:Generated_Source\PSoC6/I2C.h **** /***************************************
  39:Generated_Source\PSoC6/I2C.h **** *        Function Prototypes
  40:Generated_Source\PSoC6/I2C.h **** ***************************************/
  41:Generated_Source\PSoC6/I2C.h **** /**
  42:Generated_Source\PSoC6/I2C.h **** * \addtogroup group_general
  43:Generated_Source\PSoC6/I2C.h **** * @{
  44:Generated_Source\PSoC6/I2C.h **** */
  45:Generated_Source\PSoC6/I2C.h **** /* Component only APIs. */
  46:Generated_Source\PSoC6/I2C.h **** void I2C_Start(void);
  47:Generated_Source\PSoC6/I2C.h **** 
  48:Generated_Source\PSoC6/I2C.h **** /* Basic functions. */
  49:Generated_Source\PSoC6/I2C.h **** __STATIC_INLINE cy_en_scb_i2c_status_t I2C_Init(cy_stc_scb_i2c_config_t const *config);
ARM GAS  C:\Users\gab_1\AppData\Local\Temp\ccTtYdci.s 			page 12


  50:Generated_Source\PSoC6/I2C.h **** __STATIC_INLINE void I2C_DeInit (void);
  51:Generated_Source\PSoC6/I2C.h **** __STATIC_INLINE void I2C_Enable (void);
  52:Generated_Source\PSoC6/I2C.h **** __STATIC_INLINE void I2C_Disable(void);
  53:Generated_Source\PSoC6/I2C.h **** 
  54:Generated_Source\PSoC6/I2C.h **** /* Data rate configuration functions. */
  55:Generated_Source\PSoC6/I2C.h **** __STATIC_INLINE uint32_t I2C_SetDataRate(uint32_t dataRateHz, uint32_t scbClockHz);
  56:Generated_Source\PSoC6/I2C.h **** __STATIC_INLINE uint32_t I2C_GetDataRate(uint32_t scbClockHz);
  57:Generated_Source\PSoC6/I2C.h **** 
  58:Generated_Source\PSoC6/I2C.h **** /* Register callbacks. */
  59:Generated_Source\PSoC6/I2C.h **** __STATIC_INLINE void I2C_RegisterEventCallback(cy_cb_scb_i2c_handle_events_t callback);
  60:Generated_Source\PSoC6/I2C.h **** #if (I2C_ENABLE_SLAVE)
  61:Generated_Source\PSoC6/I2C.h **** __STATIC_INLINE void I2C_RegisterAddrCallback (cy_cb_scb_i2c_handle_addr_t callback);
  62:Generated_Source\PSoC6/I2C.h **** #endif /* (I2C_ENABLE_SLAVE) */
  63:Generated_Source\PSoC6/I2C.h **** 
  64:Generated_Source\PSoC6/I2C.h **** /* Configuration functions. */
  65:Generated_Source\PSoC6/I2C.h **** #if (I2C_ENABLE_SLAVE)
  66:Generated_Source\PSoC6/I2C.h **** __STATIC_INLINE void     I2C_SlaveSetAddress(uint8_t addr);
  67:Generated_Source\PSoC6/I2C.h **** __STATIC_INLINE uint32_t I2C_SlaveGetAddress(void);
  68:Generated_Source\PSoC6/I2C.h **** __STATIC_INLINE void     I2C_SlaveSetAddressMask(uint8_t addrMask);
  69:Generated_Source\PSoC6/I2C.h **** __STATIC_INLINE uint32_t I2C_SlaveGetAddressMask(void);
  70:Generated_Source\PSoC6/I2C.h **** #endif /* (I2C_ENABLE_SLAVE) */
  71:Generated_Source\PSoC6/I2C.h **** 
  72:Generated_Source\PSoC6/I2C.h **** #if (I2C_ENABLE_MASTER)
  73:Generated_Source\PSoC6/I2C.h **** __STATIC_INLINE void I2C_MasterSetLowPhaseDutyCycle (uint32_t clockCycles);
  74:Generated_Source\PSoC6/I2C.h **** __STATIC_INLINE void I2C_MasterSetHighPhaseDutyCycle(uint32_t clockCycles);
  75:Generated_Source\PSoC6/I2C.h **** #endif /* (I2C_ENABLE_MASTER) */
  76:Generated_Source\PSoC6/I2C.h **** 
  77:Generated_Source\PSoC6/I2C.h **** /* Bus status. */
  78:Generated_Source\PSoC6/I2C.h **** __STATIC_INLINE bool     I2C_IsBusBusy(void);
  79:Generated_Source\PSoC6/I2C.h **** 
  80:Generated_Source\PSoC6/I2C.h **** /* Slave functions. */
  81:Generated_Source\PSoC6/I2C.h **** #if (I2C_ENABLE_SLAVE)
  82:Generated_Source\PSoC6/I2C.h **** __STATIC_INLINE uint32_t I2C_SlaveGetStatus(void);
  83:Generated_Source\PSoC6/I2C.h **** 
  84:Generated_Source\PSoC6/I2C.h **** __STATIC_INLINE void     I2C_SlaveConfigReadBuf(uint8_t *buffer, uint32_t size);
  85:Generated_Source\PSoC6/I2C.h **** __STATIC_INLINE void     I2C_SlaveAbortRead(void);
  86:Generated_Source\PSoC6/I2C.h **** __STATIC_INLINE uint32_t I2C_SlaveGetReadTransferCount(void);
  87:Generated_Source\PSoC6/I2C.h **** __STATIC_INLINE uint32_t I2C_SlaveClearReadStatus(void);
  88:Generated_Source\PSoC6/I2C.h **** 
  89:Generated_Source\PSoC6/I2C.h **** __STATIC_INLINE void     I2C_SlaveConfigWriteBuf(uint8_t *buffer, uint32_t size);
  90:Generated_Source\PSoC6/I2C.h **** __STATIC_INLINE void     I2C_SlaveAbortWrite(void);
  91:Generated_Source\PSoC6/I2C.h **** __STATIC_INLINE uint32_t I2C_SlaveGetWriteTransferCount(void);
  92:Generated_Source\PSoC6/I2C.h **** __STATIC_INLINE uint32_t I2C_SlaveClearWriteStatus(void);
  93:Generated_Source\PSoC6/I2C.h **** #endif /* (I2C_ENABLE_SLAVE) */
  94:Generated_Source\PSoC6/I2C.h **** 
  95:Generated_Source\PSoC6/I2C.h **** /* Master interrupt processing functions. */
  96:Generated_Source\PSoC6/I2C.h **** #if (I2C_ENABLE_MASTER)
  97:Generated_Source\PSoC6/I2C.h **** __STATIC_INLINE uint32_t I2C_MasterGetStatus(void);
  98:Generated_Source\PSoC6/I2C.h **** 
  99:Generated_Source\PSoC6/I2C.h **** __STATIC_INLINE cy_en_scb_i2c_status_t I2C_MasterRead(cy_stc_scb_i2c_master_xfer_config_t *xferConf
 100:Generated_Source\PSoC6/I2C.h **** __STATIC_INLINE void I2C_MasterAbortRead(void);
 101:Generated_Source\PSoC6/I2C.h **** __STATIC_INLINE cy_en_scb_i2c_status_t I2C_MasterWrite(cy_stc_scb_i2c_master_xfer_config_t *xferCon
 102:Generated_Source\PSoC6/I2C.h **** __STATIC_INLINE void I2C_MasterAbortWrite(void);
 103:Generated_Source\PSoC6/I2C.h **** __STATIC_INLINE uint32_t I2C_MasterGetTransferCount(void);
 104:Generated_Source\PSoC6/I2C.h **** 
 105:Generated_Source\PSoC6/I2C.h **** /* Master manual processing functions. */
 106:Generated_Source\PSoC6/I2C.h **** __STATIC_INLINE cy_en_scb_i2c_status_t I2C_MasterSendStart(uint32_t address, cy_en_scb_i2c_directio
ARM GAS  C:\Users\gab_1\AppData\Local\Temp\ccTtYdci.s 			page 13


 107:Generated_Source\PSoC6/I2C.h **** __STATIC_INLINE cy_en_scb_i2c_status_t I2C_MasterSendReStart(uint32_t address, cy_en_scb_i2c_direct
 108:Generated_Source\PSoC6/I2C.h **** __STATIC_INLINE cy_en_scb_i2c_status_t I2C_MasterSendStop(uint32_t timeoutMs);
 109:Generated_Source\PSoC6/I2C.h **** __STATIC_INLINE cy_en_scb_i2c_status_t I2C_MasterReadByte(cy_en_scb_i2c_command_t ackNack, uint8_t 
 110:Generated_Source\PSoC6/I2C.h **** __STATIC_INLINE cy_en_scb_i2c_status_t I2C_MasterWriteByte(uint8_t byte, uint32_t timeoutMs);
 111:Generated_Source\PSoC6/I2C.h **** #endif /* (I2C_ENABLE_MASTER) */
 112:Generated_Source\PSoC6/I2C.h **** 
 113:Generated_Source\PSoC6/I2C.h **** /* Interrupt handler. */
 114:Generated_Source\PSoC6/I2C.h **** __STATIC_INLINE void I2C_Interrupt(void);
 115:Generated_Source\PSoC6/I2C.h **** /** @} group_general */
 116:Generated_Source\PSoC6/I2C.h **** 
 117:Generated_Source\PSoC6/I2C.h **** 
 118:Generated_Source\PSoC6/I2C.h **** /***************************************
 119:Generated_Source\PSoC6/I2C.h **** *    Variables with External Linkage
 120:Generated_Source\PSoC6/I2C.h **** ***************************************/
 121:Generated_Source\PSoC6/I2C.h **** /**
 122:Generated_Source\PSoC6/I2C.h **** * \addtogroup group_globals
 123:Generated_Source\PSoC6/I2C.h **** * @{
 124:Generated_Source\PSoC6/I2C.h **** */
 125:Generated_Source\PSoC6/I2C.h **** extern uint8_t I2C_initVar;
 126:Generated_Source\PSoC6/I2C.h **** extern cy_stc_scb_i2c_config_t const I2C_config;
 127:Generated_Source\PSoC6/I2C.h **** extern cy_stc_scb_i2c_context_t I2C_context;
 128:Generated_Source\PSoC6/I2C.h **** /** @} group_globals */
 129:Generated_Source\PSoC6/I2C.h **** 
 130:Generated_Source\PSoC6/I2C.h **** 
 131:Generated_Source\PSoC6/I2C.h **** /***************************************
 132:Generated_Source\PSoC6/I2C.h **** *         Preprocessor Macros
 133:Generated_Source\PSoC6/I2C.h **** ***************************************/
 134:Generated_Source\PSoC6/I2C.h **** /**
 135:Generated_Source\PSoC6/I2C.h **** * \addtogroup group_macros
 136:Generated_Source\PSoC6/I2C.h **** * @{
 137:Generated_Source\PSoC6/I2C.h **** */
 138:Generated_Source\PSoC6/I2C.h **** /** The pointer to the base address of the SCB instance */
 139:Generated_Source\PSoC6/I2C.h **** #define I2C_HW     ((CySCB_Type *) I2C_SCB__HW)
 140:Generated_Source\PSoC6/I2C.h **** 
 141:Generated_Source\PSoC6/I2C.h **** /** The desired data rate in Hz */
 142:Generated_Source\PSoC6/I2C.h **** #define I2C_DATA_RATE_HZ      (100000U)
 143:Generated_Source\PSoC6/I2C.h **** 
 144:Generated_Source\PSoC6/I2C.h **** /** The frequency of the clock used by the Component in Hz */
 145:Generated_Source\PSoC6/I2C.h **** #define I2C_CLK_FREQ_HZ       (1538461U)
 146:Generated_Source\PSoC6/I2C.h **** 
 147:Generated_Source\PSoC6/I2C.h **** /** The number of Component clocks used by the master to generate the SCL
 148:Generated_Source\PSoC6/I2C.h **** * low phase. This number is calculated by GUI based on the selected data rate.
 149:Generated_Source\PSoC6/I2C.h **** */
 150:Generated_Source\PSoC6/I2C.h **** #define I2C_LOW_PHASE_DUTY_CYCLE   (8U)
 151:Generated_Source\PSoC6/I2C.h **** 
 152:Generated_Source\PSoC6/I2C.h **** /** The number of Component clocks used by the master to generate the SCL
 153:Generated_Source\PSoC6/I2C.h **** * high phase. This number is calculated by GUI based on the selected data rate.
 154:Generated_Source\PSoC6/I2C.h **** */
 155:Generated_Source\PSoC6/I2C.h **** #define I2C_HIGH_PHASE_DUTY_CYCLE  (8U)
 156:Generated_Source\PSoC6/I2C.h **** /** @} group_macros */
 157:Generated_Source\PSoC6/I2C.h **** 
 158:Generated_Source\PSoC6/I2C.h **** 
 159:Generated_Source\PSoC6/I2C.h **** /***************************************
 160:Generated_Source\PSoC6/I2C.h **** *    In-line Function Implementation
 161:Generated_Source\PSoC6/I2C.h **** ***************************************/
 162:Generated_Source\PSoC6/I2C.h **** 
 163:Generated_Source\PSoC6/I2C.h **** /*******************************************************************************
ARM GAS  C:\Users\gab_1\AppData\Local\Temp\ccTtYdci.s 			page 14


 164:Generated_Source\PSoC6/I2C.h **** * Function Name: I2C_Init
 165:Generated_Source\PSoC6/I2C.h **** ****************************************************************************//**
 166:Generated_Source\PSoC6/I2C.h **** *
 167:Generated_Source\PSoC6/I2C.h **** * Invokes the Cy_SCB_I2C_Init() PDL driver function.
 168:Generated_Source\PSoC6/I2C.h **** *
 169:Generated_Source\PSoC6/I2C.h **** *******************************************************************************/
 170:Generated_Source\PSoC6/I2C.h **** __STATIC_INLINE cy_en_scb_i2c_status_t I2C_Init(cy_stc_scb_i2c_config_t const *config)
 171:Generated_Source\PSoC6/I2C.h **** {
 172:Generated_Source\PSoC6/I2C.h ****     return Cy_SCB_I2C_Init(I2C_HW, config, &I2C_context);
 173:Generated_Source\PSoC6/I2C.h **** }
 174:Generated_Source\PSoC6/I2C.h **** 
 175:Generated_Source\PSoC6/I2C.h **** 
 176:Generated_Source\PSoC6/I2C.h **** /*******************************************************************************
 177:Generated_Source\PSoC6/I2C.h **** *  Function Name: I2C_DeInit
 178:Generated_Source\PSoC6/I2C.h **** ****************************************************************************//**
 179:Generated_Source\PSoC6/I2C.h **** *
 180:Generated_Source\PSoC6/I2C.h **** * Invokes the Cy_SCB_I2C_DeInit() PDL driver function.
 181:Generated_Source\PSoC6/I2C.h **** *
 182:Generated_Source\PSoC6/I2C.h **** *******************************************************************************/
 183:Generated_Source\PSoC6/I2C.h **** __STATIC_INLINE void I2C_DeInit(void)
 184:Generated_Source\PSoC6/I2C.h **** {
 185:Generated_Source\PSoC6/I2C.h ****     Cy_SCB_I2C_DeInit(I2C_HW);
 186:Generated_Source\PSoC6/I2C.h **** }
 187:Generated_Source\PSoC6/I2C.h **** 
 188:Generated_Source\PSoC6/I2C.h **** 
 189:Generated_Source\PSoC6/I2C.h **** /*******************************************************************************
 190:Generated_Source\PSoC6/I2C.h **** * Function Name: I2C_Enable
 191:Generated_Source\PSoC6/I2C.h **** ****************************************************************************//**
 192:Generated_Source\PSoC6/I2C.h **** *
 193:Generated_Source\PSoC6/I2C.h **** * Invokes the Cy_SCB_I2C_Enable() PDL driver function.
 194:Generated_Source\PSoC6/I2C.h **** *
 195:Generated_Source\PSoC6/I2C.h **** *******************************************************************************/
 196:Generated_Source\PSoC6/I2C.h **** __STATIC_INLINE void I2C_Enable(void)
 197:Generated_Source\PSoC6/I2C.h **** {
 198:Generated_Source\PSoC6/I2C.h ****     Cy_SCB_I2C_Enable(I2C_HW);
 199:Generated_Source\PSoC6/I2C.h **** }
 200:Generated_Source\PSoC6/I2C.h **** 
 201:Generated_Source\PSoC6/I2C.h **** 
 202:Generated_Source\PSoC6/I2C.h **** /*******************************************************************************
 203:Generated_Source\PSoC6/I2C.h **** * Function Name: I2C_Disable
 204:Generated_Source\PSoC6/I2C.h **** ****************************************************************************//**
 205:Generated_Source\PSoC6/I2C.h **** *
 206:Generated_Source\PSoC6/I2C.h **** * Invokes the Cy_SCB_I2C_Disable() PDL driver function.
 207:Generated_Source\PSoC6/I2C.h **** *
 208:Generated_Source\PSoC6/I2C.h **** *******************************************************************************/
 209:Generated_Source\PSoC6/I2C.h **** __STATIC_INLINE void I2C_Disable(void)
 210:Generated_Source\PSoC6/I2C.h **** {
 211:Generated_Source\PSoC6/I2C.h ****     Cy_SCB_I2C_Disable(I2C_HW, &I2C_context);
 212:Generated_Source\PSoC6/I2C.h **** }
 213:Generated_Source\PSoC6/I2C.h **** 
 214:Generated_Source\PSoC6/I2C.h **** 
 215:Generated_Source\PSoC6/I2C.h **** /*******************************************************************************
 216:Generated_Source\PSoC6/I2C.h **** * Function Name: I2C_SetDataRate
 217:Generated_Source\PSoC6/I2C.h **** ****************************************************************************//**
 218:Generated_Source\PSoC6/I2C.h **** *
 219:Generated_Source\PSoC6/I2C.h **** * Invokes the Cy_SCB_I2C_SetDataRate() PDL driver function.
 220:Generated_Source\PSoC6/I2C.h **** *
ARM GAS  C:\Users\gab_1\AppData\Local\Temp\ccTtYdci.s 			page 15


 221:Generated_Source\PSoC6/I2C.h **** *******************************************************************************/
 222:Generated_Source\PSoC6/I2C.h **** __STATIC_INLINE uint32_t I2C_SetDataRate(uint32_t dataRateHz, uint32_t scbClockHz)
 223:Generated_Source\PSoC6/I2C.h **** {
 224:Generated_Source\PSoC6/I2C.h ****     return Cy_SCB_I2C_SetDataRate(I2C_HW, dataRateHz, scbClockHz);
 225:Generated_Source\PSoC6/I2C.h **** }
 226:Generated_Source\PSoC6/I2C.h **** 
 227:Generated_Source\PSoC6/I2C.h **** 
 228:Generated_Source\PSoC6/I2C.h **** /*******************************************************************************
 229:Generated_Source\PSoC6/I2C.h **** * Function Name: I2C_GetDataRate
 230:Generated_Source\PSoC6/I2C.h **** ****************************************************************************//**
 231:Generated_Source\PSoC6/I2C.h **** *
 232:Generated_Source\PSoC6/I2C.h **** * Invokes the Cy_SCB_I2C_GetDataRate() PDL driver function.
 233:Generated_Source\PSoC6/I2C.h **** *
 234:Generated_Source\PSoC6/I2C.h **** *******************************************************************************/
 235:Generated_Source\PSoC6/I2C.h **** __STATIC_INLINE uint32_t I2C_GetDataRate(uint32_t scbClockHz)
 236:Generated_Source\PSoC6/I2C.h **** {
 237:Generated_Source\PSoC6/I2C.h ****     return Cy_SCB_I2C_GetDataRate(I2C_HW, scbClockHz);
 238:Generated_Source\PSoC6/I2C.h **** }
 239:Generated_Source\PSoC6/I2C.h **** 
 240:Generated_Source\PSoC6/I2C.h **** 
 241:Generated_Source\PSoC6/I2C.h **** /*******************************************************************************
 242:Generated_Source\PSoC6/I2C.h **** * Function Name: I2C_RegisterEventCallback
 243:Generated_Source\PSoC6/I2C.h **** ****************************************************************************//**
 244:Generated_Source\PSoC6/I2C.h **** *
 245:Generated_Source\PSoC6/I2C.h **** * Invokes the Cy_SCB_I2C_RegisterEventCallback() PDL driver function.
 246:Generated_Source\PSoC6/I2C.h **** *
 247:Generated_Source\PSoC6/I2C.h **** *******************************************************************************/
 248:Generated_Source\PSoC6/I2C.h **** __STATIC_INLINE void I2C_RegisterEventCallback(cy_cb_scb_i2c_handle_events_t callback)
 249:Generated_Source\PSoC6/I2C.h **** {
 250:Generated_Source\PSoC6/I2C.h ****     Cy_SCB_I2C_RegisterEventCallback(I2C_HW, callback, &I2C_context);
 251:Generated_Source\PSoC6/I2C.h **** }
 252:Generated_Source\PSoC6/I2C.h **** 
 253:Generated_Source\PSoC6/I2C.h **** 
 254:Generated_Source\PSoC6/I2C.h **** #if (I2C_ENABLE_SLAVE)
 255:Generated_Source\PSoC6/I2C.h **** /*******************************************************************************
 256:Generated_Source\PSoC6/I2C.h **** * Function Name: I2C_RegisterAddrCallback
 257:Generated_Source\PSoC6/I2C.h **** ****************************************************************************//**
 258:Generated_Source\PSoC6/I2C.h **** *
 259:Generated_Source\PSoC6/I2C.h **** * Invokes the Cy_SCB_I2C_RegisterAddrCallback() PDL driver function.
 260:Generated_Source\PSoC6/I2C.h **** *
 261:Generated_Source\PSoC6/I2C.h **** *******************************************************************************/
 262:Generated_Source\PSoC6/I2C.h **** __STATIC_INLINE void I2C_RegisterAddrCallback(cy_cb_scb_i2c_handle_addr_t callback)
 263:Generated_Source\PSoC6/I2C.h **** {
 264:Generated_Source\PSoC6/I2C.h ****     Cy_SCB_I2C_RegisterAddrCallback(I2C_HW, callback, &I2C_context);
 265:Generated_Source\PSoC6/I2C.h **** }
 266:Generated_Source\PSoC6/I2C.h **** #endif /* (I2C_ENABLE_SLAVE) */
 267:Generated_Source\PSoC6/I2C.h **** 
 268:Generated_Source\PSoC6/I2C.h **** 
 269:Generated_Source\PSoC6/I2C.h **** /*******************************************************************************
 270:Generated_Source\PSoC6/I2C.h **** * Function Name: I2C_IsBusBusy
 271:Generated_Source\PSoC6/I2C.h **** ****************************************************************************//**
 272:Generated_Source\PSoC6/I2C.h **** *
 273:Generated_Source\PSoC6/I2C.h **** * Invokes the Cy_SCB_I2C_IsBusBusy() PDL driver function.
 274:Generated_Source\PSoC6/I2C.h **** *
 275:Generated_Source\PSoC6/I2C.h **** *******************************************************************************/
 276:Generated_Source\PSoC6/I2C.h **** __STATIC_INLINE bool I2C_IsBusBusy(void)
 277:Generated_Source\PSoC6/I2C.h **** {
ARM GAS  C:\Users\gab_1\AppData\Local\Temp\ccTtYdci.s 			page 16


 278:Generated_Source\PSoC6/I2C.h ****     return Cy_SCB_I2C_IsBusBusy(I2C_HW);
 279:Generated_Source\PSoC6/I2C.h **** }
 280:Generated_Source\PSoC6/I2C.h **** 
 281:Generated_Source\PSoC6/I2C.h **** 
 282:Generated_Source\PSoC6/I2C.h **** #if (I2C_ENABLE_SLAVE)
 283:Generated_Source\PSoC6/I2C.h **** /*******************************************************************************
 284:Generated_Source\PSoC6/I2C.h **** * Function Name: I2C_SlaveSetAddress
 285:Generated_Source\PSoC6/I2C.h **** ****************************************************************************//**
 286:Generated_Source\PSoC6/I2C.h **** *
 287:Generated_Source\PSoC6/I2C.h **** * Invokes the Cy_SCB_I2C_SlaveGetAddress() PDL driver function.
 288:Generated_Source\PSoC6/I2C.h **** *
 289:Generated_Source\PSoC6/I2C.h **** *******************************************************************************/
 290:Generated_Source\PSoC6/I2C.h **** __STATIC_INLINE void I2C_SlaveSetAddress(uint8_t addr)
 291:Generated_Source\PSoC6/I2C.h **** {
 292:Generated_Source\PSoC6/I2C.h ****     Cy_SCB_I2C_SlaveSetAddress(I2C_HW, addr);
 293:Generated_Source\PSoC6/I2C.h **** }
 294:Generated_Source\PSoC6/I2C.h **** 
 295:Generated_Source\PSoC6/I2C.h **** 
 296:Generated_Source\PSoC6/I2C.h **** /*******************************************************************************
 297:Generated_Source\PSoC6/I2C.h **** * Function Name: I2C_SlaveGetAddress
 298:Generated_Source\PSoC6/I2C.h **** ****************************************************************************//**
 299:Generated_Source\PSoC6/I2C.h **** *
 300:Generated_Source\PSoC6/I2C.h **** * Invokes the Cy_SCB_I2C_SlaveGetAddress() PDL driver function.
 301:Generated_Source\PSoC6/I2C.h **** *
 302:Generated_Source\PSoC6/I2C.h **** *******************************************************************************/
 303:Generated_Source\PSoC6/I2C.h **** __STATIC_INLINE uint32_t I2C_SlaveGetAddress(void)
 304:Generated_Source\PSoC6/I2C.h **** {
 305:Generated_Source\PSoC6/I2C.h ****     return Cy_SCB_I2C_SlaveGetAddress(I2C_HW);
 306:Generated_Source\PSoC6/I2C.h **** }
 307:Generated_Source\PSoC6/I2C.h **** 
 308:Generated_Source\PSoC6/I2C.h **** 
 309:Generated_Source\PSoC6/I2C.h **** /*******************************************************************************
 310:Generated_Source\PSoC6/I2C.h **** * Function Name: I2C_SlaveSetAddressMask
 311:Generated_Source\PSoC6/I2C.h **** ****************************************************************************//**
 312:Generated_Source\PSoC6/I2C.h **** *
 313:Generated_Source\PSoC6/I2C.h **** * Invokes the Cy_SCB_I2C_SlaveSetAddressMask() PDL driver function.
 314:Generated_Source\PSoC6/I2C.h **** *
 315:Generated_Source\PSoC6/I2C.h **** *******************************************************************************/
 316:Generated_Source\PSoC6/I2C.h **** __STATIC_INLINE void I2C_SlaveSetAddressMask(uint8_t addrMask)
 317:Generated_Source\PSoC6/I2C.h **** {
 318:Generated_Source\PSoC6/I2C.h ****     Cy_SCB_I2C_SlaveSetAddressMask(I2C_HW, addrMask);
 319:Generated_Source\PSoC6/I2C.h **** }
 320:Generated_Source\PSoC6/I2C.h **** 
 321:Generated_Source\PSoC6/I2C.h **** 
 322:Generated_Source\PSoC6/I2C.h **** /*******************************************************************************
 323:Generated_Source\PSoC6/I2C.h **** * Function Name: I2C_SlaveGetAddressMask
 324:Generated_Source\PSoC6/I2C.h **** ****************************************************************************//**
 325:Generated_Source\PSoC6/I2C.h **** *
 326:Generated_Source\PSoC6/I2C.h **** * Invokes the Cy_SCB_I2C_SlaveGetAddressMask() PDL driver function.
 327:Generated_Source\PSoC6/I2C.h **** *
 328:Generated_Source\PSoC6/I2C.h **** *******************************************************************************/
 329:Generated_Source\PSoC6/I2C.h **** __STATIC_INLINE uint32_t I2C_SlaveGetAddressMask(void)
 330:Generated_Source\PSoC6/I2C.h **** {
 331:Generated_Source\PSoC6/I2C.h ****     return Cy_SCB_I2C_SlaveGetAddressMask(I2C_HW);
 332:Generated_Source\PSoC6/I2C.h **** }
 333:Generated_Source\PSoC6/I2C.h **** #endif /* (I2C_ENABLE_SLAVE) */
 334:Generated_Source\PSoC6/I2C.h **** 
ARM GAS  C:\Users\gab_1\AppData\Local\Temp\ccTtYdci.s 			page 17


 335:Generated_Source\PSoC6/I2C.h **** #if (I2C_ENABLE_MASTER)
 336:Generated_Source\PSoC6/I2C.h **** /*******************************************************************************
 337:Generated_Source\PSoC6/I2C.h **** * Function Name: I2C_MasterSetLowPhaseDutyCycle
 338:Generated_Source\PSoC6/I2C.h **** ****************************************************************************//**
 339:Generated_Source\PSoC6/I2C.h **** *
 340:Generated_Source\PSoC6/I2C.h **** * Invokes the Cy_SCB_I2C_MasterSetLowPhaseDutyCycle() PDL driver function.
 341:Generated_Source\PSoC6/I2C.h **** *
 342:Generated_Source\PSoC6/I2C.h **** *******************************************************************************/
 343:Generated_Source\PSoC6/I2C.h **** __STATIC_INLINE void I2C_MasterSetLowPhaseDutyCycle(uint32_t clockCycles)
 344:Generated_Source\PSoC6/I2C.h **** {
 345:Generated_Source\PSoC6/I2C.h ****     Cy_SCB_I2C_MasterSetLowPhaseDutyCycle(I2C_HW, clockCycles);
 346:Generated_Source\PSoC6/I2C.h **** }
 347:Generated_Source\PSoC6/I2C.h **** 
 348:Generated_Source\PSoC6/I2C.h **** 
 349:Generated_Source\PSoC6/I2C.h **** /*******************************************************************************
 350:Generated_Source\PSoC6/I2C.h **** * Function Name: I2C_MasterSetHighPhaseDutyCycle
 351:Generated_Source\PSoC6/I2C.h **** ****************************************************************************//**
 352:Generated_Source\PSoC6/I2C.h **** *
 353:Generated_Source\PSoC6/I2C.h **** * Invokes the Cy_SCB_I2C_MasterSetHighPhaseDutyCycle() PDL driver function.
 354:Generated_Source\PSoC6/I2C.h **** *
 355:Generated_Source\PSoC6/I2C.h **** *******************************************************************************/
 356:Generated_Source\PSoC6/I2C.h **** __STATIC_INLINE void I2C_MasterSetHighPhaseDutyCycle(uint32_t clockCycles)
 357:Generated_Source\PSoC6/I2C.h **** {
 358:Generated_Source\PSoC6/I2C.h ****     Cy_SCB_I2C_MasterSetHighPhaseDutyCycle(I2C_HW, clockCycles);
 359:Generated_Source\PSoC6/I2C.h **** }
 360:Generated_Source\PSoC6/I2C.h **** #endif /* (I2C_ENABLE_MASTER) */
 361:Generated_Source\PSoC6/I2C.h **** 
 362:Generated_Source\PSoC6/I2C.h **** 
 363:Generated_Source\PSoC6/I2C.h **** #if (I2C_ENABLE_SLAVE)
 364:Generated_Source\PSoC6/I2C.h **** /*******************************************************************************
 365:Generated_Source\PSoC6/I2C.h **** * Function Name: I2C_SlaveGetStatus
 366:Generated_Source\PSoC6/I2C.h **** ****************************************************************************//**
 367:Generated_Source\PSoC6/I2C.h **** *
 368:Generated_Source\PSoC6/I2C.h **** * Invokes the Cy_SCB_I2C_SlaveGetStatus() PDL driver function.
 369:Generated_Source\PSoC6/I2C.h **** *
 370:Generated_Source\PSoC6/I2C.h **** *******************************************************************************/
 371:Generated_Source\PSoC6/I2C.h **** __STATIC_INLINE uint32_t I2C_SlaveGetStatus(void)
 372:Generated_Source\PSoC6/I2C.h **** {
 373:Generated_Source\PSoC6/I2C.h ****     return Cy_SCB_I2C_SlaveGetStatus(I2C_HW, &I2C_context);
 374:Generated_Source\PSoC6/I2C.h **** }
 375:Generated_Source\PSoC6/I2C.h **** 
 376:Generated_Source\PSoC6/I2C.h **** 
 377:Generated_Source\PSoC6/I2C.h **** /*******************************************************************************
 378:Generated_Source\PSoC6/I2C.h **** * Function Name: I2C_SlaveConfigReadBuf
 379:Generated_Source\PSoC6/I2C.h **** ****************************************************************************//**
 380:Generated_Source\PSoC6/I2C.h **** *
 381:Generated_Source\PSoC6/I2C.h **** * Invokes the Cy_SCB_I2C_SlaveConfigReadBuf() PDL driver function.
 382:Generated_Source\PSoC6/I2C.h **** *
 383:Generated_Source\PSoC6/I2C.h **** *******************************************************************************/
 384:Generated_Source\PSoC6/I2C.h **** __STATIC_INLINE void I2C_SlaveConfigReadBuf(uint8_t *buffer, uint32_t size)
 385:Generated_Source\PSoC6/I2C.h **** {
 386:Generated_Source\PSoC6/I2C.h ****     Cy_SCB_I2C_SlaveConfigReadBuf(I2C_HW, buffer, size, &I2C_context);
 387:Generated_Source\PSoC6/I2C.h **** }
 388:Generated_Source\PSoC6/I2C.h **** 
 389:Generated_Source\PSoC6/I2C.h **** 
 390:Generated_Source\PSoC6/I2C.h **** /*******************************************************************************
 391:Generated_Source\PSoC6/I2C.h **** * Function Name: I2C_SlaveAbortRead
ARM GAS  C:\Users\gab_1\AppData\Local\Temp\ccTtYdci.s 			page 18


 392:Generated_Source\PSoC6/I2C.h **** ****************************************************************************//**
 393:Generated_Source\PSoC6/I2C.h **** *
 394:Generated_Source\PSoC6/I2C.h **** * Invokes the Cy_SCB_I2C_SlaveAbortRead() PDL driver function.
 395:Generated_Source\PSoC6/I2C.h **** *
 396:Generated_Source\PSoC6/I2C.h **** *******************************************************************************/
 397:Generated_Source\PSoC6/I2C.h **** __STATIC_INLINE void I2C_SlaveAbortRead(void)
 398:Generated_Source\PSoC6/I2C.h **** {
 399:Generated_Source\PSoC6/I2C.h ****     Cy_SCB_I2C_SlaveAbortRead(I2C_HW, &I2C_context);
 400:Generated_Source\PSoC6/I2C.h **** }
 401:Generated_Source\PSoC6/I2C.h **** 
 402:Generated_Source\PSoC6/I2C.h **** 
 403:Generated_Source\PSoC6/I2C.h **** /*******************************************************************************
 404:Generated_Source\PSoC6/I2C.h **** * Function Name: I2C_SlaveGetReadTransferCount
 405:Generated_Source\PSoC6/I2C.h **** ****************************************************************************//**
 406:Generated_Source\PSoC6/I2C.h **** *
 407:Generated_Source\PSoC6/I2C.h **** * Invokes the Cy_SCB_I2C_SlaveGetReadTransferCount() PDL driver function.
 408:Generated_Source\PSoC6/I2C.h **** *
 409:Generated_Source\PSoC6/I2C.h **** *******************************************************************************/
 410:Generated_Source\PSoC6/I2C.h **** __STATIC_INLINE uint32_t I2C_SlaveGetReadTransferCount(void)
 411:Generated_Source\PSoC6/I2C.h **** {
 412:Generated_Source\PSoC6/I2C.h ****     return Cy_SCB_I2C_SlaveGetReadTransferCount(I2C_HW, &I2C_context);
 413:Generated_Source\PSoC6/I2C.h **** }
 414:Generated_Source\PSoC6/I2C.h **** 
 415:Generated_Source\PSoC6/I2C.h **** 
 416:Generated_Source\PSoC6/I2C.h **** /*******************************************************************************
 417:Generated_Source\PSoC6/I2C.h **** * Function Name: I2C_SlaveClearReadStatus
 418:Generated_Source\PSoC6/I2C.h **** ****************************************************************************//**
 419:Generated_Source\PSoC6/I2C.h **** *
 420:Generated_Source\PSoC6/I2C.h **** * Invokes the Cy_SCB_I2C_SlaveClearReadStatus() PDL driver function.
 421:Generated_Source\PSoC6/I2C.h **** *
 422:Generated_Source\PSoC6/I2C.h **** *******************************************************************************/
 423:Generated_Source\PSoC6/I2C.h **** __STATIC_INLINE uint32_t I2C_SlaveClearReadStatus(void)
 424:Generated_Source\PSoC6/I2C.h **** {
 425:Generated_Source\PSoC6/I2C.h ****     return Cy_SCB_I2C_SlaveClearReadStatus(I2C_HW, &I2C_context);
 426:Generated_Source\PSoC6/I2C.h **** }
 427:Generated_Source\PSoC6/I2C.h **** 
 428:Generated_Source\PSoC6/I2C.h **** 
 429:Generated_Source\PSoC6/I2C.h **** /*******************************************************************************
 430:Generated_Source\PSoC6/I2C.h **** * Function Name: I2C_SlaveConfigWriteBuf
 431:Generated_Source\PSoC6/I2C.h **** ****************************************************************************//**
 432:Generated_Source\PSoC6/I2C.h **** *
 433:Generated_Source\PSoC6/I2C.h **** * Invokes the Cy_SCB_I2C_SlaveConfigWriteBuf() PDL driver function.
 434:Generated_Source\PSoC6/I2C.h **** *
 435:Generated_Source\PSoC6/I2C.h **** *******************************************************************************/
 436:Generated_Source\PSoC6/I2C.h **** __STATIC_INLINE void I2C_SlaveConfigWriteBuf(uint8_t *buffer, uint32_t size)
 437:Generated_Source\PSoC6/I2C.h **** {
 438:Generated_Source\PSoC6/I2C.h ****     Cy_SCB_I2C_SlaveConfigWriteBuf(I2C_HW, buffer, size, &I2C_context);
 439:Generated_Source\PSoC6/I2C.h **** }
 440:Generated_Source\PSoC6/I2C.h **** 
 441:Generated_Source\PSoC6/I2C.h **** 
 442:Generated_Source\PSoC6/I2C.h **** /*******************************************************************************
 443:Generated_Source\PSoC6/I2C.h **** * Function Name: I2C_SlaveAbortWrite
 444:Generated_Source\PSoC6/I2C.h **** ****************************************************************************//**
 445:Generated_Source\PSoC6/I2C.h **** *
 446:Generated_Source\PSoC6/I2C.h **** * Invokes the Cy_SCB_I2C_SlaveAbortWrite() PDL driver function.
 447:Generated_Source\PSoC6/I2C.h **** *
 448:Generated_Source\PSoC6/I2C.h **** *******************************************************************************/
ARM GAS  C:\Users\gab_1\AppData\Local\Temp\ccTtYdci.s 			page 19


 449:Generated_Source\PSoC6/I2C.h **** __STATIC_INLINE void I2C_SlaveAbortWrite(void)
 450:Generated_Source\PSoC6/I2C.h **** {
 451:Generated_Source\PSoC6/I2C.h ****     Cy_SCB_I2C_SlaveAbortWrite(I2C_HW, &I2C_context);
 452:Generated_Source\PSoC6/I2C.h **** }
 453:Generated_Source\PSoC6/I2C.h **** 
 454:Generated_Source\PSoC6/I2C.h **** 
 455:Generated_Source\PSoC6/I2C.h **** /*******************************************************************************
 456:Generated_Source\PSoC6/I2C.h **** * Function Name: I2C_SlaveGetWriteTransferCount
 457:Generated_Source\PSoC6/I2C.h **** ****************************************************************************//**
 458:Generated_Source\PSoC6/I2C.h **** *
 459:Generated_Source\PSoC6/I2C.h **** * Invokes the Cy_SCB_I2C_SlaveGetWriteTransferCount() PDL driver function.
 460:Generated_Source\PSoC6/I2C.h **** *
 461:Generated_Source\PSoC6/I2C.h **** *******************************************************************************/
 462:Generated_Source\PSoC6/I2C.h **** __STATIC_INLINE uint32_t I2C_SlaveGetWriteTransferCount(void)
 463:Generated_Source\PSoC6/I2C.h **** {
 464:Generated_Source\PSoC6/I2C.h ****     return Cy_SCB_I2C_SlaveGetWriteTransferCount(I2C_HW, &I2C_context);
 465:Generated_Source\PSoC6/I2C.h **** }
 466:Generated_Source\PSoC6/I2C.h **** 
 467:Generated_Source\PSoC6/I2C.h **** 
 468:Generated_Source\PSoC6/I2C.h **** /*******************************************************************************
 469:Generated_Source\PSoC6/I2C.h **** * Function Name: I2C_SlaveClearWriteStatus
 470:Generated_Source\PSoC6/I2C.h **** ****************************************************************************//**
 471:Generated_Source\PSoC6/I2C.h **** *
 472:Generated_Source\PSoC6/I2C.h **** * Invokes the Cy_SCB_I2C_SlaveClearWriteStatus() PDL driver function.
 473:Generated_Source\PSoC6/I2C.h **** *
 474:Generated_Source\PSoC6/I2C.h **** *******************************************************************************/
 475:Generated_Source\PSoC6/I2C.h **** __STATIC_INLINE uint32_t I2C_SlaveClearWriteStatus(void)
 476:Generated_Source\PSoC6/I2C.h **** {
 477:Generated_Source\PSoC6/I2C.h ****     return Cy_SCB_I2C_SlaveClearWriteStatus(I2C_HW, &I2C_context);
 478:Generated_Source\PSoC6/I2C.h **** }
 479:Generated_Source\PSoC6/I2C.h **** #endif /* (I2C_ENABLE_SLAVE) */
 480:Generated_Source\PSoC6/I2C.h **** 
 481:Generated_Source\PSoC6/I2C.h **** 
 482:Generated_Source\PSoC6/I2C.h **** #if (I2C_ENABLE_MASTER)
 483:Generated_Source\PSoC6/I2C.h **** /*******************************************************************************
 484:Generated_Source\PSoC6/I2C.h **** * Function Name: I2C_MasterGetStatus
 485:Generated_Source\PSoC6/I2C.h **** ****************************************************************************//**
 486:Generated_Source\PSoC6/I2C.h **** *
 487:Generated_Source\PSoC6/I2C.h **** * Invokes the Cy_SCB_I2C_MasterGetStatus() PDL driver function.
 488:Generated_Source\PSoC6/I2C.h **** *
 489:Generated_Source\PSoC6/I2C.h **** *******************************************************************************/
 490:Generated_Source\PSoC6/I2C.h **** __STATIC_INLINE uint32_t I2C_MasterGetStatus(void)
 491:Generated_Source\PSoC6/I2C.h **** {
 492:Generated_Source\PSoC6/I2C.h ****     return Cy_SCB_I2C_MasterGetStatus(I2C_HW, &I2C_context);
 493:Generated_Source\PSoC6/I2C.h **** }
 494:Generated_Source\PSoC6/I2C.h **** 
 495:Generated_Source\PSoC6/I2C.h **** 
 496:Generated_Source\PSoC6/I2C.h **** /*******************************************************************************
 497:Generated_Source\PSoC6/I2C.h **** * Function Name: I2C_MasterRead
 498:Generated_Source\PSoC6/I2C.h **** ****************************************************************************//**
 499:Generated_Source\PSoC6/I2C.h **** *
 500:Generated_Source\PSoC6/I2C.h **** * Invokes the Cy_SCB_I2C_MasterRead() PDL driver function.
 501:Generated_Source\PSoC6/I2C.h **** *
 502:Generated_Source\PSoC6/I2C.h **** *******************************************************************************/
 503:Generated_Source\PSoC6/I2C.h **** __STATIC_INLINE cy_en_scb_i2c_status_t I2C_MasterRead(cy_stc_scb_i2c_master_xfer_config_t *xferConf
 504:Generated_Source\PSoC6/I2C.h **** {
 505:Generated_Source\PSoC6/I2C.h ****     return Cy_SCB_I2C_MasterRead(I2C_HW, xferConfig, &I2C_context);
ARM GAS  C:\Users\gab_1\AppData\Local\Temp\ccTtYdci.s 			page 20


 506:Generated_Source\PSoC6/I2C.h **** }
 507:Generated_Source\PSoC6/I2C.h **** 
 508:Generated_Source\PSoC6/I2C.h **** 
 509:Generated_Source\PSoC6/I2C.h **** /*******************************************************************************
 510:Generated_Source\PSoC6/I2C.h **** * Function Name: I2C_MasterAbortRead
 511:Generated_Source\PSoC6/I2C.h **** ****************************************************************************//**
 512:Generated_Source\PSoC6/I2C.h **** *
 513:Generated_Source\PSoC6/I2C.h **** * Invokes the Cy_SCB_I2C_MasterAbortRead() PDL driver function.
 514:Generated_Source\PSoC6/I2C.h **** *
 515:Generated_Source\PSoC6/I2C.h **** ******************************************************************************/
 516:Generated_Source\PSoC6/I2C.h **** __STATIC_INLINE void I2C_MasterAbortRead(void)
 517:Generated_Source\PSoC6/I2C.h **** {
 518:Generated_Source\PSoC6/I2C.h ****     Cy_SCB_I2C_MasterAbortRead(I2C_HW, &I2C_context);
 519:Generated_Source\PSoC6/I2C.h **** }
 520:Generated_Source\PSoC6/I2C.h **** 
 521:Generated_Source\PSoC6/I2C.h **** 
 522:Generated_Source\PSoC6/I2C.h **** /*******************************************************************************
 523:Generated_Source\PSoC6/I2C.h **** * Function Name: I2C_MasterWrite
 524:Generated_Source\PSoC6/I2C.h **** ****************************************************************************//**
 525:Generated_Source\PSoC6/I2C.h **** *
 526:Generated_Source\PSoC6/I2C.h **** * Invokes the Cy_SCB_I2C_MasterWrite() PDL driver function.
 527:Generated_Source\PSoC6/I2C.h **** *
 528:Generated_Source\PSoC6/I2C.h **** *******************************************************************************/
 529:Generated_Source\PSoC6/I2C.h **** __STATIC_INLINE cy_en_scb_i2c_status_t I2C_MasterWrite(cy_stc_scb_i2c_master_xfer_config_t *xferCon
 530:Generated_Source\PSoC6/I2C.h **** {
 531:Generated_Source\PSoC6/I2C.h ****     return Cy_SCB_I2C_MasterWrite(I2C_HW, xferConfig, &I2C_context);
 532:Generated_Source\PSoC6/I2C.h **** }
 533:Generated_Source\PSoC6/I2C.h **** 
 534:Generated_Source\PSoC6/I2C.h **** 
 535:Generated_Source\PSoC6/I2C.h **** /*******************************************************************************
 536:Generated_Source\PSoC6/I2C.h **** * Function Name: I2C_MasterAbortWrite
 537:Generated_Source\PSoC6/I2C.h **** ****************************************************************************//**
 538:Generated_Source\PSoC6/I2C.h **** *
 539:Generated_Source\PSoC6/I2C.h **** * Invokes the Cy_SCB_I2C_MasterAbortWrite() PDL driver function.
 540:Generated_Source\PSoC6/I2C.h **** *
 541:Generated_Source\PSoC6/I2C.h **** *******************************************************************************/
 542:Generated_Source\PSoC6/I2C.h **** __STATIC_INLINE void I2C_MasterAbortWrite(void)
 543:Generated_Source\PSoC6/I2C.h **** {
 544:Generated_Source\PSoC6/I2C.h ****     Cy_SCB_I2C_MasterAbortWrite(I2C_HW, &I2C_context);
 545:Generated_Source\PSoC6/I2C.h **** }
 546:Generated_Source\PSoC6/I2C.h **** 
 547:Generated_Source\PSoC6/I2C.h **** 
 548:Generated_Source\PSoC6/I2C.h **** /*******************************************************************************
 549:Generated_Source\PSoC6/I2C.h **** * Function Name: I2C_MasterGetTransferCount
 550:Generated_Source\PSoC6/I2C.h **** ****************************************************************************//**
 551:Generated_Source\PSoC6/I2C.h **** *
 552:Generated_Source\PSoC6/I2C.h **** * Invokes the Cy_SCB_I2C_MasterGetTransferCount() PDL driver function.
 553:Generated_Source\PSoC6/I2C.h **** *
 554:Generated_Source\PSoC6/I2C.h **** *******************************************************************************/
 555:Generated_Source\PSoC6/I2C.h **** __STATIC_INLINE uint32_t I2C_MasterGetTransferCount(void)
 556:Generated_Source\PSoC6/I2C.h **** {
 557:Generated_Source\PSoC6/I2C.h ****     return Cy_SCB_I2C_MasterGetTransferCount(I2C_HW, &I2C_context);
 558:Generated_Source\PSoC6/I2C.h **** }
 559:Generated_Source\PSoC6/I2C.h **** 
 560:Generated_Source\PSoC6/I2C.h **** 
 561:Generated_Source\PSoC6/I2C.h **** /*******************************************************************************
 562:Generated_Source\PSoC6/I2C.h **** * Function Name: I2C_MasterSendStart
ARM GAS  C:\Users\gab_1\AppData\Local\Temp\ccTtYdci.s 			page 21


 563:Generated_Source\PSoC6/I2C.h **** ****************************************************************************//**
 564:Generated_Source\PSoC6/I2C.h **** *
 565:Generated_Source\PSoC6/I2C.h **** * Invokes the Cy_SCB_I2C_MasterSendStart() PDL driver function.
 566:Generated_Source\PSoC6/I2C.h **** *
 567:Generated_Source\PSoC6/I2C.h **** *******************************************************************************/
 568:Generated_Source\PSoC6/I2C.h **** __STATIC_INLINE cy_en_scb_i2c_status_t I2C_MasterSendStart(uint32_t address, cy_en_scb_i2c_directio
 569:Generated_Source\PSoC6/I2C.h **** {
 570:Generated_Source\PSoC6/I2C.h ****     return Cy_SCB_I2C_MasterSendStart(I2C_HW, address, bitRnW, timeoutMs, &I2C_context);
 345              		.loc 3 570 0
 346 0006 144C     		ldr	r4, .L21
 347 0008 144D     		ldr	r5, .L21+4
 348 000a 0095     		str	r5, [sp]
 349 000c 6423     		movs	r3, #100
 350 000e 0022     		movs	r2, #0
 351 0010 5721     		movs	r1, #87
 352 0012 2046     		mov	r0, r4
 353              	.LVL38:
 354 0014 FFF7FEFF 		bl	Cy_SCB_I2C_MasterSendStart
 355              	.LVL39:
 356              	.LBE72:
 357              	.LBE71:
 358              	.LBB73:
 359              	.LBB74:
 571:Generated_Source\PSoC6/I2C.h **** }
 572:Generated_Source\PSoC6/I2C.h **** 
 573:Generated_Source\PSoC6/I2C.h **** 
 574:Generated_Source\PSoC6/I2C.h **** /*******************************************************************************
 575:Generated_Source\PSoC6/I2C.h **** * Function Name: I2C_MasterSendReStart
 576:Generated_Source\PSoC6/I2C.h **** ****************************************************************************//**
 577:Generated_Source\PSoC6/I2C.h **** *
 578:Generated_Source\PSoC6/I2C.h **** * Invokes the Cy_SCB_I2C_MasterSendReStart() PDL driver function.
 579:Generated_Source\PSoC6/I2C.h **** *
 580:Generated_Source\PSoC6/I2C.h **** *******************************************************************************/
 581:Generated_Source\PSoC6/I2C.h **** __STATIC_INLINE cy_en_scb_i2c_status_t I2C_MasterSendReStart(uint32_t address, cy_en_scb_i2c_direct
 582:Generated_Source\PSoC6/I2C.h **** {
 583:Generated_Source\PSoC6/I2C.h ****     return Cy_SCB_I2C_MasterSendReStart(I2C_HW, address, bitRnW, timeoutMs, &I2C_context);
 584:Generated_Source\PSoC6/I2C.h **** }
 585:Generated_Source\PSoC6/I2C.h **** 
 586:Generated_Source\PSoC6/I2C.h **** 
 587:Generated_Source\PSoC6/I2C.h **** /*******************************************************************************
 588:Generated_Source\PSoC6/I2C.h **** * Function Name: I2C_MasterSendStop
 589:Generated_Source\PSoC6/I2C.h **** ****************************************************************************//**
 590:Generated_Source\PSoC6/I2C.h **** *
 591:Generated_Source\PSoC6/I2C.h **** * Invokes the Cy_SCB_I2C_MasterSendStop() PDL driver function.
 592:Generated_Source\PSoC6/I2C.h **** *
 593:Generated_Source\PSoC6/I2C.h **** *******************************************************************************/
 594:Generated_Source\PSoC6/I2C.h **** __STATIC_INLINE cy_en_scb_i2c_status_t I2C_MasterSendStop(uint32_t timeoutMs)
 595:Generated_Source\PSoC6/I2C.h **** {
 596:Generated_Source\PSoC6/I2C.h ****     return Cy_SCB_I2C_MasterSendStop(I2C_HW, timeoutMs, &I2C_context);
 597:Generated_Source\PSoC6/I2C.h **** }
 598:Generated_Source\PSoC6/I2C.h **** 
 599:Generated_Source\PSoC6/I2C.h **** 
 600:Generated_Source\PSoC6/I2C.h **** /*******************************************************************************
 601:Generated_Source\PSoC6/I2C.h **** * Function Name: I2C_MasterReadByte
 602:Generated_Source\PSoC6/I2C.h **** ****************************************************************************//**
 603:Generated_Source\PSoC6/I2C.h **** *
 604:Generated_Source\PSoC6/I2C.h **** * Invokes the Cy_SCB_I2C_MasterReadByte() PDL driver function.
ARM GAS  C:\Users\gab_1\AppData\Local\Temp\ccTtYdci.s 			page 22


 605:Generated_Source\PSoC6/I2C.h **** *
 606:Generated_Source\PSoC6/I2C.h **** *******************************************************************************/
 607:Generated_Source\PSoC6/I2C.h **** __STATIC_INLINE cy_en_scb_i2c_status_t I2C_MasterReadByte(cy_en_scb_i2c_command_t ackNack, uint8_t 
 608:Generated_Source\PSoC6/I2C.h **** {
 609:Generated_Source\PSoC6/I2C.h ****     return Cy_SCB_I2C_MasterReadByte(I2C_HW, ackNack, byte, timeoutMs, &I2C_context);
 610:Generated_Source\PSoC6/I2C.h **** }
 611:Generated_Source\PSoC6/I2C.h **** 
 612:Generated_Source\PSoC6/I2C.h **** 
 613:Generated_Source\PSoC6/I2C.h **** /*******************************************************************************
 614:Generated_Source\PSoC6/I2C.h **** * Function Name: I2C_MasterWriteByte
 615:Generated_Source\PSoC6/I2C.h **** ****************************************************************************//**
 616:Generated_Source\PSoC6/I2C.h **** *
 617:Generated_Source\PSoC6/I2C.h **** * Invokes the Cy_SCB_I2C_MasterWriteByte() PDL driver function.
 618:Generated_Source\PSoC6/I2C.h **** *
 619:Generated_Source\PSoC6/I2C.h **** *******************************************************************************/
 620:Generated_Source\PSoC6/I2C.h **** __STATIC_INLINE cy_en_scb_i2c_status_t I2C_MasterWriteByte(uint8_t byte, uint32_t timeoutMs)
 621:Generated_Source\PSoC6/I2C.h **** {
 622:Generated_Source\PSoC6/I2C.h ****     return Cy_SCB_I2C_MasterWriteByte(I2C_HW, byte, timeoutMs, &I2C_context);
 360              		.loc 3 622 0
 361 0018 2B46     		mov	r3, r5
 362 001a 6422     		movs	r2, #100
 363 001c 3146     		mov	r1, r6
 364 001e 2046     		mov	r0, r4
 365 0020 FFF7FEFF 		bl	Cy_SCB_I2C_MasterWriteByte
 366              	.LVL40:
 367              	.LBE74:
 368              	.LBE73:
 369              	.LBB75:
 370              	.LBB76:
 583:Generated_Source\PSoC6/I2C.h **** }
 371              		.loc 3 583 0
 372 0024 0095     		str	r5, [sp]
 373 0026 6423     		movs	r3, #100
 374 0028 0122     		movs	r2, #1
 375 002a 5721     		movs	r1, #87
 376 002c 2046     		mov	r0, r4
 377 002e FFF7FEFF 		bl	Cy_SCB_I2C_MasterSendReStart
 378              	.LVL41:
 379              	.LBE76:
 380              	.LBE75:
 109:main_cm4.c    ****     I2C_MasterSendStart( SLAVEADRESS,CY_SCB_I2C_WRITE_XFER,100);
 110:main_cm4.c    ****     I2C_MasterWriteByte(address,100);  
 111:main_cm4.c    ****     I2C_MasterSendReStart(SLAVEADRESS,CY_SCB_I2C_READ_XFER,100);
 112:main_cm4.c    ****     uint8_t regValue=0;
 381              		.loc 2 112 0
 382 0032 0021     		movs	r1, #0
 383 0034 04AA     		add	r2, sp, #16
 384 0036 02F8011D 		strb	r1, [r2, #-1]!
 385              	.LVL42:
 386              	.LBB77:
 387              	.LBB78:
 609:Generated_Source\PSoC6/I2C.h **** }
 388              		.loc 3 609 0
 389 003a 0095     		str	r5, [sp]
 390 003c 6423     		movs	r3, #100
 391 003e 2046     		mov	r0, r4
 392 0040 FFF7FEFF 		bl	Cy_SCB_I2C_MasterReadByte
ARM GAS  C:\Users\gab_1\AppData\Local\Temp\ccTtYdci.s 			page 23


 393              	.LVL43:
 394              	.LBE78:
 395              	.LBE77:
 396              	.LBB79:
 397              	.LBB80:
 596:Generated_Source\PSoC6/I2C.h **** }
 398              		.loc 3 596 0
 399 0044 2A46     		mov	r2, r5
 400 0046 6421     		movs	r1, #100
 401 0048 2046     		mov	r0, r4
 402 004a FFF7FEFF 		bl	Cy_SCB_I2C_MasterSendStop
 403              	.LVL44:
 404              	.LBE80:
 405              	.LBE79:
 113:main_cm4.c    ****     I2C_MasterReadByte(CY_SCB_I2C_MASTER_DATA_NAK,(uint8_t*)&regValue,100);
 114:main_cm4.c    ****     I2C_MasterSendStop(100);  
 115:main_cm4.c    ****     return regValue;
 116:main_cm4.c    **** }
 406              		.loc 2 116 0
 407 004e 9DF80F00 		ldrb	r0, [sp, #15]	@ zero_extendqisi2
 408 0052 04B0     		add	sp, sp, #16
 409              		.cfi_def_cfa_offset 16
 410              		@ sp needed
 411 0054 70BD     		pop	{r4, r5, r6, pc}
 412              	.L22:
 413 0056 00BF     		.align	2
 414              	.L21:
 415 0058 00006340 		.word	1080229888
 416 005c 00000000 		.word	I2C_context
 417              		.cfi_endproc
 418              	.LFE697:
 419              		.size	read_MAX30102_Register, .-read_MAX30102_Register
 420              		.section	.text.write_MAX30102_Register,"ax",%progbits
 421              		.align	2
 422              		.global	write_MAX30102_Register
 423              		.thumb
 424              		.thumb_func
 425              		.type	write_MAX30102_Register, %function
 426              	write_MAX30102_Register:
 427              	.LFB698:
 117:main_cm4.c    **** 
 118:main_cm4.c    **** void write_MAX30102_Register(uint8_t address, uint8_t data)
 119:main_cm4.c    **** { 
 428              		.loc 2 119 0
 429              		.cfi_startproc
 430              		@ args = 0, pretend = 0, frame = 0
 431              		@ frame_needed = 0, uses_anonymous_args = 0
 432              	.LVL45:
 433 0000 F0B5     		push	{r4, r5, r6, r7, lr}
 434              		.cfi_def_cfa_offset 20
 435              		.cfi_offset 4, -20
 436              		.cfi_offset 5, -16
 437              		.cfi_offset 6, -12
 438              		.cfi_offset 7, -8
 439              		.cfi_offset 14, -4
 440 0002 83B0     		sub	sp, sp, #12
 441              		.cfi_def_cfa_offset 32
ARM GAS  C:\Users\gab_1\AppData\Local\Temp\ccTtYdci.s 			page 24


 442 0004 0746     		mov	r7, r0
 443 0006 0E46     		mov	r6, r1
 444              	.LVL46:
 445              	.LBB81:
 446              	.LBB82:
 570:Generated_Source\PSoC6/I2C.h **** }
 447              		.loc 3 570 0
 448 0008 0D4C     		ldr	r4, .L25
 449 000a 0E4D     		ldr	r5, .L25+4
 450 000c 0095     		str	r5, [sp]
 451 000e 6423     		movs	r3, #100
 452 0010 0022     		movs	r2, #0
 453 0012 5721     		movs	r1, #87
 454              	.LVL47:
 455 0014 2046     		mov	r0, r4
 456              	.LVL48:
 457 0016 FFF7FEFF 		bl	Cy_SCB_I2C_MasterSendStart
 458              	.LVL49:
 459              	.LBE82:
 460              	.LBE81:
 461              	.LBB83:
 462              	.LBB84:
 463              		.loc 3 622 0
 464 001a 2B46     		mov	r3, r5
 465 001c 6422     		movs	r2, #100
 466 001e 3946     		mov	r1, r7
 467 0020 2046     		mov	r0, r4
 468 0022 FFF7FEFF 		bl	Cy_SCB_I2C_MasterWriteByte
 469              	.LVL50:
 470              	.LBE84:
 471              	.LBE83:
 472              	.LBB85:
 473              	.LBB86:
 474 0026 2B46     		mov	r3, r5
 475 0028 6422     		movs	r2, #100
 476 002a 3146     		mov	r1, r6
 477 002c 2046     		mov	r0, r4
 478 002e FFF7FEFF 		bl	Cy_SCB_I2C_MasterWriteByte
 479              	.LVL51:
 480              	.LBE86:
 481              	.LBE85:
 482              	.LBB87:
 483              	.LBB88:
 596:Generated_Source\PSoC6/I2C.h **** }
 484              		.loc 3 596 0
 485 0032 2A46     		mov	r2, r5
 486 0034 6421     		movs	r1, #100
 487 0036 2046     		mov	r0, r4
 488 0038 FFF7FEFF 		bl	Cy_SCB_I2C_MasterSendStop
 489              	.LVL52:
 490              	.LBE88:
 491              	.LBE87:
 120:main_cm4.c    ****     I2C_MasterSendStart(SLAVEADRESS,CY_SCB_I2C_WRITE_XFER,100);
 121:main_cm4.c    ****     I2C_MasterWriteByte(address,100);        
 122:main_cm4.c    ****     I2C_MasterWriteByte(data,100);         
 123:main_cm4.c    ****     I2C_MasterSendStop(100);   
 124:main_cm4.c    ****     
ARM GAS  C:\Users\gab_1\AppData\Local\Temp\ccTtYdci.s 			page 25


 125:main_cm4.c    **** }
 492              		.loc 2 125 0
 493 003c 03B0     		add	sp, sp, #12
 494              		.cfi_def_cfa_offset 20
 495              		@ sp needed
 496 003e F0BD     		pop	{r4, r5, r6, r7, pc}
 497              	.L26:
 498              		.align	2
 499              	.L25:
 500 0040 00006340 		.word	1080229888
 501 0044 00000000 		.word	I2C_context
 502              		.cfi_endproc
 503              	.LFE698:
 504              		.size	write_MAX30102_Register, .-write_MAX30102_Register
 505              		.section	.text.burstRead_MAX30102,"ax",%progbits
 506              		.align	2
 507              		.global	burstRead_MAX30102
 508              		.thumb
 509              		.thumb_func
 510              		.type	burstRead_MAX30102, %function
 511              	burstRead_MAX30102:
 512              	.LFB699:
 126:main_cm4.c    **** 
 127:main_cm4.c    **** void burstRead_MAX30102(uint8_t baseAddress, uint8_t *buffer, uint8_t length)
 128:main_cm4.c    **** {
 513              		.loc 2 128 0
 514              		.cfi_startproc
 515              		@ args = 0, pretend = 0, frame = 0
 516              		@ frame_needed = 0, uses_anonymous_args = 0
 517              	.LVL53:
 518 0000 2DE9F041 		push	{r4, r5, r6, r7, r8, lr}
 519              		.cfi_def_cfa_offset 24
 520              		.cfi_offset 4, -24
 521              		.cfi_offset 5, -20
 522              		.cfi_offset 6, -16
 523              		.cfi_offset 7, -12
 524              		.cfi_offset 8, -8
 525              		.cfi_offset 14, -4
 526 0004 82B0     		sub	sp, sp, #8
 527              		.cfi_def_cfa_offset 32
 528 0006 8046     		mov	r8, r0
 529 0008 0D46     		mov	r5, r1
 530 000a 1646     		mov	r6, r2
 531              	.LVL54:
 532              	.LBB89:
 533              	.LBB90:
 570:Generated_Source\PSoC6/I2C.h **** }
 534              		.loc 3 570 0
 535 000c 1A4C     		ldr	r4, .L31
 536 000e 1B4F     		ldr	r7, .L31+4
 537 0010 0097     		str	r7, [sp]
 538 0012 6423     		movs	r3, #100
 539 0014 0022     		movs	r2, #0
 540              	.LVL55:
 541 0016 5721     		movs	r1, #87
 542              	.LVL56:
 543 0018 2046     		mov	r0, r4
ARM GAS  C:\Users\gab_1\AppData\Local\Temp\ccTtYdci.s 			page 26


 544              	.LVL57:
 545 001a FFF7FEFF 		bl	Cy_SCB_I2C_MasterSendStart
 546              	.LVL58:
 547              	.LBE90:
 548              	.LBE89:
 549              	.LBB91:
 550              	.LBB92:
 551              		.loc 3 622 0
 552 001e 3B46     		mov	r3, r7
 553 0020 6422     		movs	r2, #100
 554 0022 4146     		mov	r1, r8
 555 0024 2046     		mov	r0, r4
 556 0026 FFF7FEFF 		bl	Cy_SCB_I2C_MasterWriteByte
 557              	.LVL59:
 558              	.LBE92:
 559              	.LBE91:
 560              	.LBB93:
 561              	.LBB94:
 583:Generated_Source\PSoC6/I2C.h **** }
 562              		.loc 3 583 0
 563 002a 0097     		str	r7, [sp]
 564 002c 6423     		movs	r3, #100
 565 002e 0122     		movs	r2, #1
 566 0030 5721     		movs	r1, #87
 567 0032 2046     		mov	r0, r4
 568 0034 FFF7FEFF 		bl	Cy_SCB_I2C_MasterSendReStart
 569              	.LVL60:
 570              	.LBE94:
 571              	.LBE93:
 129:main_cm4.c    ****         I2C_MasterSendStart( SLAVEADRESS,CY_SCB_I2C_WRITE_XFER,100); 
 130:main_cm4.c    ****         I2C_MasterWriteByte(baseAddress,100);       
 131:main_cm4.c    ****         I2C_MasterSendReStart( SLAVEADRESS,CY_SCB_I2C_READ_XFER,100);
 132:main_cm4.c    ****         uint8_t idx = 0;
 133:main_cm4.c    ****         for(idx=0 ; idx < length-1 ; idx++){ 
 572              		.loc 2 133 0
 573 0038 0024     		movs	r4, #0
 574 003a 09E0     		b	.L28
 575              	.LVL61:
 576              	.L29:
 577              	.LBB95:
 578              	.LBB96:
 609:Generated_Source\PSoC6/I2C.h **** }
 579              		.loc 3 609 0 discriminator 3
 580 003c 0F4B     		ldr	r3, .L31+4
 581 003e 0093     		str	r3, [sp]
 582 0040 6423     		movs	r3, #100
 583 0042 2A19     		adds	r2, r5, r4
 584              	.LVL62:
 585 0044 0021     		movs	r1, #0
 586 0046 0C48     		ldr	r0, .L31
 587 0048 FFF7FEFF 		bl	Cy_SCB_I2C_MasterReadByte
 588              	.LVL63:
 589              	.LBE96:
 590              	.LBE95:
 591              		.loc 2 133 0 discriminator 3
 592 004c 0134     		adds	r4, r4, #1
 593              	.LVL64:
ARM GAS  C:\Users\gab_1\AppData\Local\Temp\ccTtYdci.s 			page 27


 594 004e E4B2     		uxtb	r4, r4
 595              	.LVL65:
 596              	.L28:
 597              		.loc 2 133 0 is_stmt 0 discriminator 1
 598 0050 731E     		subs	r3, r6, #1
 599 0052 9C42     		cmp	r4, r3
 600 0054 F2DB     		blt	.L29
 601              	.LVL66:
 602              	.LBB97:
 603              	.LBB98:
 609:Generated_Source\PSoC6/I2C.h **** }
 604              		.loc 3 609 0 is_stmt 1
 605 0056 084E     		ldr	r6, .L31
 606 0058 084F     		ldr	r7, .L31+4
 607 005a 0097     		str	r7, [sp]
 608 005c 6423     		movs	r3, #100
 609 005e 2A19     		adds	r2, r5, r4
 610              	.LVL67:
 611 0060 0121     		movs	r1, #1
 612 0062 3046     		mov	r0, r6
 613 0064 FFF7FEFF 		bl	Cy_SCB_I2C_MasterReadByte
 614              	.LVL68:
 615              	.LBE98:
 616              	.LBE97:
 617              	.LBB99:
 618              	.LBB100:
 596:Generated_Source\PSoC6/I2C.h **** }
 619              		.loc 3 596 0
 620 0068 3A46     		mov	r2, r7
 621 006a 6421     		movs	r1, #100
 622 006c 3046     		mov	r0, r6
 623 006e FFF7FEFF 		bl	Cy_SCB_I2C_MasterSendStop
 624              	.LVL69:
 625              	.LBE100:
 626              	.LBE99:
 134:main_cm4.c    ****             I2C_MasterReadByte(CY_SCB_I2C_ACK,(uint8_t*)&buffer[idx],100);  
 135:main_cm4.c    ****         }
 136:main_cm4.c    ****         I2C_MasterReadByte(CY_SCB_I2C_NAK,(uint8_t*)&buffer[idx],100);
 137:main_cm4.c    ****         I2C_MasterSendStop(100); 
 138:main_cm4.c    ****      //   UART_1_PutString("hello5\r\n");
 139:main_cm4.c    **** }
 627              		.loc 2 139 0
 628 0072 02B0     		add	sp, sp, #8
 629              		.cfi_def_cfa_offset 24
 630              		@ sp needed
 631 0074 BDE8F081 		pop	{r4, r5, r6, r7, r8, pc}
 632              	.LVL70:
 633              	.L32:
 634              		.align	2
 635              	.L31:
 636 0078 00006340 		.word	1080229888
 637 007c 00000000 		.word	I2C_context
 638              		.cfi_endproc
 639              	.LFE699:
 640              		.size	burstRead_MAX30102, .-burstRead_MAX30102
 641              		.section	.text.read_FIFO_DATA,"ax",%progbits
 642              		.align	2
ARM GAS  C:\Users\gab_1\AppData\Local\Temp\ccTtYdci.s 			page 28


 643              		.global	read_FIFO_DATA
 644              		.thumb
 645              		.thumb_func
 646              		.type	read_FIFO_DATA, %function
 647              	read_FIFO_DATA:
 648              	.LFB700:
 140:main_cm4.c    **** 
 141:main_cm4.c    **** void read_FIFO_DATA(uint32_t *bufferR, uint32_t* bufferIR){
 649              		.loc 2 141 0
 650              		.cfi_startproc
 651              		@ args = 0, pretend = 0, frame = 8
 652              		@ frame_needed = 0, uses_anonymous_args = 0
 653              	.LVL71:
 654 0000 30B5     		push	{r4, r5, lr}
 655              		.cfi_def_cfa_offset 12
 656              		.cfi_offset 4, -12
 657              		.cfi_offset 5, -8
 658              		.cfi_offset 14, -4
 659 0002 83B0     		sub	sp, sp, #12
 660              		.cfi_def_cfa_offset 24
 661 0004 0546     		mov	r5, r0
 662 0006 0C46     		mov	r4, r1
 142:main_cm4.c    ****         
 143:main_cm4.c    ****     uint8_t buffer[6];
 144:main_cm4.c    ****     
 145:main_cm4.c    ****     burstRead_MAX30102(REG_FIFO_DATA, buffer, 6); 
 663              		.loc 2 145 0
 664 0008 0622     		movs	r2, #6
 665 000a 6946     		mov	r1, sp
 666              	.LVL72:
 667 000c 0720     		movs	r0, #7
 668              	.LVL73:
 669 000e FFF7FEFF 		bl	burstRead_MAX30102
 670              	.LVL74:
 671              	.LBB105:
 672              	.LBB106:
 673              	.LBB107:
 674              		.file 4 "Generated_Source\\PSoC6\\pdl\\drivers/peripheral/scb/cy_scb_uart.h"
   1:Generated_Source\PSoC6\pdl\drivers/peripheral/scb/cy_scb_uart.h **** /***************************************************************************//**
   2:Generated_Source\PSoC6\pdl\drivers/peripheral/scb/cy_scb_uart.h **** * \file cy_scb_uart.h
   3:Generated_Source\PSoC6\pdl\drivers/peripheral/scb/cy_scb_uart.h **** * \version 2.20
   4:Generated_Source\PSoC6\pdl\drivers/peripheral/scb/cy_scb_uart.h **** *
   5:Generated_Source\PSoC6\pdl\drivers/peripheral/scb/cy_scb_uart.h **** * Provides UART API declarations of the SCB driver.
   6:Generated_Source\PSoC6\pdl\drivers/peripheral/scb/cy_scb_uart.h **** *
   7:Generated_Source\PSoC6\pdl\drivers/peripheral/scb/cy_scb_uart.h **** ********************************************************************************
   8:Generated_Source\PSoC6\pdl\drivers/peripheral/scb/cy_scb_uart.h **** * \copyright
   9:Generated_Source\PSoC6\pdl\drivers/peripheral/scb/cy_scb_uart.h **** * Copyright 2016-2018, Cypress Semiconductor Corporation.  All rights reserved.
  10:Generated_Source\PSoC6\pdl\drivers/peripheral/scb/cy_scb_uart.h **** * You may use this file only in accordance with the license, terms, conditions,
  11:Generated_Source\PSoC6\pdl\drivers/peripheral/scb/cy_scb_uart.h **** * disclaimers, and limitations in the end user license agreement accompanying
  12:Generated_Source\PSoC6\pdl\drivers/peripheral/scb/cy_scb_uart.h **** * the software package with which this file was provided.
  13:Generated_Source\PSoC6\pdl\drivers/peripheral/scb/cy_scb_uart.h **** *******************************************************************************/
  14:Generated_Source\PSoC6\pdl\drivers/peripheral/scb/cy_scb_uart.h **** 
  15:Generated_Source\PSoC6\pdl\drivers/peripheral/scb/cy_scb_uart.h **** /**
  16:Generated_Source\PSoC6\pdl\drivers/peripheral/scb/cy_scb_uart.h **** * \addtogroup group_scb_uart
  17:Generated_Source\PSoC6\pdl\drivers/peripheral/scb/cy_scb_uart.h **** * \{
  18:Generated_Source\PSoC6\pdl\drivers/peripheral/scb/cy_scb_uart.h **** * Driver API for UART
  19:Generated_Source\PSoC6\pdl\drivers/peripheral/scb/cy_scb_uart.h **** *
ARM GAS  C:\Users\gab_1\AppData\Local\Temp\ccTtYdci.s 			page 29


  20:Generated_Source\PSoC6\pdl\drivers/peripheral/scb/cy_scb_uart.h **** * The functions and other declarations used in this part of the driver are in 
  21:Generated_Source\PSoC6\pdl\drivers/peripheral/scb/cy_scb_uart.h **** * cy_scb_uart.h. You can also include cy_pdl.h (ModusToolbox only) to get access 
  22:Generated_Source\PSoC6\pdl\drivers/peripheral/scb/cy_scb_uart.h **** * to all functions and declarations in the PDL.
  23:Generated_Source\PSoC6\pdl\drivers/peripheral/scb/cy_scb_uart.h **** *
  24:Generated_Source\PSoC6\pdl\drivers/peripheral/scb/cy_scb_uart.h **** * The Universal Asynchronous Receiver/Transmitter (UART) protocol is an 
  25:Generated_Source\PSoC6\pdl\drivers/peripheral/scb/cy_scb_uart.h **** * asynchronous serial interface protocol. UART communication is typically 
  26:Generated_Source\PSoC6\pdl\drivers/peripheral/scb/cy_scb_uart.h **** * point-to-point. The UART interface consists of two signals:
  27:Generated_Source\PSoC6\pdl\drivers/peripheral/scb/cy_scb_uart.h **** * * TX: Transmitter output
  28:Generated_Source\PSoC6\pdl\drivers/peripheral/scb/cy_scb_uart.h **** * * RX: Receiver input
  29:Generated_Source\PSoC6\pdl\drivers/peripheral/scb/cy_scb_uart.h **** *
  30:Generated_Source\PSoC6\pdl\drivers/peripheral/scb/cy_scb_uart.h **** * Additionally, two side-band signals are used to implement flow control in 
  31:Generated_Source\PSoC6\pdl\drivers/peripheral/scb/cy_scb_uart.h **** * UART. Note that the flow control applies only to TX functionality.
  32:Generated_Source\PSoC6\pdl\drivers/peripheral/scb/cy_scb_uart.h **** * * Clear to Send (CTS): This is an input signal to the transmitter. 
  33:Generated_Source\PSoC6\pdl\drivers/peripheral/scb/cy_scb_uart.h **** *   When active, it indicates that the slave is ready for the master to 
  34:Generated_Source\PSoC6\pdl\drivers/peripheral/scb/cy_scb_uart.h **** *   transmit data.
  35:Generated_Source\PSoC6\pdl\drivers/peripheral/scb/cy_scb_uart.h **** * * Ready to Send (RTS): This is an output signal from the receiver. When 
  36:Generated_Source\PSoC6\pdl\drivers/peripheral/scb/cy_scb_uart.h **** *   active, it indicates that the receiver is ready to receive data
  37:Generated_Source\PSoC6\pdl\drivers/peripheral/scb/cy_scb_uart.h **** *
  38:Generated_Source\PSoC6\pdl\drivers/peripheral/scb/cy_scb_uart.h **** * Features:
  39:Generated_Source\PSoC6\pdl\drivers/peripheral/scb/cy_scb_uart.h **** * * Supports UART protocol
  40:Generated_Source\PSoC6\pdl\drivers/peripheral/scb/cy_scb_uart.h **** *   * Standard UART
  41:Generated_Source\PSoC6\pdl\drivers/peripheral/scb/cy_scb_uart.h **** *   * Multi-processor mode
  42:Generated_Source\PSoC6\pdl\drivers/peripheral/scb/cy_scb_uart.h **** * * SmartCard (ISO7816) reader
  43:Generated_Source\PSoC6\pdl\drivers/peripheral/scb/cy_scb_uart.h **** * * IrDA
  44:Generated_Source\PSoC6\pdl\drivers/peripheral/scb/cy_scb_uart.h **** * * Data frame size programmable from 4 to 16 bits
  45:Generated_Source\PSoC6\pdl\drivers/peripheral/scb/cy_scb_uart.h **** * * Programmable number of STOP bits, which can be set in terms of half bit 
  46:Generated_Source\PSoC6\pdl\drivers/peripheral/scb/cy_scb_uart.h **** *   periods between 1 and 4
  47:Generated_Source\PSoC6\pdl\drivers/peripheral/scb/cy_scb_uart.h **** * * Parity support (odd and even parity)
  48:Generated_Source\PSoC6\pdl\drivers/peripheral/scb/cy_scb_uart.h **** * * Median filter on Rx input
  49:Generated_Source\PSoC6\pdl\drivers/peripheral/scb/cy_scb_uart.h **** * * Programmable oversampling
  50:Generated_Source\PSoC6\pdl\drivers/peripheral/scb/cy_scb_uart.h **** * * Start skipping
  51:Generated_Source\PSoC6\pdl\drivers/peripheral/scb/cy_scb_uart.h **** *
  52:Generated_Source\PSoC6\pdl\drivers/peripheral/scb/cy_scb_uart.h **** ********************************************************************************
  53:Generated_Source\PSoC6\pdl\drivers/peripheral/scb/cy_scb_uart.h **** * \section group_scb_uart_configuration Configuration Considerations
  54:Generated_Source\PSoC6\pdl\drivers/peripheral/scb/cy_scb_uart.h **** ********************************************************************************
  55:Generated_Source\PSoC6\pdl\drivers/peripheral/scb/cy_scb_uart.h **** * The UART driver configuration can be divided to number of sequential
  56:Generated_Source\PSoC6\pdl\drivers/peripheral/scb/cy_scb_uart.h **** * steps listed below:
  57:Generated_Source\PSoC6\pdl\drivers/peripheral/scb/cy_scb_uart.h **** * * \ref group_scb_uart_config
  58:Generated_Source\PSoC6\pdl\drivers/peripheral/scb/cy_scb_uart.h **** * * \ref group_scb_uart_pins
  59:Generated_Source\PSoC6\pdl\drivers/peripheral/scb/cy_scb_uart.h **** * * \ref group_scb_uart_clock
  60:Generated_Source\PSoC6\pdl\drivers/peripheral/scb/cy_scb_uart.h **** * * \ref group_scb_uart_data_rate
  61:Generated_Source\PSoC6\pdl\drivers/peripheral/scb/cy_scb_uart.h **** * * \ref group_scb_uart_intr
  62:Generated_Source\PSoC6\pdl\drivers/peripheral/scb/cy_scb_uart.h **** * * \ref group_scb_uart_enable
  63:Generated_Source\PSoC6\pdl\drivers/peripheral/scb/cy_scb_uart.h **** *
  64:Generated_Source\PSoC6\pdl\drivers/peripheral/scb/cy_scb_uart.h **** * \note
  65:Generated_Source\PSoC6\pdl\drivers/peripheral/scb/cy_scb_uart.h **** * UART driver is built on top of the SCB hardware block. The SCB5 instance is
  66:Generated_Source\PSoC6\pdl\drivers/peripheral/scb/cy_scb_uart.h **** * used as an example for all code snippets. Modify the code to match your
  67:Generated_Source\PSoC6\pdl\drivers/peripheral/scb/cy_scb_uart.h **** * design.
  68:Generated_Source\PSoC6\pdl\drivers/peripheral/scb/cy_scb_uart.h **** *
  69:Generated_Source\PSoC6\pdl\drivers/peripheral/scb/cy_scb_uart.h **** ********************************************************************************
  70:Generated_Source\PSoC6\pdl\drivers/peripheral/scb/cy_scb_uart.h **** * \subsection group_scb_uart_config Configure UART
  71:Generated_Source\PSoC6\pdl\drivers/peripheral/scb/cy_scb_uart.h **** ********************************************************************************
  72:Generated_Source\PSoC6\pdl\drivers/peripheral/scb/cy_scb_uart.h **** * To set up the UART driver, provide the configuration parameters in the
  73:Generated_Source\PSoC6\pdl\drivers/peripheral/scb/cy_scb_uart.h **** * \ref cy_stc_scb_uart_config_t structure. For example: provide uartMode,
  74:Generated_Source\PSoC6\pdl\drivers/peripheral/scb/cy_scb_uart.h **** * oversample, dataWidth, enableMsbFirst, parity, and stopBits. The other
  75:Generated_Source\PSoC6\pdl\drivers/peripheral/scb/cy_scb_uart.h **** * parameters are optional. To initialize the driver, call \ref Cy_SCB_UART_Init 
  76:Generated_Source\PSoC6\pdl\drivers/peripheral/scb/cy_scb_uart.h **** * function providing a pointer to the populated \ref cy_stc_scb_uart_config_t 
ARM GAS  C:\Users\gab_1\AppData\Local\Temp\ccTtYdci.s 			page 30


  77:Generated_Source\PSoC6\pdl\drivers/peripheral/scb/cy_scb_uart.h **** * structure and the allocated \ref cy_stc_scb_uart_context_t structure.
  78:Generated_Source\PSoC6\pdl\drivers/peripheral/scb/cy_scb_uart.h **** *
  79:Generated_Source\PSoC6\pdl\drivers/peripheral/scb/cy_scb_uart.h **** * \snippet SCB_CompDatasheet_sut_01_revA.cydsn\uart_snippets.c UART_CFG
  80:Generated_Source\PSoC6\pdl\drivers/peripheral/scb/cy_scb_uart.h **** *
  81:Generated_Source\PSoC6\pdl\drivers/peripheral/scb/cy_scb_uart.h **** ********************************************************************************
  82:Generated_Source\PSoC6\pdl\drivers/peripheral/scb/cy_scb_uart.h **** * \subsection group_scb_uart_pins Assign and Configure Pins
  83:Generated_Source\PSoC6\pdl\drivers/peripheral/scb/cy_scb_uart.h **** ********************************************************************************
  84:Generated_Source\PSoC6\pdl\drivers/peripheral/scb/cy_scb_uart.h **** * Only dedicated SCB pins can be used for UART operation. The HSIOM
  85:Generated_Source\PSoC6\pdl\drivers/peripheral/scb/cy_scb_uart.h **** * register must be configured to connect dedicated SCB UART pins to the 
  86:Generated_Source\PSoC6\pdl\drivers/peripheral/scb/cy_scb_uart.h **** * SCB block. Also, the UART output pins must be configured in Strong Drive 
  87:Generated_Source\PSoC6\pdl\drivers/peripheral/scb/cy_scb_uart.h **** * Input Off mode and UART input pins in Digital High-Z:
  88:Generated_Source\PSoC6\pdl\drivers/peripheral/scb/cy_scb_uart.h **** *
  89:Generated_Source\PSoC6\pdl\drivers/peripheral/scb/cy_scb_uart.h **** * \snippet SCB_CompDatasheet_sut_01_revA.cydsn\uart_snippets.c UART_CFG_PINS
  90:Generated_Source\PSoC6\pdl\drivers/peripheral/scb/cy_scb_uart.h **** *
  91:Generated_Source\PSoC6\pdl\drivers/peripheral/scb/cy_scb_uart.h **** ********************************************************************************
  92:Generated_Source\PSoC6\pdl\drivers/peripheral/scb/cy_scb_uart.h **** * \subsection group_scb_uart_clock Assign Clock Divider
  93:Generated_Source\PSoC6\pdl\drivers/peripheral/scb/cy_scb_uart.h **** ********************************************************************************
  94:Generated_Source\PSoC6\pdl\drivers/peripheral/scb/cy_scb_uart.h **** * A clock source must be connected to the SCB block to oversample input and
  95:Generated_Source\PSoC6\pdl\drivers/peripheral/scb/cy_scb_uart.h **** * output signals, in this document this clock will be referred as clk_scb.
  96:Generated_Source\PSoC6\pdl\drivers/peripheral/scb/cy_scb_uart.h **** * You must use one of available integer or fractional dividers. Use the 
  97:Generated_Source\PSoC6\pdl\drivers/peripheral/scb/cy_scb_uart.h **** * \ref group_sysclk driver API to do this.
  98:Generated_Source\PSoC6\pdl\drivers/peripheral/scb/cy_scb_uart.h **** *
  99:Generated_Source\PSoC6\pdl\drivers/peripheral/scb/cy_scb_uart.h **** * \snippet SCB_CompDatasheet_sut_01_revA.cydsn\uart_snippets.c UART_CFG_ASSIGN_CLOCK
 100:Generated_Source\PSoC6\pdl\drivers/peripheral/scb/cy_scb_uart.h **** *
 101:Generated_Source\PSoC6\pdl\drivers/peripheral/scb/cy_scb_uart.h **** ********************************************************************************
 102:Generated_Source\PSoC6\pdl\drivers/peripheral/scb/cy_scb_uart.h **** * \subsection group_scb_uart_data_rate Configure Baud Rate
 103:Generated_Source\PSoC6\pdl\drivers/peripheral/scb/cy_scb_uart.h **** ********************************************************************************
 104:Generated_Source\PSoC6\pdl\drivers/peripheral/scb/cy_scb_uart.h **** * To get the UART to operate with the desired baud rate, the clk_scb frequency
 105:Generated_Source\PSoC6\pdl\drivers/peripheral/scb/cy_scb_uart.h **** * and the oversample must be configured. Use the \ref group_sysclk driver API
 106:Generated_Source\PSoC6\pdl\drivers/peripheral/scb/cy_scb_uart.h **** * to configure clk_scb frequency. Set the <em><b>oversample parameter
 107:Generated_Source\PSoC6\pdl\drivers/peripheral/scb/cy_scb_uart.h **** * in configuration structure</b></em> to define the number of the SCB clocks
 108:Generated_Source\PSoC6\pdl\drivers/peripheral/scb/cy_scb_uart.h **** * within one UART bit-time.
 109:Generated_Source\PSoC6\pdl\drivers/peripheral/scb/cy_scb_uart.h **** *
 110:Generated_Source\PSoC6\pdl\drivers/peripheral/scb/cy_scb_uart.h **** * \snippet SCB_CompDatasheet_sut_01_revA.cydsn\uart_snippets.c UART_CFG_DATA_RATE
 111:Generated_Source\PSoC6\pdl\drivers/peripheral/scb/cy_scb_uart.h **** *
 112:Generated_Source\PSoC6\pdl\drivers/peripheral/scb/cy_scb_uart.h **** * <b>Refer to the technical reference manual (TRM) section UART sub-section
 113:Generated_Source\PSoC6\pdl\drivers/peripheral/scb/cy_scb_uart.h **** * Clocking and Oversampling to get information about how to configure the UART to run with
 114:Generated_Source\PSoC6\pdl\drivers/peripheral/scb/cy_scb_uart.h **** * desired baud rate.</b>
 115:Generated_Source\PSoC6\pdl\drivers/peripheral/scb/cy_scb_uart.h **** *
 116:Generated_Source\PSoC6\pdl\drivers/peripheral/scb/cy_scb_uart.h **** ********************************************************************************
 117:Generated_Source\PSoC6\pdl\drivers/peripheral/scb/cy_scb_uart.h **** * \subsection group_scb_uart_intr Configure Interrupt
 118:Generated_Source\PSoC6\pdl\drivers/peripheral/scb/cy_scb_uart.h **** ********************************************************************************
 119:Generated_Source\PSoC6\pdl\drivers/peripheral/scb/cy_scb_uart.h **** * The interrupt is optional for the UART operation. To configure interrupt
 120:Generated_Source\PSoC6\pdl\drivers/peripheral/scb/cy_scb_uart.h **** * the \ref Cy_SCB_UART_Interrupt function must be called in the interrupt
 121:Generated_Source\PSoC6\pdl\drivers/peripheral/scb/cy_scb_uart.h **** * handler for the selected SCB instance. Also, this interrupt must be enabled
 122:Generated_Source\PSoC6\pdl\drivers/peripheral/scb/cy_scb_uart.h **** * in the NVIC.
 123:Generated_Source\PSoC6\pdl\drivers/peripheral/scb/cy_scb_uart.h **** * The interrupt must be configured when \ref group_scb_uart_hl will be used.
 124:Generated_Source\PSoC6\pdl\drivers/peripheral/scb/cy_scb_uart.h **** *
 125:Generated_Source\PSoC6\pdl\drivers/peripheral/scb/cy_scb_uart.h **** * \snippet SCB_CompDatasheet_sut_01_revA.cydsn\uart_snippets.c UART_INTR_A
 126:Generated_Source\PSoC6\pdl\drivers/peripheral/scb/cy_scb_uart.h **** * \snippet SCB_CompDatasheet_sut_01_revA.cydsn\uart_snippets.c UART_INTR_B
 127:Generated_Source\PSoC6\pdl\drivers/peripheral/scb/cy_scb_uart.h **** *
 128:Generated_Source\PSoC6\pdl\drivers/peripheral/scb/cy_scb_uart.h **** ********************************************************************************
 129:Generated_Source\PSoC6\pdl\drivers/peripheral/scb/cy_scb_uart.h **** * \subsection group_scb_uart_enable Enable UART
 130:Generated_Source\PSoC6\pdl\drivers/peripheral/scb/cy_scb_uart.h **** ********************************************************************************
 131:Generated_Source\PSoC6\pdl\drivers/peripheral/scb/cy_scb_uart.h **** * Finally, enable the UART operation by calling \ref Cy_SCB_UART_Enable.
 132:Generated_Source\PSoC6\pdl\drivers/peripheral/scb/cy_scb_uart.h **** *
 133:Generated_Source\PSoC6\pdl\drivers/peripheral/scb/cy_scb_uart.h **** * \snippet SCB_CompDatasheet_sut_01_revA.cydsn\uart_snippets.c UART_ENABLE
ARM GAS  C:\Users\gab_1\AppData\Local\Temp\ccTtYdci.s 			page 31


 134:Generated_Source\PSoC6\pdl\drivers/peripheral/scb/cy_scb_uart.h **** *
 135:Generated_Source\PSoC6\pdl\drivers/peripheral/scb/cy_scb_uart.h **** ********************************************************************************
 136:Generated_Source\PSoC6\pdl\drivers/peripheral/scb/cy_scb_uart.h **** * \section group_scb_uart_use_cases Common Use Cases
 137:Generated_Source\PSoC6\pdl\drivers/peripheral/scb/cy_scb_uart.h **** ********************************************************************************
 138:Generated_Source\PSoC6\pdl\drivers/peripheral/scb/cy_scb_uart.h **** * The UART API is divided into two categories: \ref group_scb_uart_low_level_functions
 139:Generated_Source\PSoC6\pdl\drivers/peripheral/scb/cy_scb_uart.h **** * and \ref group_scb_uart_high_level_functions. \n
 140:Generated_Source\PSoC6\pdl\drivers/peripheral/scb/cy_scb_uart.h **** * <em>Do not mix <b>High-Level</b> and <b>Low-Level</b> API because a Low-Level
 141:Generated_Source\PSoC6\pdl\drivers/peripheral/scb/cy_scb_uart.h **** * API can adversely affect the operation of a High-Level API.</em>
 142:Generated_Source\PSoC6\pdl\drivers/peripheral/scb/cy_scb_uart.h **** *
 143:Generated_Source\PSoC6\pdl\drivers/peripheral/scb/cy_scb_uart.h **** ********************************************************************************
 144:Generated_Source\PSoC6\pdl\drivers/peripheral/scb/cy_scb_uart.h **** * \subsection group_scb_uart_ll Low-Level API
 145:Generated_Source\PSoC6\pdl\drivers/peripheral/scb/cy_scb_uart.h **** ********************************************************************************
 146:Generated_Source\PSoC6\pdl\drivers/peripheral/scb/cy_scb_uart.h **** * The \ref group_scb_uart_low_level_functions functions allow
 147:Generated_Source\PSoC6\pdl\drivers/peripheral/scb/cy_scb_uart.h **** * interacting directly with the hardware and do not use \ref Cy_SCB_UART_Interrupt.
 148:Generated_Source\PSoC6\pdl\drivers/peripheral/scb/cy_scb_uart.h **** * These functions do not require context for operation. Thus, NULL can be
 149:Generated_Source\PSoC6\pdl\drivers/peripheral/scb/cy_scb_uart.h **** * passed for context parameter in \ref Cy_SCB_UART_Init and \ref Cy_SCB_UART_Disable 
 150:Generated_Source\PSoC6\pdl\drivers/peripheral/scb/cy_scb_uart.h **** * instead of a pointer to the context structure.
 151:Generated_Source\PSoC6\pdl\drivers/peripheral/scb/cy_scb_uart.h **** *
 152:Generated_Source\PSoC6\pdl\drivers/peripheral/scb/cy_scb_uart.h **** * * To write data into the TX FIFO, use one of the provided functions:
 153:Generated_Source\PSoC6\pdl\drivers/peripheral/scb/cy_scb_uart.h **** *   \ref Cy_SCB_UART_Put, \ref Cy_SCB_UART_PutArray,
 154:Generated_Source\PSoC6\pdl\drivers/peripheral/scb/cy_scb_uart.h **** *   \ref Cy_SCB_UART_PutArrayBlocking or \ref Cy_SCB_UART_PutString.
 155:Generated_Source\PSoC6\pdl\drivers/peripheral/scb/cy_scb_uart.h **** *   Note that putting data into the TX FIFO starts data transfer.
 156:Generated_Source\PSoC6\pdl\drivers/peripheral/scb/cy_scb_uart.h **** *
 157:Generated_Source\PSoC6\pdl\drivers/peripheral/scb/cy_scb_uart.h **** * * To read data from the RX FIFO, use one of the provided functions:
 158:Generated_Source\PSoC6\pdl\drivers/peripheral/scb/cy_scb_uart.h **** *   \ref Cy_SCB_UART_Get, \ref Cy_SCB_UART_GetArray or
 159:Generated_Source\PSoC6\pdl\drivers/peripheral/scb/cy_scb_uart.h **** *   \ref Cy_SCB_UART_GetArrayBlocking.
 160:Generated_Source\PSoC6\pdl\drivers/peripheral/scb/cy_scb_uart.h **** *
 161:Generated_Source\PSoC6\pdl\drivers/peripheral/scb/cy_scb_uart.h **** * * The statuses can be polled using: \ref Cy_SCB_UART_GetRxFifoStatus and
 162:Generated_Source\PSoC6\pdl\drivers/peripheral/scb/cy_scb_uart.h **** *   \ref Cy_SCB_UART_GetTxFifoStatus.
 163:Generated_Source\PSoC6\pdl\drivers/peripheral/scb/cy_scb_uart.h **** *   <em>The statuses are <b>W1C (Write 1 to Clear)</b> and after a status
 164:Generated_Source\PSoC6\pdl\drivers/peripheral/scb/cy_scb_uart.h **** *   is set, it must be cleared.</em> Note that there are statuses evaluated as level.
 165:Generated_Source\PSoC6\pdl\drivers/peripheral/scb/cy_scb_uart.h **** *   These statuses remain set until an event is true. Therefore, after the clear
 166:Generated_Source\PSoC6\pdl\drivers/peripheral/scb/cy_scb_uart.h **** *   operation, the status is cleared but then it is restored (if event is still
 167:Generated_Source\PSoC6\pdl\drivers/peripheral/scb/cy_scb_uart.h **** *   true).
 168:Generated_Source\PSoC6\pdl\drivers/peripheral/scb/cy_scb_uart.h **** *   Also, the following functions can be used for polling as well
 169:Generated_Source\PSoC6\pdl\drivers/peripheral/scb/cy_scb_uart.h **** *   \ref Cy_SCB_UART_IsTxComplete, \ref Cy_SCB_UART_GetNumInRxFifo and
 170:Generated_Source\PSoC6\pdl\drivers/peripheral/scb/cy_scb_uart.h **** *   \ref Cy_SCB_UART_GetNumInTxFifo.
 171:Generated_Source\PSoC6\pdl\drivers/peripheral/scb/cy_scb_uart.h **** *
 172:Generated_Source\PSoC6\pdl\drivers/peripheral/scb/cy_scb_uart.h **** * \snippet SCB_CompDatasheet_sut_01_revA.cydsn\uart_snippets.c UART_TRANSMIT_DATA_LL
 173:Generated_Source\PSoC6\pdl\drivers/peripheral/scb/cy_scb_uart.h **** *
 174:Generated_Source\PSoC6\pdl\drivers/peripheral/scb/cy_scb_uart.h **** ********************************************************************************
 175:Generated_Source\PSoC6\pdl\drivers/peripheral/scb/cy_scb_uart.h **** * \subsection group_scb_uart_hl High-Level API
 176:Generated_Source\PSoC6\pdl\drivers/peripheral/scb/cy_scb_uart.h **** ********************************************************************************
 177:Generated_Source\PSoC6\pdl\drivers/peripheral/scb/cy_scb_uart.h **** * The \ref group_scb_uart_high_level_functions API use \ref Cy_SCB_UART_Interrupt
 178:Generated_Source\PSoC6\pdl\drivers/peripheral/scb/cy_scb_uart.h **** * to execute the transfer. Call \ref Cy_SCB_UART_Transmit to start transmission.
 179:Generated_Source\PSoC6\pdl\drivers/peripheral/scb/cy_scb_uart.h **** * Call \ref Cy_SCB_UART_Receive to start receive operation. After the
 180:Generated_Source\PSoC6\pdl\drivers/peripheral/scb/cy_scb_uart.h **** * operation is started the \ref Cy_SCB_UART_Interrupt handles the data
 181:Generated_Source\PSoC6\pdl\drivers/peripheral/scb/cy_scb_uart.h **** * transfer until its completion.
 182:Generated_Source\PSoC6\pdl\drivers/peripheral/scb/cy_scb_uart.h **** * Therefore \ref Cy_SCB_UART_Interrupt must be called inside the user 
 183:Generated_Source\PSoC6\pdl\drivers/peripheral/scb/cy_scb_uart.h **** * interrupt handler to make the High-Level API work. To monitor status
 184:Generated_Source\PSoC6\pdl\drivers/peripheral/scb/cy_scb_uart.h **** * of transmit operation, use \ref Cy_SCB_UART_GetTransmitStatus and
 185:Generated_Source\PSoC6\pdl\drivers/peripheral/scb/cy_scb_uart.h **** * \ref Cy_SCB_UART_GetReceiveStatus to monitor receive status appropriately.
 186:Generated_Source\PSoC6\pdl\drivers/peripheral/scb/cy_scb_uart.h **** * Alternatively use \ref Cy_SCB_UART_RegisterCallback to register callback
 187:Generated_Source\PSoC6\pdl\drivers/peripheral/scb/cy_scb_uart.h **** * function to be notified about \ref group_scb_uart_macros_callback_events.
 188:Generated_Source\PSoC6\pdl\drivers/peripheral/scb/cy_scb_uart.h **** *
 189:Generated_Source\PSoC6\pdl\drivers/peripheral/scb/cy_scb_uart.h **** * <b>Receive Operation</b>
 190:Generated_Source\PSoC6\pdl\drivers/peripheral/scb/cy_scb_uart.h **** * \snippet SCB_CompDatasheet_sut_01_revA.cydsn\uart_snippets.c UART_RECEIVE_DATA_HL
ARM GAS  C:\Users\gab_1\AppData\Local\Temp\ccTtYdci.s 			page 32


 191:Generated_Source\PSoC6\pdl\drivers/peripheral/scb/cy_scb_uart.h **** *
 192:Generated_Source\PSoC6\pdl\drivers/peripheral/scb/cy_scb_uart.h **** * <b>Transmit Operation</b>
 193:Generated_Source\PSoC6\pdl\drivers/peripheral/scb/cy_scb_uart.h **** * \snippet SCB_CompDatasheet_sut_01_revA.cydsn\uart_snippets.c UART_TRANSMIT_DATA_HL
 194:Generated_Source\PSoC6\pdl\drivers/peripheral/scb/cy_scb_uart.h **** *
 195:Generated_Source\PSoC6\pdl\drivers/peripheral/scb/cy_scb_uart.h **** * There is also capability to insert a receive ring buffer that operates between
 196:Generated_Source\PSoC6\pdl\drivers/peripheral/scb/cy_scb_uart.h **** * the RX FIFO and the user buffer. The received data is copied into the ring
 197:Generated_Source\PSoC6\pdl\drivers/peripheral/scb/cy_scb_uart.h **** * buffer from the RX FIFO. This process runs in the background after the ring
 198:Generated_Source\PSoC6\pdl\drivers/peripheral/scb/cy_scb_uart.h **** * buffer operation is started by \ref Cy_SCB_UART_StartRingBuffer.
 199:Generated_Source\PSoC6\pdl\drivers/peripheral/scb/cy_scb_uart.h **** * When \ref Cy_SCB_UART_Receive is called, it first reads data from the ring
 200:Generated_Source\PSoC6\pdl\drivers/peripheral/scb/cy_scb_uart.h **** * buffer and then sets up an interrupt to receive more data if the required
 201:Generated_Source\PSoC6\pdl\drivers/peripheral/scb/cy_scb_uart.h **** * amount has not yet been read.
 202:Generated_Source\PSoC6\pdl\drivers/peripheral/scb/cy_scb_uart.h **** *
 203:Generated_Source\PSoC6\pdl\drivers/peripheral/scb/cy_scb_uart.h **** ********************************************************************************
 204:Generated_Source\PSoC6\pdl\drivers/peripheral/scb/cy_scb_uart.h **** * \section group_scb_uart_dma_trig DMA Trigger
 205:Generated_Source\PSoC6\pdl\drivers/peripheral/scb/cy_scb_uart.h **** ********************************************************************************
 206:Generated_Source\PSoC6\pdl\drivers/peripheral/scb/cy_scb_uart.h **** * The SCB provides TX and RX output trigger signals that can be routed to the
 207:Generated_Source\PSoC6\pdl\drivers/peripheral/scb/cy_scb_uart.h **** * DMA controller inputs. These signals are assigned based on the data availability
 208:Generated_Source\PSoC6\pdl\drivers/peripheral/scb/cy_scb_uart.h **** * in the TX and RX FIFOs appropriately.
 209:Generated_Source\PSoC6\pdl\drivers/peripheral/scb/cy_scb_uart.h **** *
 210:Generated_Source\PSoC6\pdl\drivers/peripheral/scb/cy_scb_uart.h **** * * The RX trigger signal is active while the number of data
 211:Generated_Source\PSoC6\pdl\drivers/peripheral/scb/cy_scb_uart.h **** *   elements in the RX FIFO is greater than the value of RX FIFO level. Use
 212:Generated_Source\PSoC6\pdl\drivers/peripheral/scb/cy_scb_uart.h **** *   function \ref Cy_SCB_SetRxFifoLevel or set configuration structure
 213:Generated_Source\PSoC6\pdl\drivers/peripheral/scb/cy_scb_uart.h **** *   rxFifoTriggerLevel parameter to configure RX FIFO level value. \n
 214:Generated_Source\PSoC6\pdl\drivers/peripheral/scb/cy_scb_uart.h **** *   <em>For example, the RX FIFO has 8 data elements and the RX FIFO level is 0.
 215:Generated_Source\PSoC6\pdl\drivers/peripheral/scb/cy_scb_uart.h **** *   The RX trigger signal is active until DMA reads all data from
 216:Generated_Source\PSoC6\pdl\drivers/peripheral/scb/cy_scb_uart.h **** *   the RX FIFO.</em>
 217:Generated_Source\PSoC6\pdl\drivers/peripheral/scb/cy_scb_uart.h **** *
 218:Generated_Source\PSoC6\pdl\drivers/peripheral/scb/cy_scb_uart.h **** * * The TX trigger signal is active while the number of data elements
 219:Generated_Source\PSoC6\pdl\drivers/peripheral/scb/cy_scb_uart.h **** *   in the TX FIFO is less than the value of TX FIFO level. Use function
 220:Generated_Source\PSoC6\pdl\drivers/peripheral/scb/cy_scb_uart.h **** *   \ref Cy_SCB_SetTxFifoLevel or set configuration structure txFifoTriggerLevel
 221:Generated_Source\PSoC6\pdl\drivers/peripheral/scb/cy_scb_uart.h **** *   parameter to configure TX FIFO level value. \n
 222:Generated_Source\PSoC6\pdl\drivers/peripheral/scb/cy_scb_uart.h **** *   <em>For example, the TX FIFO has 0 data elements (empty) and the TX FIFO level
 223:Generated_Source\PSoC6\pdl\drivers/peripheral/scb/cy_scb_uart.h **** *   is 7. The TX trigger signal is active until DMA loads TX FIFO
 224:Generated_Source\PSoC6\pdl\drivers/peripheral/scb/cy_scb_uart.h **** *   with 8 data elements (note that after the first TX load operation, the data 
 225:Generated_Source\PSoC6\pdl\drivers/peripheral/scb/cy_scb_uart.h **** *   element goes to the shift register and TX FIFO is empty).</em>
 226:Generated_Source\PSoC6\pdl\drivers/peripheral/scb/cy_scb_uart.h **** *
 227:Generated_Source\PSoC6\pdl\drivers/peripheral/scb/cy_scb_uart.h **** * To route SCB TX or RX trigger signals to DMA controller use \ref group_trigmux
 228:Generated_Source\PSoC6\pdl\drivers/peripheral/scb/cy_scb_uart.h **** * driver API.
 229:Generated_Source\PSoC6\pdl\drivers/peripheral/scb/cy_scb_uart.h **** *
 230:Generated_Source\PSoC6\pdl\drivers/peripheral/scb/cy_scb_uart.h **** * \note
 231:Generated_Source\PSoC6\pdl\drivers/peripheral/scb/cy_scb_uart.h **** * To properly handle DMA level request signal activation and de-activation from the SCB
 232:Generated_Source\PSoC6\pdl\drivers/peripheral/scb/cy_scb_uart.h **** * peripheral block the DMA Descriptor typically must be configured to re-trigger
 233:Generated_Source\PSoC6\pdl\drivers/peripheral/scb/cy_scb_uart.h **** * after 16 Clk_Slow cycles.
 234:Generated_Source\PSoC6\pdl\drivers/peripheral/scb/cy_scb_uart.h **** *
 235:Generated_Source\PSoC6\pdl\drivers/peripheral/scb/cy_scb_uart.h **** ********************************************************************************
 236:Generated_Source\PSoC6\pdl\drivers/peripheral/scb/cy_scb_uart.h **** * \section group_scb_uart_lp Low Power Support
 237:Generated_Source\PSoC6\pdl\drivers/peripheral/scb/cy_scb_uart.h **** ********************************************************************************
 238:Generated_Source\PSoC6\pdl\drivers/peripheral/scb/cy_scb_uart.h **** * The UART driver provides callback functions to handle power mode
 239:Generated_Source\PSoC6\pdl\drivers/peripheral/scb/cy_scb_uart.h **** * transition. The callback \ref Cy_SCB_UART_DeepSleepCallback must be called
 240:Generated_Source\PSoC6\pdl\drivers/peripheral/scb/cy_scb_uart.h **** * during execution of \ref Cy_SysPm_CpuEnterDeepSleep \ref Cy_SCB_UART_HibernateCallback
 241:Generated_Source\PSoC6\pdl\drivers/peripheral/scb/cy_scb_uart.h **** * must be called during execution of \ref Cy_SysPm_SystemEnterHibernate. To trigger the
 242:Generated_Source\PSoC6\pdl\drivers/peripheral/scb/cy_scb_uart.h **** * callback execution, the callback must be registered before calling the
 243:Generated_Source\PSoC6\pdl\drivers/peripheral/scb/cy_scb_uart.h **** * power mode transition function. Refer to \ref group_syspm driver for more
 244:Generated_Source\PSoC6\pdl\drivers/peripheral/scb/cy_scb_uart.h **** * information about power mode transitions and callback registration.
 245:Generated_Source\PSoC6\pdl\drivers/peripheral/scb/cy_scb_uart.h **** *
 246:Generated_Source\PSoC6\pdl\drivers/peripheral/scb/cy_scb_uart.h **** * The UART is disabled during Deep Sleep and Hibernate and stops driving 
 247:Generated_Source\PSoC6\pdl\drivers/peripheral/scb/cy_scb_uart.h **** * the output pins. The state of the UART output pins TX and RTS is High-Z, 
ARM GAS  C:\Users\gab_1\AppData\Local\Temp\ccTtYdci.s 			page 33


 248:Generated_Source\PSoC6\pdl\drivers/peripheral/scb/cy_scb_uart.h **** * which can cause unexpected behavior of the UART receiver due to possible
 249:Generated_Source\PSoC6\pdl\drivers/peripheral/scb/cy_scb_uart.h **** * glitches on these lines. These pins must be set to the inactive state before 
 250:Generated_Source\PSoC6\pdl\drivers/peripheral/scb/cy_scb_uart.h **** * entering Deep Sleep or Hibernate mode.
 251:Generated_Source\PSoC6\pdl\drivers/peripheral/scb/cy_scb_uart.h **** * These pins must keep the inactive level (the same state 
 252:Generated_Source\PSoC6\pdl\drivers/peripheral/scb/cy_scb_uart.h **** * when UART TX is enabled and does not transfer data) before entering Deep 
 253:Generated_Source\PSoC6\pdl\drivers/peripheral/scb/cy_scb_uart.h **** * Sleep or Hibernate mode. To do that, write the GPIO data register of each pin 
 254:Generated_Source\PSoC6\pdl\drivers/peripheral/scb/cy_scb_uart.h **** * to the inactive level for each output pin. Then configure High-Speed Input 
 255:Generated_Source\PSoC6\pdl\drivers/peripheral/scb/cy_scb_uart.h **** * Output Multiplexer (HSIOM) of each pin to be controlled by the GPIO (use 
 256:Generated_Source\PSoC6\pdl\drivers/peripheral/scb/cy_scb_uart.h **** * \ref group_gpio driver API). After exiting Deep Sleep mode the UART 
 257:Generated_Source\PSoC6\pdl\drivers/peripheral/scb/cy_scb_uart.h **** * must be enabled and the pins configuration restored to return the 
 258:Generated_Source\PSoC6\pdl\drivers/peripheral/scb/cy_scb_uart.h **** * UART control of the pins (after exiting Hibernate mode, the 
 259:Generated_Source\PSoC6\pdl\drivers/peripheral/scb/cy_scb_uart.h **** * system initialization code does the same). Copy either or 
 260:Generated_Source\PSoC6\pdl\drivers/peripheral/scb/cy_scb_uart.h **** * both \ref Cy_SCB_UART_DeepSleepCallback and \ref Cy_SCB_UART_HibernateCallback 
 261:Generated_Source\PSoC6\pdl\drivers/peripheral/scb/cy_scb_uart.h **** * as appropriate, and make the changes described above inside the function.
 262:Generated_Source\PSoC6\pdl\drivers/peripheral/scb/cy_scb_uart.h **** * Alternately, external pull-up or pull-down resistors can be connected 
 263:Generated_Source\PSoC6\pdl\drivers/peripheral/scb/cy_scb_uart.h **** * to the appropriate UART lines to keep them inactive during Deep-Sleep or 
 264:Generated_Source\PSoC6\pdl\drivers/peripheral/scb/cy_scb_uart.h **** * Hibernate.
 265:Generated_Source\PSoC6\pdl\drivers/peripheral/scb/cy_scb_uart.h **** *
 266:Generated_Source\PSoC6\pdl\drivers/peripheral/scb/cy_scb_uart.h **** ********************************************************************************
 267:Generated_Source\PSoC6\pdl\drivers/peripheral/scb/cy_scb_uart.h **** * \section group_scb_uart_more_information More Information
 268:Generated_Source\PSoC6\pdl\drivers/peripheral/scb/cy_scb_uart.h **** ********************************************************************************
 269:Generated_Source\PSoC6\pdl\drivers/peripheral/scb/cy_scb_uart.h **** * For more information on the SCB peripheral, refer to the technical reference
 270:Generated_Source\PSoC6\pdl\drivers/peripheral/scb/cy_scb_uart.h **** * manual (TRM).
 271:Generated_Source\PSoC6\pdl\drivers/peripheral/scb/cy_scb_uart.h **** *
 272:Generated_Source\PSoC6\pdl\drivers/peripheral/scb/cy_scb_uart.h **** ********************************************************************************
 273:Generated_Source\PSoC6\pdl\drivers/peripheral/scb/cy_scb_uart.h **** * \section group_scb_uart_MISRA MISRA-C Compliance
 274:Generated_Source\PSoC6\pdl\drivers/peripheral/scb/cy_scb_uart.h **** ********************************************************************************
 275:Generated_Source\PSoC6\pdl\drivers/peripheral/scb/cy_scb_uart.h **** * <table class="doxtable">
 276:Generated_Source\PSoC6\pdl\drivers/peripheral/scb/cy_scb_uart.h **** *   <tr>
 277:Generated_Source\PSoC6\pdl\drivers/peripheral/scb/cy_scb_uart.h **** *     <th>MISRA Rule</th>
 278:Generated_Source\PSoC6\pdl\drivers/peripheral/scb/cy_scb_uart.h **** *     <th>Rule Class (Required/Advisory)</th>
 279:Generated_Source\PSoC6\pdl\drivers/peripheral/scb/cy_scb_uart.h **** *     <th>Rule Description</th>
 280:Generated_Source\PSoC6\pdl\drivers/peripheral/scb/cy_scb_uart.h **** *     <th>Description of Deviation(s)</th>
 281:Generated_Source\PSoC6\pdl\drivers/peripheral/scb/cy_scb_uart.h **** *   </tr>
 282:Generated_Source\PSoC6\pdl\drivers/peripheral/scb/cy_scb_uart.h **** *   <tr>
 283:Generated_Source\PSoC6\pdl\drivers/peripheral/scb/cy_scb_uart.h **** *     <td>11.4</td>
 284:Generated_Source\PSoC6\pdl\drivers/peripheral/scb/cy_scb_uart.h **** *     <td>A</td>
 285:Generated_Source\PSoC6\pdl\drivers/peripheral/scb/cy_scb_uart.h **** *     <td>A cast should not be performed between a pointer to object type and
 286:Generated_Source\PSoC6\pdl\drivers/peripheral/scb/cy_scb_uart.h **** *         a different pointer to object type.</td>
 287:Generated_Source\PSoC6\pdl\drivers/peripheral/scb/cy_scb_uart.h **** *     <td>
 288:Generated_Source\PSoC6\pdl\drivers/peripheral/scb/cy_scb_uart.h **** *         * The pointer to the buffer memory is void to allow handling different
 289:Generated_Source\PSoC6\pdl\drivers/peripheral/scb/cy_scb_uart.h **** *         different data types: uint8_t (4-8 bits) or uint16_t (9-16 bits).
 290:Generated_Source\PSoC6\pdl\drivers/peripheral/scb/cy_scb_uart.h **** *         The cast operation is safe because the configuration is verified
 291:Generated_Source\PSoC6\pdl\drivers/peripheral/scb/cy_scb_uart.h **** *         before operation is performed.
 292:Generated_Source\PSoC6\pdl\drivers/peripheral/scb/cy_scb_uart.h **** *         * The functions \ref Cy_SCB_UART_DeepSleepCallback and
 293:Generated_Source\PSoC6\pdl\drivers/peripheral/scb/cy_scb_uart.h **** *         \ref Cy_SCB_UART_HibernateCallback are callback of
 294:Generated_Source\PSoC6\pdl\drivers/peripheral/scb/cy_scb_uart.h **** *         \ref cy_en_syspm_status_t type. The cast operation safety in these
 295:Generated_Source\PSoC6\pdl\drivers/peripheral/scb/cy_scb_uart.h **** *         functions becomes the user's responsibility because pointers are
 296:Generated_Source\PSoC6\pdl\drivers/peripheral/scb/cy_scb_uart.h **** *         initialized when callback is registered in SysPm driver.</td>
 297:Generated_Source\PSoC6\pdl\drivers/peripheral/scb/cy_scb_uart.h **** *   </tr>
 298:Generated_Source\PSoC6\pdl\drivers/peripheral/scb/cy_scb_uart.h **** *   <tr>
 299:Generated_Source\PSoC6\pdl\drivers/peripheral/scb/cy_scb_uart.h **** *     <td>14.2</td>
 300:Generated_Source\PSoC6\pdl\drivers/peripheral/scb/cy_scb_uart.h **** *     <td>R</td>
 301:Generated_Source\PSoC6\pdl\drivers/peripheral/scb/cy_scb_uart.h **** *     <td>All non-null statements shall either: a) have at least one side-effect
 302:Generated_Source\PSoC6\pdl\drivers/peripheral/scb/cy_scb_uart.h **** *         however executed, or b) cause control flow to change.</td>
 303:Generated_Source\PSoC6\pdl\drivers/peripheral/scb/cy_scb_uart.h **** *     <td>The unused function parameters are cast to void. This statement
 304:Generated_Source\PSoC6\pdl\drivers/peripheral/scb/cy_scb_uart.h **** *         has no side-effect and is used to suppress a compiler warning.</td>
ARM GAS  C:\Users\gab_1\AppData\Local\Temp\ccTtYdci.s 			page 34


 305:Generated_Source\PSoC6\pdl\drivers/peripheral/scb/cy_scb_uart.h **** *   </tr>
 306:Generated_Source\PSoC6\pdl\drivers/peripheral/scb/cy_scb_uart.h **** *   <tr>
 307:Generated_Source\PSoC6\pdl\drivers/peripheral/scb/cy_scb_uart.h **** *     <td>14.7</td>
 308:Generated_Source\PSoC6\pdl\drivers/peripheral/scb/cy_scb_uart.h **** *     <td>R</td>
 309:Generated_Source\PSoC6\pdl\drivers/peripheral/scb/cy_scb_uart.h **** *     <td>A function shall have a single point of exit at the end of the
 310:Generated_Source\PSoC6\pdl\drivers/peripheral/scb/cy_scb_uart.h **** *         function.</td>
 311:Generated_Source\PSoC6\pdl\drivers/peripheral/scb/cy_scb_uart.h **** *     <td>The functions can return from several points. This is done to improve
 312:Generated_Source\PSoC6\pdl\drivers/peripheral/scb/cy_scb_uart.h **** *         code clarity when returning error status code if input parameters
 313:Generated_Source\PSoC6\pdl\drivers/peripheral/scb/cy_scb_uart.h **** *         validation fails.</td>
 314:Generated_Source\PSoC6\pdl\drivers/peripheral/scb/cy_scb_uart.h **** *   </tr>
 315:Generated_Source\PSoC6\pdl\drivers/peripheral/scb/cy_scb_uart.h **** * </table>
 316:Generated_Source\PSoC6\pdl\drivers/peripheral/scb/cy_scb_uart.h **** *
 317:Generated_Source\PSoC6\pdl\drivers/peripheral/scb/cy_scb_uart.h **** * \section group_scb_uart_changelog Changelog
 318:Generated_Source\PSoC6\pdl\drivers/peripheral/scb/cy_scb_uart.h **** * <table class="doxtable">
 319:Generated_Source\PSoC6\pdl\drivers/peripheral/scb/cy_scb_uart.h **** *   <tr><th>Version</th><th>Changes</th><th>Reason for Change</th></tr>
 320:Generated_Source\PSoC6\pdl\drivers/peripheral/scb/cy_scb_uart.h **** *   <tr>
 321:Generated_Source\PSoC6\pdl\drivers/peripheral/scb/cy_scb_uart.h **** *     <td rowspan="2">2.20</td>
 322:Generated_Source\PSoC6\pdl\drivers/peripheral/scb/cy_scb_uart.h **** *     <td>Flattened the organization of the driver source code into the single 
 323:Generated_Source\PSoC6\pdl\drivers/peripheral/scb/cy_scb_uart.h **** *         source directory and the single include directory.
 324:Generated_Source\PSoC6\pdl\drivers/peripheral/scb/cy_scb_uart.h **** *     </td>
 325:Generated_Source\PSoC6\pdl\drivers/peripheral/scb/cy_scb_uart.h **** *     <td>Driver library directory-structure simplification.</td>
 326:Generated_Source\PSoC6\pdl\drivers/peripheral/scb/cy_scb_uart.h **** *   </tr>
 327:Generated_Source\PSoC6\pdl\drivers/peripheral/scb/cy_scb_uart.h **** *   <tr>
 328:Generated_Source\PSoC6\pdl\drivers/peripheral/scb/cy_scb_uart.h **** *     <td>Added register access layer. Use register access macros instead
 329:Generated_Source\PSoC6\pdl\drivers/peripheral/scb/cy_scb_uart.h **** *         of direct register access using dereferenced pointers.</td>
 330:Generated_Source\PSoC6\pdl\drivers/peripheral/scb/cy_scb_uart.h **** *     <td>Makes register access device-independent, so that the PDL does 
 331:Generated_Source\PSoC6\pdl\drivers/peripheral/scb/cy_scb_uart.h **** *         not need to be recompiled for each supported part number.</td>
 332:Generated_Source\PSoC6\pdl\drivers/peripheral/scb/cy_scb_uart.h **** *   </tr>
 333:Generated_Source\PSoC6\pdl\drivers/peripheral/scb/cy_scb_uart.h **** *   <tr>
 334:Generated_Source\PSoC6\pdl\drivers/peripheral/scb/cy_scb_uart.h **** *     <td>2.10</td>
 335:Generated_Source\PSoC6\pdl\drivers/peripheral/scb/cy_scb_uart.h **** *     <td>None.</td>
 336:Generated_Source\PSoC6\pdl\drivers/peripheral/scb/cy_scb_uart.h **** *     <td>SCB I2C driver updated.</td>
 337:Generated_Source\PSoC6\pdl\drivers/peripheral/scb/cy_scb_uart.h **** *   </tr>
 338:Generated_Source\PSoC6\pdl\drivers/peripheral/scb/cy_scb_uart.h **** *   <tr>
 339:Generated_Source\PSoC6\pdl\drivers/peripheral/scb/cy_scb_uart.h **** *     <td rowspan="5">2.0</td>
 340:Generated_Source\PSoC6\pdl\drivers/peripheral/scb/cy_scb_uart.h **** *     <td>Added parameters validation for public API.</td>
 341:Generated_Source\PSoC6\pdl\drivers/peripheral/scb/cy_scb_uart.h **** *     <td></td>
 342:Generated_Source\PSoC6\pdl\drivers/peripheral/scb/cy_scb_uart.h **** *   </tr>
 343:Generated_Source\PSoC6\pdl\drivers/peripheral/scb/cy_scb_uart.h **** *   <tr>
 344:Generated_Source\PSoC6\pdl\drivers/peripheral/scb/cy_scb_uart.h **** *     <td>Replaced variables that have limited range of values with enumerated
 345:Generated_Source\PSoC6\pdl\drivers/peripheral/scb/cy_scb_uart.h **** *         types.</td>
 346:Generated_Source\PSoC6\pdl\drivers/peripheral/scb/cy_scb_uart.h **** *     <td></td>
 347:Generated_Source\PSoC6\pdl\drivers/peripheral/scb/cy_scb_uart.h **** *   </tr>
 348:Generated_Source\PSoC6\pdl\drivers/peripheral/scb/cy_scb_uart.h **** *   <tr>
 349:Generated_Source\PSoC6\pdl\drivers/peripheral/scb/cy_scb_uart.h **** *     <td>Added missing "cy_cb_" to the callback function type names.</td>
 350:Generated_Source\PSoC6\pdl\drivers/peripheral/scb/cy_scb_uart.h **** *     <td></td>
 351:Generated_Source\PSoC6\pdl\drivers/peripheral/scb/cy_scb_uart.h **** *   </tr>
 352:Generated_Source\PSoC6\pdl\drivers/peripheral/scb/cy_scb_uart.h **** *   <tr>
 353:Generated_Source\PSoC6\pdl\drivers/peripheral/scb/cy_scb_uart.h **** *     <td>Added function \ref Cy_SCB_UART_SendBreakBlocking for break condition
 354:Generated_Source\PSoC6\pdl\drivers/peripheral/scb/cy_scb_uart.h **** *         generation.</td>
 355:Generated_Source\PSoC6\pdl\drivers/peripheral/scb/cy_scb_uart.h **** *     <td></td>
 356:Generated_Source\PSoC6\pdl\drivers/peripheral/scb/cy_scb_uart.h **** *   </tr>
 357:Generated_Source\PSoC6\pdl\drivers/peripheral/scb/cy_scb_uart.h **** *   <tr>
 358:Generated_Source\PSoC6\pdl\drivers/peripheral/scb/cy_scb_uart.h **** *     <td>Fixed low power callbacks \ref Cy_SCB_UART_DeepSleepCallback and
 359:Generated_Source\PSoC6\pdl\drivers/peripheral/scb/cy_scb_uart.h **** *         \ref Cy_SCB_UART_HibernateCallback to prevent the device from entering
 360:Generated_Source\PSoC6\pdl\drivers/peripheral/scb/cy_scb_uart.h **** *         low power mode when RX FIFO is not empty.</td>
 361:Generated_Source\PSoC6\pdl\drivers/peripheral/scb/cy_scb_uart.h **** *     <td>The callbacks allowed entering device into low power mode when RX FIFO
ARM GAS  C:\Users\gab_1\AppData\Local\Temp\ccTtYdci.s 			page 35


 362:Generated_Source\PSoC6\pdl\drivers/peripheral/scb/cy_scb_uart.h **** *         had data.</td>
 363:Generated_Source\PSoC6\pdl\drivers/peripheral/scb/cy_scb_uart.h **** *   </tr>
 364:Generated_Source\PSoC6\pdl\drivers/peripheral/scb/cy_scb_uart.h **** *   <tr>
 365:Generated_Source\PSoC6\pdl\drivers/peripheral/scb/cy_scb_uart.h **** *     <td>1.0</td>
 366:Generated_Source\PSoC6\pdl\drivers/peripheral/scb/cy_scb_uart.h **** *     <td>Initial version.</td>
 367:Generated_Source\PSoC6\pdl\drivers/peripheral/scb/cy_scb_uart.h **** *     <td></td>
 368:Generated_Source\PSoC6\pdl\drivers/peripheral/scb/cy_scb_uart.h **** *   </tr>
 369:Generated_Source\PSoC6\pdl\drivers/peripheral/scb/cy_scb_uart.h **** * </table>
 370:Generated_Source\PSoC6\pdl\drivers/peripheral/scb/cy_scb_uart.h **** *
 371:Generated_Source\PSoC6\pdl\drivers/peripheral/scb/cy_scb_uart.h **** * \defgroup group_scb_uart_macros Macros
 372:Generated_Source\PSoC6\pdl\drivers/peripheral/scb/cy_scb_uart.h **** * \defgroup group_scb_uart_functions Functions
 373:Generated_Source\PSoC6\pdl\drivers/peripheral/scb/cy_scb_uart.h **** * \{
 374:Generated_Source\PSoC6\pdl\drivers/peripheral/scb/cy_scb_uart.h **** * \defgroup group_scb_uart_general_functions General
 375:Generated_Source\PSoC6\pdl\drivers/peripheral/scb/cy_scb_uart.h **** * \defgroup group_scb_uart_high_level_functions High-Level
 376:Generated_Source\PSoC6\pdl\drivers/peripheral/scb/cy_scb_uart.h **** * \defgroup group_scb_uart_low_level_functions Low-Level
 377:Generated_Source\PSoC6\pdl\drivers/peripheral/scb/cy_scb_uart.h **** * \defgroup group_scb_uart_interrupt_functions Interrupt
 378:Generated_Source\PSoC6\pdl\drivers/peripheral/scb/cy_scb_uart.h **** * \defgroup group_scb_uart_low_power_functions Low Power Callbacks
 379:Generated_Source\PSoC6\pdl\drivers/peripheral/scb/cy_scb_uart.h **** * \}
 380:Generated_Source\PSoC6\pdl\drivers/peripheral/scb/cy_scb_uart.h **** * \defgroup group_scb_uart_data_structures Data Structures
 381:Generated_Source\PSoC6\pdl\drivers/peripheral/scb/cy_scb_uart.h **** * \defgroup group_scb_uart_enums Enumerated Types
 382:Generated_Source\PSoC6\pdl\drivers/peripheral/scb/cy_scb_uart.h **** */
 383:Generated_Source\PSoC6\pdl\drivers/peripheral/scb/cy_scb_uart.h **** 
 384:Generated_Source\PSoC6\pdl\drivers/peripheral/scb/cy_scb_uart.h **** #if !defined(CY_SCB_UART_H)
 385:Generated_Source\PSoC6\pdl\drivers/peripheral/scb/cy_scb_uart.h **** #define CY_SCB_UART_H
 386:Generated_Source\PSoC6\pdl\drivers/peripheral/scb/cy_scb_uart.h **** 
 387:Generated_Source\PSoC6\pdl\drivers/peripheral/scb/cy_scb_uart.h **** #include "cy_scb_common.h"
 388:Generated_Source\PSoC6\pdl\drivers/peripheral/scb/cy_scb_uart.h **** 
 389:Generated_Source\PSoC6\pdl\drivers/peripheral/scb/cy_scb_uart.h **** #if defined(__cplusplus)
 390:Generated_Source\PSoC6\pdl\drivers/peripheral/scb/cy_scb_uart.h **** extern "C" {
 391:Generated_Source\PSoC6\pdl\drivers/peripheral/scb/cy_scb_uart.h **** #endif
 392:Generated_Source\PSoC6\pdl\drivers/peripheral/scb/cy_scb_uart.h **** 
 393:Generated_Source\PSoC6\pdl\drivers/peripheral/scb/cy_scb_uart.h **** /***************************************
 394:Generated_Source\PSoC6\pdl\drivers/peripheral/scb/cy_scb_uart.h **** *          Enumerated Types
 395:Generated_Source\PSoC6\pdl\drivers/peripheral/scb/cy_scb_uart.h **** ***************************************/
 396:Generated_Source\PSoC6\pdl\drivers/peripheral/scb/cy_scb_uart.h **** 
 397:Generated_Source\PSoC6\pdl\drivers/peripheral/scb/cy_scb_uart.h **** /**
 398:Generated_Source\PSoC6\pdl\drivers/peripheral/scb/cy_scb_uart.h **** * \addtogroup group_scb_uart_enums
 399:Generated_Source\PSoC6\pdl\drivers/peripheral/scb/cy_scb_uart.h **** * \{
 400:Generated_Source\PSoC6\pdl\drivers/peripheral/scb/cy_scb_uart.h **** */
 401:Generated_Source\PSoC6\pdl\drivers/peripheral/scb/cy_scb_uart.h **** 
 402:Generated_Source\PSoC6\pdl\drivers/peripheral/scb/cy_scb_uart.h **** /** UART status codes */
 403:Generated_Source\PSoC6\pdl\drivers/peripheral/scb/cy_scb_uart.h **** typedef enum
 404:Generated_Source\PSoC6\pdl\drivers/peripheral/scb/cy_scb_uart.h **** {
 405:Generated_Source\PSoC6\pdl\drivers/peripheral/scb/cy_scb_uart.h ****     /** Operation completed successfully */
 406:Generated_Source\PSoC6\pdl\drivers/peripheral/scb/cy_scb_uart.h ****     CY_SCB_UART_SUCCESS = 0U,
 407:Generated_Source\PSoC6\pdl\drivers/peripheral/scb/cy_scb_uart.h **** 
 408:Generated_Source\PSoC6\pdl\drivers/peripheral/scb/cy_scb_uart.h ****     /** One or more of input parameters are invalid */
 409:Generated_Source\PSoC6\pdl\drivers/peripheral/scb/cy_scb_uart.h ****     CY_SCB_UART_BAD_PARAM = (CY_SCB_ID | CY_PDL_STATUS_ERROR | CY_SCB_UART_ID | 1U),
 410:Generated_Source\PSoC6\pdl\drivers/peripheral/scb/cy_scb_uart.h **** 
 411:Generated_Source\PSoC6\pdl\drivers/peripheral/scb/cy_scb_uart.h ****     /**
 412:Generated_Source\PSoC6\pdl\drivers/peripheral/scb/cy_scb_uart.h ****     * The UART is busy processing a receive operation.
 413:Generated_Source\PSoC6\pdl\drivers/peripheral/scb/cy_scb_uart.h ****     */
 414:Generated_Source\PSoC6\pdl\drivers/peripheral/scb/cy_scb_uart.h ****     CY_SCB_UART_RECEIVE_BUSY = (CY_SCB_ID | CY_PDL_STATUS_ERROR | CY_SCB_UART_ID | 2U),
 415:Generated_Source\PSoC6\pdl\drivers/peripheral/scb/cy_scb_uart.h **** 
 416:Generated_Source\PSoC6\pdl\drivers/peripheral/scb/cy_scb_uart.h ****     /**
 417:Generated_Source\PSoC6\pdl\drivers/peripheral/scb/cy_scb_uart.h ****     * The UART is busy processing a transmit operation.
 418:Generated_Source\PSoC6\pdl\drivers/peripheral/scb/cy_scb_uart.h ****     */
ARM GAS  C:\Users\gab_1\AppData\Local\Temp\ccTtYdci.s 			page 36


 419:Generated_Source\PSoC6\pdl\drivers/peripheral/scb/cy_scb_uart.h ****     CY_SCB_UART_TRANSMIT_BUSY = (CY_SCB_ID | CY_PDL_STATUS_ERROR | CY_SCB_UART_ID | 3U)
 420:Generated_Source\PSoC6\pdl\drivers/peripheral/scb/cy_scb_uart.h **** } cy_en_scb_uart_status_t;
 421:Generated_Source\PSoC6\pdl\drivers/peripheral/scb/cy_scb_uart.h **** 
 422:Generated_Source\PSoC6\pdl\drivers/peripheral/scb/cy_scb_uart.h **** /** UART Mode */
 423:Generated_Source\PSoC6\pdl\drivers/peripheral/scb/cy_scb_uart.h **** typedef enum
 424:Generated_Source\PSoC6\pdl\drivers/peripheral/scb/cy_scb_uart.h **** {
 425:Generated_Source\PSoC6\pdl\drivers/peripheral/scb/cy_scb_uart.h ****     CY_SCB_UART_STANDARD  = 0U, /**< Configures the SCB for Standard UART operation */
 426:Generated_Source\PSoC6\pdl\drivers/peripheral/scb/cy_scb_uart.h ****     CY_SCB_UART_SMARTCARD = 1U, /**< Configures the SCB for SmartCard operation */
 427:Generated_Source\PSoC6\pdl\drivers/peripheral/scb/cy_scb_uart.h ****     CY_SCB_UART_IRDA      = 2U, /**< Configures the SCB for IrDA operation */
 428:Generated_Source\PSoC6\pdl\drivers/peripheral/scb/cy_scb_uart.h **** } cy_en_scb_uart_mode_t;
 429:Generated_Source\PSoC6\pdl\drivers/peripheral/scb/cy_scb_uart.h **** 
 430:Generated_Source\PSoC6\pdl\drivers/peripheral/scb/cy_scb_uart.h **** /** UART Stop Bits */
 431:Generated_Source\PSoC6\pdl\drivers/peripheral/scb/cy_scb_uart.h **** typedef enum
 432:Generated_Source\PSoC6\pdl\drivers/peripheral/scb/cy_scb_uart.h **** {
 433:Generated_Source\PSoC6\pdl\drivers/peripheral/scb/cy_scb_uart.h ****     CY_SCB_UART_STOP_BITS_1   = 2U,  /**< UART looks for 1 Stop Bit    */
 434:Generated_Source\PSoC6\pdl\drivers/peripheral/scb/cy_scb_uart.h ****     CY_SCB_UART_STOP_BITS_1_5 = 3U,  /**< UART looks for 1.5 Stop Bits */
 435:Generated_Source\PSoC6\pdl\drivers/peripheral/scb/cy_scb_uart.h ****     CY_SCB_UART_STOP_BITS_2   = 4U,  /**< UART looks for 2 Stop Bits   */
 436:Generated_Source\PSoC6\pdl\drivers/peripheral/scb/cy_scb_uart.h ****     CY_SCB_UART_STOP_BITS_2_5 = 5U,  /**< UART looks for 2.5 Stop Bits */
 437:Generated_Source\PSoC6\pdl\drivers/peripheral/scb/cy_scb_uart.h ****     CY_SCB_UART_STOP_BITS_3   = 6U,  /**< UART looks for 3 Stop Bits   */
 438:Generated_Source\PSoC6\pdl\drivers/peripheral/scb/cy_scb_uart.h ****     CY_SCB_UART_STOP_BITS_3_5 = 7U,  /**< UART looks for 3.5 Stop Bits */
 439:Generated_Source\PSoC6\pdl\drivers/peripheral/scb/cy_scb_uart.h ****     CY_SCB_UART_STOP_BITS_4   = 8U,  /**< UART looks for 4 Stop Bits   */
 440:Generated_Source\PSoC6\pdl\drivers/peripheral/scb/cy_scb_uart.h **** } cy_en_scb_uart_stop_bits_t;
 441:Generated_Source\PSoC6\pdl\drivers/peripheral/scb/cy_scb_uart.h **** 
 442:Generated_Source\PSoC6\pdl\drivers/peripheral/scb/cy_scb_uart.h **** /** UART Parity */
 443:Generated_Source\PSoC6\pdl\drivers/peripheral/scb/cy_scb_uart.h **** typedef enum
 444:Generated_Source\PSoC6\pdl\drivers/peripheral/scb/cy_scb_uart.h **** {
 445:Generated_Source\PSoC6\pdl\drivers/peripheral/scb/cy_scb_uart.h ****     CY_SCB_UART_PARITY_NONE = 0U,    /**< UART has no parity check   */
 446:Generated_Source\PSoC6\pdl\drivers/peripheral/scb/cy_scb_uart.h ****     CY_SCB_UART_PARITY_EVEN = 2U,    /**< UART has even parity check */
 447:Generated_Source\PSoC6\pdl\drivers/peripheral/scb/cy_scb_uart.h ****     CY_SCB_UART_PARITY_ODD  = 3U,    /**< UART has odd parity check  */
 448:Generated_Source\PSoC6\pdl\drivers/peripheral/scb/cy_scb_uart.h **** } cy_en_scb_uart_parity_t;
 449:Generated_Source\PSoC6\pdl\drivers/peripheral/scb/cy_scb_uart.h **** 
 450:Generated_Source\PSoC6\pdl\drivers/peripheral/scb/cy_scb_uart.h **** /** UART Polarity */
 451:Generated_Source\PSoC6\pdl\drivers/peripheral/scb/cy_scb_uart.h **** typedef enum
 452:Generated_Source\PSoC6\pdl\drivers/peripheral/scb/cy_scb_uart.h **** {
 453:Generated_Source\PSoC6\pdl\drivers/peripheral/scb/cy_scb_uart.h ****     CY_SCB_UART_ACTIVE_LOW  = 0U,   /**< Signal is active low */
 454:Generated_Source\PSoC6\pdl\drivers/peripheral/scb/cy_scb_uart.h ****     CY_SCB_UART_ACTIVE_HIGH = 1U,   /**< Signal is active high */
 455:Generated_Source\PSoC6\pdl\drivers/peripheral/scb/cy_scb_uart.h **** } cy_en_scb_uart_polarity_t;
 456:Generated_Source\PSoC6\pdl\drivers/peripheral/scb/cy_scb_uart.h **** /** \} group_scb_uart_enums */
 457:Generated_Source\PSoC6\pdl\drivers/peripheral/scb/cy_scb_uart.h **** 
 458:Generated_Source\PSoC6\pdl\drivers/peripheral/scb/cy_scb_uart.h **** 
 459:Generated_Source\PSoC6\pdl\drivers/peripheral/scb/cy_scb_uart.h **** /*******************************************************************************
 460:Generated_Source\PSoC6\pdl\drivers/peripheral/scb/cy_scb_uart.h **** *                           Type Definitions
 461:Generated_Source\PSoC6\pdl\drivers/peripheral/scb/cy_scb_uart.h **** *******************************************************************************/
 462:Generated_Source\PSoC6\pdl\drivers/peripheral/scb/cy_scb_uart.h **** 
 463:Generated_Source\PSoC6\pdl\drivers/peripheral/scb/cy_scb_uart.h **** /**
 464:Generated_Source\PSoC6\pdl\drivers/peripheral/scb/cy_scb_uart.h **** * \addtogroup group_scb_uart_data_structures
 465:Generated_Source\PSoC6\pdl\drivers/peripheral/scb/cy_scb_uart.h **** * \{
 466:Generated_Source\PSoC6\pdl\drivers/peripheral/scb/cy_scb_uart.h **** */
 467:Generated_Source\PSoC6\pdl\drivers/peripheral/scb/cy_scb_uart.h **** 
 468:Generated_Source\PSoC6\pdl\drivers/peripheral/scb/cy_scb_uart.h **** /**
 469:Generated_Source\PSoC6\pdl\drivers/peripheral/scb/cy_scb_uart.h **** * Provides the typedef for the callback function called in the
 470:Generated_Source\PSoC6\pdl\drivers/peripheral/scb/cy_scb_uart.h **** * \ref Cy_SCB_UART_Interrupt to notify the user about occurrences of
 471:Generated_Source\PSoC6\pdl\drivers/peripheral/scb/cy_scb_uart.h **** * \ref group_scb_uart_macros_callback_events.
 472:Generated_Source\PSoC6\pdl\drivers/peripheral/scb/cy_scb_uart.h **** */
 473:Generated_Source\PSoC6\pdl\drivers/peripheral/scb/cy_scb_uart.h **** typedef void (* cy_cb_scb_uart_handle_events_t)(uint32_t event);
 474:Generated_Source\PSoC6\pdl\drivers/peripheral/scb/cy_scb_uart.h **** 
 475:Generated_Source\PSoC6\pdl\drivers/peripheral/scb/cy_scb_uart.h **** /** UART configuration structure */
ARM GAS  C:\Users\gab_1\AppData\Local\Temp\ccTtYdci.s 			page 37


 476:Generated_Source\PSoC6\pdl\drivers/peripheral/scb/cy_scb_uart.h **** typedef struct stc_scb_uart_config
 477:Generated_Source\PSoC6\pdl\drivers/peripheral/scb/cy_scb_uart.h **** {
 478:Generated_Source\PSoC6\pdl\drivers/peripheral/scb/cy_scb_uart.h ****     /** Specifies the UART's mode of operation */
 479:Generated_Source\PSoC6\pdl\drivers/peripheral/scb/cy_scb_uart.h ****     cy_en_scb_uart_mode_t    uartMode;
 480:Generated_Source\PSoC6\pdl\drivers/peripheral/scb/cy_scb_uart.h **** 
 481:Generated_Source\PSoC6\pdl\drivers/peripheral/scb/cy_scb_uart.h ****     /**
 482:Generated_Source\PSoC6\pdl\drivers/peripheral/scb/cy_scb_uart.h ****     * Oversample factor for UART.
 483:Generated_Source\PSoC6\pdl\drivers/peripheral/scb/cy_scb_uart.h ****     * * The UART baud rate is the SCB Clock frequency / oversample
 484:Generated_Source\PSoC6\pdl\drivers/peripheral/scb/cy_scb_uart.h ****     *  (valid range is 8-16).
 485:Generated_Source\PSoC6\pdl\drivers/peripheral/scb/cy_scb_uart.h ****     * * For IrDA, the oversample is always 16, unless
 486:Generated_Source\PSoC6\pdl\drivers/peripheral/scb/cy_scb_uart.h ****     * \ref irdaEnableLowPowerReceiver is enabled. Then the oversample is
 487:Generated_Source\PSoC6\pdl\drivers/peripheral/scb/cy_scb_uart.h ****     * reduced to the \ref group_scb_uart_macros_irda_lp_ovs set.
 488:Generated_Source\PSoC6\pdl\drivers/peripheral/scb/cy_scb_uart.h ****     */
 489:Generated_Source\PSoC6\pdl\drivers/peripheral/scb/cy_scb_uart.h ****     uint32_t    oversample;
 490:Generated_Source\PSoC6\pdl\drivers/peripheral/scb/cy_scb_uart.h **** 
 491:Generated_Source\PSoC6\pdl\drivers/peripheral/scb/cy_scb_uart.h ****     /** The width of UART data (valid range is 5 to 9) */
 492:Generated_Source\PSoC6\pdl\drivers/peripheral/scb/cy_scb_uart.h ****     uint32_t    dataWidth;
 493:Generated_Source\PSoC6\pdl\drivers/peripheral/scb/cy_scb_uart.h **** 
 494:Generated_Source\PSoC6\pdl\drivers/peripheral/scb/cy_scb_uart.h ****     /**
 495:Generated_Source\PSoC6\pdl\drivers/peripheral/scb/cy_scb_uart.h ****     * Enables the hardware to shift out data element MSB first; otherwise,
 496:Generated_Source\PSoC6\pdl\drivers/peripheral/scb/cy_scb_uart.h ****     * LSB first
 497:Generated_Source\PSoC6\pdl\drivers/peripheral/scb/cy_scb_uart.h ****     */
 498:Generated_Source\PSoC6\pdl\drivers/peripheral/scb/cy_scb_uart.h ****     bool        enableMsbFirst;
 499:Generated_Source\PSoC6\pdl\drivers/peripheral/scb/cy_scb_uart.h **** 
 500:Generated_Source\PSoC6\pdl\drivers/peripheral/scb/cy_scb_uart.h ****     /**
 501:Generated_Source\PSoC6\pdl\drivers/peripheral/scb/cy_scb_uart.h ****     * Specifies the number of stop bits in the UART transaction, in half-bit
 502:Generated_Source\PSoC6\pdl\drivers/peripheral/scb/cy_scb_uart.h ****     * increments
 503:Generated_Source\PSoC6\pdl\drivers/peripheral/scb/cy_scb_uart.h ****     */
 504:Generated_Source\PSoC6\pdl\drivers/peripheral/scb/cy_scb_uart.h ****     cy_en_scb_uart_stop_bits_t    stopBits;
 505:Generated_Source\PSoC6\pdl\drivers/peripheral/scb/cy_scb_uart.h **** 
 506:Generated_Source\PSoC6\pdl\drivers/peripheral/scb/cy_scb_uart.h ****     /** Configures the UART parity */
 507:Generated_Source\PSoC6\pdl\drivers/peripheral/scb/cy_scb_uart.h ****     cy_en_scb_uart_parity_t    parity;
 508:Generated_Source\PSoC6\pdl\drivers/peripheral/scb/cy_scb_uart.h **** 
 509:Generated_Source\PSoC6\pdl\drivers/peripheral/scb/cy_scb_uart.h ****     /**
 510:Generated_Source\PSoC6\pdl\drivers/peripheral/scb/cy_scb_uart.h ****     * Enables a digital 3-tap median filter (2 out of 3 voting) to be applied 
 511:Generated_Source\PSoC6\pdl\drivers/peripheral/scb/cy_scb_uart.h ****     * to the input of the RX FIFO to filter glitches on the line (for IrDA, 
 512:Generated_Source\PSoC6\pdl\drivers/peripheral/scb/cy_scb_uart.h ****     * this parameter is ignored)
 513:Generated_Source\PSoC6\pdl\drivers/peripheral/scb/cy_scb_uart.h ****     *
 514:Generated_Source\PSoC6\pdl\drivers/peripheral/scb/cy_scb_uart.h ****     */
 515:Generated_Source\PSoC6\pdl\drivers/peripheral/scb/cy_scb_uart.h ****     bool        enableInputFilter;
 516:Generated_Source\PSoC6\pdl\drivers/peripheral/scb/cy_scb_uart.h **** 
 517:Generated_Source\PSoC6\pdl\drivers/peripheral/scb/cy_scb_uart.h ****     /**
 518:Generated_Source\PSoC6\pdl\drivers/peripheral/scb/cy_scb_uart.h ****     * Enables the hardware to drop data in the RX FIFO when a parity error is
 519:Generated_Source\PSoC6\pdl\drivers/peripheral/scb/cy_scb_uart.h ****     * detected
 520:Generated_Source\PSoC6\pdl\drivers/peripheral/scb/cy_scb_uart.h ****     */
 521:Generated_Source\PSoC6\pdl\drivers/peripheral/scb/cy_scb_uart.h ****     bool        dropOnParityError;
 522:Generated_Source\PSoC6\pdl\drivers/peripheral/scb/cy_scb_uart.h **** 
 523:Generated_Source\PSoC6\pdl\drivers/peripheral/scb/cy_scb_uart.h ****     /**
 524:Generated_Source\PSoC6\pdl\drivers/peripheral/scb/cy_scb_uart.h ****     * Enables the hardware to drop data in the RX FIFO when a frame error is
 525:Generated_Source\PSoC6\pdl\drivers/peripheral/scb/cy_scb_uart.h ****     * detected
 526:Generated_Source\PSoC6\pdl\drivers/peripheral/scb/cy_scb_uart.h ****     */
 527:Generated_Source\PSoC6\pdl\drivers/peripheral/scb/cy_scb_uart.h ****     bool        dropOnFrameError;
 528:Generated_Source\PSoC6\pdl\drivers/peripheral/scb/cy_scb_uart.h **** 
 529:Generated_Source\PSoC6\pdl\drivers/peripheral/scb/cy_scb_uart.h ****     /**
 530:Generated_Source\PSoC6\pdl\drivers/peripheral/scb/cy_scb_uart.h ****     * Enables the UART operation in Multi-Processor mode which requires
 531:Generated_Source\PSoC6\pdl\drivers/peripheral/scb/cy_scb_uart.h ****     * dataWidth to be 9 bits (the 9th bit is used to indicate address byte)
 532:Generated_Source\PSoC6\pdl\drivers/peripheral/scb/cy_scb_uart.h ****     */
ARM GAS  C:\Users\gab_1\AppData\Local\Temp\ccTtYdci.s 			page 38


 533:Generated_Source\PSoC6\pdl\drivers/peripheral/scb/cy_scb_uart.h ****     bool        enableMutliProcessorMode;
 534:Generated_Source\PSoC6\pdl\drivers/peripheral/scb/cy_scb_uart.h **** 
 535:Generated_Source\PSoC6\pdl\drivers/peripheral/scb/cy_scb_uart.h ****     /**
 536:Generated_Source\PSoC6\pdl\drivers/peripheral/scb/cy_scb_uart.h ****     * If Multi Processor mode is enabled, this is the address of the RX
 537:Generated_Source\PSoC6\pdl\drivers/peripheral/scb/cy_scb_uart.h ****     * FIFO. If the address matches, data is accepted into the FIFO. If
 538:Generated_Source\PSoC6\pdl\drivers/peripheral/scb/cy_scb_uart.h ****     * it does not match, the data is ignored.
 539:Generated_Source\PSoC6\pdl\drivers/peripheral/scb/cy_scb_uart.h ****     */
 540:Generated_Source\PSoC6\pdl\drivers/peripheral/scb/cy_scb_uart.h ****     uint32_t    receiverAddress;
 541:Generated_Source\PSoC6\pdl\drivers/peripheral/scb/cy_scb_uart.h **** 
 542:Generated_Source\PSoC6\pdl\drivers/peripheral/scb/cy_scb_uart.h ****     /**
 543:Generated_Source\PSoC6\pdl\drivers/peripheral/scb/cy_scb_uart.h ****     * This is the address mask for the Multi Processor address. 1 indicates
 544:Generated_Source\PSoC6\pdl\drivers/peripheral/scb/cy_scb_uart.h ****     * that the incoming address must match the corresponding bit in the slave
 545:Generated_Source\PSoC6\pdl\drivers/peripheral/scb/cy_scb_uart.h ****     * address. A 0 in the mask indicates that the incoming address does
 546:Generated_Source\PSoC6\pdl\drivers/peripheral/scb/cy_scb_uart.h ****     * not need to match.
 547:Generated_Source\PSoC6\pdl\drivers/peripheral/scb/cy_scb_uart.h ****     */
 548:Generated_Source\PSoC6\pdl\drivers/peripheral/scb/cy_scb_uart.h ****     uint32_t    receiverAddressMask;
 549:Generated_Source\PSoC6\pdl\drivers/peripheral/scb/cy_scb_uart.h **** 
 550:Generated_Source\PSoC6\pdl\drivers/peripheral/scb/cy_scb_uart.h ****     /**
 551:Generated_Source\PSoC6\pdl\drivers/peripheral/scb/cy_scb_uart.h ****     * Enables the hardware to accept the matching address in the RX FIFO.
 552:Generated_Source\PSoC6\pdl\drivers/peripheral/scb/cy_scb_uart.h ****     * This is useful when the device supports more than one address.
 553:Generated_Source\PSoC6\pdl\drivers/peripheral/scb/cy_scb_uart.h ****     */
 554:Generated_Source\PSoC6\pdl\drivers/peripheral/scb/cy_scb_uart.h ****     bool        acceptAddrInFifo;
 555:Generated_Source\PSoC6\pdl\drivers/peripheral/scb/cy_scb_uart.h **** 
 556:Generated_Source\PSoC6\pdl\drivers/peripheral/scb/cy_scb_uart.h ****     /** Inverts the IrDA RX input */
 557:Generated_Source\PSoC6\pdl\drivers/peripheral/scb/cy_scb_uart.h ****     bool        irdaInvertRx;
 558:Generated_Source\PSoC6\pdl\drivers/peripheral/scb/cy_scb_uart.h **** 
 559:Generated_Source\PSoC6\pdl\drivers/peripheral/scb/cy_scb_uart.h ****     /**
 560:Generated_Source\PSoC6\pdl\drivers/peripheral/scb/cy_scb_uart.h ****     * Enables the low-power receive for IrDA mode.
 561:Generated_Source\PSoC6\pdl\drivers/peripheral/scb/cy_scb_uart.h ****     * Note that the transmission must be disabled if this mode is enabled.
 562:Generated_Source\PSoC6\pdl\drivers/peripheral/scb/cy_scb_uart.h ****     */
 563:Generated_Source\PSoC6\pdl\drivers/peripheral/scb/cy_scb_uart.h ****     bool        irdaEnableLowPowerReceiver;
 564:Generated_Source\PSoC6\pdl\drivers/peripheral/scb/cy_scb_uart.h **** 
 565:Generated_Source\PSoC6\pdl\drivers/peripheral/scb/cy_scb_uart.h ****     /**
 566:Generated_Source\PSoC6\pdl\drivers/peripheral/scb/cy_scb_uart.h ****     * Enables retransmission of the frame placed in the TX FIFO when
 567:Generated_Source\PSoC6\pdl\drivers/peripheral/scb/cy_scb_uart.h ****     * NACK is received in SmartCard mode (for Standard and IrDA , this parameter
 568:Generated_Source\PSoC6\pdl\drivers/peripheral/scb/cy_scb_uart.h ****     * is ignored)
 569:Generated_Source\PSoC6\pdl\drivers/peripheral/scb/cy_scb_uart.h ****     */
 570:Generated_Source\PSoC6\pdl\drivers/peripheral/scb/cy_scb_uart.h ****     bool        smartCardRetryOnNack;
 571:Generated_Source\PSoC6\pdl\drivers/peripheral/scb/cy_scb_uart.h **** 
 572:Generated_Source\PSoC6\pdl\drivers/peripheral/scb/cy_scb_uart.h ****     /**
 573:Generated_Source\PSoC6\pdl\drivers/peripheral/scb/cy_scb_uart.h ****     * Enables the usage of the CTS input signal for the transmitter. The
 574:Generated_Source\PSoC6\pdl\drivers/peripheral/scb/cy_scb_uart.h ****     * transmitter waits for CTS to be active before sending data
 575:Generated_Source\PSoC6\pdl\drivers/peripheral/scb/cy_scb_uart.h ****     */
 576:Generated_Source\PSoC6\pdl\drivers/peripheral/scb/cy_scb_uart.h ****     bool        enableCts;
 577:Generated_Source\PSoC6\pdl\drivers/peripheral/scb/cy_scb_uart.h **** 
 578:Generated_Source\PSoC6\pdl\drivers/peripheral/scb/cy_scb_uart.h ****     /** Sets the CTS Polarity */
 579:Generated_Source\PSoC6\pdl\drivers/peripheral/scb/cy_scb_uart.h ****     cy_en_scb_uart_polarity_t    ctsPolarity;
 580:Generated_Source\PSoC6\pdl\drivers/peripheral/scb/cy_scb_uart.h **** 
 581:Generated_Source\PSoC6\pdl\drivers/peripheral/scb/cy_scb_uart.h ****     /**
 582:Generated_Source\PSoC6\pdl\drivers/peripheral/scb/cy_scb_uart.h ****     * When the RX FIFO has fewer entries than rtsRxFifoLevel, the
 583:Generated_Source\PSoC6\pdl\drivers/peripheral/scb/cy_scb_uart.h ****     * RTS signal is active (note to disable RTS, set this field to zero)
 584:Generated_Source\PSoC6\pdl\drivers/peripheral/scb/cy_scb_uart.h ****     */
 585:Generated_Source\PSoC6\pdl\drivers/peripheral/scb/cy_scb_uart.h ****     uint32_t    rtsRxFifoLevel;
 586:Generated_Source\PSoC6\pdl\drivers/peripheral/scb/cy_scb_uart.h **** 
 587:Generated_Source\PSoC6\pdl\drivers/peripheral/scb/cy_scb_uart.h ****     /** Sets the RTS Polarity */
 588:Generated_Source\PSoC6\pdl\drivers/peripheral/scb/cy_scb_uart.h ****     cy_en_scb_uart_polarity_t    rtsPolarity;
 589:Generated_Source\PSoC6\pdl\drivers/peripheral/scb/cy_scb_uart.h **** 
ARM GAS  C:\Users\gab_1\AppData\Local\Temp\ccTtYdci.s 			page 39


 590:Generated_Source\PSoC6\pdl\drivers/peripheral/scb/cy_scb_uart.h ****     /** Specifies the number of bits to detect a break condition */
 591:Generated_Source\PSoC6\pdl\drivers/peripheral/scb/cy_scb_uart.h ****     uint32_t    breakWidth;
 592:Generated_Source\PSoC6\pdl\drivers/peripheral/scb/cy_scb_uart.h **** 
 593:Generated_Source\PSoC6\pdl\drivers/peripheral/scb/cy_scb_uart.h ****     /**
 594:Generated_Source\PSoC6\pdl\drivers/peripheral/scb/cy_scb_uart.h ****     * When there are more entries in the RX FIFO than this level
 595:Generated_Source\PSoC6\pdl\drivers/peripheral/scb/cy_scb_uart.h ****     * the RX trigger output goes high. This output can be connected
 596:Generated_Source\PSoC6\pdl\drivers/peripheral/scb/cy_scb_uart.h ****     * to a DMA channel through a trigger mux.
 597:Generated_Source\PSoC6\pdl\drivers/peripheral/scb/cy_scb_uart.h ****     * Also, it controls the \ref CY_SCB_UART_RX_TRIGGER interrupt source.
 598:Generated_Source\PSoC6\pdl\drivers/peripheral/scb/cy_scb_uart.h ****     */
 599:Generated_Source\PSoC6\pdl\drivers/peripheral/scb/cy_scb_uart.h ****     uint32_t    rxFifoTriggerLevel;
 600:Generated_Source\PSoC6\pdl\drivers/peripheral/scb/cy_scb_uart.h **** 
 601:Generated_Source\PSoC6\pdl\drivers/peripheral/scb/cy_scb_uart.h ****     /**
 602:Generated_Source\PSoC6\pdl\drivers/peripheral/scb/cy_scb_uart.h ****     * The bits set in this mask allow the event to cause an interrupt
 603:Generated_Source\PSoC6\pdl\drivers/peripheral/scb/cy_scb_uart.h ****     * (See \ref group_scb_uart_macros_rx_fifo_status for the set of constants)
 604:Generated_Source\PSoC6\pdl\drivers/peripheral/scb/cy_scb_uart.h ****     */
 605:Generated_Source\PSoC6\pdl\drivers/peripheral/scb/cy_scb_uart.h ****     uint32_t    rxFifoIntEnableMask;
 606:Generated_Source\PSoC6\pdl\drivers/peripheral/scb/cy_scb_uart.h **** 
 607:Generated_Source\PSoC6\pdl\drivers/peripheral/scb/cy_scb_uart.h ****     /**
 608:Generated_Source\PSoC6\pdl\drivers/peripheral/scb/cy_scb_uart.h ****     * When there are fewer entries in the TX FIFO then this level
 609:Generated_Source\PSoC6\pdl\drivers/peripheral/scb/cy_scb_uart.h ****     * the TX trigger output goes high. This output can be connected
 610:Generated_Source\PSoC6\pdl\drivers/peripheral/scb/cy_scb_uart.h ****     * to a DMA channel through a trigger mux.
 611:Generated_Source\PSoC6\pdl\drivers/peripheral/scb/cy_scb_uart.h ****     * Also, it controls \ref CY_SCB_UART_TX_TRIGGER interrupt source.
 612:Generated_Source\PSoC6\pdl\drivers/peripheral/scb/cy_scb_uart.h ****     */
 613:Generated_Source\PSoC6\pdl\drivers/peripheral/scb/cy_scb_uart.h ****     uint32_t    txFifoTriggerLevel;
 614:Generated_Source\PSoC6\pdl\drivers/peripheral/scb/cy_scb_uart.h **** 
 615:Generated_Source\PSoC6\pdl\drivers/peripheral/scb/cy_scb_uart.h ****     /**
 616:Generated_Source\PSoC6\pdl\drivers/peripheral/scb/cy_scb_uart.h ****     * Bits set in this mask allows the event to cause an interrupt
 617:Generated_Source\PSoC6\pdl\drivers/peripheral/scb/cy_scb_uart.h ****     * (See \ref group_scb_uart_macros_tx_fifo_status for the set of constants)
 618:Generated_Source\PSoC6\pdl\drivers/peripheral/scb/cy_scb_uart.h ****     */
 619:Generated_Source\PSoC6\pdl\drivers/peripheral/scb/cy_scb_uart.h ****     uint32_t    txFifoIntEnableMask;
 620:Generated_Source\PSoC6\pdl\drivers/peripheral/scb/cy_scb_uart.h **** } cy_stc_scb_uart_config_t;
 621:Generated_Source\PSoC6\pdl\drivers/peripheral/scb/cy_scb_uart.h **** 
 622:Generated_Source\PSoC6\pdl\drivers/peripheral/scb/cy_scb_uart.h **** /** UART context structure.
 623:Generated_Source\PSoC6\pdl\drivers/peripheral/scb/cy_scb_uart.h **** * All fields for the context structure are internal. Firmware never reads or
 624:Generated_Source\PSoC6\pdl\drivers/peripheral/scb/cy_scb_uart.h **** * writes these values. Firmware allocates the structure and provides the
 625:Generated_Source\PSoC6\pdl\drivers/peripheral/scb/cy_scb_uart.h **** * address of the structure to the driver in function calls. Firmware must
 626:Generated_Source\PSoC6\pdl\drivers/peripheral/scb/cy_scb_uart.h **** * ensure that the defined instance of this structure remains in scope
 627:Generated_Source\PSoC6\pdl\drivers/peripheral/scb/cy_scb_uart.h **** * while the drive is in use.
 628:Generated_Source\PSoC6\pdl\drivers/peripheral/scb/cy_scb_uart.h **** */
 629:Generated_Source\PSoC6\pdl\drivers/peripheral/scb/cy_scb_uart.h **** typedef struct cy_stc_scb_uart_context
 630:Generated_Source\PSoC6\pdl\drivers/peripheral/scb/cy_scb_uart.h **** {
 631:Generated_Source\PSoC6\pdl\drivers/peripheral/scb/cy_scb_uart.h ****     /** \cond INTERNAL */
 632:Generated_Source\PSoC6\pdl\drivers/peripheral/scb/cy_scb_uart.h ****     uint32_t volatile txStatus;         /**< The transmit status */
 633:Generated_Source\PSoC6\pdl\drivers/peripheral/scb/cy_scb_uart.h ****     uint32_t volatile rxStatus;         /**< The receive status */
 634:Generated_Source\PSoC6\pdl\drivers/peripheral/scb/cy_scb_uart.h **** 
 635:Generated_Source\PSoC6\pdl\drivers/peripheral/scb/cy_scb_uart.h ****     void     *rxRingBuf;                /**< The pointer to the ring buffer */
 636:Generated_Source\PSoC6\pdl\drivers/peripheral/scb/cy_scb_uart.h ****     uint32_t  rxRingBufSize;            /**< The ring buffer size */
 637:Generated_Source\PSoC6\pdl\drivers/peripheral/scb/cy_scb_uart.h ****     uint32_t volatile rxRingBufHead;    /**< The ring buffer head index */
 638:Generated_Source\PSoC6\pdl\drivers/peripheral/scb/cy_scb_uart.h ****     uint32_t volatile rxRingBufTail;    /**< The ring buffer tail index */
 639:Generated_Source\PSoC6\pdl\drivers/peripheral/scb/cy_scb_uart.h **** 
 640:Generated_Source\PSoC6\pdl\drivers/peripheral/scb/cy_scb_uart.h ****     void     *rxBuf;                    /**< The pointer to the receive buffer */
 641:Generated_Source\PSoC6\pdl\drivers/peripheral/scb/cy_scb_uart.h ****     uint32_t  rxBufSize;                /**< The receive buffer size */
 642:Generated_Source\PSoC6\pdl\drivers/peripheral/scb/cy_scb_uart.h ****     uint32_t volatile rxBufIdx;         /**< The current location in the receive buffer */
 643:Generated_Source\PSoC6\pdl\drivers/peripheral/scb/cy_scb_uart.h **** 
 644:Generated_Source\PSoC6\pdl\drivers/peripheral/scb/cy_scb_uart.h ****     void     *txBuf;                    /**< The pointer to the transmit buffer */
 645:Generated_Source\PSoC6\pdl\drivers/peripheral/scb/cy_scb_uart.h ****     uint32_t  txBufSize;                /**< The transmit buffer size */
 646:Generated_Source\PSoC6\pdl\drivers/peripheral/scb/cy_scb_uart.h ****     uint32_t volatile txLeftToTransmit; /**< The number of data elements left to be transmitted */
ARM GAS  C:\Users\gab_1\AppData\Local\Temp\ccTtYdci.s 			page 40


 647:Generated_Source\PSoC6\pdl\drivers/peripheral/scb/cy_scb_uart.h **** 
 648:Generated_Source\PSoC6\pdl\drivers/peripheral/scb/cy_scb_uart.h ****     /** The pointer to an event callback that is called when any of
 649:Generated_Source\PSoC6\pdl\drivers/peripheral/scb/cy_scb_uart.h ****     * \ref group_scb_uart_macros_callback_events occurs
 650:Generated_Source\PSoC6\pdl\drivers/peripheral/scb/cy_scb_uart.h ****     */
 651:Generated_Source\PSoC6\pdl\drivers/peripheral/scb/cy_scb_uart.h ****     cy_cb_scb_uart_handle_events_t cbEvents;
 652:Generated_Source\PSoC6\pdl\drivers/peripheral/scb/cy_scb_uart.h **** 
 653:Generated_Source\PSoC6\pdl\drivers/peripheral/scb/cy_scb_uart.h **** #if !defined(NDEBUG)
 654:Generated_Source\PSoC6\pdl\drivers/peripheral/scb/cy_scb_uart.h ****     uint32_t initKey;               /**< Tracks the context initialization */
 655:Generated_Source\PSoC6\pdl\drivers/peripheral/scb/cy_scb_uart.h **** #endif /* !(NDEBUG) */
 656:Generated_Source\PSoC6\pdl\drivers/peripheral/scb/cy_scb_uart.h ****     /** \endcond */
 657:Generated_Source\PSoC6\pdl\drivers/peripheral/scb/cy_scb_uart.h **** } cy_stc_scb_uart_context_t;
 658:Generated_Source\PSoC6\pdl\drivers/peripheral/scb/cy_scb_uart.h **** /** \} group_scb_uart_data_structures */
 659:Generated_Source\PSoC6\pdl\drivers/peripheral/scb/cy_scb_uart.h **** 
 660:Generated_Source\PSoC6\pdl\drivers/peripheral/scb/cy_scb_uart.h **** 
 661:Generated_Source\PSoC6\pdl\drivers/peripheral/scb/cy_scb_uart.h **** /*******************************************************************************
 662:Generated_Source\PSoC6\pdl\drivers/peripheral/scb/cy_scb_uart.h **** *                           Function Prototypes
 663:Generated_Source\PSoC6\pdl\drivers/peripheral/scb/cy_scb_uart.h **** *******************************************************************************/
 664:Generated_Source\PSoC6\pdl\drivers/peripheral/scb/cy_scb_uart.h **** 
 665:Generated_Source\PSoC6\pdl\drivers/peripheral/scb/cy_scb_uart.h **** /**
 666:Generated_Source\PSoC6\pdl\drivers/peripheral/scb/cy_scb_uart.h **** * \addtogroup group_scb_uart_general_functions
 667:Generated_Source\PSoC6\pdl\drivers/peripheral/scb/cy_scb_uart.h **** * \{
 668:Generated_Source\PSoC6\pdl\drivers/peripheral/scb/cy_scb_uart.h **** */
 669:Generated_Source\PSoC6\pdl\drivers/peripheral/scb/cy_scb_uart.h **** cy_en_scb_uart_status_t Cy_SCB_UART_Init(CySCB_Type *base, cy_stc_scb_uart_config_t const *config,
 670:Generated_Source\PSoC6\pdl\drivers/peripheral/scb/cy_scb_uart.h ****                                          cy_stc_scb_uart_context_t *context);
 671:Generated_Source\PSoC6\pdl\drivers/peripheral/scb/cy_scb_uart.h **** void Cy_SCB_UART_DeInit (CySCB_Type *base);
 672:Generated_Source\PSoC6\pdl\drivers/peripheral/scb/cy_scb_uart.h **** __STATIC_INLINE void Cy_SCB_UART_Enable(CySCB_Type *base);
 673:Generated_Source\PSoC6\pdl\drivers/peripheral/scb/cy_scb_uart.h **** void Cy_SCB_UART_Disable(CySCB_Type *base, cy_stc_scb_uart_context_t *context);
 674:Generated_Source\PSoC6\pdl\drivers/peripheral/scb/cy_scb_uart.h **** 
 675:Generated_Source\PSoC6\pdl\drivers/peripheral/scb/cy_scb_uart.h **** __STATIC_INLINE void     Cy_SCB_UART_EnableCts      (CySCB_Type *base);
 676:Generated_Source\PSoC6\pdl\drivers/peripheral/scb/cy_scb_uart.h **** __STATIC_INLINE void     Cy_SCB_UART_DisableCts     (CySCB_Type *base);
 677:Generated_Source\PSoC6\pdl\drivers/peripheral/scb/cy_scb_uart.h **** __STATIC_INLINE void     Cy_SCB_UART_SetRtsFifoLevel(CySCB_Type *base, uint32_t level);
 678:Generated_Source\PSoC6\pdl\drivers/peripheral/scb/cy_scb_uart.h **** __STATIC_INLINE uint32_t Cy_SCB_UART_GetRtsFifoLevel(CySCB_Type const *base);
 679:Generated_Source\PSoC6\pdl\drivers/peripheral/scb/cy_scb_uart.h **** 
 680:Generated_Source\PSoC6\pdl\drivers/peripheral/scb/cy_scb_uart.h **** __STATIC_INLINE void Cy_SCB_UART_EnableSkipStart (CySCB_Type *base);
 681:Generated_Source\PSoC6\pdl\drivers/peripheral/scb/cy_scb_uart.h **** __STATIC_INLINE void Cy_SCB_UART_DisableSkipStart(CySCB_Type *base);
 682:Generated_Source\PSoC6\pdl\drivers/peripheral/scb/cy_scb_uart.h **** /** \} group_scb_uart_general_functions */
 683:Generated_Source\PSoC6\pdl\drivers/peripheral/scb/cy_scb_uart.h **** 
 684:Generated_Source\PSoC6\pdl\drivers/peripheral/scb/cy_scb_uart.h **** /**
 685:Generated_Source\PSoC6\pdl\drivers/peripheral/scb/cy_scb_uart.h **** * \addtogroup group_scb_uart_high_level_functions
 686:Generated_Source\PSoC6\pdl\drivers/peripheral/scb/cy_scb_uart.h **** * \{
 687:Generated_Source\PSoC6\pdl\drivers/peripheral/scb/cy_scb_uart.h **** */
 688:Generated_Source\PSoC6\pdl\drivers/peripheral/scb/cy_scb_uart.h **** void     Cy_SCB_UART_StartRingBuffer   (CySCB_Type *base, void *buffer, uint32_t size,
 689:Generated_Source\PSoC6\pdl\drivers/peripheral/scb/cy_scb_uart.h ****                                         cy_stc_scb_uart_context_t *context);
 690:Generated_Source\PSoC6\pdl\drivers/peripheral/scb/cy_scb_uart.h **** void     Cy_SCB_UART_StopRingBuffer    (CySCB_Type *base, cy_stc_scb_uart_context_t *context);
 691:Generated_Source\PSoC6\pdl\drivers/peripheral/scb/cy_scb_uart.h **** uint32_t Cy_SCB_UART_GetNumInRingBuffer(CySCB_Type const *base, cy_stc_scb_uart_context_t const *co
 692:Generated_Source\PSoC6\pdl\drivers/peripheral/scb/cy_scb_uart.h **** void     Cy_SCB_UART_ClearRingBuffer   (CySCB_Type const *base, cy_stc_scb_uart_context_t *context)
 693:Generated_Source\PSoC6\pdl\drivers/peripheral/scb/cy_scb_uart.h **** 
 694:Generated_Source\PSoC6\pdl\drivers/peripheral/scb/cy_scb_uart.h **** cy_en_scb_uart_status_t Cy_SCB_UART_Receive(CySCB_Type *base, void *buffer, uint32_t size,
 695:Generated_Source\PSoC6\pdl\drivers/peripheral/scb/cy_scb_uart.h ****                                             cy_stc_scb_uart_context_t *context);
 696:Generated_Source\PSoC6\pdl\drivers/peripheral/scb/cy_scb_uart.h **** void     Cy_SCB_UART_AbortReceive    (CySCB_Type *base, cy_stc_scb_uart_context_t *context);
 697:Generated_Source\PSoC6\pdl\drivers/peripheral/scb/cy_scb_uart.h **** uint32_t Cy_SCB_UART_GetReceiveStatus(CySCB_Type const *base, cy_stc_scb_uart_context_t const *cont
 698:Generated_Source\PSoC6\pdl\drivers/peripheral/scb/cy_scb_uart.h **** uint32_t Cy_SCB_UART_GetNumReceived  (CySCB_Type const *base, cy_stc_scb_uart_context_t const *cont
 699:Generated_Source\PSoC6\pdl\drivers/peripheral/scb/cy_scb_uart.h **** 
 700:Generated_Source\PSoC6\pdl\drivers/peripheral/scb/cy_scb_uart.h **** cy_en_scb_uart_status_t Cy_SCB_UART_Transmit(CySCB_Type *base, void *buffer, uint32_t size,
 701:Generated_Source\PSoC6\pdl\drivers/peripheral/scb/cy_scb_uart.h ****                                              cy_stc_scb_uart_context_t *context);
 702:Generated_Source\PSoC6\pdl\drivers/peripheral/scb/cy_scb_uart.h **** void     Cy_SCB_UART_AbortTransmit       (CySCB_Type *base, cy_stc_scb_uart_context_t *context);
 703:Generated_Source\PSoC6\pdl\drivers/peripheral/scb/cy_scb_uart.h **** uint32_t Cy_SCB_UART_GetTransmitStatus   (CySCB_Type const *base, cy_stc_scb_uart_context_t const *
ARM GAS  C:\Users\gab_1\AppData\Local\Temp\ccTtYdci.s 			page 41


 704:Generated_Source\PSoC6\pdl\drivers/peripheral/scb/cy_scb_uart.h **** uint32_t Cy_SCB_UART_GetNumLeftToTransmit(CySCB_Type const *base, cy_stc_scb_uart_context_t const *
 705:Generated_Source\PSoC6\pdl\drivers/peripheral/scb/cy_scb_uart.h **** /** \} group_scb_uart_high_level_functions */
 706:Generated_Source\PSoC6\pdl\drivers/peripheral/scb/cy_scb_uart.h **** 
 707:Generated_Source\PSoC6\pdl\drivers/peripheral/scb/cy_scb_uart.h **** /**
 708:Generated_Source\PSoC6\pdl\drivers/peripheral/scb/cy_scb_uart.h **** * \addtogroup group_scb_uart_low_level_functions
 709:Generated_Source\PSoC6\pdl\drivers/peripheral/scb/cy_scb_uart.h **** * \{
 710:Generated_Source\PSoC6\pdl\drivers/peripheral/scb/cy_scb_uart.h **** */
 711:Generated_Source\PSoC6\pdl\drivers/peripheral/scb/cy_scb_uart.h **** __STATIC_INLINE uint32_t Cy_SCB_UART_Put             (CySCB_Type *base, uint32_t data);
 712:Generated_Source\PSoC6\pdl\drivers/peripheral/scb/cy_scb_uart.h **** __STATIC_INLINE uint32_t Cy_SCB_UART_PutArray        (CySCB_Type *base, void *buffer, uint32_t size
 713:Generated_Source\PSoC6\pdl\drivers/peripheral/scb/cy_scb_uart.h **** __STATIC_INLINE void     Cy_SCB_UART_PutArrayBlocking(CySCB_Type *base, void *buffer, uint32_t size
 714:Generated_Source\PSoC6\pdl\drivers/peripheral/scb/cy_scb_uart.h **** __STATIC_INLINE void     Cy_SCB_UART_PutString       (CySCB_Type *base, char_t const string[]);
 715:Generated_Source\PSoC6\pdl\drivers/peripheral/scb/cy_scb_uart.h **** void Cy_SCB_UART_SendBreakBlocking(CySCB_Type *base, uint32_t breakWidth);
 716:Generated_Source\PSoC6\pdl\drivers/peripheral/scb/cy_scb_uart.h **** 
 717:Generated_Source\PSoC6\pdl\drivers/peripheral/scb/cy_scb_uart.h **** __STATIC_INLINE uint32_t Cy_SCB_UART_Get             (CySCB_Type const *base);
 718:Generated_Source\PSoC6\pdl\drivers/peripheral/scb/cy_scb_uart.h **** __STATIC_INLINE uint32_t Cy_SCB_UART_GetArray        (CySCB_Type const *base, void *buffer, uint32_
 719:Generated_Source\PSoC6\pdl\drivers/peripheral/scb/cy_scb_uart.h **** __STATIC_INLINE void     Cy_SCB_UART_GetArrayBlocking(CySCB_Type const *base, void *buffer, uint32_
 720:Generated_Source\PSoC6\pdl\drivers/peripheral/scb/cy_scb_uart.h **** 
 721:Generated_Source\PSoC6\pdl\drivers/peripheral/scb/cy_scb_uart.h **** __STATIC_INLINE uint32_t Cy_SCB_UART_GetTxFifoStatus  (CySCB_Type const *base);
 722:Generated_Source\PSoC6\pdl\drivers/peripheral/scb/cy_scb_uart.h **** __STATIC_INLINE void     Cy_SCB_UART_ClearTxFifoStatus(CySCB_Type *base, uint32_t clearMask);
 723:Generated_Source\PSoC6\pdl\drivers/peripheral/scb/cy_scb_uart.h **** 
 724:Generated_Source\PSoC6\pdl\drivers/peripheral/scb/cy_scb_uart.h **** __STATIC_INLINE uint32_t Cy_SCB_UART_GetRxFifoStatus  (CySCB_Type const *base);
 725:Generated_Source\PSoC6\pdl\drivers/peripheral/scb/cy_scb_uart.h **** __STATIC_INLINE void     Cy_SCB_UART_ClearRxFifoStatus(CySCB_Type *base, uint32_t clearMask);
 726:Generated_Source\PSoC6\pdl\drivers/peripheral/scb/cy_scb_uart.h **** 
 727:Generated_Source\PSoC6\pdl\drivers/peripheral/scb/cy_scb_uart.h **** __STATIC_INLINE uint32_t Cy_SCB_UART_GetNumInTxFifo   (CySCB_Type const *base);
 728:Generated_Source\PSoC6\pdl\drivers/peripheral/scb/cy_scb_uart.h **** __STATIC_INLINE bool     Cy_SCB_UART_IsTxComplete     (CySCB_Type const *base);
 729:Generated_Source\PSoC6\pdl\drivers/peripheral/scb/cy_scb_uart.h **** 
 730:Generated_Source\PSoC6\pdl\drivers/peripheral/scb/cy_scb_uart.h **** __STATIC_INLINE uint32_t Cy_SCB_UART_GetNumInRxFifo   (CySCB_Type const *base);
 731:Generated_Source\PSoC6\pdl\drivers/peripheral/scb/cy_scb_uart.h **** 
 732:Generated_Source\PSoC6\pdl\drivers/peripheral/scb/cy_scb_uart.h **** __STATIC_INLINE void     Cy_SCB_UART_ClearRxFifo      (CySCB_Type *base);
 733:Generated_Source\PSoC6\pdl\drivers/peripheral/scb/cy_scb_uart.h **** __STATIC_INLINE void     Cy_SCB_UART_ClearTxFifo      (CySCB_Type *base);
 734:Generated_Source\PSoC6\pdl\drivers/peripheral/scb/cy_scb_uart.h **** /** \} group_scb_uart_low_level_functions */
 735:Generated_Source\PSoC6\pdl\drivers/peripheral/scb/cy_scb_uart.h **** 
 736:Generated_Source\PSoC6\pdl\drivers/peripheral/scb/cy_scb_uart.h **** /**
 737:Generated_Source\PSoC6\pdl\drivers/peripheral/scb/cy_scb_uart.h **** * \addtogroup group_scb_uart_interrupt_functions
 738:Generated_Source\PSoC6\pdl\drivers/peripheral/scb/cy_scb_uart.h **** * \{
 739:Generated_Source\PSoC6\pdl\drivers/peripheral/scb/cy_scb_uart.h **** */
 740:Generated_Source\PSoC6\pdl\drivers/peripheral/scb/cy_scb_uart.h **** void Cy_SCB_UART_Interrupt(CySCB_Type *base, cy_stc_scb_uart_context_t *context);
 741:Generated_Source\PSoC6\pdl\drivers/peripheral/scb/cy_scb_uart.h **** 
 742:Generated_Source\PSoC6\pdl\drivers/peripheral/scb/cy_scb_uart.h **** __STATIC_INLINE void Cy_SCB_UART_RegisterCallback(CySCB_Type const *base, cy_cb_scb_uart_handle_eve
 743:Generated_Source\PSoC6\pdl\drivers/peripheral/scb/cy_scb_uart.h ****                                                   cy_stc_scb_uart_context_t *context);
 744:Generated_Source\PSoC6\pdl\drivers/peripheral/scb/cy_scb_uart.h **** /** \} group_scb_uart_interrupt_functions */
 745:Generated_Source\PSoC6\pdl\drivers/peripheral/scb/cy_scb_uart.h **** 
 746:Generated_Source\PSoC6\pdl\drivers/peripheral/scb/cy_scb_uart.h **** /**
 747:Generated_Source\PSoC6\pdl\drivers/peripheral/scb/cy_scb_uart.h **** * \addtogroup group_scb_uart_low_power_functions
 748:Generated_Source\PSoC6\pdl\drivers/peripheral/scb/cy_scb_uart.h **** * \{
 749:Generated_Source\PSoC6\pdl\drivers/peripheral/scb/cy_scb_uart.h **** */
 750:Generated_Source\PSoC6\pdl\drivers/peripheral/scb/cy_scb_uart.h **** cy_en_syspm_status_t Cy_SCB_UART_DeepSleepCallback(cy_stc_syspm_callback_params_t *callbackParams, 
 751:Generated_Source\PSoC6\pdl\drivers/peripheral/scb/cy_scb_uart.h **** cy_en_syspm_status_t Cy_SCB_UART_HibernateCallback(cy_stc_syspm_callback_params_t *callbackParams, 
 752:Generated_Source\PSoC6\pdl\drivers/peripheral/scb/cy_scb_uart.h **** /** \} group_scb_uart_low_power_functions */
 753:Generated_Source\PSoC6\pdl\drivers/peripheral/scb/cy_scb_uart.h **** 
 754:Generated_Source\PSoC6\pdl\drivers/peripheral/scb/cy_scb_uart.h **** 
 755:Generated_Source\PSoC6\pdl\drivers/peripheral/scb/cy_scb_uart.h **** /*******************************************************************************
 756:Generated_Source\PSoC6\pdl\drivers/peripheral/scb/cy_scb_uart.h **** *                               API Constants
 757:Generated_Source\PSoC6\pdl\drivers/peripheral/scb/cy_scb_uart.h **** *******************************************************************************/
 758:Generated_Source\PSoC6\pdl\drivers/peripheral/scb/cy_scb_uart.h **** 
 759:Generated_Source\PSoC6\pdl\drivers/peripheral/scb/cy_scb_uart.h **** /**
 760:Generated_Source\PSoC6\pdl\drivers/peripheral/scb/cy_scb_uart.h **** * \addtogroup group_scb_uart_macros
ARM GAS  C:\Users\gab_1\AppData\Local\Temp\ccTtYdci.s 			page 42


 761:Generated_Source\PSoC6\pdl\drivers/peripheral/scb/cy_scb_uart.h **** * \{
 762:Generated_Source\PSoC6\pdl\drivers/peripheral/scb/cy_scb_uart.h **** */
 763:Generated_Source\PSoC6\pdl\drivers/peripheral/scb/cy_scb_uart.h **** 
 764:Generated_Source\PSoC6\pdl\drivers/peripheral/scb/cy_scb_uart.h **** /**
 765:Generated_Source\PSoC6\pdl\drivers/peripheral/scb/cy_scb_uart.h **** * \defgroup group_scb_uart_macros_irda_lp_ovs UART IRDA Low Power Oversample factors
 766:Generated_Source\PSoC6\pdl\drivers/peripheral/scb/cy_scb_uart.h **** * \{
 767:Generated_Source\PSoC6\pdl\drivers/peripheral/scb/cy_scb_uart.h **** */
 768:Generated_Source\PSoC6\pdl\drivers/peripheral/scb/cy_scb_uart.h **** #define CY_SCB_UART_IRDA_LP_OVS16      (1UL)   /**< IrDA in low-power mode oversampled by 16   */
 769:Generated_Source\PSoC6\pdl\drivers/peripheral/scb/cy_scb_uart.h **** #define CY_SCB_UART_IRDA_LP_OVS32      (2UL)   /**< IrDA in low-power mode oversampled by 32   */
 770:Generated_Source\PSoC6\pdl\drivers/peripheral/scb/cy_scb_uart.h **** #define CY_SCB_UART_IRDA_LP_OVS48      (3UL)   /**< IrDA in low-power mode oversampled by 48   */
 771:Generated_Source\PSoC6\pdl\drivers/peripheral/scb/cy_scb_uart.h **** #define CY_SCB_UART_IRDA_LP_OVS96      (4UL)   /**< IrDA in low-power mode oversampled by 96   */
 772:Generated_Source\PSoC6\pdl\drivers/peripheral/scb/cy_scb_uart.h **** #define CY_SCB_UART_IRDA_LP_OVS192     (5UL)   /**< IrDA in low-power mode oversampled by 192  */
 773:Generated_Source\PSoC6\pdl\drivers/peripheral/scb/cy_scb_uart.h **** #define CY_SCB_UART_IRDA_LP_OVS768     (6UL)   /**< IrDA in low-power mode oversampled by 768  */
 774:Generated_Source\PSoC6\pdl\drivers/peripheral/scb/cy_scb_uart.h **** #define CY_SCB_UART_IRDA_LP_OVS1536    (7UL)   /**< IrDA in low-power mode oversampled by 1536 */
 775:Generated_Source\PSoC6\pdl\drivers/peripheral/scb/cy_scb_uart.h **** /** \} group_scb_uart_macros_irda_lp_ovs */
 776:Generated_Source\PSoC6\pdl\drivers/peripheral/scb/cy_scb_uart.h **** 
 777:Generated_Source\PSoC6\pdl\drivers/peripheral/scb/cy_scb_uart.h **** /**
 778:Generated_Source\PSoC6\pdl\drivers/peripheral/scb/cy_scb_uart.h **** * \defgroup group_scb_uart_macros_rx_fifo_status UART RX FIFO status.
 779:Generated_Source\PSoC6\pdl\drivers/peripheral/scb/cy_scb_uart.h **** * \{
 780:Generated_Source\PSoC6\pdl\drivers/peripheral/scb/cy_scb_uart.h **** * Macros to check UART RX FIFO status returned by \ref Cy_SCB_UART_GetRxFifoStatus
 781:Generated_Source\PSoC6\pdl\drivers/peripheral/scb/cy_scb_uart.h **** * function or assign mask for \ref Cy_SCB_UART_ClearRxFifoStatus function.
 782:Generated_Source\PSoC6\pdl\drivers/peripheral/scb/cy_scb_uart.h **** * Each UART RX FIFO status is encoded in a separate bit, therefore multiple
 783:Generated_Source\PSoC6\pdl\drivers/peripheral/scb/cy_scb_uart.h **** * bits may be set to indicate the current status.
 784:Generated_Source\PSoC6\pdl\drivers/peripheral/scb/cy_scb_uart.h **** */
 785:Generated_Source\PSoC6\pdl\drivers/peripheral/scb/cy_scb_uart.h **** 
 786:Generated_Source\PSoC6\pdl\drivers/peripheral/scb/cy_scb_uart.h **** /** The number of entries in the RX FIFO is more than the RX FIFO trigger level
 787:Generated_Source\PSoC6\pdl\drivers/peripheral/scb/cy_scb_uart.h **** * value
 788:Generated_Source\PSoC6\pdl\drivers/peripheral/scb/cy_scb_uart.h **** */
 789:Generated_Source\PSoC6\pdl\drivers/peripheral/scb/cy_scb_uart.h **** #define CY_SCB_UART_RX_TRIGGER         (SCB_INTR_RX_TRIGGER_Msk)
 790:Generated_Source\PSoC6\pdl\drivers/peripheral/scb/cy_scb_uart.h **** 
 791:Generated_Source\PSoC6\pdl\drivers/peripheral/scb/cy_scb_uart.h **** /** The RX FIFO is not empty, there is data to read */
 792:Generated_Source\PSoC6\pdl\drivers/peripheral/scb/cy_scb_uart.h **** #define CY_SCB_UART_RX_NOT_EMPTY       (SCB_INTR_RX_NOT_EMPTY_Msk)
 793:Generated_Source\PSoC6\pdl\drivers/peripheral/scb/cy_scb_uart.h **** 
 794:Generated_Source\PSoC6\pdl\drivers/peripheral/scb/cy_scb_uart.h **** /**
 795:Generated_Source\PSoC6\pdl\drivers/peripheral/scb/cy_scb_uart.h **** * The RX FIFO is full, there is no more space for additional data, and
 796:Generated_Source\PSoC6\pdl\drivers/peripheral/scb/cy_scb_uart.h **** * any additional data will be dropped
 797:Generated_Source\PSoC6\pdl\drivers/peripheral/scb/cy_scb_uart.h **** */
 798:Generated_Source\PSoC6\pdl\drivers/peripheral/scb/cy_scb_uart.h **** #define CY_SCB_UART_RX_FULL            (SCB_INTR_RX_FULL_Msk)
 799:Generated_Source\PSoC6\pdl\drivers/peripheral/scb/cy_scb_uart.h **** 
 800:Generated_Source\PSoC6\pdl\drivers/peripheral/scb/cy_scb_uart.h **** /**
 801:Generated_Source\PSoC6\pdl\drivers/peripheral/scb/cy_scb_uart.h **** * The RX FIFO was full and there was an attempt to write to it.
 802:Generated_Source\PSoC6\pdl\drivers/peripheral/scb/cy_scb_uart.h **** * That additional data was dropped.
 803:Generated_Source\PSoC6\pdl\drivers/peripheral/scb/cy_scb_uart.h **** */
 804:Generated_Source\PSoC6\pdl\drivers/peripheral/scb/cy_scb_uart.h **** #define CY_SCB_UART_RX_OVERFLOW        (SCB_INTR_RX_OVERFLOW_Msk)
 805:Generated_Source\PSoC6\pdl\drivers/peripheral/scb/cy_scb_uart.h **** 
 806:Generated_Source\PSoC6\pdl\drivers/peripheral/scb/cy_scb_uart.h **** /** An attempt to read from an empty RX FIFO */
 807:Generated_Source\PSoC6\pdl\drivers/peripheral/scb/cy_scb_uart.h **** #define CY_SCB_UART_RX_UNDERFLOW       (SCB_INTR_RX_UNDERFLOW_Msk)
 808:Generated_Source\PSoC6\pdl\drivers/peripheral/scb/cy_scb_uart.h **** 
 809:Generated_Source\PSoC6\pdl\drivers/peripheral/scb/cy_scb_uart.h **** /** The RX FIFO detected a frame error, either a stop or stop-bit error */
 810:Generated_Source\PSoC6\pdl\drivers/peripheral/scb/cy_scb_uart.h **** #define CY_SCB_UART_RX_ERR_FRAME       (SCB_INTR_RX_FRAME_ERROR_Msk)
 811:Generated_Source\PSoC6\pdl\drivers/peripheral/scb/cy_scb_uart.h **** 
 812:Generated_Source\PSoC6\pdl\drivers/peripheral/scb/cy_scb_uart.h **** /** The RX FIFO detected a parity error */
 813:Generated_Source\PSoC6\pdl\drivers/peripheral/scb/cy_scb_uart.h **** #define CY_SCB_UART_RX_ERR_PARITY      (SCB_INTR_RX_PARITY_ERROR_Msk)
 814:Generated_Source\PSoC6\pdl\drivers/peripheral/scb/cy_scb_uart.h **** 
 815:Generated_Source\PSoC6\pdl\drivers/peripheral/scb/cy_scb_uart.h **** /** The RX FIFO detected a break transmission from the transmitter */
 816:Generated_Source\PSoC6\pdl\drivers/peripheral/scb/cy_scb_uart.h **** #define CY_SCB_UART_RX_BREAK_DETECT    (SCB_INTR_RX_BREAK_DETECT_Msk)
 817:Generated_Source\PSoC6\pdl\drivers/peripheral/scb/cy_scb_uart.h **** /** \} group_scb_uart_macros_rx_fifo_status */
ARM GAS  C:\Users\gab_1\AppData\Local\Temp\ccTtYdci.s 			page 43


 818:Generated_Source\PSoC6\pdl\drivers/peripheral/scb/cy_scb_uart.h **** 
 819:Generated_Source\PSoC6\pdl\drivers/peripheral/scb/cy_scb_uart.h **** /**
 820:Generated_Source\PSoC6\pdl\drivers/peripheral/scb/cy_scb_uart.h **** * \defgroup group_scb_uart_macros_tx_fifo_status UART TX FIFO Statuses
 821:Generated_Source\PSoC6\pdl\drivers/peripheral/scb/cy_scb_uart.h **** * \{
 822:Generated_Source\PSoC6\pdl\drivers/peripheral/scb/cy_scb_uart.h **** * Macros to check UART TX FIFO status returned by \ref Cy_SCB_UART_GetTxFifoStatus
 823:Generated_Source\PSoC6\pdl\drivers/peripheral/scb/cy_scb_uart.h **** * function or assign mask for \ref Cy_SCB_UART_ClearTxFifoStatus function.
 824:Generated_Source\PSoC6\pdl\drivers/peripheral/scb/cy_scb_uart.h **** * Each UART TX FIFO status is encoded in a separate bit, therefore multiple bits
 825:Generated_Source\PSoC6\pdl\drivers/peripheral/scb/cy_scb_uart.h **** * may be set to indicate the current status.
 826:Generated_Source\PSoC6\pdl\drivers/peripheral/scb/cy_scb_uart.h **** */
 827:Generated_Source\PSoC6\pdl\drivers/peripheral/scb/cy_scb_uart.h **** 
 828:Generated_Source\PSoC6\pdl\drivers/peripheral/scb/cy_scb_uart.h **** /** The number of entries in the TX FIFO is less than the TX FIFO trigger level
 829:Generated_Source\PSoC6\pdl\drivers/peripheral/scb/cy_scb_uart.h **** * value
 830:Generated_Source\PSoC6\pdl\drivers/peripheral/scb/cy_scb_uart.h **** */
 831:Generated_Source\PSoC6\pdl\drivers/peripheral/scb/cy_scb_uart.h **** #define CY_SCB_UART_TX_TRIGGER     (SCB_INTR_TX_TRIGGER_Msk)
 832:Generated_Source\PSoC6\pdl\drivers/peripheral/scb/cy_scb_uart.h **** 
 833:Generated_Source\PSoC6\pdl\drivers/peripheral/scb/cy_scb_uart.h **** /** The TX FIFO is not full, there is a space for more data */
 834:Generated_Source\PSoC6\pdl\drivers/peripheral/scb/cy_scb_uart.h **** #define CY_SCB_UART_TX_NOT_FULL    (SCB_INTR_TX_NOT_FULL_Msk)
 835:Generated_Source\PSoC6\pdl\drivers/peripheral/scb/cy_scb_uart.h **** 
 836:Generated_Source\PSoC6\pdl\drivers/peripheral/scb/cy_scb_uart.h **** /** The TX FIFO is empty, note there may still be data in the shift register.*/
 837:Generated_Source\PSoC6\pdl\drivers/peripheral/scb/cy_scb_uart.h **** #define CY_SCB_UART_TX_EMPTY       (SCB_INTR_TX_EMPTY_Msk)
 838:Generated_Source\PSoC6\pdl\drivers/peripheral/scb/cy_scb_uart.h **** 
 839:Generated_Source\PSoC6\pdl\drivers/peripheral/scb/cy_scb_uart.h **** /** An attempt to write to the full TX FIFO */
 840:Generated_Source\PSoC6\pdl\drivers/peripheral/scb/cy_scb_uart.h **** #define CY_SCB_UART_TX_OVERFLOW    (SCB_INTR_TX_OVERFLOW_Msk)
 841:Generated_Source\PSoC6\pdl\drivers/peripheral/scb/cy_scb_uart.h **** 
 842:Generated_Source\PSoC6\pdl\drivers/peripheral/scb/cy_scb_uart.h **** /** An attempt to read from an empty transmitter FIFO (hardware reads). */
 843:Generated_Source\PSoC6\pdl\drivers/peripheral/scb/cy_scb_uart.h **** #define CY_SCB_UART_TX_UNDERFLOW (SCB_INTR_TX_UNDERFLOW_Msk)
 844:Generated_Source\PSoC6\pdl\drivers/peripheral/scb/cy_scb_uart.h **** 
 845:Generated_Source\PSoC6\pdl\drivers/peripheral/scb/cy_scb_uart.h **** /** All data has been transmitted out of the FIFO, including shifter */
 846:Generated_Source\PSoC6\pdl\drivers/peripheral/scb/cy_scb_uart.h **** #define CY_SCB_UART_TX_DONE        (SCB_INTR_TX_UART_DONE_Msk)
 847:Generated_Source\PSoC6\pdl\drivers/peripheral/scb/cy_scb_uart.h **** 
 848:Generated_Source\PSoC6\pdl\drivers/peripheral/scb/cy_scb_uart.h **** /** SmartCard only: the transmitter received a NACK */
 849:Generated_Source\PSoC6\pdl\drivers/peripheral/scb/cy_scb_uart.h **** #define CY_SCB_UART_TX_NACK        (SCB_INTR_TX_UART_NACK_Msk)
 850:Generated_Source\PSoC6\pdl\drivers/peripheral/scb/cy_scb_uart.h **** 
 851:Generated_Source\PSoC6\pdl\drivers/peripheral/scb/cy_scb_uart.h **** /** SmartCard only: the transmitter lost arbitration */
 852:Generated_Source\PSoC6\pdl\drivers/peripheral/scb/cy_scb_uart.h **** #define CY_SCB_UART_TX_ARB_LOST    (SCB_INTR_TX_UART_ARB_LOST_Msk)
 853:Generated_Source\PSoC6\pdl\drivers/peripheral/scb/cy_scb_uart.h **** /** \} group_scb_uart_macros_tx_fifo_status */
 854:Generated_Source\PSoC6\pdl\drivers/peripheral/scb/cy_scb_uart.h **** 
 855:Generated_Source\PSoC6\pdl\drivers/peripheral/scb/cy_scb_uart.h **** /**
 856:Generated_Source\PSoC6\pdl\drivers/peripheral/scb/cy_scb_uart.h **** * \defgroup group_scb_uart_macros_receive_status UART Receive Statuses
 857:Generated_Source\PSoC6\pdl\drivers/peripheral/scb/cy_scb_uart.h **** * \{
 858:Generated_Source\PSoC6\pdl\drivers/peripheral/scb/cy_scb_uart.h **** * Macros to check current UART receive status returned by 
 859:Generated_Source\PSoC6\pdl\drivers/peripheral/scb/cy_scb_uart.h **** * \ref Cy_SCB_UART_GetReceiveStatus function. 
 860:Generated_Source\PSoC6\pdl\drivers/peripheral/scb/cy_scb_uart.h **** * Each UART receive status is encoded in a separate bit, therefore multiple bits
 861:Generated_Source\PSoC6\pdl\drivers/peripheral/scb/cy_scb_uart.h **** * may be set to indicate the current status.
 862:Generated_Source\PSoC6\pdl\drivers/peripheral/scb/cy_scb_uart.h **** */
 863:Generated_Source\PSoC6\pdl\drivers/peripheral/scb/cy_scb_uart.h **** /** The receive operation started by \ref Cy_SCB_UART_Receive is in progress */
 864:Generated_Source\PSoC6\pdl\drivers/peripheral/scb/cy_scb_uart.h **** #define CY_SCB_UART_RECEIVE_ACTIVE         (0x01UL)
 865:Generated_Source\PSoC6\pdl\drivers/peripheral/scb/cy_scb_uart.h **** 
 866:Generated_Source\PSoC6\pdl\drivers/peripheral/scb/cy_scb_uart.h **** /**
 867:Generated_Source\PSoC6\pdl\drivers/peripheral/scb/cy_scb_uart.h **** * The hardware RX FIFO was full and there was an attempt to write to it.
 868:Generated_Source\PSoC6\pdl\drivers/peripheral/scb/cy_scb_uart.h **** * That additional data was dropped.
 869:Generated_Source\PSoC6\pdl\drivers/peripheral/scb/cy_scb_uart.h **** */
 870:Generated_Source\PSoC6\pdl\drivers/peripheral/scb/cy_scb_uart.h **** #define CY_SCB_UART_RECEIVE_OVERFLOW       (SCB_INTR_RX_OVERFLOW_Msk)
 871:Generated_Source\PSoC6\pdl\drivers/peripheral/scb/cy_scb_uart.h **** 
 872:Generated_Source\PSoC6\pdl\drivers/peripheral/scb/cy_scb_uart.h **** /** The receive hardware detected a frame error, either a start or
 873:Generated_Source\PSoC6\pdl\drivers/peripheral/scb/cy_scb_uart.h **** * stop bit error
 874:Generated_Source\PSoC6\pdl\drivers/peripheral/scb/cy_scb_uart.h **** */
ARM GAS  C:\Users\gab_1\AppData\Local\Temp\ccTtYdci.s 			page 44


 875:Generated_Source\PSoC6\pdl\drivers/peripheral/scb/cy_scb_uart.h **** #define CY_SCB_UART_RECEIVE_ERR_FRAME      (SCB_INTR_RX_FRAME_ERROR_Msk)
 876:Generated_Source\PSoC6\pdl\drivers/peripheral/scb/cy_scb_uart.h **** 
 877:Generated_Source\PSoC6\pdl\drivers/peripheral/scb/cy_scb_uart.h **** /** The receive hardware detected a parity error */
 878:Generated_Source\PSoC6\pdl\drivers/peripheral/scb/cy_scb_uart.h **** #define CY_SCB_UART_RECEIVE_ERR_PARITY     (SCB_INTR_RX_PARITY_ERROR_Msk)
 879:Generated_Source\PSoC6\pdl\drivers/peripheral/scb/cy_scb_uart.h **** 
 880:Generated_Source\PSoC6\pdl\drivers/peripheral/scb/cy_scb_uart.h **** /** The receive hardware detected a break transmission from transmitter */
 881:Generated_Source\PSoC6\pdl\drivers/peripheral/scb/cy_scb_uart.h **** #define CY_SCB_UART_RECEIVE_BREAK_DETECT   (SCB_INTR_RX_BREAK_DETECT_Msk)
 882:Generated_Source\PSoC6\pdl\drivers/peripheral/scb/cy_scb_uart.h **** /** \} group_scb_uart_macros_receive_status */
 883:Generated_Source\PSoC6\pdl\drivers/peripheral/scb/cy_scb_uart.h **** 
 884:Generated_Source\PSoC6\pdl\drivers/peripheral/scb/cy_scb_uart.h **** /**
 885:Generated_Source\PSoC6\pdl\drivers/peripheral/scb/cy_scb_uart.h **** * \defgroup group_scb_uart_macros_transmit_status UART Transmit Status
 886:Generated_Source\PSoC6\pdl\drivers/peripheral/scb/cy_scb_uart.h **** * \{
 887:Generated_Source\PSoC6\pdl\drivers/peripheral/scb/cy_scb_uart.h **** * Macros to check current UART transmit status returned by 
 888:Generated_Source\PSoC6\pdl\drivers/peripheral/scb/cy_scb_uart.h **** * \ref Cy_SCB_UART_GetTransmitStatus function. 
 889:Generated_Source\PSoC6\pdl\drivers/peripheral/scb/cy_scb_uart.h **** * Each UART transmit status is encoded in a separate bit, therefore multiple bits
 890:Generated_Source\PSoC6\pdl\drivers/peripheral/scb/cy_scb_uart.h **** * may be set to indicate the current status.
 891:Generated_Source\PSoC6\pdl\drivers/peripheral/scb/cy_scb_uart.h **** */
 892:Generated_Source\PSoC6\pdl\drivers/peripheral/scb/cy_scb_uart.h **** 
 893:Generated_Source\PSoC6\pdl\drivers/peripheral/scb/cy_scb_uart.h **** /** The transmit operation started by \ref Cy_SCB_UART_Transmit is in progress */
 894:Generated_Source\PSoC6\pdl\drivers/peripheral/scb/cy_scb_uart.h **** #define CY_SCB_UART_TRANSMIT_ACTIVE    (0x01UL)
 895:Generated_Source\PSoC6\pdl\drivers/peripheral/scb/cy_scb_uart.h **** 
 896:Generated_Source\PSoC6\pdl\drivers/peripheral/scb/cy_scb_uart.h **** /**
 897:Generated_Source\PSoC6\pdl\drivers/peripheral/scb/cy_scb_uart.h **** * All data elements specified by \ref Cy_SCB_UART_Transmit have been loaded
 898:Generated_Source\PSoC6\pdl\drivers/peripheral/scb/cy_scb_uart.h **** * into the TX FIFO
 899:Generated_Source\PSoC6\pdl\drivers/peripheral/scb/cy_scb_uart.h **** */
 900:Generated_Source\PSoC6\pdl\drivers/peripheral/scb/cy_scb_uart.h **** #define CY_SCB_UART_TRANSMIT_IN_FIFO   (0x02UL)
 901:Generated_Source\PSoC6\pdl\drivers/peripheral/scb/cy_scb_uart.h **** 
 902:Generated_Source\PSoC6\pdl\drivers/peripheral/scb/cy_scb_uart.h **** /** SmartCard only: the transmitter received a NACK */
 903:Generated_Source\PSoC6\pdl\drivers/peripheral/scb/cy_scb_uart.h **** #define CY_SCB_UART_TRANSMIT_NACK      (SCB_INTR_TX_UART_NACK_Msk)
 904:Generated_Source\PSoC6\pdl\drivers/peripheral/scb/cy_scb_uart.h **** 
 905:Generated_Source\PSoC6\pdl\drivers/peripheral/scb/cy_scb_uart.h **** /** SmartCard only: the transmitter lost arbitration */
 906:Generated_Source\PSoC6\pdl\drivers/peripheral/scb/cy_scb_uart.h **** #define CY_SCB_UART_TRANSMIT_ARB_LOST  (SCB_INTR_TX_UART_ARB_LOST_Msk)
 907:Generated_Source\PSoC6\pdl\drivers/peripheral/scb/cy_scb_uart.h **** /** \} group_scb_uart_macros_transmit_status */
 908:Generated_Source\PSoC6\pdl\drivers/peripheral/scb/cy_scb_uart.h **** 
 909:Generated_Source\PSoC6\pdl\drivers/peripheral/scb/cy_scb_uart.h **** /**
 910:Generated_Source\PSoC6\pdl\drivers/peripheral/scb/cy_scb_uart.h **** * \defgroup group_scb_uart_macros_callback_events UART Callback Events
 911:Generated_Source\PSoC6\pdl\drivers/peripheral/scb/cy_scb_uart.h **** * \{
 912:Generated_Source\PSoC6\pdl\drivers/peripheral/scb/cy_scb_uart.h **** * Macros to check UART events passed by \ref cy_cb_scb_uart_handle_events_t callback.
 913:Generated_Source\PSoC6\pdl\drivers/peripheral/scb/cy_scb_uart.h **** * Note that only single event is notified by the callback when it is called.
 914:Generated_Source\PSoC6\pdl\drivers/peripheral/scb/cy_scb_uart.h **** */
 915:Generated_Source\PSoC6\pdl\drivers/peripheral/scb/cy_scb_uart.h **** 
 916:Generated_Source\PSoC6\pdl\drivers/peripheral/scb/cy_scb_uart.h **** /**
 917:Generated_Source\PSoC6\pdl\drivers/peripheral/scb/cy_scb_uart.h **** * All data elements specified by \ref Cy_SCB_UART_Transmit have been loaded
 918:Generated_Source\PSoC6\pdl\drivers/peripheral/scb/cy_scb_uart.h **** * into the TX FIFO
 919:Generated_Source\PSoC6\pdl\drivers/peripheral/scb/cy_scb_uart.h **** */
 920:Generated_Source\PSoC6\pdl\drivers/peripheral/scb/cy_scb_uart.h **** #define CY_SCB_UART_TRANSMIT_IN_FIFO_EVENT (0x01UL)
 921:Generated_Source\PSoC6\pdl\drivers/peripheral/scb/cy_scb_uart.h **** 
 922:Generated_Source\PSoC6\pdl\drivers/peripheral/scb/cy_scb_uart.h **** /** The transmit operation started by \ref Cy_SCB_UART_Transmit is complete */
 923:Generated_Source\PSoC6\pdl\drivers/peripheral/scb/cy_scb_uart.h **** #define CY_SCB_UART_TRANSMIT_DONE_EVENT    (0x02UL)
 924:Generated_Source\PSoC6\pdl\drivers/peripheral/scb/cy_scb_uart.h **** 
 925:Generated_Source\PSoC6\pdl\drivers/peripheral/scb/cy_scb_uart.h **** /** The receive operation started by \ref Cy_SCB_UART_Receive is complete */
 926:Generated_Source\PSoC6\pdl\drivers/peripheral/scb/cy_scb_uart.h **** #define CY_SCB_UART_RECEIVE_DONE_EVENT     (0x04UL)
 927:Generated_Source\PSoC6\pdl\drivers/peripheral/scb/cy_scb_uart.h **** 
 928:Generated_Source\PSoC6\pdl\drivers/peripheral/scb/cy_scb_uart.h **** /**
 929:Generated_Source\PSoC6\pdl\drivers/peripheral/scb/cy_scb_uart.h **** * The ring buffer is full, there is no more space for additional data.
 930:Generated_Source\PSoC6\pdl\drivers/peripheral/scb/cy_scb_uart.h **** * Additional data is stored in the RX FIFO until it becomes full, at which
 931:Generated_Source\PSoC6\pdl\drivers/peripheral/scb/cy_scb_uart.h **** * point data is dropped.
ARM GAS  C:\Users\gab_1\AppData\Local\Temp\ccTtYdci.s 			page 45


 932:Generated_Source\PSoC6\pdl\drivers/peripheral/scb/cy_scb_uart.h **** */
 933:Generated_Source\PSoC6\pdl\drivers/peripheral/scb/cy_scb_uart.h **** #define CY_SCB_UART_RB_FULL_EVENT          (0x08UL)
 934:Generated_Source\PSoC6\pdl\drivers/peripheral/scb/cy_scb_uart.h **** 
 935:Generated_Source\PSoC6\pdl\drivers/peripheral/scb/cy_scb_uart.h **** /**
 936:Generated_Source\PSoC6\pdl\drivers/peripheral/scb/cy_scb_uart.h **** * An error was detected during the receive operation. This includes overflow,
 937:Generated_Source\PSoC6\pdl\drivers/peripheral/scb/cy_scb_uart.h **** * frame error, or parity error. Check \ref Cy_SCB_UART_GetReceiveStatus to
 938:Generated_Source\PSoC6\pdl\drivers/peripheral/scb/cy_scb_uart.h **** * determine the source of the error.
 939:Generated_Source\PSoC6\pdl\drivers/peripheral/scb/cy_scb_uart.h **** */
 940:Generated_Source\PSoC6\pdl\drivers/peripheral/scb/cy_scb_uart.h **** #define CY_SCB_UART_RECEIVE_ERR_EVENT      (0x10UL)
 941:Generated_Source\PSoC6\pdl\drivers/peripheral/scb/cy_scb_uart.h **** 
 942:Generated_Source\PSoC6\pdl\drivers/peripheral/scb/cy_scb_uart.h **** /**
 943:Generated_Source\PSoC6\pdl\drivers/peripheral/scb/cy_scb_uart.h **** * An error was detected during the transmit operation. This includes a NACK
 944:Generated_Source\PSoC6\pdl\drivers/peripheral/scb/cy_scb_uart.h **** * or lost arbitration. Check \ref Cy_SCB_UART_GetTransmitStatus to determine
 945:Generated_Source\PSoC6\pdl\drivers/peripheral/scb/cy_scb_uart.h **** * the source of the error
 946:Generated_Source\PSoC6\pdl\drivers/peripheral/scb/cy_scb_uart.h **** */
 947:Generated_Source\PSoC6\pdl\drivers/peripheral/scb/cy_scb_uart.h **** #define CY_SCB_UART_TRANSMIT_ERR_EVENT     (0x20UL)
 948:Generated_Source\PSoC6\pdl\drivers/peripheral/scb/cy_scb_uart.h **** /** \} group_scb_uart_macros_callback_events */
 949:Generated_Source\PSoC6\pdl\drivers/peripheral/scb/cy_scb_uart.h **** 
 950:Generated_Source\PSoC6\pdl\drivers/peripheral/scb/cy_scb_uart.h **** /** Data returned by the hardware when an empty RX FIFO is read */
 951:Generated_Source\PSoC6\pdl\drivers/peripheral/scb/cy_scb_uart.h **** #define CY_SCB_UART_RX_NO_DATA         (0xFFFFFFFFUL)
 952:Generated_Source\PSoC6\pdl\drivers/peripheral/scb/cy_scb_uart.h **** 
 953:Generated_Source\PSoC6\pdl\drivers/peripheral/scb/cy_scb_uart.h **** 
 954:Generated_Source\PSoC6\pdl\drivers/peripheral/scb/cy_scb_uart.h **** /*******************************************************************************
 955:Generated_Source\PSoC6\pdl\drivers/peripheral/scb/cy_scb_uart.h **** *                            Internal Constants
 956:Generated_Source\PSoC6\pdl\drivers/peripheral/scb/cy_scb_uart.h **** *******************************************************************************/
 957:Generated_Source\PSoC6\pdl\drivers/peripheral/scb/cy_scb_uart.h **** 
 958:Generated_Source\PSoC6\pdl\drivers/peripheral/scb/cy_scb_uart.h **** /** \cond INTERNAL */
 959:Generated_Source\PSoC6\pdl\drivers/peripheral/scb/cy_scb_uart.h **** #define CY_SCB_UART_TX_INTR_MASK    (CY_SCB_UART_TX_TRIGGER  | CY_SCB_UART_TX_NOT_FULL  | CY_SCB_UA
 960:Generated_Source\PSoC6\pdl\drivers/peripheral/scb/cy_scb_uart.h ****                                      CY_SCB_UART_TX_OVERFLOW | CY_SCB_UART_TX_UNDERFLOW | CY_SCB_UA
 961:Generated_Source\PSoC6\pdl\drivers/peripheral/scb/cy_scb_uart.h ****                                      CY_SCB_UART_TX_NACK     | CY_SCB_UART_TX_ARB_LOST)
 962:Generated_Source\PSoC6\pdl\drivers/peripheral/scb/cy_scb_uart.h **** 
 963:Generated_Source\PSoC6\pdl\drivers/peripheral/scb/cy_scb_uart.h **** #define CY_SCB_UART_RX_INTR_MASK    (CY_SCB_UART_RX_TRIGGER    | CY_SCB_UART_RX_NOT_EMPTY | CY_SCB_
 964:Generated_Source\PSoC6\pdl\drivers/peripheral/scb/cy_scb_uart.h ****                                      CY_SCB_UART_RX_OVERFLOW   | CY_SCB_UART_RX_UNDERFLOW | CY_SCB_
 965:Generated_Source\PSoC6\pdl\drivers/peripheral/scb/cy_scb_uart.h ****                                      CY_SCB_UART_RX_ERR_PARITY | CY_SCB_UART_RX_BREAK_DETECT)
 966:Generated_Source\PSoC6\pdl\drivers/peripheral/scb/cy_scb_uart.h **** 
 967:Generated_Source\PSoC6\pdl\drivers/peripheral/scb/cy_scb_uart.h **** #define CY_SCB_UART_TX_INTR        (CY_SCB_TX_INTR_LEVEL | CY_SCB_TX_INTR_UART_NACK | CY_SCB_TX_INT
 968:Generated_Source\PSoC6\pdl\drivers/peripheral/scb/cy_scb_uart.h **** 
 969:Generated_Source\PSoC6\pdl\drivers/peripheral/scb/cy_scb_uart.h **** #define CY_SCB_UART_RX_INTR        (CY_SCB_RX_INTR_LEVEL | CY_SCB_RX_INTR_OVERFLOW | CY_SCB_RX_INTR
 970:Generated_Source\PSoC6\pdl\drivers/peripheral/scb/cy_scb_uart.h ****                                     CY_SCB_RX_INTR_UART_PARITY_ERROR | CY_SCB_RX_INTR_UART_BREAK_DE
 971:Generated_Source\PSoC6\pdl\drivers/peripheral/scb/cy_scb_uart.h **** 
 972:Generated_Source\PSoC6\pdl\drivers/peripheral/scb/cy_scb_uart.h **** #define CY_SCB_UART_RECEIVE_ERR    (CY_SCB_RX_INTR_OVERFLOW | CY_SCB_RX_INTR_UART_FRAME_ERROR | \
 973:Generated_Source\PSoC6\pdl\drivers/peripheral/scb/cy_scb_uart.h ****                                     CY_SCB_RX_INTR_UART_PARITY_ERROR)
 974:Generated_Source\PSoC6\pdl\drivers/peripheral/scb/cy_scb_uart.h **** 
 975:Generated_Source\PSoC6\pdl\drivers/peripheral/scb/cy_scb_uart.h **** #define CY_SCB_UART_TRANSMIT_ERR   (CY_SCB_TX_INTR_UART_NACK | CY_SCB_TX_INTR_UART_ARB_LOST)
 976:Generated_Source\PSoC6\pdl\drivers/peripheral/scb/cy_scb_uart.h **** 
 977:Generated_Source\PSoC6\pdl\drivers/peripheral/scb/cy_scb_uart.h **** #define CY_SCB_UART_INIT_KEY       (0x00ABCDEFUL)
 978:Generated_Source\PSoC6\pdl\drivers/peripheral/scb/cy_scb_uart.h **** 
 979:Generated_Source\PSoC6\pdl\drivers/peripheral/scb/cy_scb_uart.h **** #define CY_SCB_UART_IS_MODE_VALID(mode)     ( (CY_SCB_UART_STANDARD  == (mode)) || \
 980:Generated_Source\PSoC6\pdl\drivers/peripheral/scb/cy_scb_uart.h ****                                               (CY_SCB_UART_SMARTCARD == (mode)) || \
 981:Generated_Source\PSoC6\pdl\drivers/peripheral/scb/cy_scb_uart.h ****                                               (CY_SCB_UART_IRDA      == (mode)) )
 982:Generated_Source\PSoC6\pdl\drivers/peripheral/scb/cy_scb_uart.h **** 
 983:Generated_Source\PSoC6\pdl\drivers/peripheral/scb/cy_scb_uart.h **** #define CY_SCB_UART_IS_STOP_BITS_VALID(stopBits)    ( (CY_SCB_UART_STOP_BITS_1   == (stopBits)) || 
 984:Generated_Source\PSoC6\pdl\drivers/peripheral/scb/cy_scb_uart.h ****                                                       (CY_SCB_UART_STOP_BITS_1_5 == (stopBits)) || 
 985:Generated_Source\PSoC6\pdl\drivers/peripheral/scb/cy_scb_uart.h ****                                                       (CY_SCB_UART_STOP_BITS_2   == (stopBits)) || 
 986:Generated_Source\PSoC6\pdl\drivers/peripheral/scb/cy_scb_uart.h ****                                                       (CY_SCB_UART_STOP_BITS_2_5 == (stopBits)) || 
 987:Generated_Source\PSoC6\pdl\drivers/peripheral/scb/cy_scb_uart.h ****                                                       (CY_SCB_UART_STOP_BITS_3   == (stopBits)) || 
 988:Generated_Source\PSoC6\pdl\drivers/peripheral/scb/cy_scb_uart.h ****                                                       (CY_SCB_UART_STOP_BITS_3_5 == (stopBits)) || 
ARM GAS  C:\Users\gab_1\AppData\Local\Temp\ccTtYdci.s 			page 46


 989:Generated_Source\PSoC6\pdl\drivers/peripheral/scb/cy_scb_uart.h ****                                                       (CY_SCB_UART_STOP_BITS_4   == (stopBits)) )
 990:Generated_Source\PSoC6\pdl\drivers/peripheral/scb/cy_scb_uart.h **** 
 991:Generated_Source\PSoC6\pdl\drivers/peripheral/scb/cy_scb_uart.h **** #define CY_SCB_UART_IS_PARITY_VALID(parity)         ( (CY_SCB_UART_PARITY_NONE == (parity)) || \
 992:Generated_Source\PSoC6\pdl\drivers/peripheral/scb/cy_scb_uart.h ****                                                       (CY_SCB_UART_PARITY_EVEN == (parity)) || \
 993:Generated_Source\PSoC6\pdl\drivers/peripheral/scb/cy_scb_uart.h ****                                                       (CY_SCB_UART_PARITY_ODD  == (parity)) )
 994:Generated_Source\PSoC6\pdl\drivers/peripheral/scb/cy_scb_uart.h **** 
 995:Generated_Source\PSoC6\pdl\drivers/peripheral/scb/cy_scb_uart.h **** #define CY_SCB_UART_IS_POLARITY_VALID(polarity)     ( (CY_SCB_UART_ACTIVE_LOW  == (polarity)) || \
 996:Generated_Source\PSoC6\pdl\drivers/peripheral/scb/cy_scb_uart.h ****                                                       (CY_SCB_UART_ACTIVE_HIGH == (polarity)) )
 997:Generated_Source\PSoC6\pdl\drivers/peripheral/scb/cy_scb_uart.h **** 
 998:Generated_Source\PSoC6\pdl\drivers/peripheral/scb/cy_scb_uart.h **** #define CY_SCB_UART_IS_IRDA_LP_OVS_VALID(ovs)       ( (CY_SCB_UART_IRDA_LP_OVS16   == (ovs)) || \
 999:Generated_Source\PSoC6\pdl\drivers/peripheral/scb/cy_scb_uart.h ****                                                       (CY_SCB_UART_IRDA_LP_OVS32   == (ovs)) || \
1000:Generated_Source\PSoC6\pdl\drivers/peripheral/scb/cy_scb_uart.h ****                                                       (CY_SCB_UART_IRDA_LP_OVS48   == (ovs)) || \
1001:Generated_Source\PSoC6\pdl\drivers/peripheral/scb/cy_scb_uart.h ****                                                       (CY_SCB_UART_IRDA_LP_OVS96   == (ovs)) || \
1002:Generated_Source\PSoC6\pdl\drivers/peripheral/scb/cy_scb_uart.h ****                                                       (CY_SCB_UART_IRDA_LP_OVS192  == (ovs)) || \
1003:Generated_Source\PSoC6\pdl\drivers/peripheral/scb/cy_scb_uart.h ****                                                       (CY_SCB_UART_IRDA_LP_OVS768  == (ovs)) || \
1004:Generated_Source\PSoC6\pdl\drivers/peripheral/scb/cy_scb_uart.h ****                                                       (CY_SCB_UART_IRDA_LP_OVS1536 == (ovs)) )
1005:Generated_Source\PSoC6\pdl\drivers/peripheral/scb/cy_scb_uart.h **** 
1006:Generated_Source\PSoC6\pdl\drivers/peripheral/scb/cy_scb_uart.h **** #define CY_SCB_UART_IS_ADDRESS_VALID(addr)          ((addr) <= 0xFFUL)
1007:Generated_Source\PSoC6\pdl\drivers/peripheral/scb/cy_scb_uart.h **** #define CY_SCB_UART_IS_ADDRESS_MASK_VALID(mask)     ((mask) <= 0xFFUL)
1008:Generated_Source\PSoC6\pdl\drivers/peripheral/scb/cy_scb_uart.h **** #define CY_SCB_UART_IS_DATA_WIDTH_VALID(width)      ( ((width) >= 5UL) && ((width) <= 9UL) )
1009:Generated_Source\PSoC6\pdl\drivers/peripheral/scb/cy_scb_uart.h **** #define CY_SCB_UART_IS_OVERSAMPLE_VALID(ovs, mode, lpRx)    ( ((CY_SCB_UART_STANDARD  == (mode)) ||
1010:Generated_Source\PSoC6\pdl\drivers/peripheral/scb/cy_scb_uart.h ****                                                               (((ovs) >= 8UL) && ((ovs) <= 16UL)) :
1011:Generated_Source\PSoC6\pdl\drivers/peripheral/scb/cy_scb_uart.h ****                                                               ((lpRx) ? CY_SCB_UART_IS_IRDA_LP_OVS_
1012:Generated_Source\PSoC6\pdl\drivers/peripheral/scb/cy_scb_uart.h **** 
1013:Generated_Source\PSoC6\pdl\drivers/peripheral/scb/cy_scb_uart.h **** #define CY_SCB_UART_IS_RX_BREAK_WIDTH_VALID(base, width)    ( ((width) >= (_FLD2VAL(SCB_RX_CTRL_DAT
1014:Generated_Source\PSoC6\pdl\drivers/peripheral/scb/cy_scb_uart.h ****                                                               ((width) <= 16UL) )
1015:Generated_Source\PSoC6\pdl\drivers/peripheral/scb/cy_scb_uart.h **** #define CY_SCB_UART_IS_TX_BREAK_WIDTH_VALID(width)          ( ((width) >= 4UL) && ((width) <= 16UL)
1016:Generated_Source\PSoC6\pdl\drivers/peripheral/scb/cy_scb_uart.h **** 
1017:Generated_Source\PSoC6\pdl\drivers/peripheral/scb/cy_scb_uart.h **** #define CY_SCB_UART_IS_MUTLI_PROC_VALID(mp, mode, width, parity)    ( (mp) ? ((CY_SCB_UART_STANDARD
1018:Generated_Source\PSoC6\pdl\drivers/peripheral/scb/cy_scb_uart.h ****                                                                               (CY_SCB_UART_PARITY_N
1019:Generated_Source\PSoC6\pdl\drivers/peripheral/scb/cy_scb_uart.h **** /** \endcond */
1020:Generated_Source\PSoC6\pdl\drivers/peripheral/scb/cy_scb_uart.h **** 
1021:Generated_Source\PSoC6\pdl\drivers/peripheral/scb/cy_scb_uart.h **** /** \} group_scb_uart_macros */
1022:Generated_Source\PSoC6\pdl\drivers/peripheral/scb/cy_scb_uart.h **** 
1023:Generated_Source\PSoC6\pdl\drivers/peripheral/scb/cy_scb_uart.h **** 
1024:Generated_Source\PSoC6\pdl\drivers/peripheral/scb/cy_scb_uart.h **** /*******************************************************************************
1025:Generated_Source\PSoC6\pdl\drivers/peripheral/scb/cy_scb_uart.h **** *                    In-line Function Implementation
1026:Generated_Source\PSoC6\pdl\drivers/peripheral/scb/cy_scb_uart.h **** *******************************************************************************/
1027:Generated_Source\PSoC6\pdl\drivers/peripheral/scb/cy_scb_uart.h **** 
1028:Generated_Source\PSoC6\pdl\drivers/peripheral/scb/cy_scb_uart.h **** /**
1029:Generated_Source\PSoC6\pdl\drivers/peripheral/scb/cy_scb_uart.h **** * \addtogroup group_scb_uart_general_functions
1030:Generated_Source\PSoC6\pdl\drivers/peripheral/scb/cy_scb_uart.h **** * \{
1031:Generated_Source\PSoC6\pdl\drivers/peripheral/scb/cy_scb_uart.h **** */
1032:Generated_Source\PSoC6\pdl\drivers/peripheral/scb/cy_scb_uart.h **** 
1033:Generated_Source\PSoC6\pdl\drivers/peripheral/scb/cy_scb_uart.h **** /*******************************************************************************
1034:Generated_Source\PSoC6\pdl\drivers/peripheral/scb/cy_scb_uart.h **** * Function Name: Cy_SCB_UART_Enable
1035:Generated_Source\PSoC6\pdl\drivers/peripheral/scb/cy_scb_uart.h **** ****************************************************************************//**
1036:Generated_Source\PSoC6\pdl\drivers/peripheral/scb/cy_scb_uart.h **** *
1037:Generated_Source\PSoC6\pdl\drivers/peripheral/scb/cy_scb_uart.h **** * Enables the SCB block for the UART operation.
1038:Generated_Source\PSoC6\pdl\drivers/peripheral/scb/cy_scb_uart.h **** *
1039:Generated_Source\PSoC6\pdl\drivers/peripheral/scb/cy_scb_uart.h **** * \param base
1040:Generated_Source\PSoC6\pdl\drivers/peripheral/scb/cy_scb_uart.h **** * The pointer to the UART SCB instance.
1041:Generated_Source\PSoC6\pdl\drivers/peripheral/scb/cy_scb_uart.h **** *
1042:Generated_Source\PSoC6\pdl\drivers/peripheral/scb/cy_scb_uart.h **** *******************************************************************************/
1043:Generated_Source\PSoC6\pdl\drivers/peripheral/scb/cy_scb_uart.h **** __STATIC_INLINE void Cy_SCB_UART_Enable(CySCB_Type *base)
1044:Generated_Source\PSoC6\pdl\drivers/peripheral/scb/cy_scb_uart.h **** {
1045:Generated_Source\PSoC6\pdl\drivers/peripheral/scb/cy_scb_uart.h ****     SCB_CTRL(base) |= SCB_CTRL_ENABLED_Msk;
ARM GAS  C:\Users\gab_1\AppData\Local\Temp\ccTtYdci.s 			page 47


1046:Generated_Source\PSoC6\pdl\drivers/peripheral/scb/cy_scb_uart.h **** }
1047:Generated_Source\PSoC6\pdl\drivers/peripheral/scb/cy_scb_uart.h **** 
1048:Generated_Source\PSoC6\pdl\drivers/peripheral/scb/cy_scb_uart.h **** 
1049:Generated_Source\PSoC6\pdl\drivers/peripheral/scb/cy_scb_uart.h **** /*******************************************************************************
1050:Generated_Source\PSoC6\pdl\drivers/peripheral/scb/cy_scb_uart.h **** * Function Name: Cy_SCB_UART_EnableCts
1051:Generated_Source\PSoC6\pdl\drivers/peripheral/scb/cy_scb_uart.h **** ****************************************************************************//**
1052:Generated_Source\PSoC6\pdl\drivers/peripheral/scb/cy_scb_uart.h **** *
1053:Generated_Source\PSoC6\pdl\drivers/peripheral/scb/cy_scb_uart.h **** * Enables the Clear to Send (CTS) input for the UART. The UART will not transmit
1054:Generated_Source\PSoC6\pdl\drivers/peripheral/scb/cy_scb_uart.h **** * data while this signal is inactive.
1055:Generated_Source\PSoC6\pdl\drivers/peripheral/scb/cy_scb_uart.h **** *
1056:Generated_Source\PSoC6\pdl\drivers/peripheral/scb/cy_scb_uart.h **** * \param base
1057:Generated_Source\PSoC6\pdl\drivers/peripheral/scb/cy_scb_uart.h **** * The pointer to the UART SCB instance.
1058:Generated_Source\PSoC6\pdl\drivers/peripheral/scb/cy_scb_uart.h **** *
1059:Generated_Source\PSoC6\pdl\drivers/peripheral/scb/cy_scb_uart.h **** *******************************************************************************/
1060:Generated_Source\PSoC6\pdl\drivers/peripheral/scb/cy_scb_uart.h **** __STATIC_INLINE void Cy_SCB_UART_EnableCts(CySCB_Type *base)
1061:Generated_Source\PSoC6\pdl\drivers/peripheral/scb/cy_scb_uart.h **** {
1062:Generated_Source\PSoC6\pdl\drivers/peripheral/scb/cy_scb_uart.h ****     SCB_UART_FLOW_CTRL(base) |= SCB_UART_FLOW_CTRL_CTS_ENABLED_Msk;
1063:Generated_Source\PSoC6\pdl\drivers/peripheral/scb/cy_scb_uart.h **** }
1064:Generated_Source\PSoC6\pdl\drivers/peripheral/scb/cy_scb_uart.h **** 
1065:Generated_Source\PSoC6\pdl\drivers/peripheral/scb/cy_scb_uart.h **** 
1066:Generated_Source\PSoC6\pdl\drivers/peripheral/scb/cy_scb_uart.h **** /*******************************************************************************
1067:Generated_Source\PSoC6\pdl\drivers/peripheral/scb/cy_scb_uart.h **** * Function Name: Cy_SCB_UART_DisableCts
1068:Generated_Source\PSoC6\pdl\drivers/peripheral/scb/cy_scb_uart.h **** ****************************************************************************//**
1069:Generated_Source\PSoC6\pdl\drivers/peripheral/scb/cy_scb_uart.h **** *
1070:Generated_Source\PSoC6\pdl\drivers/peripheral/scb/cy_scb_uart.h **** * Disables the Clear to Send (CTS) input for the UART.
1071:Generated_Source\PSoC6\pdl\drivers/peripheral/scb/cy_scb_uart.h **** * See \ref Cy_SCB_UART_EnableCts for the details.
1072:Generated_Source\PSoC6\pdl\drivers/peripheral/scb/cy_scb_uart.h **** *
1073:Generated_Source\PSoC6\pdl\drivers/peripheral/scb/cy_scb_uart.h **** * \param base
1074:Generated_Source\PSoC6\pdl\drivers/peripheral/scb/cy_scb_uart.h **** * The pointer to the UART SCB instance.
1075:Generated_Source\PSoC6\pdl\drivers/peripheral/scb/cy_scb_uart.h **** *
1076:Generated_Source\PSoC6\pdl\drivers/peripheral/scb/cy_scb_uart.h **** *******************************************************************************/
1077:Generated_Source\PSoC6\pdl\drivers/peripheral/scb/cy_scb_uart.h **** __STATIC_INLINE void Cy_SCB_UART_DisableCts(CySCB_Type *base)
1078:Generated_Source\PSoC6\pdl\drivers/peripheral/scb/cy_scb_uart.h **** {
1079:Generated_Source\PSoC6\pdl\drivers/peripheral/scb/cy_scb_uart.h ****     SCB_UART_FLOW_CTRL(base) &= (uint32_t) ~SCB_UART_FLOW_CTRL_CTS_ENABLED_Msk;
1080:Generated_Source\PSoC6\pdl\drivers/peripheral/scb/cy_scb_uart.h **** }
1081:Generated_Source\PSoC6\pdl\drivers/peripheral/scb/cy_scb_uart.h **** 
1082:Generated_Source\PSoC6\pdl\drivers/peripheral/scb/cy_scb_uart.h **** 
1083:Generated_Source\PSoC6\pdl\drivers/peripheral/scb/cy_scb_uart.h **** /*******************************************************************************
1084:Generated_Source\PSoC6\pdl\drivers/peripheral/scb/cy_scb_uart.h **** * Function Name: Cy_SCB_UART_SetRtsFifoLevel
1085:Generated_Source\PSoC6\pdl\drivers/peripheral/scb/cy_scb_uart.h **** ****************************************************************************//**
1086:Generated_Source\PSoC6\pdl\drivers/peripheral/scb/cy_scb_uart.h **** *
1087:Generated_Source\PSoC6\pdl\drivers/peripheral/scb/cy_scb_uart.h **** * Sets a level for the Ready To Send (RTS) signal activation.
1088:Generated_Source\PSoC6\pdl\drivers/peripheral/scb/cy_scb_uart.h **** * When the number of data elements in the receive FIFO is below this level,
1089:Generated_Source\PSoC6\pdl\drivers/peripheral/scb/cy_scb_uart.h **** * then the RTS output is active. Otherwise, the RTS signal is inactive.
1090:Generated_Source\PSoC6\pdl\drivers/peripheral/scb/cy_scb_uart.h **** * To disable the RTS signal generation, set this level to zero.
1091:Generated_Source\PSoC6\pdl\drivers/peripheral/scb/cy_scb_uart.h **** *
1092:Generated_Source\PSoC6\pdl\drivers/peripheral/scb/cy_scb_uart.h **** * \param base
1093:Generated_Source\PSoC6\pdl\drivers/peripheral/scb/cy_scb_uart.h **** * The pointer to the UART SCB instance.
1094:Generated_Source\PSoC6\pdl\drivers/peripheral/scb/cy_scb_uart.h **** *
1095:Generated_Source\PSoC6\pdl\drivers/peripheral/scb/cy_scb_uart.h **** * \param level
1096:Generated_Source\PSoC6\pdl\drivers/peripheral/scb/cy_scb_uart.h **** * The level in the RX FIFO for RTS signal activation.
1097:Generated_Source\PSoC6\pdl\drivers/peripheral/scb/cy_scb_uart.h **** *
1098:Generated_Source\PSoC6\pdl\drivers/peripheral/scb/cy_scb_uart.h **** *******************************************************************************/
1099:Generated_Source\PSoC6\pdl\drivers/peripheral/scb/cy_scb_uart.h **** __STATIC_INLINE void Cy_SCB_UART_SetRtsFifoLevel(CySCB_Type *base, uint32_t level)
1100:Generated_Source\PSoC6\pdl\drivers/peripheral/scb/cy_scb_uart.h **** {
1101:Generated_Source\PSoC6\pdl\drivers/peripheral/scb/cy_scb_uart.h ****     CY_ASSERT_L2(CY_SCB_IS_TRIGGER_LEVEL_VALID(base, level));
1102:Generated_Source\PSoC6\pdl\drivers/peripheral/scb/cy_scb_uart.h **** 
ARM GAS  C:\Users\gab_1\AppData\Local\Temp\ccTtYdci.s 			page 48


1103:Generated_Source\PSoC6\pdl\drivers/peripheral/scb/cy_scb_uart.h ****     CY_REG32_CLR_SET(SCB_UART_FLOW_CTRL(base), SCB_UART_FLOW_CTRL_TRIGGER_LEVEL, level);
1104:Generated_Source\PSoC6\pdl\drivers/peripheral/scb/cy_scb_uart.h **** }
1105:Generated_Source\PSoC6\pdl\drivers/peripheral/scb/cy_scb_uart.h **** 
1106:Generated_Source\PSoC6\pdl\drivers/peripheral/scb/cy_scb_uart.h **** 
1107:Generated_Source\PSoC6\pdl\drivers/peripheral/scb/cy_scb_uart.h **** /*******************************************************************************
1108:Generated_Source\PSoC6\pdl\drivers/peripheral/scb/cy_scb_uart.h **** * Function Name: Cy_SCB_UART_GetRtsFifoLevel
1109:Generated_Source\PSoC6\pdl\drivers/peripheral/scb/cy_scb_uart.h **** ****************************************************************************//**
1110:Generated_Source\PSoC6\pdl\drivers/peripheral/scb/cy_scb_uart.h **** *
1111:Generated_Source\PSoC6\pdl\drivers/peripheral/scb/cy_scb_uart.h **** * Returns the level in the RX FIFO for the RTS signal activation.
1112:Generated_Source\PSoC6\pdl\drivers/peripheral/scb/cy_scb_uart.h **** *
1113:Generated_Source\PSoC6\pdl\drivers/peripheral/scb/cy_scb_uart.h **** * \param base
1114:Generated_Source\PSoC6\pdl\drivers/peripheral/scb/cy_scb_uart.h **** * The pointer to the UART SCB instance.
1115:Generated_Source\PSoC6\pdl\drivers/peripheral/scb/cy_scb_uart.h **** *
1116:Generated_Source\PSoC6\pdl\drivers/peripheral/scb/cy_scb_uart.h **** * \return
1117:Generated_Source\PSoC6\pdl\drivers/peripheral/scb/cy_scb_uart.h **** * The level in the RX FIFO for RTS signal activation.
1118:Generated_Source\PSoC6\pdl\drivers/peripheral/scb/cy_scb_uart.h **** *
1119:Generated_Source\PSoC6\pdl\drivers/peripheral/scb/cy_scb_uart.h **** *******************************************************************************/
1120:Generated_Source\PSoC6\pdl\drivers/peripheral/scb/cy_scb_uart.h **** __STATIC_INLINE uint32_t Cy_SCB_UART_GetRtsFifoLevel(CySCB_Type const *base)
1121:Generated_Source\PSoC6\pdl\drivers/peripheral/scb/cy_scb_uart.h **** {
1122:Generated_Source\PSoC6\pdl\drivers/peripheral/scb/cy_scb_uart.h ****     return _FLD2VAL(SCB_UART_FLOW_CTRL_TRIGGER_LEVEL, SCB_UART_FLOW_CTRL(base));
1123:Generated_Source\PSoC6\pdl\drivers/peripheral/scb/cy_scb_uart.h **** }
1124:Generated_Source\PSoC6\pdl\drivers/peripheral/scb/cy_scb_uart.h **** 
1125:Generated_Source\PSoC6\pdl\drivers/peripheral/scb/cy_scb_uart.h **** 
1126:Generated_Source\PSoC6\pdl\drivers/peripheral/scb/cy_scb_uart.h **** /*******************************************************************************
1127:Generated_Source\PSoC6\pdl\drivers/peripheral/scb/cy_scb_uart.h **** * Function Name: Cy_SCB_UART_EnableSkipStart
1128:Generated_Source\PSoC6\pdl\drivers/peripheral/scb/cy_scb_uart.h **** ****************************************************************************//**
1129:Generated_Source\PSoC6\pdl\drivers/peripheral/scb/cy_scb_uart.h **** *
1130:Generated_Source\PSoC6\pdl\drivers/peripheral/scb/cy_scb_uart.h **** * Enables the skip start-bit functionality.
1131:Generated_Source\PSoC6\pdl\drivers/peripheral/scb/cy_scb_uart.h **** * When skip start is enabled the UART hardware does not synchronize to a 
1132:Generated_Source\PSoC6\pdl\drivers/peripheral/scb/cy_scb_uart.h **** * start bit but synchronizes to the first rising edge. To create a rising edge, 
1133:Generated_Source\PSoC6\pdl\drivers/peripheral/scb/cy_scb_uart.h **** * the first data bit must be a 1. This feature is useful when the start bit 
1134:Generated_Source\PSoC6\pdl\drivers/peripheral/scb/cy_scb_uart.h **** * falling edge is used to wake the device through a GPIO interrupt.
1135:Generated_Source\PSoC6\pdl\drivers/peripheral/scb/cy_scb_uart.h **** *
1136:Generated_Source\PSoC6\pdl\drivers/peripheral/scb/cy_scb_uart.h **** * \param base
1137:Generated_Source\PSoC6\pdl\drivers/peripheral/scb/cy_scb_uart.h **** * The pointer to the UART SCB instance.
1138:Generated_Source\PSoC6\pdl\drivers/peripheral/scb/cy_scb_uart.h **** *
1139:Generated_Source\PSoC6\pdl\drivers/peripheral/scb/cy_scb_uart.h **** * \note
1140:Generated_Source\PSoC6\pdl\drivers/peripheral/scb/cy_scb_uart.h **** * When skip start-bit feature is enabled, it is applied (UART synchronizes 
1141:Generated_Source\PSoC6\pdl\drivers/peripheral/scb/cy_scb_uart.h **** * to the first rising edge after start bit) whenever the SCB is enabled. 
1142:Generated_Source\PSoC6\pdl\drivers/peripheral/scb/cy_scb_uart.h **** * This can cause incorrect UART synchronization and data reception when 
1143:Generated_Source\PSoC6\pdl\drivers/peripheral/scb/cy_scb_uart.h **** * the first data bit is not a 1. Therefore, disable the skip start-bit 
1144:Generated_Source\PSoC6\pdl\drivers/peripheral/scb/cy_scb_uart.h **** * when it should not be applied.
1145:Generated_Source\PSoC6\pdl\drivers/peripheral/scb/cy_scb_uart.h **** * Note that SCB is disabled before enter Deep Sleep mode or after calling 
1146:Generated_Source\PSoC6\pdl\drivers/peripheral/scb/cy_scb_uart.h **** * \ref Cy_SCB_UART_Disable.
1147:Generated_Source\PSoC6\pdl\drivers/peripheral/scb/cy_scb_uart.h **** *
1148:Generated_Source\PSoC6\pdl\drivers/peripheral/scb/cy_scb_uart.h **** *******************************************************************************/
1149:Generated_Source\PSoC6\pdl\drivers/peripheral/scb/cy_scb_uart.h **** __STATIC_INLINE void Cy_SCB_UART_EnableSkipStart(CySCB_Type *base)
1150:Generated_Source\PSoC6\pdl\drivers/peripheral/scb/cy_scb_uart.h **** {
1151:Generated_Source\PSoC6\pdl\drivers/peripheral/scb/cy_scb_uart.h ****     SCB_UART_RX_CTRL(base) |= SCB_UART_RX_CTRL_SKIP_START_Msk;
1152:Generated_Source\PSoC6\pdl\drivers/peripheral/scb/cy_scb_uart.h **** }
1153:Generated_Source\PSoC6\pdl\drivers/peripheral/scb/cy_scb_uart.h **** 
1154:Generated_Source\PSoC6\pdl\drivers/peripheral/scb/cy_scb_uart.h **** 
1155:Generated_Source\PSoC6\pdl\drivers/peripheral/scb/cy_scb_uart.h **** /*******************************************************************************
1156:Generated_Source\PSoC6\pdl\drivers/peripheral/scb/cy_scb_uart.h **** * Function Name: Cy_SCB_UART_DisableSkipStart
1157:Generated_Source\PSoC6\pdl\drivers/peripheral/scb/cy_scb_uart.h **** ****************************************************************************//**
1158:Generated_Source\PSoC6\pdl\drivers/peripheral/scb/cy_scb_uart.h **** *
1159:Generated_Source\PSoC6\pdl\drivers/peripheral/scb/cy_scb_uart.h **** * Disable the skip start-bit functionality.
ARM GAS  C:\Users\gab_1\AppData\Local\Temp\ccTtYdci.s 			page 49


1160:Generated_Source\PSoC6\pdl\drivers/peripheral/scb/cy_scb_uart.h **** * See \ref Cy_SCB_UART_EnableSkipStart for the details.
1161:Generated_Source\PSoC6\pdl\drivers/peripheral/scb/cy_scb_uart.h **** *
1162:Generated_Source\PSoC6\pdl\drivers/peripheral/scb/cy_scb_uart.h **** * \param base
1163:Generated_Source\PSoC6\pdl\drivers/peripheral/scb/cy_scb_uart.h **** * The pointer to the UART SCB instance.
1164:Generated_Source\PSoC6\pdl\drivers/peripheral/scb/cy_scb_uart.h **** *
1165:Generated_Source\PSoC6\pdl\drivers/peripheral/scb/cy_scb_uart.h **** *******************************************************************************/
1166:Generated_Source\PSoC6\pdl\drivers/peripheral/scb/cy_scb_uart.h **** __STATIC_INLINE void Cy_SCB_UART_DisableSkipStart(CySCB_Type *base)
1167:Generated_Source\PSoC6\pdl\drivers/peripheral/scb/cy_scb_uart.h **** {
1168:Generated_Source\PSoC6\pdl\drivers/peripheral/scb/cy_scb_uart.h ****     SCB_UART_RX_CTRL(base) &= (uint32_t) ~SCB_UART_RX_CTRL_SKIP_START_Msk;
1169:Generated_Source\PSoC6\pdl\drivers/peripheral/scb/cy_scb_uart.h **** }
1170:Generated_Source\PSoC6\pdl\drivers/peripheral/scb/cy_scb_uart.h **** /** \} group_scb_uart_general_functions */
1171:Generated_Source\PSoC6\pdl\drivers/peripheral/scb/cy_scb_uart.h **** 
1172:Generated_Source\PSoC6\pdl\drivers/peripheral/scb/cy_scb_uart.h **** 
1173:Generated_Source\PSoC6\pdl\drivers/peripheral/scb/cy_scb_uart.h **** /**
1174:Generated_Source\PSoC6\pdl\drivers/peripheral/scb/cy_scb_uart.h **** * \addtogroup group_scb_uart_low_level_functions
1175:Generated_Source\PSoC6\pdl\drivers/peripheral/scb/cy_scb_uart.h **** * \{
1176:Generated_Source\PSoC6\pdl\drivers/peripheral/scb/cy_scb_uart.h **** */
1177:Generated_Source\PSoC6\pdl\drivers/peripheral/scb/cy_scb_uart.h **** /*******************************************************************************
1178:Generated_Source\PSoC6\pdl\drivers/peripheral/scb/cy_scb_uart.h **** * Function Name: Cy_SCB_UART_Get
1179:Generated_Source\PSoC6\pdl\drivers/peripheral/scb/cy_scb_uart.h **** ****************************************************************************//**
1180:Generated_Source\PSoC6\pdl\drivers/peripheral/scb/cy_scb_uart.h **** *
1181:Generated_Source\PSoC6\pdl\drivers/peripheral/scb/cy_scb_uart.h **** * Reads a single data element from the UART RX FIFO.
1182:Generated_Source\PSoC6\pdl\drivers/peripheral/scb/cy_scb_uart.h **** * This function does not check whether the RX FIFO has data before reading it.
1183:Generated_Source\PSoC6\pdl\drivers/peripheral/scb/cy_scb_uart.h **** * If the RX FIFO is empty, the function returns \ref CY_SCB_UART_RX_NO_DATA.
1184:Generated_Source\PSoC6\pdl\drivers/peripheral/scb/cy_scb_uart.h **** *
1185:Generated_Source\PSoC6\pdl\drivers/peripheral/scb/cy_scb_uart.h **** * \param base
1186:Generated_Source\PSoC6\pdl\drivers/peripheral/scb/cy_scb_uart.h **** * The pointer to the UART SCB instance.
1187:Generated_Source\PSoC6\pdl\drivers/peripheral/scb/cy_scb_uart.h **** *
1188:Generated_Source\PSoC6\pdl\drivers/peripheral/scb/cy_scb_uart.h **** * \return
1189:Generated_Source\PSoC6\pdl\drivers/peripheral/scb/cy_scb_uart.h **** * Data from the RX FIFO.
1190:Generated_Source\PSoC6\pdl\drivers/peripheral/scb/cy_scb_uart.h **** * The data element size is defined by the configured data width.
1191:Generated_Source\PSoC6\pdl\drivers/peripheral/scb/cy_scb_uart.h **** *
1192:Generated_Source\PSoC6\pdl\drivers/peripheral/scb/cy_scb_uart.h **** *******************************************************************************/
1193:Generated_Source\PSoC6\pdl\drivers/peripheral/scb/cy_scb_uart.h **** __STATIC_INLINE uint32_t Cy_SCB_UART_Get(CySCB_Type const *base)
1194:Generated_Source\PSoC6\pdl\drivers/peripheral/scb/cy_scb_uart.h **** {
1195:Generated_Source\PSoC6\pdl\drivers/peripheral/scb/cy_scb_uart.h ****     return Cy_SCB_ReadRxFifo(base);
1196:Generated_Source\PSoC6\pdl\drivers/peripheral/scb/cy_scb_uart.h **** }
1197:Generated_Source\PSoC6\pdl\drivers/peripheral/scb/cy_scb_uart.h **** 
1198:Generated_Source\PSoC6\pdl\drivers/peripheral/scb/cy_scb_uart.h **** 
1199:Generated_Source\PSoC6\pdl\drivers/peripheral/scb/cy_scb_uart.h **** /*******************************************************************************
1200:Generated_Source\PSoC6\pdl\drivers/peripheral/scb/cy_scb_uart.h **** * Function Name: Cy_SCB_UART_GetArray
1201:Generated_Source\PSoC6\pdl\drivers/peripheral/scb/cy_scb_uart.h **** ****************************************************************************//**
1202:Generated_Source\PSoC6\pdl\drivers/peripheral/scb/cy_scb_uart.h **** *
1203:Generated_Source\PSoC6\pdl\drivers/peripheral/scb/cy_scb_uart.h **** * Reads an array of data out of the UART RX FIFO.
1204:Generated_Source\PSoC6\pdl\drivers/peripheral/scb/cy_scb_uart.h **** * This function does not block. It returns how many data elements were read
1205:Generated_Source\PSoC6\pdl\drivers/peripheral/scb/cy_scb_uart.h **** * from the RX FIFO.
1206:Generated_Source\PSoC6\pdl\drivers/peripheral/scb/cy_scb_uart.h **** *
1207:Generated_Source\PSoC6\pdl\drivers/peripheral/scb/cy_scb_uart.h **** * \param base
1208:Generated_Source\PSoC6\pdl\drivers/peripheral/scb/cy_scb_uart.h **** * The pointer to the UART SCB instance.
1209:Generated_Source\PSoC6\pdl\drivers/peripheral/scb/cy_scb_uart.h **** *
1210:Generated_Source\PSoC6\pdl\drivers/peripheral/scb/cy_scb_uart.h **** * \param buffer
1211:Generated_Source\PSoC6\pdl\drivers/peripheral/scb/cy_scb_uart.h **** * The pointer to the location to place the data read from the RX FIFO.
1212:Generated_Source\PSoC6\pdl\drivers/peripheral/scb/cy_scb_uart.h **** * The element size is defined by the data type, which depends on the configured
1213:Generated_Source\PSoC6\pdl\drivers/peripheral/scb/cy_scb_uart.h **** * data width.
1214:Generated_Source\PSoC6\pdl\drivers/peripheral/scb/cy_scb_uart.h **** *
1215:Generated_Source\PSoC6\pdl\drivers/peripheral/scb/cy_scb_uart.h **** * \param size
1216:Generated_Source\PSoC6\pdl\drivers/peripheral/scb/cy_scb_uart.h **** * The number of data elements to read from the RX FIFO.
ARM GAS  C:\Users\gab_1\AppData\Local\Temp\ccTtYdci.s 			page 50


1217:Generated_Source\PSoC6\pdl\drivers/peripheral/scb/cy_scb_uart.h **** *
1218:Generated_Source\PSoC6\pdl\drivers/peripheral/scb/cy_scb_uart.h **** * \return
1219:Generated_Source\PSoC6\pdl\drivers/peripheral/scb/cy_scb_uart.h **** * The number of data elements read from the RX FIFO.
1220:Generated_Source\PSoC6\pdl\drivers/peripheral/scb/cy_scb_uart.h **** *
1221:Generated_Source\PSoC6\pdl\drivers/peripheral/scb/cy_scb_uart.h **** *******************************************************************************/
1222:Generated_Source\PSoC6\pdl\drivers/peripheral/scb/cy_scb_uart.h **** __STATIC_INLINE uint32_t Cy_SCB_UART_GetArray(CySCB_Type const *base, void *buffer, uint32_t size)
1223:Generated_Source\PSoC6\pdl\drivers/peripheral/scb/cy_scb_uart.h **** {
1224:Generated_Source\PSoC6\pdl\drivers/peripheral/scb/cy_scb_uart.h ****     CY_ASSERT_L1(CY_SCB_IS_BUFFER_VALID(buffer, size));
1225:Generated_Source\PSoC6\pdl\drivers/peripheral/scb/cy_scb_uart.h **** 
1226:Generated_Source\PSoC6\pdl\drivers/peripheral/scb/cy_scb_uart.h ****     return Cy_SCB_ReadArray(base, buffer, size);
1227:Generated_Source\PSoC6\pdl\drivers/peripheral/scb/cy_scb_uart.h **** }
1228:Generated_Source\PSoC6\pdl\drivers/peripheral/scb/cy_scb_uart.h **** 
1229:Generated_Source\PSoC6\pdl\drivers/peripheral/scb/cy_scb_uart.h **** 
1230:Generated_Source\PSoC6\pdl\drivers/peripheral/scb/cy_scb_uart.h **** /*******************************************************************************
1231:Generated_Source\PSoC6\pdl\drivers/peripheral/scb/cy_scb_uart.h **** * Function Name: Cy_SCB_UART_GetArrayBlocking
1232:Generated_Source\PSoC6\pdl\drivers/peripheral/scb/cy_scb_uart.h **** ****************************************************************************//**
1233:Generated_Source\PSoC6\pdl\drivers/peripheral/scb/cy_scb_uart.h **** *
1234:Generated_Source\PSoC6\pdl\drivers/peripheral/scb/cy_scb_uart.h **** * Reads an array of data out of the UART RX FIFO.
1235:Generated_Source\PSoC6\pdl\drivers/peripheral/scb/cy_scb_uart.h **** * This function blocks until the number of data elements specified by the
1236:Generated_Source\PSoC6\pdl\drivers/peripheral/scb/cy_scb_uart.h **** * size has been read from the RX FIFO.
1237:Generated_Source\PSoC6\pdl\drivers/peripheral/scb/cy_scb_uart.h **** *
1238:Generated_Source\PSoC6\pdl\drivers/peripheral/scb/cy_scb_uart.h **** * \param base
1239:Generated_Source\PSoC6\pdl\drivers/peripheral/scb/cy_scb_uart.h **** * The pointer to the UART SCB instance.
1240:Generated_Source\PSoC6\pdl\drivers/peripheral/scb/cy_scb_uart.h **** *
1241:Generated_Source\PSoC6\pdl\drivers/peripheral/scb/cy_scb_uart.h **** * \param buffer
1242:Generated_Source\PSoC6\pdl\drivers/peripheral/scb/cy_scb_uart.h **** * The pointer to the location to place the data read from the RX FIFO.
1243:Generated_Source\PSoC6\pdl\drivers/peripheral/scb/cy_scb_uart.h **** * The element size is defined by the data type, which depends on the configured
1244:Generated_Source\PSoC6\pdl\drivers/peripheral/scb/cy_scb_uart.h **** * data width.
1245:Generated_Source\PSoC6\pdl\drivers/peripheral/scb/cy_scb_uart.h **** *
1246:Generated_Source\PSoC6\pdl\drivers/peripheral/scb/cy_scb_uart.h **** * \param size
1247:Generated_Source\PSoC6\pdl\drivers/peripheral/scb/cy_scb_uart.h **** * The number of data elements to read from the RX FIFO.
1248:Generated_Source\PSoC6\pdl\drivers/peripheral/scb/cy_scb_uart.h **** *
1249:Generated_Source\PSoC6\pdl\drivers/peripheral/scb/cy_scb_uart.h **** *******************************************************************************/
1250:Generated_Source\PSoC6\pdl\drivers/peripheral/scb/cy_scb_uart.h **** __STATIC_INLINE void Cy_SCB_UART_GetArrayBlocking(CySCB_Type const *base, void *buffer, uint32_t si
1251:Generated_Source\PSoC6\pdl\drivers/peripheral/scb/cy_scb_uart.h **** {
1252:Generated_Source\PSoC6\pdl\drivers/peripheral/scb/cy_scb_uart.h ****     CY_ASSERT_L1(CY_SCB_IS_BUFFER_VALID(buffer, size));
1253:Generated_Source\PSoC6\pdl\drivers/peripheral/scb/cy_scb_uart.h **** 
1254:Generated_Source\PSoC6\pdl\drivers/peripheral/scb/cy_scb_uart.h ****     Cy_SCB_ReadArrayBlocking(base, buffer, size);
1255:Generated_Source\PSoC6\pdl\drivers/peripheral/scb/cy_scb_uart.h **** }
1256:Generated_Source\PSoC6\pdl\drivers/peripheral/scb/cy_scb_uart.h **** 
1257:Generated_Source\PSoC6\pdl\drivers/peripheral/scb/cy_scb_uart.h **** 
1258:Generated_Source\PSoC6\pdl\drivers/peripheral/scb/cy_scb_uart.h **** /*******************************************************************************
1259:Generated_Source\PSoC6\pdl\drivers/peripheral/scb/cy_scb_uart.h **** * Function Name: Cy_SCB_UART_GetRxFifoStatus
1260:Generated_Source\PSoC6\pdl\drivers/peripheral/scb/cy_scb_uart.h **** ****************************************************************************//**
1261:Generated_Source\PSoC6\pdl\drivers/peripheral/scb/cy_scb_uart.h **** *
1262:Generated_Source\PSoC6\pdl\drivers/peripheral/scb/cy_scb_uart.h **** * Returns the current status of the RX FIFO.
1263:Generated_Source\PSoC6\pdl\drivers/peripheral/scb/cy_scb_uart.h **** *
1264:Generated_Source\PSoC6\pdl\drivers/peripheral/scb/cy_scb_uart.h **** * \param base
1265:Generated_Source\PSoC6\pdl\drivers/peripheral/scb/cy_scb_uart.h **** * The pointer to the UART SCB instance.
1266:Generated_Source\PSoC6\pdl\drivers/peripheral/scb/cy_scb_uart.h **** *
1267:Generated_Source\PSoC6\pdl\drivers/peripheral/scb/cy_scb_uart.h **** * \return
1268:Generated_Source\PSoC6\pdl\drivers/peripheral/scb/cy_scb_uart.h **** * \ref group_scb_uart_macros_rx_fifo_status
1269:Generated_Source\PSoC6\pdl\drivers/peripheral/scb/cy_scb_uart.h **** *
1270:Generated_Source\PSoC6\pdl\drivers/peripheral/scb/cy_scb_uart.h **** *******************************************************************************/
1271:Generated_Source\PSoC6\pdl\drivers/peripheral/scb/cy_scb_uart.h **** __STATIC_INLINE uint32_t Cy_SCB_UART_GetRxFifoStatus(CySCB_Type const *base)
1272:Generated_Source\PSoC6\pdl\drivers/peripheral/scb/cy_scb_uart.h **** {
1273:Generated_Source\PSoC6\pdl\drivers/peripheral/scb/cy_scb_uart.h ****     return (Cy_SCB_GetRxInterruptStatus(base) & CY_SCB_UART_RX_INTR_MASK);
ARM GAS  C:\Users\gab_1\AppData\Local\Temp\ccTtYdci.s 			page 51


1274:Generated_Source\PSoC6\pdl\drivers/peripheral/scb/cy_scb_uart.h **** }
1275:Generated_Source\PSoC6\pdl\drivers/peripheral/scb/cy_scb_uart.h **** 
1276:Generated_Source\PSoC6\pdl\drivers/peripheral/scb/cy_scb_uart.h **** 
1277:Generated_Source\PSoC6\pdl\drivers/peripheral/scb/cy_scb_uart.h **** /*******************************************************************************
1278:Generated_Source\PSoC6\pdl\drivers/peripheral/scb/cy_scb_uart.h **** * Function Name: Cy_SCB_UART_ClearRxFifoStatus
1279:Generated_Source\PSoC6\pdl\drivers/peripheral/scb/cy_scb_uart.h **** ****************************************************************************//**
1280:Generated_Source\PSoC6\pdl\drivers/peripheral/scb/cy_scb_uart.h **** *
1281:Generated_Source\PSoC6\pdl\drivers/peripheral/scb/cy_scb_uart.h **** * Clears the selected statuses of the RX FIFO.
1282:Generated_Source\PSoC6\pdl\drivers/peripheral/scb/cy_scb_uart.h **** *
1283:Generated_Source\PSoC6\pdl\drivers/peripheral/scb/cy_scb_uart.h **** * \param base
1284:Generated_Source\PSoC6\pdl\drivers/peripheral/scb/cy_scb_uart.h **** * The pointer to the UART SCB instance.
1285:Generated_Source\PSoC6\pdl\drivers/peripheral/scb/cy_scb_uart.h **** *
1286:Generated_Source\PSoC6\pdl\drivers/peripheral/scb/cy_scb_uart.h **** * \param clearMask
1287:Generated_Source\PSoC6\pdl\drivers/peripheral/scb/cy_scb_uart.h **** * The mask whose statuses to clear.
1288:Generated_Source\PSoC6\pdl\drivers/peripheral/scb/cy_scb_uart.h **** * See \ref group_scb_uart_macros_rx_fifo_status for the set of constants.
1289:Generated_Source\PSoC6\pdl\drivers/peripheral/scb/cy_scb_uart.h **** *
1290:Generated_Source\PSoC6\pdl\drivers/peripheral/scb/cy_scb_uart.h **** * \note
1291:Generated_Source\PSoC6\pdl\drivers/peripheral/scb/cy_scb_uart.h **** * * This status is also used for interrupt generation, so clearing it also
1292:Generated_Source\PSoC6\pdl\drivers/peripheral/scb/cy_scb_uart.h **** *   clears the interrupt sources.
1293:Generated_Source\PSoC6\pdl\drivers/peripheral/scb/cy_scb_uart.h **** * * Level-sensitive statuses such as \ref CY_SCB_UART_RX_TRIGGER,
1294:Generated_Source\PSoC6\pdl\drivers/peripheral/scb/cy_scb_uart.h **** *   \ref CY_SCB_UART_RX_NOT_EMPTY and \ref CY_SCB_UART_RX_FULL are set high again after
1295:Generated_Source\PSoC6\pdl\drivers/peripheral/scb/cy_scb_uart.h **** *   being cleared if the condition remains true.
1296:Generated_Source\PSoC6\pdl\drivers/peripheral/scb/cy_scb_uart.h **** *
1297:Generated_Source\PSoC6\pdl\drivers/peripheral/scb/cy_scb_uart.h **** *******************************************************************************/
1298:Generated_Source\PSoC6\pdl\drivers/peripheral/scb/cy_scb_uart.h **** __STATIC_INLINE void Cy_SCB_UART_ClearRxFifoStatus(CySCB_Type *base, uint32_t clearMask)
1299:Generated_Source\PSoC6\pdl\drivers/peripheral/scb/cy_scb_uart.h **** {
1300:Generated_Source\PSoC6\pdl\drivers/peripheral/scb/cy_scb_uart.h ****     CY_ASSERT_L2(CY_SCB_IS_INTR_VALID(clearMask, CY_SCB_UART_RX_INTR_MASK));
1301:Generated_Source\PSoC6\pdl\drivers/peripheral/scb/cy_scb_uart.h **** 
1302:Generated_Source\PSoC6\pdl\drivers/peripheral/scb/cy_scb_uart.h ****     Cy_SCB_ClearRxInterrupt(base, clearMask);
1303:Generated_Source\PSoC6\pdl\drivers/peripheral/scb/cy_scb_uart.h **** }
1304:Generated_Source\PSoC6\pdl\drivers/peripheral/scb/cy_scb_uart.h **** 
1305:Generated_Source\PSoC6\pdl\drivers/peripheral/scb/cy_scb_uart.h **** 
1306:Generated_Source\PSoC6\pdl\drivers/peripheral/scb/cy_scb_uart.h **** /*******************************************************************************
1307:Generated_Source\PSoC6\pdl\drivers/peripheral/scb/cy_scb_uart.h **** * Function Name: Cy_SCB_UART_GetNumInRxFifo
1308:Generated_Source\PSoC6\pdl\drivers/peripheral/scb/cy_scb_uart.h **** ****************************************************************************//**
1309:Generated_Source\PSoC6\pdl\drivers/peripheral/scb/cy_scb_uart.h **** *
1310:Generated_Source\PSoC6\pdl\drivers/peripheral/scb/cy_scb_uart.h **** * Returns the number of data elements in the UART RX FIFO.
1311:Generated_Source\PSoC6\pdl\drivers/peripheral/scb/cy_scb_uart.h **** *
1312:Generated_Source\PSoC6\pdl\drivers/peripheral/scb/cy_scb_uart.h **** * \param base
1313:Generated_Source\PSoC6\pdl\drivers/peripheral/scb/cy_scb_uart.h **** * The pointer to the UART SCB instance.
1314:Generated_Source\PSoC6\pdl\drivers/peripheral/scb/cy_scb_uart.h **** *
1315:Generated_Source\PSoC6\pdl\drivers/peripheral/scb/cy_scb_uart.h **** * \return
1316:Generated_Source\PSoC6\pdl\drivers/peripheral/scb/cy_scb_uart.h **** * The number of data elements in the RX FIFO.
1317:Generated_Source\PSoC6\pdl\drivers/peripheral/scb/cy_scb_uart.h **** * The size of date element defined by the configured data width.
1318:Generated_Source\PSoC6\pdl\drivers/peripheral/scb/cy_scb_uart.h **** *
1319:Generated_Source\PSoC6\pdl\drivers/peripheral/scb/cy_scb_uart.h **** *******************************************************************************/
1320:Generated_Source\PSoC6\pdl\drivers/peripheral/scb/cy_scb_uart.h **** __STATIC_INLINE uint32_t Cy_SCB_UART_GetNumInRxFifo(CySCB_Type const *base)
1321:Generated_Source\PSoC6\pdl\drivers/peripheral/scb/cy_scb_uart.h **** {
1322:Generated_Source\PSoC6\pdl\drivers/peripheral/scb/cy_scb_uart.h ****     return Cy_SCB_GetNumInRxFifo(base);
1323:Generated_Source\PSoC6\pdl\drivers/peripheral/scb/cy_scb_uart.h **** }
1324:Generated_Source\PSoC6\pdl\drivers/peripheral/scb/cy_scb_uart.h **** 
1325:Generated_Source\PSoC6\pdl\drivers/peripheral/scb/cy_scb_uart.h **** /*******************************************************************************
1326:Generated_Source\PSoC6\pdl\drivers/peripheral/scb/cy_scb_uart.h **** * Function Name: Cy_SCB_UART_ClearRxFifo
1327:Generated_Source\PSoC6\pdl\drivers/peripheral/scb/cy_scb_uart.h **** ****************************************************************************//**
1328:Generated_Source\PSoC6\pdl\drivers/peripheral/scb/cy_scb_uart.h **** *
1329:Generated_Source\PSoC6\pdl\drivers/peripheral/scb/cy_scb_uart.h **** * Clears all data out of the UART RX FIFO.
1330:Generated_Source\PSoC6\pdl\drivers/peripheral/scb/cy_scb_uart.h **** *
ARM GAS  C:\Users\gab_1\AppData\Local\Temp\ccTtYdci.s 			page 52


1331:Generated_Source\PSoC6\pdl\drivers/peripheral/scb/cy_scb_uart.h **** * \param base
1332:Generated_Source\PSoC6\pdl\drivers/peripheral/scb/cy_scb_uart.h **** * The pointer to the UART SCB instance.
1333:Generated_Source\PSoC6\pdl\drivers/peripheral/scb/cy_scb_uart.h **** *
1334:Generated_Source\PSoC6\pdl\drivers/peripheral/scb/cy_scb_uart.h **** * \sideeffect
1335:Generated_Source\PSoC6\pdl\drivers/peripheral/scb/cy_scb_uart.h **** * Any data currently in the shifter is cleared and lost.
1336:Generated_Source\PSoC6\pdl\drivers/peripheral/scb/cy_scb_uart.h **** *
1337:Generated_Source\PSoC6\pdl\drivers/peripheral/scb/cy_scb_uart.h **** *******************************************************************************/
1338:Generated_Source\PSoC6\pdl\drivers/peripheral/scb/cy_scb_uart.h **** __STATIC_INLINE void Cy_SCB_UART_ClearRxFifo(CySCB_Type *base)
1339:Generated_Source\PSoC6\pdl\drivers/peripheral/scb/cy_scb_uart.h **** {
1340:Generated_Source\PSoC6\pdl\drivers/peripheral/scb/cy_scb_uart.h ****     Cy_SCB_ClearRxFifo(base);
1341:Generated_Source\PSoC6\pdl\drivers/peripheral/scb/cy_scb_uart.h **** }
1342:Generated_Source\PSoC6\pdl\drivers/peripheral/scb/cy_scb_uart.h **** 
1343:Generated_Source\PSoC6\pdl\drivers/peripheral/scb/cy_scb_uart.h **** 
1344:Generated_Source\PSoC6\pdl\drivers/peripheral/scb/cy_scb_uart.h **** /*******************************************************************************
1345:Generated_Source\PSoC6\pdl\drivers/peripheral/scb/cy_scb_uart.h **** * Function Name: Cy_SCB_UART_Put
1346:Generated_Source\PSoC6\pdl\drivers/peripheral/scb/cy_scb_uart.h **** ****************************************************************************//**
1347:Generated_Source\PSoC6\pdl\drivers/peripheral/scb/cy_scb_uart.h **** *
1348:Generated_Source\PSoC6\pdl\drivers/peripheral/scb/cy_scb_uart.h **** * Places a single data element in the UART TX FIFO.
1349:Generated_Source\PSoC6\pdl\drivers/peripheral/scb/cy_scb_uart.h **** * This function does not block and returns how many data elements were placed
1350:Generated_Source\PSoC6\pdl\drivers/peripheral/scb/cy_scb_uart.h **** * in the TX FIFO.
1351:Generated_Source\PSoC6\pdl\drivers/peripheral/scb/cy_scb_uart.h **** *
1352:Generated_Source\PSoC6\pdl\drivers/peripheral/scb/cy_scb_uart.h **** * \param base
1353:Generated_Source\PSoC6\pdl\drivers/peripheral/scb/cy_scb_uart.h **** * The pointer to the UART SCB instance.
1354:Generated_Source\PSoC6\pdl\drivers/peripheral/scb/cy_scb_uart.h **** *
1355:Generated_Source\PSoC6\pdl\drivers/peripheral/scb/cy_scb_uart.h **** * \param data
1356:Generated_Source\PSoC6\pdl\drivers/peripheral/scb/cy_scb_uart.h **** * Data to put in the TX FIFO.
1357:Generated_Source\PSoC6\pdl\drivers/peripheral/scb/cy_scb_uart.h **** * The element size is defined by the data type, which depends on the configured
1358:Generated_Source\PSoC6\pdl\drivers/peripheral/scb/cy_scb_uart.h **** * data width.
1359:Generated_Source\PSoC6\pdl\drivers/peripheral/scb/cy_scb_uart.h **** *
1360:Generated_Source\PSoC6\pdl\drivers/peripheral/scb/cy_scb_uart.h **** * \return
1361:Generated_Source\PSoC6\pdl\drivers/peripheral/scb/cy_scb_uart.h **** * The number of data elements placed in the TX FIFO: 0 or 1.
1362:Generated_Source\PSoC6\pdl\drivers/peripheral/scb/cy_scb_uart.h **** *
1363:Generated_Source\PSoC6\pdl\drivers/peripheral/scb/cy_scb_uart.h **** *******************************************************************************/
1364:Generated_Source\PSoC6\pdl\drivers/peripheral/scb/cy_scb_uart.h **** __STATIC_INLINE uint32_t Cy_SCB_UART_Put(CySCB_Type *base, uint32_t data)
1365:Generated_Source\PSoC6\pdl\drivers/peripheral/scb/cy_scb_uart.h **** {
1366:Generated_Source\PSoC6\pdl\drivers/peripheral/scb/cy_scb_uart.h ****     return Cy_SCB_Write(base, data);
1367:Generated_Source\PSoC6\pdl\drivers/peripheral/scb/cy_scb_uart.h **** }
1368:Generated_Source\PSoC6\pdl\drivers/peripheral/scb/cy_scb_uart.h **** 
1369:Generated_Source\PSoC6\pdl\drivers/peripheral/scb/cy_scb_uart.h **** 
1370:Generated_Source\PSoC6\pdl\drivers/peripheral/scb/cy_scb_uart.h **** /*******************************************************************************
1371:Generated_Source\PSoC6\pdl\drivers/peripheral/scb/cy_scb_uart.h **** * Function Name: Cy_SCB_UART_PutArray
1372:Generated_Source\PSoC6\pdl\drivers/peripheral/scb/cy_scb_uart.h **** ****************************************************************************//**
1373:Generated_Source\PSoC6\pdl\drivers/peripheral/scb/cy_scb_uart.h **** *
1374:Generated_Source\PSoC6\pdl\drivers/peripheral/scb/cy_scb_uart.h **** * Places an array of data in the UART TX FIFO.
1375:Generated_Source\PSoC6\pdl\drivers/peripheral/scb/cy_scb_uart.h **** * This function does not block. It returns how many data elements were
1376:Generated_Source\PSoC6\pdl\drivers/peripheral/scb/cy_scb_uart.h **** * placed in the TX FIFO.
1377:Generated_Source\PSoC6\pdl\drivers/peripheral/scb/cy_scb_uart.h **** *
1378:Generated_Source\PSoC6\pdl\drivers/peripheral/scb/cy_scb_uart.h **** * \param base
1379:Generated_Source\PSoC6\pdl\drivers/peripheral/scb/cy_scb_uart.h **** * The pointer to the UART SCB instance.
1380:Generated_Source\PSoC6\pdl\drivers/peripheral/scb/cy_scb_uart.h **** *
1381:Generated_Source\PSoC6\pdl\drivers/peripheral/scb/cy_scb_uart.h **** * \param buffer
1382:Generated_Source\PSoC6\pdl\drivers/peripheral/scb/cy_scb_uart.h **** * The pointer to data to place in the TX FIFO.
1383:Generated_Source\PSoC6\pdl\drivers/peripheral/scb/cy_scb_uart.h **** * The element size is defined by the data type, which depends on the configured
1384:Generated_Source\PSoC6\pdl\drivers/peripheral/scb/cy_scb_uart.h **** * TX data width.
1385:Generated_Source\PSoC6\pdl\drivers/peripheral/scb/cy_scb_uart.h **** *
1386:Generated_Source\PSoC6\pdl\drivers/peripheral/scb/cy_scb_uart.h **** * \param size
1387:Generated_Source\PSoC6\pdl\drivers/peripheral/scb/cy_scb_uart.h **** * The number of data elements to TX.
ARM GAS  C:\Users\gab_1\AppData\Local\Temp\ccTtYdci.s 			page 53


1388:Generated_Source\PSoC6\pdl\drivers/peripheral/scb/cy_scb_uart.h **** *
1389:Generated_Source\PSoC6\pdl\drivers/peripheral/scb/cy_scb_uart.h **** * \return
1390:Generated_Source\PSoC6\pdl\drivers/peripheral/scb/cy_scb_uart.h **** * The number of data elements placed in the TX FIFO.
1391:Generated_Source\PSoC6\pdl\drivers/peripheral/scb/cy_scb_uart.h **** *
1392:Generated_Source\PSoC6\pdl\drivers/peripheral/scb/cy_scb_uart.h **** *******************************************************************************/
1393:Generated_Source\PSoC6\pdl\drivers/peripheral/scb/cy_scb_uart.h **** __STATIC_INLINE uint32_t Cy_SCB_UART_PutArray(CySCB_Type *base, void *buffer, uint32_t size)
1394:Generated_Source\PSoC6\pdl\drivers/peripheral/scb/cy_scb_uart.h **** {
1395:Generated_Source\PSoC6\pdl\drivers/peripheral/scb/cy_scb_uart.h ****     CY_ASSERT_L1(CY_SCB_IS_BUFFER_VALID(buffer, size));
