ARM GAS  C:\Users\jmori\AppData\Local\Temp\ccYuPisP.s 			page 1


   1              		.syntax unified
   2              		.cpu cortex-m4
   3              		.eabi_attribute 27, 1
   4              		.fpu fpv4-sp-d16
   5              		.eabi_attribute 20, 1
   6              		.eabi_attribute 21, 1
   7              		.eabi_attribute 23, 3
   8              		.eabi_attribute 24, 1
   9              		.eabi_attribute 25, 1
  10              		.eabi_attribute 26, 1
  11              		.eabi_attribute 30, 1
  12              		.eabi_attribute 34, 1
  13              		.eabi_attribute 18, 4
  14              		.thumb
  15              		.syntax unified
  16              		.file	"main_cm4.c"
  17              		.text
  18              	.Ltext0:
  19              		.cfi_sections	.debug_frame
  20              		.global	__aeabi_f2d
  21              		.global	__aeabi_dmul
  22              		.global	__aeabi_dadd
  23              		.global	__aeabi_d2f
  24              		.section	.text.main,"ax",%progbits
  25              		.align	2
  26              		.global	main
  27              		.thumb
  28              		.thumb_func
  29              		.type	main, %function
  30              	main:
  31              	.LFB518:
  32              		.file 1 "main_cm4.c"
   1:main_cm4.c    **** /* ========================================
   2:main_cm4.c    ****  *
   3:main_cm4.c    ****  * Copyright YOUR COMPANY, THE YEAR
   4:main_cm4.c    ****  * All Rights Reserved
   5:main_cm4.c    ****  * UNPUBLISHED, LICENSED SOFTWARE.
   6:main_cm4.c    ****  *
   7:main_cm4.c    ****  * CONFIDENTIAL AND PROPRIETARY INFORMATION
   8:main_cm4.c    ****  * WHICH IS THE PROPERTY OF your company.
   9:main_cm4.c    ****  *
  10:main_cm4.c    ****  * ========================================
  11:main_cm4.c    **** */
  12:main_cm4.c    **** #include "project.h"
  13:main_cm4.c    **** #include <arm_math.h>
  14:main_cm4.c    **** #include <core_cm4.h>
  15:main_cm4.c    **** #include "FreeRTOS.h"
  16:main_cm4.c    **** #include "task.h"
  17:main_cm4.c    **** #include <stdio.h>
  18:main_cm4.c    **** # include <stdlib.h>
  19:main_cm4.c    **** 
  20:main_cm4.c    **** 
  21:main_cm4.c    **** #define TEST_LENGTH_SAMPLES  250
  22:main_cm4.c    **** #define BLOCK_SIZE 250 
  23:main_cm4.c    **** #define NUM_TAPS 253
  24:main_cm4.c    **** 
  25:main_cm4.c    **** 
ARM GAS  C:\Users\jmori\AppData\Local\Temp\ccYuPisP.s 			page 2


  26:main_cm4.c    **** static float32_t firStateF32[BLOCK_SIZE + NUM_TAPS -1];
  27:main_cm4.c    **** const float32_t firCoeffs32[NUM_TAPS]= {
  28:main_cm4.c    ****   -0.00607483793096646, -0.0024371287606626195,-0.0027781905680449846,-0.003033314895885208,-0.0031
  29:main_cm4.c    ****   -0.0030059549911707804,-0.0026582996982429997,-0.0021206768776838745,-0.0013930798983935906,-0.00
  30:main_cm4.c    ****   0.0005849933602285507,0.0017862009128820602,0.0030810159261001435,0.004423969560030488,0.00576378
  31:main_cm4.c    ****   0.007045918758019425, 0.008215415960009582, 0.009219483087725007,  0.010010534279067623,0.0105486
  32:main_cm4.c    ****   0.01080440385291239,0.010760782668331208,0.010414993506442368,0.009778471481675913,0.008876937657
  33:main_cm4.c    ****   0.007749689142662804,0.006447897380983346,0.0050320446080451145,0.003568730794722048,0.0021270718
  34:main_cm4.c    ****   0.0007753090520778832,-0.0004226650476138258,-0.0014111406052432548,-0.002146096239735076,-0.0025
  35:main_cm4.c    ****   -0.0022036900977844007,-0.0015569645721613154,-0.0007249669258958543,0.0002310350951244312,0.0012
  36:main_cm4.c    ****   0.002238729459804291,0.0031481529420859314,0.0039055522429964702,0.004454726008316521,0.004752719
  37:main_cm4.c    ****   0.004773255715181325,0.004508534227584674,0.003970048860958966,0.0031874472285343416,0.0022059375
  38:main_cm4.c    ****   -0.00010923350169881752, -0.0012952679534577597, -0.0023945429785403325, -0.003332332823935724, -
  39:main_cm4.c    ****   -0.004485408593398273,-0.004614917522743556,-0.00441217984966828,-0.003885995000375412,-0.0030808
  40:main_cm4.c    ****   -0.0020141623274676783,-0.0007782377925754881,0.0005616645873690594,0.0019129838577996584,0.00318
  41:main_cm4.c    ****   -0.0021727310678983564, -0.0038007346052471524, -0.005237258715165205, -0.006375914005110297, -0.
  42:main_cm4.c    ****   -0.01624576416175618,  -0.01760171190974374,  -0.017863462725779947, -0.01687987593831393,  -0.01
  43:main_cm4.c    ****   0.0790649476574384,  0.07460132529989161,  0.06860640657800217,  0.06131721136404679,  0.05302025
  44:main_cm4.c    ****   -0.0076711614792899655,  -0.004094388228848386,  -0.0005542361106088803,  0.0027357401166407105, 
  45:main_cm4.c    ****   0.005667910542150519,  0.00513506262382178,  0.004284423529885197,  0.0031838361359370257,  0.001
  46:main_cm4.c    ****   -0.0026145226007014354,  -0.0027527697559420077,  -0.0025978219588661013,  -0.002146096239735076,
  47:main_cm4.c    ****   0.010414993506442368,  0.010760782668331208,  0.01080440385291239,  0.010548693224964979,
  48:main_cm4.c    ****   0.010010534279067623,  0.009219483087725007,  0.008215415960009582,  0.007045918758019425,  0.005
  49:main_cm4.c    ****   -0.0013930798983935906,  -0.0021206768776838745, -0.0026582996982429997,  -0.0030059549911707804,
  50:main_cm4.c    **** };
  51:main_cm4.c    **** 
  52:main_cm4.c    **** extern float32_t testInput_f32_1kHz_15kHz[TEST_LENGTH_SAMPLES];
  53:main_cm4.c    **** extern float32_t refOutput[TEST_LENGTH_SAMPLES];
  54:main_cm4.c    **** 
  55:main_cm4.c    **** 
  56:main_cm4.c    **** 
  57:main_cm4.c    **** uint32_t blockSize = BLOCK_SIZE;
  58:main_cm4.c    **** uint32_t numBlocks = TEST_LENGTH_SAMPLES/BLOCK_SIZE;
  59:main_cm4.c    **** arm_fir_instance_f32 S; 
  60:main_cm4.c    **** volatile float R =0;
  61:main_cm4.c    **** volatile float SpO2 =0;
  62:main_cm4.c    **** 
  63:main_cm4.c    **** 
  64:main_cm4.c    **** int main(void)
  65:main_cm4.c    **** {
  33              		.loc 1 65 0
  34              		.cfi_startproc
  35              		@ args = 0, pretend = 0, frame = 4040
  36              		@ frame_needed = 0, uses_anonymous_args = 0
  37 0000 2DE9F041 		push	{r4, r5, r6, r7, r8, lr}
  38              		.cfi_def_cfa_offset 24
  39              		.cfi_offset 4, -24
  40              		.cfi_offset 5, -20
  41              		.cfi_offset 6, -16
  42              		.cfi_offset 7, -12
  43              		.cfi_offset 8, -8
  44              		.cfi_offset 14, -4
  45 0004 ADF57D6D 		sub	sp, sp, #4048
  46              		.cfi_def_cfa_offset 4072
  66:main_cm4.c    **** //    UART_1_Start();
  67:main_cm4.c    ****     SystemInit();
  47              		.loc 1 67 0
ARM GAS  C:\Users\jmori\AppData\Local\Temp\ccYuPisP.s 			page 3


  48 0008 FFF7FEFF 		bl	SystemInit
  49              	.LVL0:
  68:main_cm4.c    **** //    SystemCoreClockUpdate();
  69:main_cm4.c    ****   
  70:main_cm4.c    **** 
  71:main_cm4.c    ****      //arm_fir_instance_f32 S;
  72:main_cm4.c    ****    
  73:main_cm4.c    ****      arm_fir_init_f32(&S, NUM_TAPS, (float32_t *)&firCoeffs32[0], &firStateF32[0], blockSize);
  50              		.loc 1 73 0
  51 000c 5C4D     		ldr	r5, .L4+16
  52 000e 5D4C     		ldr	r4, .L4+20
  53 0010 DFF88481 		ldr	r8, .L4+40
  54 0014 5C4B     		ldr	r3, .L4+24
  55 0016 1B68     		ldr	r3, [r3]
  56 0018 0093     		str	r3, [sp]
  57 001a 2B46     		mov	r3, r5
  58 001c 2246     		mov	r2, r4
  59 001e FD21     		movs	r1, #253
  60 0020 4046     		mov	r0, r8
  61 0022 FFF7FEFF 		bl	arm_fir_init_f32
  62              	.LVL1:
  74:main_cm4.c    ****     
  75:main_cm4.c    ****     float dataIR[] = {
  63              		.loc 1 75 0
  64 0026 4FF47A76 		mov	r6, #1000
  65 002a 3246     		mov	r2, r6
  66 002c 04F57D71 		add	r1, r4, #1012
  67 0030 0DF6E830 		addw	r0, sp, #3048
  68 0034 FFF7FEFF 		bl	memcpy
  69              	.LVL2:
  76:main_cm4.c    ****         96027,97625,96166,98102,96258,98464,96444,98339,96751,98615,
  77:main_cm4.c    ****         96864,98429,97113,98280,97281,98005,97386,97811,97731,97436,
  78:main_cm4.c    ****         97948,97145,97891,96849,98402,96607,98112,96544,98337,96419,
  79:main_cm4.c    ****         98565,96500,98246,96486,98393,96524,98100,96726,97962,96902,
  80:main_cm4.c    ****         97688,97033,97499,97468,97311,97709,97142,97975,97062,98518,
  81:main_cm4.c    ****         96929,98493,97060,98982,97142,99388,97406,99269,97602,99597,
  82:main_cm4.c    ****         97792,99457,98096,99419,98376,99307,98614,99245,99053,99051,
  83:main_cm4.c    ****         99352,98867,99665,98764,100215,98688,100144,98743,100627,98752,
  84:main_cm4.c    ****         100923,99032,100799,99094,101111,99244,100868,99403,100797,99621,
  85:main_cm4.c    ****         100589,99763,100377,100100,100140,100269,99873,100563,99674,101021,
  86:main_cm4.c    ****         99524,100969,99551,101462,99564,101645,99692,101446,99770,101803,
  87:main_cm4.c    ****         99901,101652,100125,101504,100279,101331,100457,101110,100778,100915,
  88:main_cm4.c    ****         101007,100671,101289,100594,101818,100354,101721,100377,102270,100321,
  89:main_cm4.c    ****         102378,100537,102362,100684,102799,100805,102585,101090,102610,101267,
  90:main_cm4.c    ****         102405,101459,102259,101910,102105,102156,101966,102442,101795,102953,
  91:main_cm4.c    ****         101616,102905,101644,103542,101586,103483,101618,103314,101416,103288,
  92:main_cm4.c    ****         101016,102513,100613,101743,99933,100761,99438,99818,98908,98895,
  93:main_cm4.c    ****         98425,97997,98168,97200,98008,96533,97569,96158,97837,95820,
  94:main_cm4.c    ****         97544,95761,97496,95758,97826,95863,97578,96039,97544,96209,
  95:main_cm4.c    ****         97493,96416,97421,96883,97340,97182,97235,97562,97114,98095,
  96:main_cm4.c    ****         96945,98143,96973,98853,96974,98857,97165,98978,97281,99411,
  97:main_cm4.c    ****         97496,99321,97713,99313,97941,99350,98204,99231,98616,99012,
  98:main_cm4.c    ****         98810,98849,99134,98638,99428,98363,99388,98216,99901,98003,
  99:main_cm4.c    ****         99655,97962,99784,97948,99986,97911,99593,97960,99546,97939,
 100:main_cm4.c    ****         99346,98064,99033,98266,98767,98423,98492,98790,98286,99049};
 101:main_cm4.c    **** 
 102:main_cm4.c    ****     float dataRed[250] = {
ARM GAS  C:\Users\jmori\AppData\Local\Temp\ccYuPisP.s 			page 4


  70              		.loc 1 102 0
  71 0038 3246     		mov	r2, r6
  72 003a 04F2DC71 		addw	r1, r4, #2012
  73 003e 0DF50060 		add	r0, sp, #2048
  74 0042 FFF7FEFF 		bl	memcpy
  75              	.LVL3:
 103:main_cm4.c    ****         205973,207305,206168,208001,206188,208050,206371,208225,206544,208577,
 104:main_cm4.c    ****         206719,208501,206990,208473,207183,208417,207367,208379,207724,208151,
 105:main_cm4.c    ****         207986,207993,208303,207802,208682,207622,208730,207587,209365,207455,
 106:main_cm4.c    ****         209209,207541,209337,207549,209635,207806,209501,207957,209461,207996,
 107:main_cm4.c    ****         209317,208103,209140,208491,209000,208672,208748,209006,208491,209357,
 108:main_cm4.c    ****         208350,209326,208242,209947,208089,209826,208216,210028,208306,210395,
 109:main_cm4.c    ****         208429,210203,208596,210292,208686,210169,208954,210055,209354,209987,
 110:main_cm4.c    ****         209644,209821,210027,209660,210440,209483,210556,209554,211304,209484,
 111:main_cm4.c    ****         211253,209696,211585,209817,211970,210011,211842,210178,211772,209972,
 112:main_cm4.c    ****         211207,209606,210230,208954,209085,208043,207710,207263,206266,206439,
 113:main_cm4.c    ****         205001,205392,203820,204970,202756,203955,202073,203512,201459,203377,
 114:main_cm4.c    ****         201194,202759,200993,202713,201002,202459,201198,202302,201513,202188,
 115:main_cm4.c    ****         201835,202108,202327,202081,202824,201965,203003,202176,203932,202267,
 116:main_cm4.c    ****         203918,202500,204436,202777,204921,203032,204880,203312,205157,203520,
 117:main_cm4.c    ****         205057,203810,205034,204221,204997,204527,204912,204994,204917,205416,
 118:main_cm4.c    ****         204837,205671,204732,206338,204657,206251,204614,206460,204591,206662,
 119:main_cm4.c    ****         204581,206367,204586,206402,204548,205967,204548,205683,204576,205312,
 120:main_cm4.c    ****         204550,204995,204844,204647,205035,204328,205121,204143,205709,203943,
 121:main_cm4.c    ****         205474,203995,205910,204074,206112,204207,205943,204379,206337,204543,
 122:main_cm4.c    ****         206193,204879,206211,205289,206165,205581,206150,206104,206141,206566,
 123:main_cm4.c    ****         206010,206910,206113,207618,206076,207602,206252,208240,206424,208563,
 124:main_cm4.c    ****         206665,208406,206886,208919,207081,208835,207367,208762,207638,208729,
 125:main_cm4.c    ****         207896,208526,208348,208387,208732,208203,209019,208070,209391,207916,
 126:main_cm4.c    ****         209311,207900,209782,207913,209978,208038,209863,208165,210137,208232,
 127:main_cm4.c    ****         209963,208477,209827,208599,209678,208829,209472,209224,209399,209521};
 128:main_cm4.c    ****     
 129:main_cm4.c    ****     // Trouver les composantes Dc
 130:main_cm4.c    ****     float DcIr =0;
  76              		.loc 1 130 0
  77 0046 0DF2FC76 		addw	r6, sp, #2044
  78 004a 0024     		movs	r4, #0
  79 004c 3460     		str	r4, [r6]	@ float
 131:main_cm4.c    ****     float DcRed =0;
  80              		.loc 1 131 0
  81 004e 0DF5FF67 		add	r7, sp, #2040
  82 0052 3C60     		str	r4, [r7]	@ float
 132:main_cm4.c    ****     
 133:main_cm4.c    ****     arm_mean_f32(dataIR, BLOCK_SIZE, &DcIr);
  83              		.loc 1 133 0
  84 0054 3246     		mov	r2, r6
  85 0056 FA21     		movs	r1, #250
  86 0058 0DF6E830 		addw	r0, sp, #3048
  87 005c FFF7FEFF 		bl	arm_mean_f32
  88              	.LVL4:
 134:main_cm4.c    ****     arm_mean_f32(dataRed, BLOCK_SIZE, &DcRed);
  89              		.loc 1 134 0
  90 0060 3A46     		mov	r2, r7
  91 0062 FA21     		movs	r1, #250
  92 0064 0DF50060 		add	r0, sp, #2048
  93 0068 FFF7FEFF 		bl	arm_mean_f32
  94              	.LVL5:
ARM GAS  C:\Users\jmori\AppData\Local\Temp\ccYuPisP.s 			page 5


 135:main_cm4.c    ****     
 136:main_cm4.c    ****     // Filtrage des signaux
 137:main_cm4.c    ****     float IrFiltre[250];
 138:main_cm4.c    ****     float RedFiltre[250];
 139:main_cm4.c    ****     float maxIr=0;
  95              		.loc 1 139 0
  96 006c 0994     		str	r4, [sp, #36]	@ float
 140:main_cm4.c    ****     float maxRed =0;
  97              		.loc 1 140 0
  98 006e 0894     		str	r4, [sp, #32]	@ float
 141:main_cm4.c    ****     float minIr =0;
  99              		.loc 1 141 0
 100 0070 0794     		str	r4, [sp, #28]	@ float
 142:main_cm4.c    ****     float minRed =0;
 101              		.loc 1 142 0
 102 0072 0694     		str	r4, [sp, #24]	@ float
 143:main_cm4.c    ****     uint32_t position= 0;
 103              		.loc 1 143 0
 104 0074 0023     		movs	r3, #0
 105 0076 0593     		str	r3, [sp, #20]
 144:main_cm4.c    **** 
 145:main_cm4.c    **** 
 146:main_cm4.c    ****     arm_fir_f32(&S, dataIR, IrFiltre,BLOCK_SIZE);
 106              		.loc 1 146 0
 107 0078 FA23     		movs	r3, #250
 108 007a 0DF58262 		add	r2, sp, #1040
 109 007e 0DF6E831 		addw	r1, sp, #3048
 110 0082 4046     		mov	r0, r8
 111 0084 FFF7FEFF 		bl	arm_fir_f32
 112              	.LVL6:
 147:main_cm4.c    ****     arm_fir_f32(&S, dataRed, RedFiltre,BLOCK_SIZE);
 113              		.loc 1 147 0
 114 0088 FA23     		movs	r3, #250
 115 008a 0AAA     		add	r2, sp, #40
 116 008c 0DF50061 		add	r1, sp, #2048
 117 0090 4046     		mov	r0, r8
 118 0092 FFF7FEFF 		bl	arm_fir_f32
 119              	.LVL7:
 148:main_cm4.c    ****     
 149:main_cm4.c    ****     arm_max_f32(IrFiltre,BLOCK_SIZE,&maxIr,&position);
 120              		.loc 1 149 0
 121 0096 05AB     		add	r3, sp, #20
 122 0098 09AA     		add	r2, sp, #36
 123 009a FA21     		movs	r1, #250
 124 009c 0DF58260 		add	r0, sp, #1040
 125 00a0 FFF7FEFF 		bl	arm_max_f32
 126              	.LVL8:
 150:main_cm4.c    ****     arm_max_f32(RedFiltre,BLOCK_SIZE,&maxRed,&position);
 127              		.loc 1 150 0
 128 00a4 05AB     		add	r3, sp, #20
 129 00a6 08AA     		add	r2, sp, #32
 130 00a8 FA21     		movs	r1, #250
 131 00aa 0AA8     		add	r0, sp, #40
 132 00ac FFF7FEFF 		bl	arm_max_f32
 133              	.LVL9:
 151:main_cm4.c    ****     arm_min_f32(IrFiltre,BLOCK_SIZE,&minIr,&position);
 134              		.loc 1 151 0
ARM GAS  C:\Users\jmori\AppData\Local\Temp\ccYuPisP.s 			page 6


 135 00b0 05AB     		add	r3, sp, #20
 136 00b2 07AA     		add	r2, sp, #28
 137 00b4 FA21     		movs	r1, #250
 138 00b6 0DF58260 		add	r0, sp, #1040
 139 00ba FFF7FEFF 		bl	arm_min_f32
 140              	.LVL10:
 152:main_cm4.c    ****     arm_min_f32(RedFiltre,BLOCK_SIZE,&minRed,&position);
 141              		.loc 1 152 0
 142 00be 05AB     		add	r3, sp, #20
 143 00c0 06AA     		add	r2, sp, #24
 144 00c2 FA21     		movs	r1, #250
 145 00c4 0AA8     		add	r0, sp, #40
 146 00c6 FFF7FEFF 		bl	arm_min_f32
 147              	.LVL11:
 153:main_cm4.c    ****     
 154:main_cm4.c    ****       float AcIr = maxIr - minIr;
 148              		.loc 1 154 0
 149 00ca DDED097A 		vldr.32	s15, [sp, #36]
 150 00ce 9DED077A 		vldr.32	s14, [sp, #28]
 151 00d2 77EEC77A 		vsub.f32	s15, s15, s14
 152              	.LVL12:
 155:main_cm4.c    ****       float AcRed = maxRed - minRed;
 153              		.loc 1 155 0
 154 00d6 9DED087A 		vldr.32	s14, [sp, #32]
 155 00da DDED066A 		vldr.32	s13, [sp, #24]
 156 00de 37EE667A 		vsub.f32	s14, s14, s13
 157              	.LVL13:
 156:main_cm4.c    ****       
 157:main_cm4.c    ****       R = (AcRed/DcRed)/(AcIr/DcIr);
 158              		.loc 1 157 0
 159 00e2 97ED006A 		vldr.32	s12, [r7]
 160 00e6 C7EE066A 		vdiv.f32	s13, s14, s12
 161 00ea 96ED006A 		vldr.32	s12, [r6]
 162 00ee 87EE867A 		vdiv.f32	s14, s15, s12
 163              	.LVL14:
 164 00f2 C6EE877A 		vdiv.f32	s15, s13, s14
 165              	.LVL15:
 166 00f6 05F5FB64 		add	r4, r5, #2008
 167 00fa C4ED007A 		vstr.32	s15, [r4]
 158:main_cm4.c    ****       char buffer[10];
 159:main_cm4.c    ****       sprintf(&buffer[0],"%f",R);
 168              		.loc 1 159 0
 169 00fe 2068     		ldr	r0, [r4]	@ float
 170 0100 FFF7FEFF 		bl	__aeabi_f2d
 171              	.LVL16:
 172 0104 0246     		mov	r2, r0
 173 0106 0B46     		mov	r3, r1
 174 0108 2049     		ldr	r1, .L4+28
 175 010a 02A8     		add	r0, sp, #8
 176 010c FFF7FEFF 		bl	sprintf
 177              	.LVL17:
 178              	.LBB14:
 179              	.LBB15:
 180              	.LBB16:
 181              		.file 2 "Generated_Source\\PSoC6\\pdl\\drivers/peripheral/scb/cy_scb_uart.h"
   1:Generated_Source\PSoC6\pdl\drivers/peripheral/scb/cy_scb_uart.h **** /***************************************************************************//**
   2:Generated_Source\PSoC6\pdl\drivers/peripheral/scb/cy_scb_uart.h **** * \file cy_scb_uart.h
ARM GAS  C:\Users\jmori\AppData\Local\Temp\ccYuPisP.s 			page 7


   3:Generated_Source\PSoC6\pdl\drivers/peripheral/scb/cy_scb_uart.h **** * \version 2.20
   4:Generated_Source\PSoC6\pdl\drivers/peripheral/scb/cy_scb_uart.h **** *
   5:Generated_Source\PSoC6\pdl\drivers/peripheral/scb/cy_scb_uart.h **** * Provides UART API declarations of the SCB driver.
   6:Generated_Source\PSoC6\pdl\drivers/peripheral/scb/cy_scb_uart.h **** *
   7:Generated_Source\PSoC6\pdl\drivers/peripheral/scb/cy_scb_uart.h **** ********************************************************************************
   8:Generated_Source\PSoC6\pdl\drivers/peripheral/scb/cy_scb_uart.h **** * \copyright
   9:Generated_Source\PSoC6\pdl\drivers/peripheral/scb/cy_scb_uart.h **** * Copyright 2016-2018, Cypress Semiconductor Corporation.  All rights reserved.
  10:Generated_Source\PSoC6\pdl\drivers/peripheral/scb/cy_scb_uart.h **** * You may use this file only in accordance with the license, terms, conditions,
  11:Generated_Source\PSoC6\pdl\drivers/peripheral/scb/cy_scb_uart.h **** * disclaimers, and limitations in the end user license agreement accompanying
  12:Generated_Source\PSoC6\pdl\drivers/peripheral/scb/cy_scb_uart.h **** * the software package with which this file was provided.
  13:Generated_Source\PSoC6\pdl\drivers/peripheral/scb/cy_scb_uart.h **** *******************************************************************************/
  14:Generated_Source\PSoC6\pdl\drivers/peripheral/scb/cy_scb_uart.h **** 
  15:Generated_Source\PSoC6\pdl\drivers/peripheral/scb/cy_scb_uart.h **** /**
  16:Generated_Source\PSoC6\pdl\drivers/peripheral/scb/cy_scb_uart.h **** * \addtogroup group_scb_uart
  17:Generated_Source\PSoC6\pdl\drivers/peripheral/scb/cy_scb_uart.h **** * \{
  18:Generated_Source\PSoC6\pdl\drivers/peripheral/scb/cy_scb_uart.h **** * Driver API for UART
  19:Generated_Source\PSoC6\pdl\drivers/peripheral/scb/cy_scb_uart.h **** *
  20:Generated_Source\PSoC6\pdl\drivers/peripheral/scb/cy_scb_uart.h **** * The functions and other declarations used in this part of the driver are in 
  21:Generated_Source\PSoC6\pdl\drivers/peripheral/scb/cy_scb_uart.h **** * cy_scb_uart.h. You can also include cy_pdl.h (ModusToolbox only) to get access 
  22:Generated_Source\PSoC6\pdl\drivers/peripheral/scb/cy_scb_uart.h **** * to all functions and declarations in the PDL.
  23:Generated_Source\PSoC6\pdl\drivers/peripheral/scb/cy_scb_uart.h **** *
  24:Generated_Source\PSoC6\pdl\drivers/peripheral/scb/cy_scb_uart.h **** * The Universal Asynchronous Receiver/Transmitter (UART) protocol is an 
  25:Generated_Source\PSoC6\pdl\drivers/peripheral/scb/cy_scb_uart.h **** * asynchronous serial interface protocol. UART communication is typically 
  26:Generated_Source\PSoC6\pdl\drivers/peripheral/scb/cy_scb_uart.h **** * point-to-point. The UART interface consists of two signals:
  27:Generated_Source\PSoC6\pdl\drivers/peripheral/scb/cy_scb_uart.h **** * * TX: Transmitter output
  28:Generated_Source\PSoC6\pdl\drivers/peripheral/scb/cy_scb_uart.h **** * * RX: Receiver input
  29:Generated_Source\PSoC6\pdl\drivers/peripheral/scb/cy_scb_uart.h **** *
  30:Generated_Source\PSoC6\pdl\drivers/peripheral/scb/cy_scb_uart.h **** * Additionally, two side-band signals are used to implement flow control in 
  31:Generated_Source\PSoC6\pdl\drivers/peripheral/scb/cy_scb_uart.h **** * UART. Note that the flow control applies only to TX functionality.
  32:Generated_Source\PSoC6\pdl\drivers/peripheral/scb/cy_scb_uart.h **** * * Clear to Send (CTS): This is an input signal to the transmitter. 
  33:Generated_Source\PSoC6\pdl\drivers/peripheral/scb/cy_scb_uart.h **** *   When active, it indicates that the slave is ready for the master to 
  34:Generated_Source\PSoC6\pdl\drivers/peripheral/scb/cy_scb_uart.h **** *   transmit data.
  35:Generated_Source\PSoC6\pdl\drivers/peripheral/scb/cy_scb_uart.h **** * * Ready to Send (RTS): This is an output signal from the receiver. When 
  36:Generated_Source\PSoC6\pdl\drivers/peripheral/scb/cy_scb_uart.h **** *   active, it indicates that the receiver is ready to receive data
  37:Generated_Source\PSoC6\pdl\drivers/peripheral/scb/cy_scb_uart.h **** *
  38:Generated_Source\PSoC6\pdl\drivers/peripheral/scb/cy_scb_uart.h **** * Features:
  39:Generated_Source\PSoC6\pdl\drivers/peripheral/scb/cy_scb_uart.h **** * * Supports UART protocol
  40:Generated_Source\PSoC6\pdl\drivers/peripheral/scb/cy_scb_uart.h **** *   * Standard UART
  41:Generated_Source\PSoC6\pdl\drivers/peripheral/scb/cy_scb_uart.h **** *   * Multi-processor mode
  42:Generated_Source\PSoC6\pdl\drivers/peripheral/scb/cy_scb_uart.h **** * * SmartCard (ISO7816) reader
  43:Generated_Source\PSoC6\pdl\drivers/peripheral/scb/cy_scb_uart.h **** * * IrDA
  44:Generated_Source\PSoC6\pdl\drivers/peripheral/scb/cy_scb_uart.h **** * * Data frame size programmable from 4 to 16 bits
  45:Generated_Source\PSoC6\pdl\drivers/peripheral/scb/cy_scb_uart.h **** * * Programmable number of STOP bits, which can be set in terms of half bit 
  46:Generated_Source\PSoC6\pdl\drivers/peripheral/scb/cy_scb_uart.h **** *   periods between 1 and 4
  47:Generated_Source\PSoC6\pdl\drivers/peripheral/scb/cy_scb_uart.h **** * * Parity support (odd and even parity)
  48:Generated_Source\PSoC6\pdl\drivers/peripheral/scb/cy_scb_uart.h **** * * Median filter on Rx input
  49:Generated_Source\PSoC6\pdl\drivers/peripheral/scb/cy_scb_uart.h **** * * Programmable oversampling
  50:Generated_Source\PSoC6\pdl\drivers/peripheral/scb/cy_scb_uart.h **** * * Start skipping
  51:Generated_Source\PSoC6\pdl\drivers/peripheral/scb/cy_scb_uart.h **** *
  52:Generated_Source\PSoC6\pdl\drivers/peripheral/scb/cy_scb_uart.h **** ********************************************************************************
  53:Generated_Source\PSoC6\pdl\drivers/peripheral/scb/cy_scb_uart.h **** * \section group_scb_uart_configuration Configuration Considerations
  54:Generated_Source\PSoC6\pdl\drivers/peripheral/scb/cy_scb_uart.h **** ********************************************************************************
  55:Generated_Source\PSoC6\pdl\drivers/peripheral/scb/cy_scb_uart.h **** * The UART driver configuration can be divided to number of sequential
  56:Generated_Source\PSoC6\pdl\drivers/peripheral/scb/cy_scb_uart.h **** * steps listed below:
  57:Generated_Source\PSoC6\pdl\drivers/peripheral/scb/cy_scb_uart.h **** * * \ref group_scb_uart_config
  58:Generated_Source\PSoC6\pdl\drivers/peripheral/scb/cy_scb_uart.h **** * * \ref group_scb_uart_pins
  59:Generated_Source\PSoC6\pdl\drivers/peripheral/scb/cy_scb_uart.h **** * * \ref group_scb_uart_clock
ARM GAS  C:\Users\jmori\AppData\Local\Temp\ccYuPisP.s 			page 8


  60:Generated_Source\PSoC6\pdl\drivers/peripheral/scb/cy_scb_uart.h **** * * \ref group_scb_uart_data_rate
  61:Generated_Source\PSoC6\pdl\drivers/peripheral/scb/cy_scb_uart.h **** * * \ref group_scb_uart_intr
  62:Generated_Source\PSoC6\pdl\drivers/peripheral/scb/cy_scb_uart.h **** * * \ref group_scb_uart_enable
  63:Generated_Source\PSoC6\pdl\drivers/peripheral/scb/cy_scb_uart.h **** *
  64:Generated_Source\PSoC6\pdl\drivers/peripheral/scb/cy_scb_uart.h **** * \note
  65:Generated_Source\PSoC6\pdl\drivers/peripheral/scb/cy_scb_uart.h **** * UART driver is built on top of the SCB hardware block. The SCB5 instance is
  66:Generated_Source\PSoC6\pdl\drivers/peripheral/scb/cy_scb_uart.h **** * used as an example for all code snippets. Modify the code to match your
  67:Generated_Source\PSoC6\pdl\drivers/peripheral/scb/cy_scb_uart.h **** * design.
  68:Generated_Source\PSoC6\pdl\drivers/peripheral/scb/cy_scb_uart.h **** *
  69:Generated_Source\PSoC6\pdl\drivers/peripheral/scb/cy_scb_uart.h **** ********************************************************************************
  70:Generated_Source\PSoC6\pdl\drivers/peripheral/scb/cy_scb_uart.h **** * \subsection group_scb_uart_config Configure UART
  71:Generated_Source\PSoC6\pdl\drivers/peripheral/scb/cy_scb_uart.h **** ********************************************************************************
  72:Generated_Source\PSoC6\pdl\drivers/peripheral/scb/cy_scb_uart.h **** * To set up the UART driver, provide the configuration parameters in the
  73:Generated_Source\PSoC6\pdl\drivers/peripheral/scb/cy_scb_uart.h **** * \ref cy_stc_scb_uart_config_t structure. For example: provide uartMode,
  74:Generated_Source\PSoC6\pdl\drivers/peripheral/scb/cy_scb_uart.h **** * oversample, dataWidth, enableMsbFirst, parity, and stopBits. The other
  75:Generated_Source\PSoC6\pdl\drivers/peripheral/scb/cy_scb_uart.h **** * parameters are optional. To initialize the driver, call \ref Cy_SCB_UART_Init 
  76:Generated_Source\PSoC6\pdl\drivers/peripheral/scb/cy_scb_uart.h **** * function providing a pointer to the populated \ref cy_stc_scb_uart_config_t 
  77:Generated_Source\PSoC6\pdl\drivers/peripheral/scb/cy_scb_uart.h **** * structure and the allocated \ref cy_stc_scb_uart_context_t structure.
  78:Generated_Source\PSoC6\pdl\drivers/peripheral/scb/cy_scb_uart.h **** *
  79:Generated_Source\PSoC6\pdl\drivers/peripheral/scb/cy_scb_uart.h **** * \snippet SCB_CompDatasheet_sut_01_revA.cydsn\uart_snippets.c UART_CFG
  80:Generated_Source\PSoC6\pdl\drivers/peripheral/scb/cy_scb_uart.h **** *
  81:Generated_Source\PSoC6\pdl\drivers/peripheral/scb/cy_scb_uart.h **** ********************************************************************************
  82:Generated_Source\PSoC6\pdl\drivers/peripheral/scb/cy_scb_uart.h **** * \subsection group_scb_uart_pins Assign and Configure Pins
  83:Generated_Source\PSoC6\pdl\drivers/peripheral/scb/cy_scb_uart.h **** ********************************************************************************
  84:Generated_Source\PSoC6\pdl\drivers/peripheral/scb/cy_scb_uart.h **** * Only dedicated SCB pins can be used for UART operation. The HSIOM
  85:Generated_Source\PSoC6\pdl\drivers/peripheral/scb/cy_scb_uart.h **** * register must be configured to connect dedicated SCB UART pins to the 
  86:Generated_Source\PSoC6\pdl\drivers/peripheral/scb/cy_scb_uart.h **** * SCB block. Also, the UART output pins must be configured in Strong Drive 
  87:Generated_Source\PSoC6\pdl\drivers/peripheral/scb/cy_scb_uart.h **** * Input Off mode and UART input pins in Digital High-Z:
  88:Generated_Source\PSoC6\pdl\drivers/peripheral/scb/cy_scb_uart.h **** *
  89:Generated_Source\PSoC6\pdl\drivers/peripheral/scb/cy_scb_uart.h **** * \snippet SCB_CompDatasheet_sut_01_revA.cydsn\uart_snippets.c UART_CFG_PINS
  90:Generated_Source\PSoC6\pdl\drivers/peripheral/scb/cy_scb_uart.h **** *
  91:Generated_Source\PSoC6\pdl\drivers/peripheral/scb/cy_scb_uart.h **** ********************************************************************************
  92:Generated_Source\PSoC6\pdl\drivers/peripheral/scb/cy_scb_uart.h **** * \subsection group_scb_uart_clock Assign Clock Divider
  93:Generated_Source\PSoC6\pdl\drivers/peripheral/scb/cy_scb_uart.h **** ********************************************************************************
  94:Generated_Source\PSoC6\pdl\drivers/peripheral/scb/cy_scb_uart.h **** * A clock source must be connected to the SCB block to oversample input and
  95:Generated_Source\PSoC6\pdl\drivers/peripheral/scb/cy_scb_uart.h **** * output signals, in this document this clock will be referred as clk_scb.
  96:Generated_Source\PSoC6\pdl\drivers/peripheral/scb/cy_scb_uart.h **** * You must use one of available integer or fractional dividers. Use the 
  97:Generated_Source\PSoC6\pdl\drivers/peripheral/scb/cy_scb_uart.h **** * \ref group_sysclk driver API to do this.
  98:Generated_Source\PSoC6\pdl\drivers/peripheral/scb/cy_scb_uart.h **** *
  99:Generated_Source\PSoC6\pdl\drivers/peripheral/scb/cy_scb_uart.h **** * \snippet SCB_CompDatasheet_sut_01_revA.cydsn\uart_snippets.c UART_CFG_ASSIGN_CLOCK
 100:Generated_Source\PSoC6\pdl\drivers/peripheral/scb/cy_scb_uart.h **** *
 101:Generated_Source\PSoC6\pdl\drivers/peripheral/scb/cy_scb_uart.h **** ********************************************************************************
 102:Generated_Source\PSoC6\pdl\drivers/peripheral/scb/cy_scb_uart.h **** * \subsection group_scb_uart_data_rate Configure Baud Rate
 103:Generated_Source\PSoC6\pdl\drivers/peripheral/scb/cy_scb_uart.h **** ********************************************************************************
 104:Generated_Source\PSoC6\pdl\drivers/peripheral/scb/cy_scb_uart.h **** * To get the UART to operate with the desired baud rate, the clk_scb frequency
 105:Generated_Source\PSoC6\pdl\drivers/peripheral/scb/cy_scb_uart.h **** * and the oversample must be configured. Use the \ref group_sysclk driver API
 106:Generated_Source\PSoC6\pdl\drivers/peripheral/scb/cy_scb_uart.h **** * to configure clk_scb frequency. Set the <em><b>oversample parameter
 107:Generated_Source\PSoC6\pdl\drivers/peripheral/scb/cy_scb_uart.h **** * in configuration structure</b></em> to define the number of the SCB clocks
 108:Generated_Source\PSoC6\pdl\drivers/peripheral/scb/cy_scb_uart.h **** * within one UART bit-time.
 109:Generated_Source\PSoC6\pdl\drivers/peripheral/scb/cy_scb_uart.h **** *
 110:Generated_Source\PSoC6\pdl\drivers/peripheral/scb/cy_scb_uart.h **** * \snippet SCB_CompDatasheet_sut_01_revA.cydsn\uart_snippets.c UART_CFG_DATA_RATE
 111:Generated_Source\PSoC6\pdl\drivers/peripheral/scb/cy_scb_uart.h **** *
 112:Generated_Source\PSoC6\pdl\drivers/peripheral/scb/cy_scb_uart.h **** * <b>Refer to the technical reference manual (TRM) section UART sub-section
 113:Generated_Source\PSoC6\pdl\drivers/peripheral/scb/cy_scb_uart.h **** * Clocking and Oversampling to get information about how to configure the UART to run with
 114:Generated_Source\PSoC6\pdl\drivers/peripheral/scb/cy_scb_uart.h **** * desired baud rate.</b>
 115:Generated_Source\PSoC6\pdl\drivers/peripheral/scb/cy_scb_uart.h **** *
 116:Generated_Source\PSoC6\pdl\drivers/peripheral/scb/cy_scb_uart.h **** ********************************************************************************
ARM GAS  C:\Users\jmori\AppData\Local\Temp\ccYuPisP.s 			page 9


 117:Generated_Source\PSoC6\pdl\drivers/peripheral/scb/cy_scb_uart.h **** * \subsection group_scb_uart_intr Configure Interrupt
 118:Generated_Source\PSoC6\pdl\drivers/peripheral/scb/cy_scb_uart.h **** ********************************************************************************
 119:Generated_Source\PSoC6\pdl\drivers/peripheral/scb/cy_scb_uart.h **** * The interrupt is optional for the UART operation. To configure interrupt
 120:Generated_Source\PSoC6\pdl\drivers/peripheral/scb/cy_scb_uart.h **** * the \ref Cy_SCB_UART_Interrupt function must be called in the interrupt
 121:Generated_Source\PSoC6\pdl\drivers/peripheral/scb/cy_scb_uart.h **** * handler for the selected SCB instance. Also, this interrupt must be enabled
 122:Generated_Source\PSoC6\pdl\drivers/peripheral/scb/cy_scb_uart.h **** * in the NVIC.
 123:Generated_Source\PSoC6\pdl\drivers/peripheral/scb/cy_scb_uart.h **** * The interrupt must be configured when \ref group_scb_uart_hl will be used.
 124:Generated_Source\PSoC6\pdl\drivers/peripheral/scb/cy_scb_uart.h **** *
 125:Generated_Source\PSoC6\pdl\drivers/peripheral/scb/cy_scb_uart.h **** * \snippet SCB_CompDatasheet_sut_01_revA.cydsn\uart_snippets.c UART_INTR_A
 126:Generated_Source\PSoC6\pdl\drivers/peripheral/scb/cy_scb_uart.h **** * \snippet SCB_CompDatasheet_sut_01_revA.cydsn\uart_snippets.c UART_INTR_B
 127:Generated_Source\PSoC6\pdl\drivers/peripheral/scb/cy_scb_uart.h **** *
 128:Generated_Source\PSoC6\pdl\drivers/peripheral/scb/cy_scb_uart.h **** ********************************************************************************
 129:Generated_Source\PSoC6\pdl\drivers/peripheral/scb/cy_scb_uart.h **** * \subsection group_scb_uart_enable Enable UART
 130:Generated_Source\PSoC6\pdl\drivers/peripheral/scb/cy_scb_uart.h **** ********************************************************************************
 131:Generated_Source\PSoC6\pdl\drivers/peripheral/scb/cy_scb_uart.h **** * Finally, enable the UART operation by calling \ref Cy_SCB_UART_Enable.
 132:Generated_Source\PSoC6\pdl\drivers/peripheral/scb/cy_scb_uart.h **** *
 133:Generated_Source\PSoC6\pdl\drivers/peripheral/scb/cy_scb_uart.h **** * \snippet SCB_CompDatasheet_sut_01_revA.cydsn\uart_snippets.c UART_ENABLE
 134:Generated_Source\PSoC6\pdl\drivers/peripheral/scb/cy_scb_uart.h **** *
 135:Generated_Source\PSoC6\pdl\drivers/peripheral/scb/cy_scb_uart.h **** ********************************************************************************
 136:Generated_Source\PSoC6\pdl\drivers/peripheral/scb/cy_scb_uart.h **** * \section group_scb_uart_use_cases Common Use Cases
 137:Generated_Source\PSoC6\pdl\drivers/peripheral/scb/cy_scb_uart.h **** ********************************************************************************
 138:Generated_Source\PSoC6\pdl\drivers/peripheral/scb/cy_scb_uart.h **** * The UART API is divided into two categories: \ref group_scb_uart_low_level_functions
 139:Generated_Source\PSoC6\pdl\drivers/peripheral/scb/cy_scb_uart.h **** * and \ref group_scb_uart_high_level_functions. \n
 140:Generated_Source\PSoC6\pdl\drivers/peripheral/scb/cy_scb_uart.h **** * <em>Do not mix <b>High-Level</b> and <b>Low-Level</b> API because a Low-Level
 141:Generated_Source\PSoC6\pdl\drivers/peripheral/scb/cy_scb_uart.h **** * API can adversely affect the operation of a High-Level API.</em>
 142:Generated_Source\PSoC6\pdl\drivers/peripheral/scb/cy_scb_uart.h **** *
 143:Generated_Source\PSoC6\pdl\drivers/peripheral/scb/cy_scb_uart.h **** ********************************************************************************
 144:Generated_Source\PSoC6\pdl\drivers/peripheral/scb/cy_scb_uart.h **** * \subsection group_scb_uart_ll Low-Level API
 145:Generated_Source\PSoC6\pdl\drivers/peripheral/scb/cy_scb_uart.h **** ********************************************************************************
 146:Generated_Source\PSoC6\pdl\drivers/peripheral/scb/cy_scb_uart.h **** * The \ref group_scb_uart_low_level_functions functions allow
 147:Generated_Source\PSoC6\pdl\drivers/peripheral/scb/cy_scb_uart.h **** * interacting directly with the hardware and do not use \ref Cy_SCB_UART_Interrupt.
 148:Generated_Source\PSoC6\pdl\drivers/peripheral/scb/cy_scb_uart.h **** * These functions do not require context for operation. Thus, NULL can be
 149:Generated_Source\PSoC6\pdl\drivers/peripheral/scb/cy_scb_uart.h **** * passed for context parameter in \ref Cy_SCB_UART_Init and \ref Cy_SCB_UART_Disable 
 150:Generated_Source\PSoC6\pdl\drivers/peripheral/scb/cy_scb_uart.h **** * instead of a pointer to the context structure.
 151:Generated_Source\PSoC6\pdl\drivers/peripheral/scb/cy_scb_uart.h **** *
 152:Generated_Source\PSoC6\pdl\drivers/peripheral/scb/cy_scb_uart.h **** * * To write data into the TX FIFO, use one of the provided functions:
 153:Generated_Source\PSoC6\pdl\drivers/peripheral/scb/cy_scb_uart.h **** *   \ref Cy_SCB_UART_Put, \ref Cy_SCB_UART_PutArray,
 154:Generated_Source\PSoC6\pdl\drivers/peripheral/scb/cy_scb_uart.h **** *   \ref Cy_SCB_UART_PutArrayBlocking or \ref Cy_SCB_UART_PutString.
 155:Generated_Source\PSoC6\pdl\drivers/peripheral/scb/cy_scb_uart.h **** *   Note that putting data into the TX FIFO starts data transfer.
 156:Generated_Source\PSoC6\pdl\drivers/peripheral/scb/cy_scb_uart.h **** *
 157:Generated_Source\PSoC6\pdl\drivers/peripheral/scb/cy_scb_uart.h **** * * To read data from the RX FIFO, use one of the provided functions:
 158:Generated_Source\PSoC6\pdl\drivers/peripheral/scb/cy_scb_uart.h **** *   \ref Cy_SCB_UART_Get, \ref Cy_SCB_UART_GetArray or
 159:Generated_Source\PSoC6\pdl\drivers/peripheral/scb/cy_scb_uart.h **** *   \ref Cy_SCB_UART_GetArrayBlocking.
 160:Generated_Source\PSoC6\pdl\drivers/peripheral/scb/cy_scb_uart.h **** *
 161:Generated_Source\PSoC6\pdl\drivers/peripheral/scb/cy_scb_uart.h **** * * The statuses can be polled using: \ref Cy_SCB_UART_GetRxFifoStatus and
 162:Generated_Source\PSoC6\pdl\drivers/peripheral/scb/cy_scb_uart.h **** *   \ref Cy_SCB_UART_GetTxFifoStatus.
 163:Generated_Source\PSoC6\pdl\drivers/peripheral/scb/cy_scb_uart.h **** *   <em>The statuses are <b>W1C (Write 1 to Clear)</b> and after a status
 164:Generated_Source\PSoC6\pdl\drivers/peripheral/scb/cy_scb_uart.h **** *   is set, it must be cleared.</em> Note that there are statuses evaluated as level.
 165:Generated_Source\PSoC6\pdl\drivers/peripheral/scb/cy_scb_uart.h **** *   These statuses remain set until an event is true. Therefore, after the clear
 166:Generated_Source\PSoC6\pdl\drivers/peripheral/scb/cy_scb_uart.h **** *   operation, the status is cleared but then it is restored (if event is still
 167:Generated_Source\PSoC6\pdl\drivers/peripheral/scb/cy_scb_uart.h **** *   true).
 168:Generated_Source\PSoC6\pdl\drivers/peripheral/scb/cy_scb_uart.h **** *   Also, the following functions can be used for polling as well
 169:Generated_Source\PSoC6\pdl\drivers/peripheral/scb/cy_scb_uart.h **** *   \ref Cy_SCB_UART_IsTxComplete, \ref Cy_SCB_UART_GetNumInRxFifo and
 170:Generated_Source\PSoC6\pdl\drivers/peripheral/scb/cy_scb_uart.h **** *   \ref Cy_SCB_UART_GetNumInTxFifo.
 171:Generated_Source\PSoC6\pdl\drivers/peripheral/scb/cy_scb_uart.h **** *
 172:Generated_Source\PSoC6\pdl\drivers/peripheral/scb/cy_scb_uart.h **** * \snippet SCB_CompDatasheet_sut_01_revA.cydsn\uart_snippets.c UART_TRANSMIT_DATA_LL
 173:Generated_Source\PSoC6\pdl\drivers/peripheral/scb/cy_scb_uart.h **** *
ARM GAS  C:\Users\jmori\AppData\Local\Temp\ccYuPisP.s 			page 10


 174:Generated_Source\PSoC6\pdl\drivers/peripheral/scb/cy_scb_uart.h **** ********************************************************************************
 175:Generated_Source\PSoC6\pdl\drivers/peripheral/scb/cy_scb_uart.h **** * \subsection group_scb_uart_hl High-Level API
 176:Generated_Source\PSoC6\pdl\drivers/peripheral/scb/cy_scb_uart.h **** ********************************************************************************
 177:Generated_Source\PSoC6\pdl\drivers/peripheral/scb/cy_scb_uart.h **** * The \ref group_scb_uart_high_level_functions API use \ref Cy_SCB_UART_Interrupt
 178:Generated_Source\PSoC6\pdl\drivers/peripheral/scb/cy_scb_uart.h **** * to execute the transfer. Call \ref Cy_SCB_UART_Transmit to start transmission.
 179:Generated_Source\PSoC6\pdl\drivers/peripheral/scb/cy_scb_uart.h **** * Call \ref Cy_SCB_UART_Receive to start receive operation. After the
 180:Generated_Source\PSoC6\pdl\drivers/peripheral/scb/cy_scb_uart.h **** * operation is started the \ref Cy_SCB_UART_Interrupt handles the data
 181:Generated_Source\PSoC6\pdl\drivers/peripheral/scb/cy_scb_uart.h **** * transfer until its completion.
 182:Generated_Source\PSoC6\pdl\drivers/peripheral/scb/cy_scb_uart.h **** * Therefore \ref Cy_SCB_UART_Interrupt must be called inside the user 
 183:Generated_Source\PSoC6\pdl\drivers/peripheral/scb/cy_scb_uart.h **** * interrupt handler to make the High-Level API work. To monitor status
 184:Generated_Source\PSoC6\pdl\drivers/peripheral/scb/cy_scb_uart.h **** * of transmit operation, use \ref Cy_SCB_UART_GetTransmitStatus and
 185:Generated_Source\PSoC6\pdl\drivers/peripheral/scb/cy_scb_uart.h **** * \ref Cy_SCB_UART_GetReceiveStatus to monitor receive status appropriately.
 186:Generated_Source\PSoC6\pdl\drivers/peripheral/scb/cy_scb_uart.h **** * Alternatively use \ref Cy_SCB_UART_RegisterCallback to register callback
 187:Generated_Source\PSoC6\pdl\drivers/peripheral/scb/cy_scb_uart.h **** * function to be notified about \ref group_scb_uart_macros_callback_events.
 188:Generated_Source\PSoC6\pdl\drivers/peripheral/scb/cy_scb_uart.h **** *
 189:Generated_Source\PSoC6\pdl\drivers/peripheral/scb/cy_scb_uart.h **** * <b>Receive Operation</b>
 190:Generated_Source\PSoC6\pdl\drivers/peripheral/scb/cy_scb_uart.h **** * \snippet SCB_CompDatasheet_sut_01_revA.cydsn\uart_snippets.c UART_RECEIVE_DATA_HL
 191:Generated_Source\PSoC6\pdl\drivers/peripheral/scb/cy_scb_uart.h **** *
 192:Generated_Source\PSoC6\pdl\drivers/peripheral/scb/cy_scb_uart.h **** * <b>Transmit Operation</b>
 193:Generated_Source\PSoC6\pdl\drivers/peripheral/scb/cy_scb_uart.h **** * \snippet SCB_CompDatasheet_sut_01_revA.cydsn\uart_snippets.c UART_TRANSMIT_DATA_HL
 194:Generated_Source\PSoC6\pdl\drivers/peripheral/scb/cy_scb_uart.h **** *
 195:Generated_Source\PSoC6\pdl\drivers/peripheral/scb/cy_scb_uart.h **** * There is also capability to insert a receive ring buffer that operates between
 196:Generated_Source\PSoC6\pdl\drivers/peripheral/scb/cy_scb_uart.h **** * the RX FIFO and the user buffer. The received data is copied into the ring
 197:Generated_Source\PSoC6\pdl\drivers/peripheral/scb/cy_scb_uart.h **** * buffer from the RX FIFO. This process runs in the background after the ring
 198:Generated_Source\PSoC6\pdl\drivers/peripheral/scb/cy_scb_uart.h **** * buffer operation is started by \ref Cy_SCB_UART_StartRingBuffer.
 199:Generated_Source\PSoC6\pdl\drivers/peripheral/scb/cy_scb_uart.h **** * When \ref Cy_SCB_UART_Receive is called, it first reads data from the ring
 200:Generated_Source\PSoC6\pdl\drivers/peripheral/scb/cy_scb_uart.h **** * buffer and then sets up an interrupt to receive more data if the required
 201:Generated_Source\PSoC6\pdl\drivers/peripheral/scb/cy_scb_uart.h **** * amount has not yet been read.
 202:Generated_Source\PSoC6\pdl\drivers/peripheral/scb/cy_scb_uart.h **** *
 203:Generated_Source\PSoC6\pdl\drivers/peripheral/scb/cy_scb_uart.h **** ********************************************************************************
 204:Generated_Source\PSoC6\pdl\drivers/peripheral/scb/cy_scb_uart.h **** * \section group_scb_uart_dma_trig DMA Trigger
 205:Generated_Source\PSoC6\pdl\drivers/peripheral/scb/cy_scb_uart.h **** ********************************************************************************
 206:Generated_Source\PSoC6\pdl\drivers/peripheral/scb/cy_scb_uart.h **** * The SCB provides TX and RX output trigger signals that can be routed to the
 207:Generated_Source\PSoC6\pdl\drivers/peripheral/scb/cy_scb_uart.h **** * DMA controller inputs. These signals are assigned based on the data availability
 208:Generated_Source\PSoC6\pdl\drivers/peripheral/scb/cy_scb_uart.h **** * in the TX and RX FIFOs appropriately.
 209:Generated_Source\PSoC6\pdl\drivers/peripheral/scb/cy_scb_uart.h **** *
 210:Generated_Source\PSoC6\pdl\drivers/peripheral/scb/cy_scb_uart.h **** * * The RX trigger signal is active while the number of data
 211:Generated_Source\PSoC6\pdl\drivers/peripheral/scb/cy_scb_uart.h **** *   elements in the RX FIFO is greater than the value of RX FIFO level. Use
 212:Generated_Source\PSoC6\pdl\drivers/peripheral/scb/cy_scb_uart.h **** *   function \ref Cy_SCB_SetRxFifoLevel or set configuration structure
 213:Generated_Source\PSoC6\pdl\drivers/peripheral/scb/cy_scb_uart.h **** *   rxFifoTriggerLevel parameter to configure RX FIFO level value. \n
 214:Generated_Source\PSoC6\pdl\drivers/peripheral/scb/cy_scb_uart.h **** *   <em>For example, the RX FIFO has 8 data elements and the RX FIFO level is 0.
 215:Generated_Source\PSoC6\pdl\drivers/peripheral/scb/cy_scb_uart.h **** *   The RX trigger signal is active until DMA reads all data from
 216:Generated_Source\PSoC6\pdl\drivers/peripheral/scb/cy_scb_uart.h **** *   the RX FIFO.</em>
 217:Generated_Source\PSoC6\pdl\drivers/peripheral/scb/cy_scb_uart.h **** *
 218:Generated_Source\PSoC6\pdl\drivers/peripheral/scb/cy_scb_uart.h **** * * The TX trigger signal is active while the number of data elements
 219:Generated_Source\PSoC6\pdl\drivers/peripheral/scb/cy_scb_uart.h **** *   in the TX FIFO is less than the value of TX FIFO level. Use function
 220:Generated_Source\PSoC6\pdl\drivers/peripheral/scb/cy_scb_uart.h **** *   \ref Cy_SCB_SetTxFifoLevel or set configuration structure txFifoTriggerLevel
 221:Generated_Source\PSoC6\pdl\drivers/peripheral/scb/cy_scb_uart.h **** *   parameter to configure TX FIFO level value. \n
 222:Generated_Source\PSoC6\pdl\drivers/peripheral/scb/cy_scb_uart.h **** *   <em>For example, the TX FIFO has 0 data elements (empty) and the TX FIFO level
 223:Generated_Source\PSoC6\pdl\drivers/peripheral/scb/cy_scb_uart.h **** *   is 7. The TX trigger signal is active until DMA loads TX FIFO
 224:Generated_Source\PSoC6\pdl\drivers/peripheral/scb/cy_scb_uart.h **** *   with 8 data elements (note that after the first TX load operation, the data 
 225:Generated_Source\PSoC6\pdl\drivers/peripheral/scb/cy_scb_uart.h **** *   element goes to the shift register and TX FIFO is empty).</em>
 226:Generated_Source\PSoC6\pdl\drivers/peripheral/scb/cy_scb_uart.h **** *
 227:Generated_Source\PSoC6\pdl\drivers/peripheral/scb/cy_scb_uart.h **** * To route SCB TX or RX trigger signals to DMA controller use \ref group_trigmux
 228:Generated_Source\PSoC6\pdl\drivers/peripheral/scb/cy_scb_uart.h **** * driver API.
 229:Generated_Source\PSoC6\pdl\drivers/peripheral/scb/cy_scb_uart.h **** *
 230:Generated_Source\PSoC6\pdl\drivers/peripheral/scb/cy_scb_uart.h **** * \note
ARM GAS  C:\Users\jmori\AppData\Local\Temp\ccYuPisP.s 			page 11


 231:Generated_Source\PSoC6\pdl\drivers/peripheral/scb/cy_scb_uart.h **** * To properly handle DMA level request signal activation and de-activation from the SCB
 232:Generated_Source\PSoC6\pdl\drivers/peripheral/scb/cy_scb_uart.h **** * peripheral block the DMA Descriptor typically must be configured to re-trigger
 233:Generated_Source\PSoC6\pdl\drivers/peripheral/scb/cy_scb_uart.h **** * after 16 Clk_Slow cycles.
 234:Generated_Source\PSoC6\pdl\drivers/peripheral/scb/cy_scb_uart.h **** *
 235:Generated_Source\PSoC6\pdl\drivers/peripheral/scb/cy_scb_uart.h **** ********************************************************************************
 236:Generated_Source\PSoC6\pdl\drivers/peripheral/scb/cy_scb_uart.h **** * \section group_scb_uart_lp Low Power Support
 237:Generated_Source\PSoC6\pdl\drivers/peripheral/scb/cy_scb_uart.h **** ********************************************************************************
 238:Generated_Source\PSoC6\pdl\drivers/peripheral/scb/cy_scb_uart.h **** * The UART driver provides callback functions to handle power mode
 239:Generated_Source\PSoC6\pdl\drivers/peripheral/scb/cy_scb_uart.h **** * transition. The callback \ref Cy_SCB_UART_DeepSleepCallback must be called
 240:Generated_Source\PSoC6\pdl\drivers/peripheral/scb/cy_scb_uart.h **** * during execution of \ref Cy_SysPm_CpuEnterDeepSleep \ref Cy_SCB_UART_HibernateCallback
 241:Generated_Source\PSoC6\pdl\drivers/peripheral/scb/cy_scb_uart.h **** * must be called during execution of \ref Cy_SysPm_SystemEnterHibernate. To trigger the
 242:Generated_Source\PSoC6\pdl\drivers/peripheral/scb/cy_scb_uart.h **** * callback execution, the callback must be registered before calling the
 243:Generated_Source\PSoC6\pdl\drivers/peripheral/scb/cy_scb_uart.h **** * power mode transition function. Refer to \ref group_syspm driver for more
 244:Generated_Source\PSoC6\pdl\drivers/peripheral/scb/cy_scb_uart.h **** * information about power mode transitions and callback registration.
 245:Generated_Source\PSoC6\pdl\drivers/peripheral/scb/cy_scb_uart.h **** *
 246:Generated_Source\PSoC6\pdl\drivers/peripheral/scb/cy_scb_uart.h **** * The UART is disabled during Deep Sleep and Hibernate and stops driving 
 247:Generated_Source\PSoC6\pdl\drivers/peripheral/scb/cy_scb_uart.h **** * the output pins. The state of the UART output pins TX and RTS is High-Z, 
 248:Generated_Source\PSoC6\pdl\drivers/peripheral/scb/cy_scb_uart.h **** * which can cause unexpected behavior of the UART receiver due to possible
 249:Generated_Source\PSoC6\pdl\drivers/peripheral/scb/cy_scb_uart.h **** * glitches on these lines. These pins must be set to the inactive state before 
 250:Generated_Source\PSoC6\pdl\drivers/peripheral/scb/cy_scb_uart.h **** * entering Deep Sleep or Hibernate mode.
 251:Generated_Source\PSoC6\pdl\drivers/peripheral/scb/cy_scb_uart.h **** * These pins must keep the inactive level (the same state 
 252:Generated_Source\PSoC6\pdl\drivers/peripheral/scb/cy_scb_uart.h **** * when UART TX is enabled and does not transfer data) before entering Deep 
 253:Generated_Source\PSoC6\pdl\drivers/peripheral/scb/cy_scb_uart.h **** * Sleep or Hibernate mode. To do that, write the GPIO data register of each pin 
 254:Generated_Source\PSoC6\pdl\drivers/peripheral/scb/cy_scb_uart.h **** * to the inactive level for each output pin. Then configure High-Speed Input 
 255:Generated_Source\PSoC6\pdl\drivers/peripheral/scb/cy_scb_uart.h **** * Output Multiplexer (HSIOM) of each pin to be controlled by the GPIO (use 
 256:Generated_Source\PSoC6\pdl\drivers/peripheral/scb/cy_scb_uart.h **** * \ref group_gpio driver API). After exiting Deep Sleep mode the UART 
 257:Generated_Source\PSoC6\pdl\drivers/peripheral/scb/cy_scb_uart.h **** * must be enabled and the pins configuration restored to return the 
 258:Generated_Source\PSoC6\pdl\drivers/peripheral/scb/cy_scb_uart.h **** * UART control of the pins (after exiting Hibernate mode, the 
 259:Generated_Source\PSoC6\pdl\drivers/peripheral/scb/cy_scb_uart.h **** * system initialization code does the same). Copy either or 
 260:Generated_Source\PSoC6\pdl\drivers/peripheral/scb/cy_scb_uart.h **** * both \ref Cy_SCB_UART_DeepSleepCallback and \ref Cy_SCB_UART_HibernateCallback 
 261:Generated_Source\PSoC6\pdl\drivers/peripheral/scb/cy_scb_uart.h **** * as appropriate, and make the changes described above inside the function.
 262:Generated_Source\PSoC6\pdl\drivers/peripheral/scb/cy_scb_uart.h **** * Alternately, external pull-up or pull-down resistors can be connected 
 263:Generated_Source\PSoC6\pdl\drivers/peripheral/scb/cy_scb_uart.h **** * to the appropriate UART lines to keep them inactive during Deep-Sleep or 
 264:Generated_Source\PSoC6\pdl\drivers/peripheral/scb/cy_scb_uart.h **** * Hibernate.
 265:Generated_Source\PSoC6\pdl\drivers/peripheral/scb/cy_scb_uart.h **** *
 266:Generated_Source\PSoC6\pdl\drivers/peripheral/scb/cy_scb_uart.h **** ********************************************************************************
 267:Generated_Source\PSoC6\pdl\drivers/peripheral/scb/cy_scb_uart.h **** * \section group_scb_uart_more_information More Information
 268:Generated_Source\PSoC6\pdl\drivers/peripheral/scb/cy_scb_uart.h **** ********************************************************************************
 269:Generated_Source\PSoC6\pdl\drivers/peripheral/scb/cy_scb_uart.h **** * For more information on the SCB peripheral, refer to the technical reference
 270:Generated_Source\PSoC6\pdl\drivers/peripheral/scb/cy_scb_uart.h **** * manual (TRM).
 271:Generated_Source\PSoC6\pdl\drivers/peripheral/scb/cy_scb_uart.h **** *
 272:Generated_Source\PSoC6\pdl\drivers/peripheral/scb/cy_scb_uart.h **** ********************************************************************************
 273:Generated_Source\PSoC6\pdl\drivers/peripheral/scb/cy_scb_uart.h **** * \section group_scb_uart_MISRA MISRA-C Compliance
 274:Generated_Source\PSoC6\pdl\drivers/peripheral/scb/cy_scb_uart.h **** ********************************************************************************
 275:Generated_Source\PSoC6\pdl\drivers/peripheral/scb/cy_scb_uart.h **** * <table class="doxtable">
 276:Generated_Source\PSoC6\pdl\drivers/peripheral/scb/cy_scb_uart.h **** *   <tr>
 277:Generated_Source\PSoC6\pdl\drivers/peripheral/scb/cy_scb_uart.h **** *     <th>MISRA Rule</th>
 278:Generated_Source\PSoC6\pdl\drivers/peripheral/scb/cy_scb_uart.h **** *     <th>Rule Class (Required/Advisory)</th>
 279:Generated_Source\PSoC6\pdl\drivers/peripheral/scb/cy_scb_uart.h **** *     <th>Rule Description</th>
 280:Generated_Source\PSoC6\pdl\drivers/peripheral/scb/cy_scb_uart.h **** *     <th>Description of Deviation(s)</th>
 281:Generated_Source\PSoC6\pdl\drivers/peripheral/scb/cy_scb_uart.h **** *   </tr>
 282:Generated_Source\PSoC6\pdl\drivers/peripheral/scb/cy_scb_uart.h **** *   <tr>
 283:Generated_Source\PSoC6\pdl\drivers/peripheral/scb/cy_scb_uart.h **** *     <td>11.4</td>
 284:Generated_Source\PSoC6\pdl\drivers/peripheral/scb/cy_scb_uart.h **** *     <td>A</td>
 285:Generated_Source\PSoC6\pdl\drivers/peripheral/scb/cy_scb_uart.h **** *     <td>A cast should not be performed between a pointer to object type and
 286:Generated_Source\PSoC6\pdl\drivers/peripheral/scb/cy_scb_uart.h **** *         a different pointer to object type.</td>
 287:Generated_Source\PSoC6\pdl\drivers/peripheral/scb/cy_scb_uart.h **** *     <td>
ARM GAS  C:\Users\jmori\AppData\Local\Temp\ccYuPisP.s 			page 12


 288:Generated_Source\PSoC6\pdl\drivers/peripheral/scb/cy_scb_uart.h **** *         * The pointer to the buffer memory is void to allow handling different
 289:Generated_Source\PSoC6\pdl\drivers/peripheral/scb/cy_scb_uart.h **** *         different data types: uint8_t (4-8 bits) or uint16_t (9-16 bits).
 290:Generated_Source\PSoC6\pdl\drivers/peripheral/scb/cy_scb_uart.h **** *         The cast operation is safe because the configuration is verified
 291:Generated_Source\PSoC6\pdl\drivers/peripheral/scb/cy_scb_uart.h **** *         before operation is performed.
 292:Generated_Source\PSoC6\pdl\drivers/peripheral/scb/cy_scb_uart.h **** *         * The functions \ref Cy_SCB_UART_DeepSleepCallback and
 293:Generated_Source\PSoC6\pdl\drivers/peripheral/scb/cy_scb_uart.h **** *         \ref Cy_SCB_UART_HibernateCallback are callback of
 294:Generated_Source\PSoC6\pdl\drivers/peripheral/scb/cy_scb_uart.h **** *         \ref cy_en_syspm_status_t type. The cast operation safety in these
 295:Generated_Source\PSoC6\pdl\drivers/peripheral/scb/cy_scb_uart.h **** *         functions becomes the user's responsibility because pointers are
 296:Generated_Source\PSoC6\pdl\drivers/peripheral/scb/cy_scb_uart.h **** *         initialized when callback is registered in SysPm driver.</td>
 297:Generated_Source\PSoC6\pdl\drivers/peripheral/scb/cy_scb_uart.h **** *   </tr>
 298:Generated_Source\PSoC6\pdl\drivers/peripheral/scb/cy_scb_uart.h **** *   <tr>
 299:Generated_Source\PSoC6\pdl\drivers/peripheral/scb/cy_scb_uart.h **** *     <td>14.2</td>
 300:Generated_Source\PSoC6\pdl\drivers/peripheral/scb/cy_scb_uart.h **** *     <td>R</td>
 301:Generated_Source\PSoC6\pdl\drivers/peripheral/scb/cy_scb_uart.h **** *     <td>All non-null statements shall either: a) have at least one side-effect
 302:Generated_Source\PSoC6\pdl\drivers/peripheral/scb/cy_scb_uart.h **** *         however executed, or b) cause control flow to change.</td>
 303:Generated_Source\PSoC6\pdl\drivers/peripheral/scb/cy_scb_uart.h **** *     <td>The unused function parameters are cast to void. This statement
 304:Generated_Source\PSoC6\pdl\drivers/peripheral/scb/cy_scb_uart.h **** *         has no side-effect and is used to suppress a compiler warning.</td>
 305:Generated_Source\PSoC6\pdl\drivers/peripheral/scb/cy_scb_uart.h **** *   </tr>
 306:Generated_Source\PSoC6\pdl\drivers/peripheral/scb/cy_scb_uart.h **** *   <tr>
 307:Generated_Source\PSoC6\pdl\drivers/peripheral/scb/cy_scb_uart.h **** *     <td>14.7</td>
 308:Generated_Source\PSoC6\pdl\drivers/peripheral/scb/cy_scb_uart.h **** *     <td>R</td>
 309:Generated_Source\PSoC6\pdl\drivers/peripheral/scb/cy_scb_uart.h **** *     <td>A function shall have a single point of exit at the end of the
 310:Generated_Source\PSoC6\pdl\drivers/peripheral/scb/cy_scb_uart.h **** *         function.</td>
 311:Generated_Source\PSoC6\pdl\drivers/peripheral/scb/cy_scb_uart.h **** *     <td>The functions can return from several points. This is done to improve
 312:Generated_Source\PSoC6\pdl\drivers/peripheral/scb/cy_scb_uart.h **** *         code clarity when returning error status code if input parameters
 313:Generated_Source\PSoC6\pdl\drivers/peripheral/scb/cy_scb_uart.h **** *         validation fails.</td>
 314:Generated_Source\PSoC6\pdl\drivers/peripheral/scb/cy_scb_uart.h **** *   </tr>
 315:Generated_Source\PSoC6\pdl\drivers/peripheral/scb/cy_scb_uart.h **** * </table>
 316:Generated_Source\PSoC6\pdl\drivers/peripheral/scb/cy_scb_uart.h **** *
 317:Generated_Source\PSoC6\pdl\drivers/peripheral/scb/cy_scb_uart.h **** * \section group_scb_uart_changelog Changelog
 318:Generated_Source\PSoC6\pdl\drivers/peripheral/scb/cy_scb_uart.h **** * <table class="doxtable">
 319:Generated_Source\PSoC6\pdl\drivers/peripheral/scb/cy_scb_uart.h **** *   <tr><th>Version</th><th>Changes</th><th>Reason for Change</th></tr>
 320:Generated_Source\PSoC6\pdl\drivers/peripheral/scb/cy_scb_uart.h **** *   <tr>
 321:Generated_Source\PSoC6\pdl\drivers/peripheral/scb/cy_scb_uart.h **** *     <td rowspan="2">2.20</td>
 322:Generated_Source\PSoC6\pdl\drivers/peripheral/scb/cy_scb_uart.h **** *     <td>Flattened the organization of the driver source code into the single 
 323:Generated_Source\PSoC6\pdl\drivers/peripheral/scb/cy_scb_uart.h **** *         source directory and the single include directory.
 324:Generated_Source\PSoC6\pdl\drivers/peripheral/scb/cy_scb_uart.h **** *     </td>
 325:Generated_Source\PSoC6\pdl\drivers/peripheral/scb/cy_scb_uart.h **** *     <td>Driver library directory-structure simplification.</td>
 326:Generated_Source\PSoC6\pdl\drivers/peripheral/scb/cy_scb_uart.h **** *   </tr>
 327:Generated_Source\PSoC6\pdl\drivers/peripheral/scb/cy_scb_uart.h **** *   <tr>
 328:Generated_Source\PSoC6\pdl\drivers/peripheral/scb/cy_scb_uart.h **** *     <td>Added register access layer. Use register access macros instead
 329:Generated_Source\PSoC6\pdl\drivers/peripheral/scb/cy_scb_uart.h **** *         of direct register access using dereferenced pointers.</td>
 330:Generated_Source\PSoC6\pdl\drivers/peripheral/scb/cy_scb_uart.h **** *     <td>Makes register access device-independent, so that the PDL does 
 331:Generated_Source\PSoC6\pdl\drivers/peripheral/scb/cy_scb_uart.h **** *         not need to be recompiled for each supported part number.</td>
 332:Generated_Source\PSoC6\pdl\drivers/peripheral/scb/cy_scb_uart.h **** *   </tr>
 333:Generated_Source\PSoC6\pdl\drivers/peripheral/scb/cy_scb_uart.h **** *   <tr>
 334:Generated_Source\PSoC6\pdl\drivers/peripheral/scb/cy_scb_uart.h **** *     <td>2.10</td>
 335:Generated_Source\PSoC6\pdl\drivers/peripheral/scb/cy_scb_uart.h **** *     <td>None.</td>
 336:Generated_Source\PSoC6\pdl\drivers/peripheral/scb/cy_scb_uart.h **** *     <td>SCB I2C driver updated.</td>
 337:Generated_Source\PSoC6\pdl\drivers/peripheral/scb/cy_scb_uart.h **** *   </tr>
 338:Generated_Source\PSoC6\pdl\drivers/peripheral/scb/cy_scb_uart.h **** *   <tr>
 339:Generated_Source\PSoC6\pdl\drivers/peripheral/scb/cy_scb_uart.h **** *     <td rowspan="5">2.0</td>
 340:Generated_Source\PSoC6\pdl\drivers/peripheral/scb/cy_scb_uart.h **** *     <td>Added parameters validation for public API.</td>
 341:Generated_Source\PSoC6\pdl\drivers/peripheral/scb/cy_scb_uart.h **** *     <td></td>
 342:Generated_Source\PSoC6\pdl\drivers/peripheral/scb/cy_scb_uart.h **** *   </tr>
 343:Generated_Source\PSoC6\pdl\drivers/peripheral/scb/cy_scb_uart.h **** *   <tr>
 344:Generated_Source\PSoC6\pdl\drivers/peripheral/scb/cy_scb_uart.h **** *     <td>Replaced variables that have limited range of values with enumerated
ARM GAS  C:\Users\jmori\AppData\Local\Temp\ccYuPisP.s 			page 13


 345:Generated_Source\PSoC6\pdl\drivers/peripheral/scb/cy_scb_uart.h **** *         types.</td>
 346:Generated_Source\PSoC6\pdl\drivers/peripheral/scb/cy_scb_uart.h **** *     <td></td>
 347:Generated_Source\PSoC6\pdl\drivers/peripheral/scb/cy_scb_uart.h **** *   </tr>
 348:Generated_Source\PSoC6\pdl\drivers/peripheral/scb/cy_scb_uart.h **** *   <tr>
 349:Generated_Source\PSoC6\pdl\drivers/peripheral/scb/cy_scb_uart.h **** *     <td>Added missing "cy_cb_" to the callback function type names.</td>
 350:Generated_Source\PSoC6\pdl\drivers/peripheral/scb/cy_scb_uart.h **** *     <td></td>
 351:Generated_Source\PSoC6\pdl\drivers/peripheral/scb/cy_scb_uart.h **** *   </tr>
 352:Generated_Source\PSoC6\pdl\drivers/peripheral/scb/cy_scb_uart.h **** *   <tr>
 353:Generated_Source\PSoC6\pdl\drivers/peripheral/scb/cy_scb_uart.h **** *     <td>Added function \ref Cy_SCB_UART_SendBreakBlocking for break condition
 354:Generated_Source\PSoC6\pdl\drivers/peripheral/scb/cy_scb_uart.h **** *         generation.</td>
 355:Generated_Source\PSoC6\pdl\drivers/peripheral/scb/cy_scb_uart.h **** *     <td></td>
 356:Generated_Source\PSoC6\pdl\drivers/peripheral/scb/cy_scb_uart.h **** *   </tr>
 357:Generated_Source\PSoC6\pdl\drivers/peripheral/scb/cy_scb_uart.h **** *   <tr>
 358:Generated_Source\PSoC6\pdl\drivers/peripheral/scb/cy_scb_uart.h **** *     <td>Fixed low power callbacks \ref Cy_SCB_UART_DeepSleepCallback and
 359:Generated_Source\PSoC6\pdl\drivers/peripheral/scb/cy_scb_uart.h **** *         \ref Cy_SCB_UART_HibernateCallback to prevent the device from entering
 360:Generated_Source\PSoC6\pdl\drivers/peripheral/scb/cy_scb_uart.h **** *         low power mode when RX FIFO is not empty.</td>
 361:Generated_Source\PSoC6\pdl\drivers/peripheral/scb/cy_scb_uart.h **** *     <td>The callbacks allowed entering device into low power mode when RX FIFO
 362:Generated_Source\PSoC6\pdl\drivers/peripheral/scb/cy_scb_uart.h **** *         had data.</td>
 363:Generated_Source\PSoC6\pdl\drivers/peripheral/scb/cy_scb_uart.h **** *   </tr>
 364:Generated_Source\PSoC6\pdl\drivers/peripheral/scb/cy_scb_uart.h **** *   <tr>
 365:Generated_Source\PSoC6\pdl\drivers/peripheral/scb/cy_scb_uart.h **** *     <td>1.0</td>
 366:Generated_Source\PSoC6\pdl\drivers/peripheral/scb/cy_scb_uart.h **** *     <td>Initial version.</td>
 367:Generated_Source\PSoC6\pdl\drivers/peripheral/scb/cy_scb_uart.h **** *     <td></td>
 368:Generated_Source\PSoC6\pdl\drivers/peripheral/scb/cy_scb_uart.h **** *   </tr>
 369:Generated_Source\PSoC6\pdl\drivers/peripheral/scb/cy_scb_uart.h **** * </table>
 370:Generated_Source\PSoC6\pdl\drivers/peripheral/scb/cy_scb_uart.h **** *
 371:Generated_Source\PSoC6\pdl\drivers/peripheral/scb/cy_scb_uart.h **** * \defgroup group_scb_uart_macros Macros
 372:Generated_Source\PSoC6\pdl\drivers/peripheral/scb/cy_scb_uart.h **** * \defgroup group_scb_uart_functions Functions
 373:Generated_Source\PSoC6\pdl\drivers/peripheral/scb/cy_scb_uart.h **** * \{
 374:Generated_Source\PSoC6\pdl\drivers/peripheral/scb/cy_scb_uart.h **** * \defgroup group_scb_uart_general_functions General
 375:Generated_Source\PSoC6\pdl\drivers/peripheral/scb/cy_scb_uart.h **** * \defgroup group_scb_uart_high_level_functions High-Level
 376:Generated_Source\PSoC6\pdl\drivers/peripheral/scb/cy_scb_uart.h **** * \defgroup group_scb_uart_low_level_functions Low-Level
 377:Generated_Source\PSoC6\pdl\drivers/peripheral/scb/cy_scb_uart.h **** * \defgroup group_scb_uart_interrupt_functions Interrupt
 378:Generated_Source\PSoC6\pdl\drivers/peripheral/scb/cy_scb_uart.h **** * \defgroup group_scb_uart_low_power_functions Low Power Callbacks
 379:Generated_Source\PSoC6\pdl\drivers/peripheral/scb/cy_scb_uart.h **** * \}
 380:Generated_Source\PSoC6\pdl\drivers/peripheral/scb/cy_scb_uart.h **** * \defgroup group_scb_uart_data_structures Data Structures
 381:Generated_Source\PSoC6\pdl\drivers/peripheral/scb/cy_scb_uart.h **** * \defgroup group_scb_uart_enums Enumerated Types
 382:Generated_Source\PSoC6\pdl\drivers/peripheral/scb/cy_scb_uart.h **** */
 383:Generated_Source\PSoC6\pdl\drivers/peripheral/scb/cy_scb_uart.h **** 
 384:Generated_Source\PSoC6\pdl\drivers/peripheral/scb/cy_scb_uart.h **** #if !defined(CY_SCB_UART_H)
 385:Generated_Source\PSoC6\pdl\drivers/peripheral/scb/cy_scb_uart.h **** #define CY_SCB_UART_H
 386:Generated_Source\PSoC6\pdl\drivers/peripheral/scb/cy_scb_uart.h **** 
 387:Generated_Source\PSoC6\pdl\drivers/peripheral/scb/cy_scb_uart.h **** #include "cy_scb_common.h"
 388:Generated_Source\PSoC6\pdl\drivers/peripheral/scb/cy_scb_uart.h **** 
 389:Generated_Source\PSoC6\pdl\drivers/peripheral/scb/cy_scb_uart.h **** #if defined(__cplusplus)
 390:Generated_Source\PSoC6\pdl\drivers/peripheral/scb/cy_scb_uart.h **** extern "C" {
 391:Generated_Source\PSoC6\pdl\drivers/peripheral/scb/cy_scb_uart.h **** #endif
 392:Generated_Source\PSoC6\pdl\drivers/peripheral/scb/cy_scb_uart.h **** 
 393:Generated_Source\PSoC6\pdl\drivers/peripheral/scb/cy_scb_uart.h **** /***************************************
 394:Generated_Source\PSoC6\pdl\drivers/peripheral/scb/cy_scb_uart.h **** *          Enumerated Types
 395:Generated_Source\PSoC6\pdl\drivers/peripheral/scb/cy_scb_uart.h **** ***************************************/
 396:Generated_Source\PSoC6\pdl\drivers/peripheral/scb/cy_scb_uart.h **** 
 397:Generated_Source\PSoC6\pdl\drivers/peripheral/scb/cy_scb_uart.h **** /**
 398:Generated_Source\PSoC6\pdl\drivers/peripheral/scb/cy_scb_uart.h **** * \addtogroup group_scb_uart_enums
 399:Generated_Source\PSoC6\pdl\drivers/peripheral/scb/cy_scb_uart.h **** * \{
 400:Generated_Source\PSoC6\pdl\drivers/peripheral/scb/cy_scb_uart.h **** */
 401:Generated_Source\PSoC6\pdl\drivers/peripheral/scb/cy_scb_uart.h **** 
ARM GAS  C:\Users\jmori\AppData\Local\Temp\ccYuPisP.s 			page 14


 402:Generated_Source\PSoC6\pdl\drivers/peripheral/scb/cy_scb_uart.h **** /** UART status codes */
 403:Generated_Source\PSoC6\pdl\drivers/peripheral/scb/cy_scb_uart.h **** typedef enum
 404:Generated_Source\PSoC6\pdl\drivers/peripheral/scb/cy_scb_uart.h **** {
 405:Generated_Source\PSoC6\pdl\drivers/peripheral/scb/cy_scb_uart.h ****     /** Operation completed successfully */
 406:Generated_Source\PSoC6\pdl\drivers/peripheral/scb/cy_scb_uart.h ****     CY_SCB_UART_SUCCESS = 0U,
 407:Generated_Source\PSoC6\pdl\drivers/peripheral/scb/cy_scb_uart.h **** 
 408:Generated_Source\PSoC6\pdl\drivers/peripheral/scb/cy_scb_uart.h ****     /** One or more of input parameters are invalid */
 409:Generated_Source\PSoC6\pdl\drivers/peripheral/scb/cy_scb_uart.h ****     CY_SCB_UART_BAD_PARAM = (CY_SCB_ID | CY_PDL_STATUS_ERROR | CY_SCB_UART_ID | 1U),
 410:Generated_Source\PSoC6\pdl\drivers/peripheral/scb/cy_scb_uart.h **** 
 411:Generated_Source\PSoC6\pdl\drivers/peripheral/scb/cy_scb_uart.h ****     /**
 412:Generated_Source\PSoC6\pdl\drivers/peripheral/scb/cy_scb_uart.h ****     * The UART is busy processing a receive operation.
 413:Generated_Source\PSoC6\pdl\drivers/peripheral/scb/cy_scb_uart.h ****     */
 414:Generated_Source\PSoC6\pdl\drivers/peripheral/scb/cy_scb_uart.h ****     CY_SCB_UART_RECEIVE_BUSY = (CY_SCB_ID | CY_PDL_STATUS_ERROR | CY_SCB_UART_ID | 2U),
 415:Generated_Source\PSoC6\pdl\drivers/peripheral/scb/cy_scb_uart.h **** 
 416:Generated_Source\PSoC6\pdl\drivers/peripheral/scb/cy_scb_uart.h ****     /**
 417:Generated_Source\PSoC6\pdl\drivers/peripheral/scb/cy_scb_uart.h ****     * The UART is busy processing a transmit operation.
 418:Generated_Source\PSoC6\pdl\drivers/peripheral/scb/cy_scb_uart.h ****     */
 419:Generated_Source\PSoC6\pdl\drivers/peripheral/scb/cy_scb_uart.h ****     CY_SCB_UART_TRANSMIT_BUSY = (CY_SCB_ID | CY_PDL_STATUS_ERROR | CY_SCB_UART_ID | 3U)
 420:Generated_Source\PSoC6\pdl\drivers/peripheral/scb/cy_scb_uart.h **** } cy_en_scb_uart_status_t;
 421:Generated_Source\PSoC6\pdl\drivers/peripheral/scb/cy_scb_uart.h **** 
 422:Generated_Source\PSoC6\pdl\drivers/peripheral/scb/cy_scb_uart.h **** /** UART Mode */
 423:Generated_Source\PSoC6\pdl\drivers/peripheral/scb/cy_scb_uart.h **** typedef enum
 424:Generated_Source\PSoC6\pdl\drivers/peripheral/scb/cy_scb_uart.h **** {
 425:Generated_Source\PSoC6\pdl\drivers/peripheral/scb/cy_scb_uart.h ****     CY_SCB_UART_STANDARD  = 0U, /**< Configures the SCB for Standard UART operation */
 426:Generated_Source\PSoC6\pdl\drivers/peripheral/scb/cy_scb_uart.h ****     CY_SCB_UART_SMARTCARD = 1U, /**< Configures the SCB for SmartCard operation */
 427:Generated_Source\PSoC6\pdl\drivers/peripheral/scb/cy_scb_uart.h ****     CY_SCB_UART_IRDA      = 2U, /**< Configures the SCB for IrDA operation */
 428:Generated_Source\PSoC6\pdl\drivers/peripheral/scb/cy_scb_uart.h **** } cy_en_scb_uart_mode_t;
 429:Generated_Source\PSoC6\pdl\drivers/peripheral/scb/cy_scb_uart.h **** 
 430:Generated_Source\PSoC6\pdl\drivers/peripheral/scb/cy_scb_uart.h **** /** UART Stop Bits */
 431:Generated_Source\PSoC6\pdl\drivers/peripheral/scb/cy_scb_uart.h **** typedef enum
 432:Generated_Source\PSoC6\pdl\drivers/peripheral/scb/cy_scb_uart.h **** {
 433:Generated_Source\PSoC6\pdl\drivers/peripheral/scb/cy_scb_uart.h ****     CY_SCB_UART_STOP_BITS_1   = 2U,  /**< UART looks for 1 Stop Bit    */
 434:Generated_Source\PSoC6\pdl\drivers/peripheral/scb/cy_scb_uart.h ****     CY_SCB_UART_STOP_BITS_1_5 = 3U,  /**< UART looks for 1.5 Stop Bits */
 435:Generated_Source\PSoC6\pdl\drivers/peripheral/scb/cy_scb_uart.h ****     CY_SCB_UART_STOP_BITS_2   = 4U,  /**< UART looks for 2 Stop Bits   */
 436:Generated_Source\PSoC6\pdl\drivers/peripheral/scb/cy_scb_uart.h ****     CY_SCB_UART_STOP_BITS_2_5 = 5U,  /**< UART looks for 2.5 Stop Bits */
 437:Generated_Source\PSoC6\pdl\drivers/peripheral/scb/cy_scb_uart.h ****     CY_SCB_UART_STOP_BITS_3   = 6U,  /**< UART looks for 3 Stop Bits   */
 438:Generated_Source\PSoC6\pdl\drivers/peripheral/scb/cy_scb_uart.h ****     CY_SCB_UART_STOP_BITS_3_5 = 7U,  /**< UART looks for 3.5 Stop Bits */
 439:Generated_Source\PSoC6\pdl\drivers/peripheral/scb/cy_scb_uart.h ****     CY_SCB_UART_STOP_BITS_4   = 8U,  /**< UART looks for 4 Stop Bits   */
 440:Generated_Source\PSoC6\pdl\drivers/peripheral/scb/cy_scb_uart.h **** } cy_en_scb_uart_stop_bits_t;
 441:Generated_Source\PSoC6\pdl\drivers/peripheral/scb/cy_scb_uart.h **** 
 442:Generated_Source\PSoC6\pdl\drivers/peripheral/scb/cy_scb_uart.h **** /** UART Parity */
 443:Generated_Source\PSoC6\pdl\drivers/peripheral/scb/cy_scb_uart.h **** typedef enum
 444:Generated_Source\PSoC6\pdl\drivers/peripheral/scb/cy_scb_uart.h **** {
 445:Generated_Source\PSoC6\pdl\drivers/peripheral/scb/cy_scb_uart.h ****     CY_SCB_UART_PARITY_NONE = 0U,    /**< UART has no parity check   */
 446:Generated_Source\PSoC6\pdl\drivers/peripheral/scb/cy_scb_uart.h ****     CY_SCB_UART_PARITY_EVEN = 2U,    /**< UART has even parity check */
 447:Generated_Source\PSoC6\pdl\drivers/peripheral/scb/cy_scb_uart.h ****     CY_SCB_UART_PARITY_ODD  = 3U,    /**< UART has odd parity check  */
 448:Generated_Source\PSoC6\pdl\drivers/peripheral/scb/cy_scb_uart.h **** } cy_en_scb_uart_parity_t;
 449:Generated_Source\PSoC6\pdl\drivers/peripheral/scb/cy_scb_uart.h **** 
 450:Generated_Source\PSoC6\pdl\drivers/peripheral/scb/cy_scb_uart.h **** /** UART Polarity */
 451:Generated_Source\PSoC6\pdl\drivers/peripheral/scb/cy_scb_uart.h **** typedef enum
 452:Generated_Source\PSoC6\pdl\drivers/peripheral/scb/cy_scb_uart.h **** {
 453:Generated_Source\PSoC6\pdl\drivers/peripheral/scb/cy_scb_uart.h ****     CY_SCB_UART_ACTIVE_LOW  = 0U,   /**< Signal is active low */
 454:Generated_Source\PSoC6\pdl\drivers/peripheral/scb/cy_scb_uart.h ****     CY_SCB_UART_ACTIVE_HIGH = 1U,   /**< Signal is active high */
 455:Generated_Source\PSoC6\pdl\drivers/peripheral/scb/cy_scb_uart.h **** } cy_en_scb_uart_polarity_t;
 456:Generated_Source\PSoC6\pdl\drivers/peripheral/scb/cy_scb_uart.h **** /** \} group_scb_uart_enums */
 457:Generated_Source\PSoC6\pdl\drivers/peripheral/scb/cy_scb_uart.h **** 
 458:Generated_Source\PSoC6\pdl\drivers/peripheral/scb/cy_scb_uart.h **** 
ARM GAS  C:\Users\jmori\AppData\Local\Temp\ccYuPisP.s 			page 15


 459:Generated_Source\PSoC6\pdl\drivers/peripheral/scb/cy_scb_uart.h **** /*******************************************************************************
 460:Generated_Source\PSoC6\pdl\drivers/peripheral/scb/cy_scb_uart.h **** *                           Type Definitions
 461:Generated_Source\PSoC6\pdl\drivers/peripheral/scb/cy_scb_uart.h **** *******************************************************************************/
 462:Generated_Source\PSoC6\pdl\drivers/peripheral/scb/cy_scb_uart.h **** 
 463:Generated_Source\PSoC6\pdl\drivers/peripheral/scb/cy_scb_uart.h **** /**
 464:Generated_Source\PSoC6\pdl\drivers/peripheral/scb/cy_scb_uart.h **** * \addtogroup group_scb_uart_data_structures
 465:Generated_Source\PSoC6\pdl\drivers/peripheral/scb/cy_scb_uart.h **** * \{
 466:Generated_Source\PSoC6\pdl\drivers/peripheral/scb/cy_scb_uart.h **** */
 467:Generated_Source\PSoC6\pdl\drivers/peripheral/scb/cy_scb_uart.h **** 
 468:Generated_Source\PSoC6\pdl\drivers/peripheral/scb/cy_scb_uart.h **** /**
 469:Generated_Source\PSoC6\pdl\drivers/peripheral/scb/cy_scb_uart.h **** * Provides the typedef for the callback function called in the
 470:Generated_Source\PSoC6\pdl\drivers/peripheral/scb/cy_scb_uart.h **** * \ref Cy_SCB_UART_Interrupt to notify the user about occurrences of
 471:Generated_Source\PSoC6\pdl\drivers/peripheral/scb/cy_scb_uart.h **** * \ref group_scb_uart_macros_callback_events.
 472:Generated_Source\PSoC6\pdl\drivers/peripheral/scb/cy_scb_uart.h **** */
 473:Generated_Source\PSoC6\pdl\drivers/peripheral/scb/cy_scb_uart.h **** typedef void (* cy_cb_scb_uart_handle_events_t)(uint32_t event);
 474:Generated_Source\PSoC6\pdl\drivers/peripheral/scb/cy_scb_uart.h **** 
 475:Generated_Source\PSoC6\pdl\drivers/peripheral/scb/cy_scb_uart.h **** /** UART configuration structure */
 476:Generated_Source\PSoC6\pdl\drivers/peripheral/scb/cy_scb_uart.h **** typedef struct stc_scb_uart_config
 477:Generated_Source\PSoC6\pdl\drivers/peripheral/scb/cy_scb_uart.h **** {
 478:Generated_Source\PSoC6\pdl\drivers/peripheral/scb/cy_scb_uart.h ****     /** Specifies the UART's mode of operation */
 479:Generated_Source\PSoC6\pdl\drivers/peripheral/scb/cy_scb_uart.h ****     cy_en_scb_uart_mode_t    uartMode;
 480:Generated_Source\PSoC6\pdl\drivers/peripheral/scb/cy_scb_uart.h **** 
 481:Generated_Source\PSoC6\pdl\drivers/peripheral/scb/cy_scb_uart.h ****     /**
 482:Generated_Source\PSoC6\pdl\drivers/peripheral/scb/cy_scb_uart.h ****     * Oversample factor for UART.
 483:Generated_Source\PSoC6\pdl\drivers/peripheral/scb/cy_scb_uart.h ****     * * The UART baud rate is the SCB Clock frequency / oversample
 484:Generated_Source\PSoC6\pdl\drivers/peripheral/scb/cy_scb_uart.h ****     *  (valid range is 8-16).
 485:Generated_Source\PSoC6\pdl\drivers/peripheral/scb/cy_scb_uart.h ****     * * For IrDA, the oversample is always 16, unless
 486:Generated_Source\PSoC6\pdl\drivers/peripheral/scb/cy_scb_uart.h ****     * \ref irdaEnableLowPowerReceiver is enabled. Then the oversample is
 487:Generated_Source\PSoC6\pdl\drivers/peripheral/scb/cy_scb_uart.h ****     * reduced to the \ref group_scb_uart_macros_irda_lp_ovs set.
 488:Generated_Source\PSoC6\pdl\drivers/peripheral/scb/cy_scb_uart.h ****     */
 489:Generated_Source\PSoC6\pdl\drivers/peripheral/scb/cy_scb_uart.h ****     uint32_t    oversample;
 490:Generated_Source\PSoC6\pdl\drivers/peripheral/scb/cy_scb_uart.h **** 
 491:Generated_Source\PSoC6\pdl\drivers/peripheral/scb/cy_scb_uart.h ****     /** The width of UART data (valid range is 5 to 9) */
 492:Generated_Source\PSoC6\pdl\drivers/peripheral/scb/cy_scb_uart.h ****     uint32_t    dataWidth;
 493:Generated_Source\PSoC6\pdl\drivers/peripheral/scb/cy_scb_uart.h **** 
 494:Generated_Source\PSoC6\pdl\drivers/peripheral/scb/cy_scb_uart.h ****     /**
 495:Generated_Source\PSoC6\pdl\drivers/peripheral/scb/cy_scb_uart.h ****     * Enables the hardware to shift out data element MSB first; otherwise,
 496:Generated_Source\PSoC6\pdl\drivers/peripheral/scb/cy_scb_uart.h ****     * LSB first
 497:Generated_Source\PSoC6\pdl\drivers/peripheral/scb/cy_scb_uart.h ****     */
 498:Generated_Source\PSoC6\pdl\drivers/peripheral/scb/cy_scb_uart.h ****     bool        enableMsbFirst;
 499:Generated_Source\PSoC6\pdl\drivers/peripheral/scb/cy_scb_uart.h **** 
 500:Generated_Source\PSoC6\pdl\drivers/peripheral/scb/cy_scb_uart.h ****     /**
 501:Generated_Source\PSoC6\pdl\drivers/peripheral/scb/cy_scb_uart.h ****     * Specifies the number of stop bits in the UART transaction, in half-bit
 502:Generated_Source\PSoC6\pdl\drivers/peripheral/scb/cy_scb_uart.h ****     * increments
 503:Generated_Source\PSoC6\pdl\drivers/peripheral/scb/cy_scb_uart.h ****     */
 504:Generated_Source\PSoC6\pdl\drivers/peripheral/scb/cy_scb_uart.h ****     cy_en_scb_uart_stop_bits_t    stopBits;
 505:Generated_Source\PSoC6\pdl\drivers/peripheral/scb/cy_scb_uart.h **** 
 506:Generated_Source\PSoC6\pdl\drivers/peripheral/scb/cy_scb_uart.h ****     /** Configures the UART parity */
 507:Generated_Source\PSoC6\pdl\drivers/peripheral/scb/cy_scb_uart.h ****     cy_en_scb_uart_parity_t    parity;
 508:Generated_Source\PSoC6\pdl\drivers/peripheral/scb/cy_scb_uart.h **** 
 509:Generated_Source\PSoC6\pdl\drivers/peripheral/scb/cy_scb_uart.h ****     /**
 510:Generated_Source\PSoC6\pdl\drivers/peripheral/scb/cy_scb_uart.h ****     * Enables a digital 3-tap median filter (2 out of 3 voting) to be applied 
 511:Generated_Source\PSoC6\pdl\drivers/peripheral/scb/cy_scb_uart.h ****     * to the input of the RX FIFO to filter glitches on the line (for IrDA, 
 512:Generated_Source\PSoC6\pdl\drivers/peripheral/scb/cy_scb_uart.h ****     * this parameter is ignored)
 513:Generated_Source\PSoC6\pdl\drivers/peripheral/scb/cy_scb_uart.h ****     *
 514:Generated_Source\PSoC6\pdl\drivers/peripheral/scb/cy_scb_uart.h ****     */
 515:Generated_Source\PSoC6\pdl\drivers/peripheral/scb/cy_scb_uart.h ****     bool        enableInputFilter;
ARM GAS  C:\Users\jmori\AppData\Local\Temp\ccYuPisP.s 			page 16


 516:Generated_Source\PSoC6\pdl\drivers/peripheral/scb/cy_scb_uart.h **** 
 517:Generated_Source\PSoC6\pdl\drivers/peripheral/scb/cy_scb_uart.h ****     /**
 518:Generated_Source\PSoC6\pdl\drivers/peripheral/scb/cy_scb_uart.h ****     * Enables the hardware to drop data in the RX FIFO when a parity error is
 519:Generated_Source\PSoC6\pdl\drivers/peripheral/scb/cy_scb_uart.h ****     * detected
 520:Generated_Source\PSoC6\pdl\drivers/peripheral/scb/cy_scb_uart.h ****     */
 521:Generated_Source\PSoC6\pdl\drivers/peripheral/scb/cy_scb_uart.h ****     bool        dropOnParityError;
 522:Generated_Source\PSoC6\pdl\drivers/peripheral/scb/cy_scb_uart.h **** 
 523:Generated_Source\PSoC6\pdl\drivers/peripheral/scb/cy_scb_uart.h ****     /**
 524:Generated_Source\PSoC6\pdl\drivers/peripheral/scb/cy_scb_uart.h ****     * Enables the hardware to drop data in the RX FIFO when a frame error is
 525:Generated_Source\PSoC6\pdl\drivers/peripheral/scb/cy_scb_uart.h ****     * detected
 526:Generated_Source\PSoC6\pdl\drivers/peripheral/scb/cy_scb_uart.h ****     */
 527:Generated_Source\PSoC6\pdl\drivers/peripheral/scb/cy_scb_uart.h ****     bool        dropOnFrameError;
 528:Generated_Source\PSoC6\pdl\drivers/peripheral/scb/cy_scb_uart.h **** 
 529:Generated_Source\PSoC6\pdl\drivers/peripheral/scb/cy_scb_uart.h ****     /**
 530:Generated_Source\PSoC6\pdl\drivers/peripheral/scb/cy_scb_uart.h ****     * Enables the UART operation in Multi-Processor mode which requires
 531:Generated_Source\PSoC6\pdl\drivers/peripheral/scb/cy_scb_uart.h ****     * dataWidth to be 9 bits (the 9th bit is used to indicate address byte)
 532:Generated_Source\PSoC6\pdl\drivers/peripheral/scb/cy_scb_uart.h ****     */
 533:Generated_Source\PSoC6\pdl\drivers/peripheral/scb/cy_scb_uart.h ****     bool        enableMutliProcessorMode;
 534:Generated_Source\PSoC6\pdl\drivers/peripheral/scb/cy_scb_uart.h **** 
 535:Generated_Source\PSoC6\pdl\drivers/peripheral/scb/cy_scb_uart.h ****     /**
 536:Generated_Source\PSoC6\pdl\drivers/peripheral/scb/cy_scb_uart.h ****     * If Multi Processor mode is enabled, this is the address of the RX
 537:Generated_Source\PSoC6\pdl\drivers/peripheral/scb/cy_scb_uart.h ****     * FIFO. If the address matches, data is accepted into the FIFO. If
 538:Generated_Source\PSoC6\pdl\drivers/peripheral/scb/cy_scb_uart.h ****     * it does not match, the data is ignored.
 539:Generated_Source\PSoC6\pdl\drivers/peripheral/scb/cy_scb_uart.h ****     */
 540:Generated_Source\PSoC6\pdl\drivers/peripheral/scb/cy_scb_uart.h ****     uint32_t    receiverAddress;
 541:Generated_Source\PSoC6\pdl\drivers/peripheral/scb/cy_scb_uart.h **** 
 542:Generated_Source\PSoC6\pdl\drivers/peripheral/scb/cy_scb_uart.h ****     /**
 543:Generated_Source\PSoC6\pdl\drivers/peripheral/scb/cy_scb_uart.h ****     * This is the address mask for the Multi Processor address. 1 indicates
 544:Generated_Source\PSoC6\pdl\drivers/peripheral/scb/cy_scb_uart.h ****     * that the incoming address must match the corresponding bit in the slave
 545:Generated_Source\PSoC6\pdl\drivers/peripheral/scb/cy_scb_uart.h ****     * address. A 0 in the mask indicates that the incoming address does
 546:Generated_Source\PSoC6\pdl\drivers/peripheral/scb/cy_scb_uart.h ****     * not need to match.
 547:Generated_Source\PSoC6\pdl\drivers/peripheral/scb/cy_scb_uart.h ****     */
 548:Generated_Source\PSoC6\pdl\drivers/peripheral/scb/cy_scb_uart.h ****     uint32_t    receiverAddressMask;
 549:Generated_Source\PSoC6\pdl\drivers/peripheral/scb/cy_scb_uart.h **** 
 550:Generated_Source\PSoC6\pdl\drivers/peripheral/scb/cy_scb_uart.h ****     /**
 551:Generated_Source\PSoC6\pdl\drivers/peripheral/scb/cy_scb_uart.h ****     * Enables the hardware to accept the matching address in the RX FIFO.
 552:Generated_Source\PSoC6\pdl\drivers/peripheral/scb/cy_scb_uart.h ****     * This is useful when the device supports more than one address.
 553:Generated_Source\PSoC6\pdl\drivers/peripheral/scb/cy_scb_uart.h ****     */
 554:Generated_Source\PSoC6\pdl\drivers/peripheral/scb/cy_scb_uart.h ****     bool        acceptAddrInFifo;
 555:Generated_Source\PSoC6\pdl\drivers/peripheral/scb/cy_scb_uart.h **** 
 556:Generated_Source\PSoC6\pdl\drivers/peripheral/scb/cy_scb_uart.h ****     /** Inverts the IrDA RX input */
 557:Generated_Source\PSoC6\pdl\drivers/peripheral/scb/cy_scb_uart.h ****     bool        irdaInvertRx;
 558:Generated_Source\PSoC6\pdl\drivers/peripheral/scb/cy_scb_uart.h **** 
 559:Generated_Source\PSoC6\pdl\drivers/peripheral/scb/cy_scb_uart.h ****     /**
 560:Generated_Source\PSoC6\pdl\drivers/peripheral/scb/cy_scb_uart.h ****     * Enables the low-power receive for IrDA mode.
 561:Generated_Source\PSoC6\pdl\drivers/peripheral/scb/cy_scb_uart.h ****     * Note that the transmission must be disabled if this mode is enabled.
 562:Generated_Source\PSoC6\pdl\drivers/peripheral/scb/cy_scb_uart.h ****     */
 563:Generated_Source\PSoC6\pdl\drivers/peripheral/scb/cy_scb_uart.h ****     bool        irdaEnableLowPowerReceiver;
 564:Generated_Source\PSoC6\pdl\drivers/peripheral/scb/cy_scb_uart.h **** 
 565:Generated_Source\PSoC6\pdl\drivers/peripheral/scb/cy_scb_uart.h ****     /**
 566:Generated_Source\PSoC6\pdl\drivers/peripheral/scb/cy_scb_uart.h ****     * Enables retransmission of the frame placed in the TX FIFO when
 567:Generated_Source\PSoC6\pdl\drivers/peripheral/scb/cy_scb_uart.h ****     * NACK is received in SmartCard mode (for Standard and IrDA , this parameter
 568:Generated_Source\PSoC6\pdl\drivers/peripheral/scb/cy_scb_uart.h ****     * is ignored)
 569:Generated_Source\PSoC6\pdl\drivers/peripheral/scb/cy_scb_uart.h ****     */
 570:Generated_Source\PSoC6\pdl\drivers/peripheral/scb/cy_scb_uart.h ****     bool        smartCardRetryOnNack;
 571:Generated_Source\PSoC6\pdl\drivers/peripheral/scb/cy_scb_uart.h **** 
 572:Generated_Source\PSoC6\pdl\drivers/peripheral/scb/cy_scb_uart.h ****     /**
ARM GAS  C:\Users\jmori\AppData\Local\Temp\ccYuPisP.s 			page 17


 573:Generated_Source\PSoC6\pdl\drivers/peripheral/scb/cy_scb_uart.h ****     * Enables the usage of the CTS input signal for the transmitter. The
 574:Generated_Source\PSoC6\pdl\drivers/peripheral/scb/cy_scb_uart.h ****     * transmitter waits for CTS to be active before sending data
 575:Generated_Source\PSoC6\pdl\drivers/peripheral/scb/cy_scb_uart.h ****     */
 576:Generated_Source\PSoC6\pdl\drivers/peripheral/scb/cy_scb_uart.h ****     bool        enableCts;
 577:Generated_Source\PSoC6\pdl\drivers/peripheral/scb/cy_scb_uart.h **** 
 578:Generated_Source\PSoC6\pdl\drivers/peripheral/scb/cy_scb_uart.h ****     /** Sets the CTS Polarity */
 579:Generated_Source\PSoC6\pdl\drivers/peripheral/scb/cy_scb_uart.h ****     cy_en_scb_uart_polarity_t    ctsPolarity;
 580:Generated_Source\PSoC6\pdl\drivers/peripheral/scb/cy_scb_uart.h **** 
 581:Generated_Source\PSoC6\pdl\drivers/peripheral/scb/cy_scb_uart.h ****     /**
 582:Generated_Source\PSoC6\pdl\drivers/peripheral/scb/cy_scb_uart.h ****     * When the RX FIFO has fewer entries than rtsRxFifoLevel, the
 583:Generated_Source\PSoC6\pdl\drivers/peripheral/scb/cy_scb_uart.h ****     * RTS signal is active (note to disable RTS, set this field to zero)
 584:Generated_Source\PSoC6\pdl\drivers/peripheral/scb/cy_scb_uart.h ****     */
 585:Generated_Source\PSoC6\pdl\drivers/peripheral/scb/cy_scb_uart.h ****     uint32_t    rtsRxFifoLevel;
 586:Generated_Source\PSoC6\pdl\drivers/peripheral/scb/cy_scb_uart.h **** 
 587:Generated_Source\PSoC6\pdl\drivers/peripheral/scb/cy_scb_uart.h ****     /** Sets the RTS Polarity */
 588:Generated_Source\PSoC6\pdl\drivers/peripheral/scb/cy_scb_uart.h ****     cy_en_scb_uart_polarity_t    rtsPolarity;
 589:Generated_Source\PSoC6\pdl\drivers/peripheral/scb/cy_scb_uart.h **** 
 590:Generated_Source\PSoC6\pdl\drivers/peripheral/scb/cy_scb_uart.h ****     /** Specifies the number of bits to detect a break condition */
 591:Generated_Source\PSoC6\pdl\drivers/peripheral/scb/cy_scb_uart.h ****     uint32_t    breakWidth;
 592:Generated_Source\PSoC6\pdl\drivers/peripheral/scb/cy_scb_uart.h **** 
 593:Generated_Source\PSoC6\pdl\drivers/peripheral/scb/cy_scb_uart.h ****     /**
 594:Generated_Source\PSoC6\pdl\drivers/peripheral/scb/cy_scb_uart.h ****     * When there are more entries in the RX FIFO than this level
 595:Generated_Source\PSoC6\pdl\drivers/peripheral/scb/cy_scb_uart.h ****     * the RX trigger output goes high. This output can be connected
 596:Generated_Source\PSoC6\pdl\drivers/peripheral/scb/cy_scb_uart.h ****     * to a DMA channel through a trigger mux.
 597:Generated_Source\PSoC6\pdl\drivers/peripheral/scb/cy_scb_uart.h ****     * Also, it controls the \ref CY_SCB_UART_RX_TRIGGER interrupt source.
 598:Generated_Source\PSoC6\pdl\drivers/peripheral/scb/cy_scb_uart.h ****     */
 599:Generated_Source\PSoC6\pdl\drivers/peripheral/scb/cy_scb_uart.h ****     uint32_t    rxFifoTriggerLevel;
 600:Generated_Source\PSoC6\pdl\drivers/peripheral/scb/cy_scb_uart.h **** 
 601:Generated_Source\PSoC6\pdl\drivers/peripheral/scb/cy_scb_uart.h ****     /**
 602:Generated_Source\PSoC6\pdl\drivers/peripheral/scb/cy_scb_uart.h ****     * The bits set in this mask allow the event to cause an interrupt
 603:Generated_Source\PSoC6\pdl\drivers/peripheral/scb/cy_scb_uart.h ****     * (See \ref group_scb_uart_macros_rx_fifo_status for the set of constants)
 604:Generated_Source\PSoC6\pdl\drivers/peripheral/scb/cy_scb_uart.h ****     */
 605:Generated_Source\PSoC6\pdl\drivers/peripheral/scb/cy_scb_uart.h ****     uint32_t    rxFifoIntEnableMask;
 606:Generated_Source\PSoC6\pdl\drivers/peripheral/scb/cy_scb_uart.h **** 
 607:Generated_Source\PSoC6\pdl\drivers/peripheral/scb/cy_scb_uart.h ****     /**
 608:Generated_Source\PSoC6\pdl\drivers/peripheral/scb/cy_scb_uart.h ****     * When there are fewer entries in the TX FIFO then this level
 609:Generated_Source\PSoC6\pdl\drivers/peripheral/scb/cy_scb_uart.h ****     * the TX trigger output goes high. This output can be connected
 610:Generated_Source\PSoC6\pdl\drivers/peripheral/scb/cy_scb_uart.h ****     * to a DMA channel through a trigger mux.
 611:Generated_Source\PSoC6\pdl\drivers/peripheral/scb/cy_scb_uart.h ****     * Also, it controls \ref CY_SCB_UART_TX_TRIGGER interrupt source.
 612:Generated_Source\PSoC6\pdl\drivers/peripheral/scb/cy_scb_uart.h ****     */
 613:Generated_Source\PSoC6\pdl\drivers/peripheral/scb/cy_scb_uart.h ****     uint32_t    txFifoTriggerLevel;
 614:Generated_Source\PSoC6\pdl\drivers/peripheral/scb/cy_scb_uart.h **** 
 615:Generated_Source\PSoC6\pdl\drivers/peripheral/scb/cy_scb_uart.h ****     /**
 616:Generated_Source\PSoC6\pdl\drivers/peripheral/scb/cy_scb_uart.h ****     * Bits set in this mask allows the event to cause an interrupt
 617:Generated_Source\PSoC6\pdl\drivers/peripheral/scb/cy_scb_uart.h ****     * (See \ref group_scb_uart_macros_tx_fifo_status for the set of constants)
 618:Generated_Source\PSoC6\pdl\drivers/peripheral/scb/cy_scb_uart.h ****     */
 619:Generated_Source\PSoC6\pdl\drivers/peripheral/scb/cy_scb_uart.h ****     uint32_t    txFifoIntEnableMask;
 620:Generated_Source\PSoC6\pdl\drivers/peripheral/scb/cy_scb_uart.h **** } cy_stc_scb_uart_config_t;
 621:Generated_Source\PSoC6\pdl\drivers/peripheral/scb/cy_scb_uart.h **** 
 622:Generated_Source\PSoC6\pdl\drivers/peripheral/scb/cy_scb_uart.h **** /** UART context structure.
 623:Generated_Source\PSoC6\pdl\drivers/peripheral/scb/cy_scb_uart.h **** * All fields for the context structure are internal. Firmware never reads or
 624:Generated_Source\PSoC6\pdl\drivers/peripheral/scb/cy_scb_uart.h **** * writes these values. Firmware allocates the structure and provides the
 625:Generated_Source\PSoC6\pdl\drivers/peripheral/scb/cy_scb_uart.h **** * address of the structure to the driver in function calls. Firmware must
 626:Generated_Source\PSoC6\pdl\drivers/peripheral/scb/cy_scb_uart.h **** * ensure that the defined instance of this structure remains in scope
 627:Generated_Source\PSoC6\pdl\drivers/peripheral/scb/cy_scb_uart.h **** * while the drive is in use.
 628:Generated_Source\PSoC6\pdl\drivers/peripheral/scb/cy_scb_uart.h **** */
 629:Generated_Source\PSoC6\pdl\drivers/peripheral/scb/cy_scb_uart.h **** typedef struct cy_stc_scb_uart_context
ARM GAS  C:\Users\jmori\AppData\Local\Temp\ccYuPisP.s 			page 18


 630:Generated_Source\PSoC6\pdl\drivers/peripheral/scb/cy_scb_uart.h **** {
 631:Generated_Source\PSoC6\pdl\drivers/peripheral/scb/cy_scb_uart.h ****     /** \cond INTERNAL */
 632:Generated_Source\PSoC6\pdl\drivers/peripheral/scb/cy_scb_uart.h ****     uint32_t volatile txStatus;         /**< The transmit status */
 633:Generated_Source\PSoC6\pdl\drivers/peripheral/scb/cy_scb_uart.h ****     uint32_t volatile rxStatus;         /**< The receive status */
 634:Generated_Source\PSoC6\pdl\drivers/peripheral/scb/cy_scb_uart.h **** 
 635:Generated_Source\PSoC6\pdl\drivers/peripheral/scb/cy_scb_uart.h ****     void     *rxRingBuf;                /**< The pointer to the ring buffer */
 636:Generated_Source\PSoC6\pdl\drivers/peripheral/scb/cy_scb_uart.h ****     uint32_t  rxRingBufSize;            /**< The ring buffer size */
 637:Generated_Source\PSoC6\pdl\drivers/peripheral/scb/cy_scb_uart.h ****     uint32_t volatile rxRingBufHead;    /**< The ring buffer head index */
 638:Generated_Source\PSoC6\pdl\drivers/peripheral/scb/cy_scb_uart.h ****     uint32_t volatile rxRingBufTail;    /**< The ring buffer tail index */
 639:Generated_Source\PSoC6\pdl\drivers/peripheral/scb/cy_scb_uart.h **** 
 640:Generated_Source\PSoC6\pdl\drivers/peripheral/scb/cy_scb_uart.h ****     void     *rxBuf;                    /**< The pointer to the receive buffer */
 641:Generated_Source\PSoC6\pdl\drivers/peripheral/scb/cy_scb_uart.h ****     uint32_t  rxBufSize;                /**< The receive buffer size */
 642:Generated_Source\PSoC6\pdl\drivers/peripheral/scb/cy_scb_uart.h ****     uint32_t volatile rxBufIdx;         /**< The current location in the receive buffer */
 643:Generated_Source\PSoC6\pdl\drivers/peripheral/scb/cy_scb_uart.h **** 
 644:Generated_Source\PSoC6\pdl\drivers/peripheral/scb/cy_scb_uart.h ****     void     *txBuf;                    /**< The pointer to the transmit buffer */
 645:Generated_Source\PSoC6\pdl\drivers/peripheral/scb/cy_scb_uart.h ****     uint32_t  txBufSize;                /**< The transmit buffer size */
 646:Generated_Source\PSoC6\pdl\drivers/peripheral/scb/cy_scb_uart.h ****     uint32_t volatile txLeftToTransmit; /**< The number of data elements left to be transmitted */
 647:Generated_Source\PSoC6\pdl\drivers/peripheral/scb/cy_scb_uart.h **** 
 648:Generated_Source\PSoC6\pdl\drivers/peripheral/scb/cy_scb_uart.h ****     /** The pointer to an event callback that is called when any of
 649:Generated_Source\PSoC6\pdl\drivers/peripheral/scb/cy_scb_uart.h ****     * \ref group_scb_uart_macros_callback_events occurs
 650:Generated_Source\PSoC6\pdl\drivers/peripheral/scb/cy_scb_uart.h ****     */
 651:Generated_Source\PSoC6\pdl\drivers/peripheral/scb/cy_scb_uart.h ****     cy_cb_scb_uart_handle_events_t cbEvents;
 652:Generated_Source\PSoC6\pdl\drivers/peripheral/scb/cy_scb_uart.h **** 
 653:Generated_Source\PSoC6\pdl\drivers/peripheral/scb/cy_scb_uart.h **** #if !defined(NDEBUG)
 654:Generated_Source\PSoC6\pdl\drivers/peripheral/scb/cy_scb_uart.h ****     uint32_t initKey;               /**< Tracks the context initialization */
 655:Generated_Source\PSoC6\pdl\drivers/peripheral/scb/cy_scb_uart.h **** #endif /* !(NDEBUG) */
 656:Generated_Source\PSoC6\pdl\drivers/peripheral/scb/cy_scb_uart.h ****     /** \endcond */
 657:Generated_Source\PSoC6\pdl\drivers/peripheral/scb/cy_scb_uart.h **** } cy_stc_scb_uart_context_t;
 658:Generated_Source\PSoC6\pdl\drivers/peripheral/scb/cy_scb_uart.h **** /** \} group_scb_uart_data_structures */
 659:Generated_Source\PSoC6\pdl\drivers/peripheral/scb/cy_scb_uart.h **** 
 660:Generated_Source\PSoC6\pdl\drivers/peripheral/scb/cy_scb_uart.h **** 
 661:Generated_Source\PSoC6\pdl\drivers/peripheral/scb/cy_scb_uart.h **** /*******************************************************************************
 662:Generated_Source\PSoC6\pdl\drivers/peripheral/scb/cy_scb_uart.h **** *                           Function Prototypes
 663:Generated_Source\PSoC6\pdl\drivers/peripheral/scb/cy_scb_uart.h **** *******************************************************************************/
 664:Generated_Source\PSoC6\pdl\drivers/peripheral/scb/cy_scb_uart.h **** 
 665:Generated_Source\PSoC6\pdl\drivers/peripheral/scb/cy_scb_uart.h **** /**
 666:Generated_Source\PSoC6\pdl\drivers/peripheral/scb/cy_scb_uart.h **** * \addtogroup group_scb_uart_general_functions
 667:Generated_Source\PSoC6\pdl\drivers/peripheral/scb/cy_scb_uart.h **** * \{
 668:Generated_Source\PSoC6\pdl\drivers/peripheral/scb/cy_scb_uart.h **** */
 669:Generated_Source\PSoC6\pdl\drivers/peripheral/scb/cy_scb_uart.h **** cy_en_scb_uart_status_t Cy_SCB_UART_Init(CySCB_Type *base, cy_stc_scb_uart_config_t const *config,
 670:Generated_Source\PSoC6\pdl\drivers/peripheral/scb/cy_scb_uart.h ****                                          cy_stc_scb_uart_context_t *context);
 671:Generated_Source\PSoC6\pdl\drivers/peripheral/scb/cy_scb_uart.h **** void Cy_SCB_UART_DeInit (CySCB_Type *base);
 672:Generated_Source\PSoC6\pdl\drivers/peripheral/scb/cy_scb_uart.h **** __STATIC_INLINE void Cy_SCB_UART_Enable(CySCB_Type *base);
 673:Generated_Source\PSoC6\pdl\drivers/peripheral/scb/cy_scb_uart.h **** void Cy_SCB_UART_Disable(CySCB_Type *base, cy_stc_scb_uart_context_t *context);
 674:Generated_Source\PSoC6\pdl\drivers/peripheral/scb/cy_scb_uart.h **** 
 675:Generated_Source\PSoC6\pdl\drivers/peripheral/scb/cy_scb_uart.h **** __STATIC_INLINE void     Cy_SCB_UART_EnableCts      (CySCB_Type *base);
 676:Generated_Source\PSoC6\pdl\drivers/peripheral/scb/cy_scb_uart.h **** __STATIC_INLINE void     Cy_SCB_UART_DisableCts     (CySCB_Type *base);
 677:Generated_Source\PSoC6\pdl\drivers/peripheral/scb/cy_scb_uart.h **** __STATIC_INLINE void     Cy_SCB_UART_SetRtsFifoLevel(CySCB_Type *base, uint32_t level);
 678:Generated_Source\PSoC6\pdl\drivers/peripheral/scb/cy_scb_uart.h **** __STATIC_INLINE uint32_t Cy_SCB_UART_GetRtsFifoLevel(CySCB_Type const *base);
 679:Generated_Source\PSoC6\pdl\drivers/peripheral/scb/cy_scb_uart.h **** 
 680:Generated_Source\PSoC6\pdl\drivers/peripheral/scb/cy_scb_uart.h **** __STATIC_INLINE void Cy_SCB_UART_EnableSkipStart (CySCB_Type *base);
 681:Generated_Source\PSoC6\pdl\drivers/peripheral/scb/cy_scb_uart.h **** __STATIC_INLINE void Cy_SCB_UART_DisableSkipStart(CySCB_Type *base);
 682:Generated_Source\PSoC6\pdl\drivers/peripheral/scb/cy_scb_uart.h **** /** \} group_scb_uart_general_functions */
 683:Generated_Source\PSoC6\pdl\drivers/peripheral/scb/cy_scb_uart.h **** 
 684:Generated_Source\PSoC6\pdl\drivers/peripheral/scb/cy_scb_uart.h **** /**
 685:Generated_Source\PSoC6\pdl\drivers/peripheral/scb/cy_scb_uart.h **** * \addtogroup group_scb_uart_high_level_functions
 686:Generated_Source\PSoC6\pdl\drivers/peripheral/scb/cy_scb_uart.h **** * \{
ARM GAS  C:\Users\jmori\AppData\Local\Temp\ccYuPisP.s 			page 19


 687:Generated_Source\PSoC6\pdl\drivers/peripheral/scb/cy_scb_uart.h **** */
 688:Generated_Source\PSoC6\pdl\drivers/peripheral/scb/cy_scb_uart.h **** void     Cy_SCB_UART_StartRingBuffer   (CySCB_Type *base, void *buffer, uint32_t size,
 689:Generated_Source\PSoC6\pdl\drivers/peripheral/scb/cy_scb_uart.h ****                                         cy_stc_scb_uart_context_t *context);
 690:Generated_Source\PSoC6\pdl\drivers/peripheral/scb/cy_scb_uart.h **** void     Cy_SCB_UART_StopRingBuffer    (CySCB_Type *base, cy_stc_scb_uart_context_t *context);
 691:Generated_Source\PSoC6\pdl\drivers/peripheral/scb/cy_scb_uart.h **** uint32_t Cy_SCB_UART_GetNumInRingBuffer(CySCB_Type const *base, cy_stc_scb_uart_context_t const *co
 692:Generated_Source\PSoC6\pdl\drivers/peripheral/scb/cy_scb_uart.h **** void     Cy_SCB_UART_ClearRingBuffer   (CySCB_Type const *base, cy_stc_scb_uart_context_t *context)
 693:Generated_Source\PSoC6\pdl\drivers/peripheral/scb/cy_scb_uart.h **** 
 694:Generated_Source\PSoC6\pdl\drivers/peripheral/scb/cy_scb_uart.h **** cy_en_scb_uart_status_t Cy_SCB_UART_Receive(CySCB_Type *base, void *buffer, uint32_t size,
 695:Generated_Source\PSoC6\pdl\drivers/peripheral/scb/cy_scb_uart.h ****                                             cy_stc_scb_uart_context_t *context);
 696:Generated_Source\PSoC6\pdl\drivers/peripheral/scb/cy_scb_uart.h **** void     Cy_SCB_UART_AbortReceive    (CySCB_Type *base, cy_stc_scb_uart_context_t *context);
 697:Generated_Source\PSoC6\pdl\drivers/peripheral/scb/cy_scb_uart.h **** uint32_t Cy_SCB_UART_GetReceiveStatus(CySCB_Type const *base, cy_stc_scb_uart_context_t const *cont
 698:Generated_Source\PSoC6\pdl\drivers/peripheral/scb/cy_scb_uart.h **** uint32_t Cy_SCB_UART_GetNumReceived  (CySCB_Type const *base, cy_stc_scb_uart_context_t const *cont
 699:Generated_Source\PSoC6\pdl\drivers/peripheral/scb/cy_scb_uart.h **** 
 700:Generated_Source\PSoC6\pdl\drivers/peripheral/scb/cy_scb_uart.h **** cy_en_scb_uart_status_t Cy_SCB_UART_Transmit(CySCB_Type *base, void *buffer, uint32_t size,
 701:Generated_Source\PSoC6\pdl\drivers/peripheral/scb/cy_scb_uart.h ****                                              cy_stc_scb_uart_context_t *context);
 702:Generated_Source\PSoC6\pdl\drivers/peripheral/scb/cy_scb_uart.h **** void     Cy_SCB_UART_AbortTransmit       (CySCB_Type *base, cy_stc_scb_uart_context_t *context);
 703:Generated_Source\PSoC6\pdl\drivers/peripheral/scb/cy_scb_uart.h **** uint32_t Cy_SCB_UART_GetTransmitStatus   (CySCB_Type const *base, cy_stc_scb_uart_context_t const *
 704:Generated_Source\PSoC6\pdl\drivers/peripheral/scb/cy_scb_uart.h **** uint32_t Cy_SCB_UART_GetNumLeftToTransmit(CySCB_Type const *base, cy_stc_scb_uart_context_t const *
 705:Generated_Source\PSoC6\pdl\drivers/peripheral/scb/cy_scb_uart.h **** /** \} group_scb_uart_high_level_functions */
 706:Generated_Source\PSoC6\pdl\drivers/peripheral/scb/cy_scb_uart.h **** 
 707:Generated_Source\PSoC6\pdl\drivers/peripheral/scb/cy_scb_uart.h **** /**
 708:Generated_Source\PSoC6\pdl\drivers/peripheral/scb/cy_scb_uart.h **** * \addtogroup group_scb_uart_low_level_functions
 709:Generated_Source\PSoC6\pdl\drivers/peripheral/scb/cy_scb_uart.h **** * \{
 710:Generated_Source\PSoC6\pdl\drivers/peripheral/scb/cy_scb_uart.h **** */
 711:Generated_Source\PSoC6\pdl\drivers/peripheral/scb/cy_scb_uart.h **** __STATIC_INLINE uint32_t Cy_SCB_UART_Put             (CySCB_Type *base, uint32_t data);
 712:Generated_Source\PSoC6\pdl\drivers/peripheral/scb/cy_scb_uart.h **** __STATIC_INLINE uint32_t Cy_SCB_UART_PutArray        (CySCB_Type *base, void *buffer, uint32_t size
 713:Generated_Source\PSoC6\pdl\drivers/peripheral/scb/cy_scb_uart.h **** __STATIC_INLINE void     Cy_SCB_UART_PutArrayBlocking(CySCB_Type *base, void *buffer, uint32_t size
 714:Generated_Source\PSoC6\pdl\drivers/peripheral/scb/cy_scb_uart.h **** __STATIC_INLINE void     Cy_SCB_UART_PutString       (CySCB_Type *base, char_t const string[]);
 715:Generated_Source\PSoC6\pdl\drivers/peripheral/scb/cy_scb_uart.h **** void Cy_SCB_UART_SendBreakBlocking(CySCB_Type *base, uint32_t breakWidth);
 716:Generated_Source\PSoC6\pdl\drivers/peripheral/scb/cy_scb_uart.h **** 
 717:Generated_Source\PSoC6\pdl\drivers/peripheral/scb/cy_scb_uart.h **** __STATIC_INLINE uint32_t Cy_SCB_UART_Get             (CySCB_Type const *base);
 718:Generated_Source\PSoC6\pdl\drivers/peripheral/scb/cy_scb_uart.h **** __STATIC_INLINE uint32_t Cy_SCB_UART_GetArray        (CySCB_Type const *base, void *buffer, uint32_
 719:Generated_Source\PSoC6\pdl\drivers/peripheral/scb/cy_scb_uart.h **** __STATIC_INLINE void     Cy_SCB_UART_GetArrayBlocking(CySCB_Type const *base, void *buffer, uint32_
 720:Generated_Source\PSoC6\pdl\drivers/peripheral/scb/cy_scb_uart.h **** 
 721:Generated_Source\PSoC6\pdl\drivers/peripheral/scb/cy_scb_uart.h **** __STATIC_INLINE uint32_t Cy_SCB_UART_GetTxFifoStatus  (CySCB_Type const *base);
 722:Generated_Source\PSoC6\pdl\drivers/peripheral/scb/cy_scb_uart.h **** __STATIC_INLINE void     Cy_SCB_UART_ClearTxFifoStatus(CySCB_Type *base, uint32_t clearMask);
 723:Generated_Source\PSoC6\pdl\drivers/peripheral/scb/cy_scb_uart.h **** 
 724:Generated_Source\PSoC6\pdl\drivers/peripheral/scb/cy_scb_uart.h **** __STATIC_INLINE uint32_t Cy_SCB_UART_GetRxFifoStatus  (CySCB_Type const *base);
 725:Generated_Source\PSoC6\pdl\drivers/peripheral/scb/cy_scb_uart.h **** __STATIC_INLINE void     Cy_SCB_UART_ClearRxFifoStatus(CySCB_Type *base, uint32_t clearMask);
 726:Generated_Source\PSoC6\pdl\drivers/peripheral/scb/cy_scb_uart.h **** 
 727:Generated_Source\PSoC6\pdl\drivers/peripheral/scb/cy_scb_uart.h **** __STATIC_INLINE uint32_t Cy_SCB_UART_GetNumInTxFifo   (CySCB_Type const *base);
 728:Generated_Source\PSoC6\pdl\drivers/peripheral/scb/cy_scb_uart.h **** __STATIC_INLINE bool     Cy_SCB_UART_IsTxComplete     (CySCB_Type const *base);
 729:Generated_Source\PSoC6\pdl\drivers/peripheral/scb/cy_scb_uart.h **** 
 730:Generated_Source\PSoC6\pdl\drivers/peripheral/scb/cy_scb_uart.h **** __STATIC_INLINE uint32_t Cy_SCB_UART_GetNumInRxFifo   (CySCB_Type const *base);
 731:Generated_Source\PSoC6\pdl\drivers/peripheral/scb/cy_scb_uart.h **** 
 732:Generated_Source\PSoC6\pdl\drivers/peripheral/scb/cy_scb_uart.h **** __STATIC_INLINE void     Cy_SCB_UART_ClearRxFifo      (CySCB_Type *base);
 733:Generated_Source\PSoC6\pdl\drivers/peripheral/scb/cy_scb_uart.h **** __STATIC_INLINE void     Cy_SCB_UART_ClearTxFifo      (CySCB_Type *base);
 734:Generated_Source\PSoC6\pdl\drivers/peripheral/scb/cy_scb_uart.h **** /** \} group_scb_uart_low_level_functions */
 735:Generated_Source\PSoC6\pdl\drivers/peripheral/scb/cy_scb_uart.h **** 
 736:Generated_Source\PSoC6\pdl\drivers/peripheral/scb/cy_scb_uart.h **** /**
 737:Generated_Source\PSoC6\pdl\drivers/peripheral/scb/cy_scb_uart.h **** * \addtogroup group_scb_uart_interrupt_functions
 738:Generated_Source\PSoC6\pdl\drivers/peripheral/scb/cy_scb_uart.h **** * \{
 739:Generated_Source\PSoC6\pdl\drivers/peripheral/scb/cy_scb_uart.h **** */
 740:Generated_Source\PSoC6\pdl\drivers/peripheral/scb/cy_scb_uart.h **** void Cy_SCB_UART_Interrupt(CySCB_Type *base, cy_stc_scb_uart_context_t *context);
 741:Generated_Source\PSoC6\pdl\drivers/peripheral/scb/cy_scb_uart.h **** 
 742:Generated_Source\PSoC6\pdl\drivers/peripheral/scb/cy_scb_uart.h **** __STATIC_INLINE void Cy_SCB_UART_RegisterCallback(CySCB_Type const *base, cy_cb_scb_uart_handle_eve
 743:Generated_Source\PSoC6\pdl\drivers/peripheral/scb/cy_scb_uart.h ****                                                   cy_stc_scb_uart_context_t *context);
ARM GAS  C:\Users\jmori\AppData\Local\Temp\ccYuPisP.s 			page 20


 744:Generated_Source\PSoC6\pdl\drivers/peripheral/scb/cy_scb_uart.h **** /** \} group_scb_uart_interrupt_functions */
 745:Generated_Source\PSoC6\pdl\drivers/peripheral/scb/cy_scb_uart.h **** 
 746:Generated_Source\PSoC6\pdl\drivers/peripheral/scb/cy_scb_uart.h **** /**
 747:Generated_Source\PSoC6\pdl\drivers/peripheral/scb/cy_scb_uart.h **** * \addtogroup group_scb_uart_low_power_functions
 748:Generated_Source\PSoC6\pdl\drivers/peripheral/scb/cy_scb_uart.h **** * \{
 749:Generated_Source\PSoC6\pdl\drivers/peripheral/scb/cy_scb_uart.h **** */
 750:Generated_Source\PSoC6\pdl\drivers/peripheral/scb/cy_scb_uart.h **** cy_en_syspm_status_t Cy_SCB_UART_DeepSleepCallback(cy_stc_syspm_callback_params_t *callbackParams, 
 751:Generated_Source\PSoC6\pdl\drivers/peripheral/scb/cy_scb_uart.h **** cy_en_syspm_status_t Cy_SCB_UART_HibernateCallback(cy_stc_syspm_callback_params_t *callbackParams, 
 752:Generated_Source\PSoC6\pdl\drivers/peripheral/scb/cy_scb_uart.h **** /** \} group_scb_uart_low_power_functions */
 753:Generated_Source\PSoC6\pdl\drivers/peripheral/scb/cy_scb_uart.h **** 
 754:Generated_Source\PSoC6\pdl\drivers/peripheral/scb/cy_scb_uart.h **** 
 755:Generated_Source\PSoC6\pdl\drivers/peripheral/scb/cy_scb_uart.h **** /*******************************************************************************
 756:Generated_Source\PSoC6\pdl\drivers/peripheral/scb/cy_scb_uart.h **** *                               API Constants
 757:Generated_Source\PSoC6\pdl\drivers/peripheral/scb/cy_scb_uart.h **** *******************************************************************************/
 758:Generated_Source\PSoC6\pdl\drivers/peripheral/scb/cy_scb_uart.h **** 
 759:Generated_Source\PSoC6\pdl\drivers/peripheral/scb/cy_scb_uart.h **** /**
 760:Generated_Source\PSoC6\pdl\drivers/peripheral/scb/cy_scb_uart.h **** * \addtogroup group_scb_uart_macros
 761:Generated_Source\PSoC6\pdl\drivers/peripheral/scb/cy_scb_uart.h **** * \{
 762:Generated_Source\PSoC6\pdl\drivers/peripheral/scb/cy_scb_uart.h **** */
 763:Generated_Source\PSoC6\pdl\drivers/peripheral/scb/cy_scb_uart.h **** 
 764:Generated_Source\PSoC6\pdl\drivers/peripheral/scb/cy_scb_uart.h **** /**
 765:Generated_Source\PSoC6\pdl\drivers/peripheral/scb/cy_scb_uart.h **** * \defgroup group_scb_uart_macros_irda_lp_ovs UART IRDA Low Power Oversample factors
 766:Generated_Source\PSoC6\pdl\drivers/peripheral/scb/cy_scb_uart.h **** * \{
 767:Generated_Source\PSoC6\pdl\drivers/peripheral/scb/cy_scb_uart.h **** */
 768:Generated_Source\PSoC6\pdl\drivers/peripheral/scb/cy_scb_uart.h **** #define CY_SCB_UART_IRDA_LP_OVS16      (1UL)   /**< IrDA in low-power mode oversampled by 16   */
 769:Generated_Source\PSoC6\pdl\drivers/peripheral/scb/cy_scb_uart.h **** #define CY_SCB_UART_IRDA_LP_OVS32      (2UL)   /**< IrDA in low-power mode oversampled by 32   */
 770:Generated_Source\PSoC6\pdl\drivers/peripheral/scb/cy_scb_uart.h **** #define CY_SCB_UART_IRDA_LP_OVS48      (3UL)   /**< IrDA in low-power mode oversampled by 48   */
 771:Generated_Source\PSoC6\pdl\drivers/peripheral/scb/cy_scb_uart.h **** #define CY_SCB_UART_IRDA_LP_OVS96      (4UL)   /**< IrDA in low-power mode oversampled by 96   */
 772:Generated_Source\PSoC6\pdl\drivers/peripheral/scb/cy_scb_uart.h **** #define CY_SCB_UART_IRDA_LP_OVS192     (5UL)   /**< IrDA in low-power mode oversampled by 192  */
 773:Generated_Source\PSoC6\pdl\drivers/peripheral/scb/cy_scb_uart.h **** #define CY_SCB_UART_IRDA_LP_OVS768     (6UL)   /**< IrDA in low-power mode oversampled by 768  */
 774:Generated_Source\PSoC6\pdl\drivers/peripheral/scb/cy_scb_uart.h **** #define CY_SCB_UART_IRDA_LP_OVS1536    (7UL)   /**< IrDA in low-power mode oversampled by 1536 */
 775:Generated_Source\PSoC6\pdl\drivers/peripheral/scb/cy_scb_uart.h **** /** \} group_scb_uart_macros_irda_lp_ovs */
 776:Generated_Source\PSoC6\pdl\drivers/peripheral/scb/cy_scb_uart.h **** 
 777:Generated_Source\PSoC6\pdl\drivers/peripheral/scb/cy_scb_uart.h **** /**
 778:Generated_Source\PSoC6\pdl\drivers/peripheral/scb/cy_scb_uart.h **** * \defgroup group_scb_uart_macros_rx_fifo_status UART RX FIFO status.
 779:Generated_Source\PSoC6\pdl\drivers/peripheral/scb/cy_scb_uart.h **** * \{
 780:Generated_Source\PSoC6\pdl\drivers/peripheral/scb/cy_scb_uart.h **** * Macros to check UART RX FIFO status returned by \ref Cy_SCB_UART_GetRxFifoStatus
 781:Generated_Source\PSoC6\pdl\drivers/peripheral/scb/cy_scb_uart.h **** * function or assign mask for \ref Cy_SCB_UART_ClearRxFifoStatus function.
 782:Generated_Source\PSoC6\pdl\drivers/peripheral/scb/cy_scb_uart.h **** * Each UART RX FIFO status is encoded in a separate bit, therefore multiple
 783:Generated_Source\PSoC6\pdl\drivers/peripheral/scb/cy_scb_uart.h **** * bits may be set to indicate the current status.
 784:Generated_Source\PSoC6\pdl\drivers/peripheral/scb/cy_scb_uart.h **** */
 785:Generated_Source\PSoC6\pdl\drivers/peripheral/scb/cy_scb_uart.h **** 
 786:Generated_Source\PSoC6\pdl\drivers/peripheral/scb/cy_scb_uart.h **** /** The number of entries in the RX FIFO is more than the RX FIFO trigger level
 787:Generated_Source\PSoC6\pdl\drivers/peripheral/scb/cy_scb_uart.h **** * value
 788:Generated_Source\PSoC6\pdl\drivers/peripheral/scb/cy_scb_uart.h **** */
 789:Generated_Source\PSoC6\pdl\drivers/peripheral/scb/cy_scb_uart.h **** #define CY_SCB_UART_RX_TRIGGER         (SCB_INTR_RX_TRIGGER_Msk)
 790:Generated_Source\PSoC6\pdl\drivers/peripheral/scb/cy_scb_uart.h **** 
 791:Generated_Source\PSoC6\pdl\drivers/peripheral/scb/cy_scb_uart.h **** /** The RX FIFO is not empty, there is data to read */
 792:Generated_Source\PSoC6\pdl\drivers/peripheral/scb/cy_scb_uart.h **** #define CY_SCB_UART_RX_NOT_EMPTY       (SCB_INTR_RX_NOT_EMPTY_Msk)
 793:Generated_Source\PSoC6\pdl\drivers/peripheral/scb/cy_scb_uart.h **** 
 794:Generated_Source\PSoC6\pdl\drivers/peripheral/scb/cy_scb_uart.h **** /**
 795:Generated_Source\PSoC6\pdl\drivers/peripheral/scb/cy_scb_uart.h **** * The RX FIFO is full, there is no more space for additional data, and
 796:Generated_Source\PSoC6\pdl\drivers/peripheral/scb/cy_scb_uart.h **** * any additional data will be dropped
 797:Generated_Source\PSoC6\pdl\drivers/peripheral/scb/cy_scb_uart.h **** */
 798:Generated_Source\PSoC6\pdl\drivers/peripheral/scb/cy_scb_uart.h **** #define CY_SCB_UART_RX_FULL            (SCB_INTR_RX_FULL_Msk)
 799:Generated_Source\PSoC6\pdl\drivers/peripheral/scb/cy_scb_uart.h **** 
 800:Generated_Source\PSoC6\pdl\drivers/peripheral/scb/cy_scb_uart.h **** /**
ARM GAS  C:\Users\jmori\AppData\Local\Temp\ccYuPisP.s 			page 21


 801:Generated_Source\PSoC6\pdl\drivers/peripheral/scb/cy_scb_uart.h **** * The RX FIFO was full and there was an attempt to write to it.
 802:Generated_Source\PSoC6\pdl\drivers/peripheral/scb/cy_scb_uart.h **** * That additional data was dropped.
 803:Generated_Source\PSoC6\pdl\drivers/peripheral/scb/cy_scb_uart.h **** */
 804:Generated_Source\PSoC6\pdl\drivers/peripheral/scb/cy_scb_uart.h **** #define CY_SCB_UART_RX_OVERFLOW        (SCB_INTR_RX_OVERFLOW_Msk)
 805:Generated_Source\PSoC6\pdl\drivers/peripheral/scb/cy_scb_uart.h **** 
 806:Generated_Source\PSoC6\pdl\drivers/peripheral/scb/cy_scb_uart.h **** /** An attempt to read from an empty RX FIFO */
 807:Generated_Source\PSoC6\pdl\drivers/peripheral/scb/cy_scb_uart.h **** #define CY_SCB_UART_RX_UNDERFLOW       (SCB_INTR_RX_UNDERFLOW_Msk)
 808:Generated_Source\PSoC6\pdl\drivers/peripheral/scb/cy_scb_uart.h **** 
 809:Generated_Source\PSoC6\pdl\drivers/peripheral/scb/cy_scb_uart.h **** /** The RX FIFO detected a frame error, either a stop or stop-bit error */
 810:Generated_Source\PSoC6\pdl\drivers/peripheral/scb/cy_scb_uart.h **** #define CY_SCB_UART_RX_ERR_FRAME       (SCB_INTR_RX_FRAME_ERROR_Msk)
 811:Generated_Source\PSoC6\pdl\drivers/peripheral/scb/cy_scb_uart.h **** 
 812:Generated_Source\PSoC6\pdl\drivers/peripheral/scb/cy_scb_uart.h **** /** The RX FIFO detected a parity error */
 813:Generated_Source\PSoC6\pdl\drivers/peripheral/scb/cy_scb_uart.h **** #define CY_SCB_UART_RX_ERR_PARITY      (SCB_INTR_RX_PARITY_ERROR_Msk)
 814:Generated_Source\PSoC6\pdl\drivers/peripheral/scb/cy_scb_uart.h **** 
 815:Generated_Source\PSoC6\pdl\drivers/peripheral/scb/cy_scb_uart.h **** /** The RX FIFO detected a break transmission from the transmitter */
 816:Generated_Source\PSoC6\pdl\drivers/peripheral/scb/cy_scb_uart.h **** #define CY_SCB_UART_RX_BREAK_DETECT    (SCB_INTR_RX_BREAK_DETECT_Msk)
 817:Generated_Source\PSoC6\pdl\drivers/peripheral/scb/cy_scb_uart.h **** /** \} group_scb_uart_macros_rx_fifo_status */
 818:Generated_Source\PSoC6\pdl\drivers/peripheral/scb/cy_scb_uart.h **** 
 819:Generated_Source\PSoC6\pdl\drivers/peripheral/scb/cy_scb_uart.h **** /**
 820:Generated_Source\PSoC6\pdl\drivers/peripheral/scb/cy_scb_uart.h **** * \defgroup group_scb_uart_macros_tx_fifo_status UART TX FIFO Statuses
 821:Generated_Source\PSoC6\pdl\drivers/peripheral/scb/cy_scb_uart.h **** * \{
 822:Generated_Source\PSoC6\pdl\drivers/peripheral/scb/cy_scb_uart.h **** * Macros to check UART TX FIFO status returned by \ref Cy_SCB_UART_GetTxFifoStatus
 823:Generated_Source\PSoC6\pdl\drivers/peripheral/scb/cy_scb_uart.h **** * function or assign mask for \ref Cy_SCB_UART_ClearTxFifoStatus function.
 824:Generated_Source\PSoC6\pdl\drivers/peripheral/scb/cy_scb_uart.h **** * Each UART TX FIFO status is encoded in a separate bit, therefore multiple bits
 825:Generated_Source\PSoC6\pdl\drivers/peripheral/scb/cy_scb_uart.h **** * may be set to indicate the current status.
 826:Generated_Source\PSoC6\pdl\drivers/peripheral/scb/cy_scb_uart.h **** */
 827:Generated_Source\PSoC6\pdl\drivers/peripheral/scb/cy_scb_uart.h **** 
 828:Generated_Source\PSoC6\pdl\drivers/peripheral/scb/cy_scb_uart.h **** /** The number of entries in the TX FIFO is less than the TX FIFO trigger level
 829:Generated_Source\PSoC6\pdl\drivers/peripheral/scb/cy_scb_uart.h **** * value
 830:Generated_Source\PSoC6\pdl\drivers/peripheral/scb/cy_scb_uart.h **** */
 831:Generated_Source\PSoC6\pdl\drivers/peripheral/scb/cy_scb_uart.h **** #define CY_SCB_UART_TX_TRIGGER     (SCB_INTR_TX_TRIGGER_Msk)
 832:Generated_Source\PSoC6\pdl\drivers/peripheral/scb/cy_scb_uart.h **** 
 833:Generated_Source\PSoC6\pdl\drivers/peripheral/scb/cy_scb_uart.h **** /** The TX FIFO is not full, there is a space for more data */
 834:Generated_Source\PSoC6\pdl\drivers/peripheral/scb/cy_scb_uart.h **** #define CY_SCB_UART_TX_NOT_FULL    (SCB_INTR_TX_NOT_FULL_Msk)
 835:Generated_Source\PSoC6\pdl\drivers/peripheral/scb/cy_scb_uart.h **** 
 836:Generated_Source\PSoC6\pdl\drivers/peripheral/scb/cy_scb_uart.h **** /** The TX FIFO is empty, note there may still be data in the shift register.*/
 837:Generated_Source\PSoC6\pdl\drivers/peripheral/scb/cy_scb_uart.h **** #define CY_SCB_UART_TX_EMPTY       (SCB_INTR_TX_EMPTY_Msk)
 838:Generated_Source\PSoC6\pdl\drivers/peripheral/scb/cy_scb_uart.h **** 
 839:Generated_Source\PSoC6\pdl\drivers/peripheral/scb/cy_scb_uart.h **** /** An attempt to write to the full TX FIFO */
 840:Generated_Source\PSoC6\pdl\drivers/peripheral/scb/cy_scb_uart.h **** #define CY_SCB_UART_TX_OVERFLOW    (SCB_INTR_TX_OVERFLOW_Msk)
 841:Generated_Source\PSoC6\pdl\drivers/peripheral/scb/cy_scb_uart.h **** 
 842:Generated_Source\PSoC6\pdl\drivers/peripheral/scb/cy_scb_uart.h **** /** An attempt to read from an empty transmitter FIFO (hardware reads). */
 843:Generated_Source\PSoC6\pdl\drivers/peripheral/scb/cy_scb_uart.h **** #define CY_SCB_UART_TX_UNDERFLOW (SCB_INTR_TX_UNDERFLOW_Msk)
 844:Generated_Source\PSoC6\pdl\drivers/peripheral/scb/cy_scb_uart.h **** 
 845:Generated_Source\PSoC6\pdl\drivers/peripheral/scb/cy_scb_uart.h **** /** All data has been transmitted out of the FIFO, including shifter */
 846:Generated_Source\PSoC6\pdl\drivers/peripheral/scb/cy_scb_uart.h **** #define CY_SCB_UART_TX_DONE        (SCB_INTR_TX_UART_DONE_Msk)
 847:Generated_Source\PSoC6\pdl\drivers/peripheral/scb/cy_scb_uart.h **** 
 848:Generated_Source\PSoC6\pdl\drivers/peripheral/scb/cy_scb_uart.h **** /** SmartCard only: the transmitter received a NACK */
 849:Generated_Source\PSoC6\pdl\drivers/peripheral/scb/cy_scb_uart.h **** #define CY_SCB_UART_TX_NACK        (SCB_INTR_TX_UART_NACK_Msk)
 850:Generated_Source\PSoC6\pdl\drivers/peripheral/scb/cy_scb_uart.h **** 
 851:Generated_Source\PSoC6\pdl\drivers/peripheral/scb/cy_scb_uart.h **** /** SmartCard only: the transmitter lost arbitration */
 852:Generated_Source\PSoC6\pdl\drivers/peripheral/scb/cy_scb_uart.h **** #define CY_SCB_UART_TX_ARB_LOST    (SCB_INTR_TX_UART_ARB_LOST_Msk)
 853:Generated_Source\PSoC6\pdl\drivers/peripheral/scb/cy_scb_uart.h **** /** \} group_scb_uart_macros_tx_fifo_status */
 854:Generated_Source\PSoC6\pdl\drivers/peripheral/scb/cy_scb_uart.h **** 
 855:Generated_Source\PSoC6\pdl\drivers/peripheral/scb/cy_scb_uart.h **** /**
 856:Generated_Source\PSoC6\pdl\drivers/peripheral/scb/cy_scb_uart.h **** * \defgroup group_scb_uart_macros_receive_status UART Receive Statuses
 857:Generated_Source\PSoC6\pdl\drivers/peripheral/scb/cy_scb_uart.h **** * \{
ARM GAS  C:\Users\jmori\AppData\Local\Temp\ccYuPisP.s 			page 22


 858:Generated_Source\PSoC6\pdl\drivers/peripheral/scb/cy_scb_uart.h **** * Macros to check current UART receive status returned by 
 859:Generated_Source\PSoC6\pdl\drivers/peripheral/scb/cy_scb_uart.h **** * \ref Cy_SCB_UART_GetReceiveStatus function. 
 860:Generated_Source\PSoC6\pdl\drivers/peripheral/scb/cy_scb_uart.h **** * Each UART receive status is encoded in a separate bit, therefore multiple bits
 861:Generated_Source\PSoC6\pdl\drivers/peripheral/scb/cy_scb_uart.h **** * may be set to indicate the current status.
 862:Generated_Source\PSoC6\pdl\drivers/peripheral/scb/cy_scb_uart.h **** */
 863:Generated_Source\PSoC6\pdl\drivers/peripheral/scb/cy_scb_uart.h **** /** The receive operation started by \ref Cy_SCB_UART_Receive is in progress */
 864:Generated_Source\PSoC6\pdl\drivers/peripheral/scb/cy_scb_uart.h **** #define CY_SCB_UART_RECEIVE_ACTIVE         (0x01UL)
 865:Generated_Source\PSoC6\pdl\drivers/peripheral/scb/cy_scb_uart.h **** 
 866:Generated_Source\PSoC6\pdl\drivers/peripheral/scb/cy_scb_uart.h **** /**
 867:Generated_Source\PSoC6\pdl\drivers/peripheral/scb/cy_scb_uart.h **** * The hardware RX FIFO was full and there was an attempt to write to it.
 868:Generated_Source\PSoC6\pdl\drivers/peripheral/scb/cy_scb_uart.h **** * That additional data was dropped.
 869:Generated_Source\PSoC6\pdl\drivers/peripheral/scb/cy_scb_uart.h **** */
 870:Generated_Source\PSoC6\pdl\drivers/peripheral/scb/cy_scb_uart.h **** #define CY_SCB_UART_RECEIVE_OVERFLOW       (SCB_INTR_RX_OVERFLOW_Msk)
 871:Generated_Source\PSoC6\pdl\drivers/peripheral/scb/cy_scb_uart.h **** 
 872:Generated_Source\PSoC6\pdl\drivers/peripheral/scb/cy_scb_uart.h **** /** The receive hardware detected a frame error, either a start or
 873:Generated_Source\PSoC6\pdl\drivers/peripheral/scb/cy_scb_uart.h **** * stop bit error
 874:Generated_Source\PSoC6\pdl\drivers/peripheral/scb/cy_scb_uart.h **** */
 875:Generated_Source\PSoC6\pdl\drivers/peripheral/scb/cy_scb_uart.h **** #define CY_SCB_UART_RECEIVE_ERR_FRAME      (SCB_INTR_RX_FRAME_ERROR_Msk)
 876:Generated_Source\PSoC6\pdl\drivers/peripheral/scb/cy_scb_uart.h **** 
 877:Generated_Source\PSoC6\pdl\drivers/peripheral/scb/cy_scb_uart.h **** /** The receive hardware detected a parity error */
 878:Generated_Source\PSoC6\pdl\drivers/peripheral/scb/cy_scb_uart.h **** #define CY_SCB_UART_RECEIVE_ERR_PARITY     (SCB_INTR_RX_PARITY_ERROR_Msk)
 879:Generated_Source\PSoC6\pdl\drivers/peripheral/scb/cy_scb_uart.h **** 
 880:Generated_Source\PSoC6\pdl\drivers/peripheral/scb/cy_scb_uart.h **** /** The receive hardware detected a break transmission from transmitter */
 881:Generated_Source\PSoC6\pdl\drivers/peripheral/scb/cy_scb_uart.h **** #define CY_SCB_UART_RECEIVE_BREAK_DETECT   (SCB_INTR_RX_BREAK_DETECT_Msk)
 882:Generated_Source\PSoC6\pdl\drivers/peripheral/scb/cy_scb_uart.h **** /** \} group_scb_uart_macros_receive_status */
 883:Generated_Source\PSoC6\pdl\drivers/peripheral/scb/cy_scb_uart.h **** 
 884:Generated_Source\PSoC6\pdl\drivers/peripheral/scb/cy_scb_uart.h **** /**
 885:Generated_Source\PSoC6\pdl\drivers/peripheral/scb/cy_scb_uart.h **** * \defgroup group_scb_uart_macros_transmit_status UART Transmit Status
 886:Generated_Source\PSoC6\pdl\drivers/peripheral/scb/cy_scb_uart.h **** * \{
 887:Generated_Source\PSoC6\pdl\drivers/peripheral/scb/cy_scb_uart.h **** * Macros to check current UART transmit status returned by 
 888:Generated_Source\PSoC6\pdl\drivers/peripheral/scb/cy_scb_uart.h **** * \ref Cy_SCB_UART_GetTransmitStatus function. 
 889:Generated_Source\PSoC6\pdl\drivers/peripheral/scb/cy_scb_uart.h **** * Each UART transmit status is encoded in a separate bit, therefore multiple bits
 890:Generated_Source\PSoC6\pdl\drivers/peripheral/scb/cy_scb_uart.h **** * may be set to indicate the current status.
 891:Generated_Source\PSoC6\pdl\drivers/peripheral/scb/cy_scb_uart.h **** */
 892:Generated_Source\PSoC6\pdl\drivers/peripheral/scb/cy_scb_uart.h **** 
 893:Generated_Source\PSoC6\pdl\drivers/peripheral/scb/cy_scb_uart.h **** /** The transmit operation started by \ref Cy_SCB_UART_Transmit is in progress */
 894:Generated_Source\PSoC6\pdl\drivers/peripheral/scb/cy_scb_uart.h **** #define CY_SCB_UART_TRANSMIT_ACTIVE    (0x01UL)
 895:Generated_Source\PSoC6\pdl\drivers/peripheral/scb/cy_scb_uart.h **** 
 896:Generated_Source\PSoC6\pdl\drivers/peripheral/scb/cy_scb_uart.h **** /**
 897:Generated_Source\PSoC6\pdl\drivers/peripheral/scb/cy_scb_uart.h **** * All data elements specified by \ref Cy_SCB_UART_Transmit have been loaded
 898:Generated_Source\PSoC6\pdl\drivers/peripheral/scb/cy_scb_uart.h **** * into the TX FIFO
 899:Generated_Source\PSoC6\pdl\drivers/peripheral/scb/cy_scb_uart.h **** */
 900:Generated_Source\PSoC6\pdl\drivers/peripheral/scb/cy_scb_uart.h **** #define CY_SCB_UART_TRANSMIT_IN_FIFO   (0x02UL)
 901:Generated_Source\PSoC6\pdl\drivers/peripheral/scb/cy_scb_uart.h **** 
 902:Generated_Source\PSoC6\pdl\drivers/peripheral/scb/cy_scb_uart.h **** /** SmartCard only: the transmitter received a NACK */
 903:Generated_Source\PSoC6\pdl\drivers/peripheral/scb/cy_scb_uart.h **** #define CY_SCB_UART_TRANSMIT_NACK      (SCB_INTR_TX_UART_NACK_Msk)
 904:Generated_Source\PSoC6\pdl\drivers/peripheral/scb/cy_scb_uart.h **** 
 905:Generated_Source\PSoC6\pdl\drivers/peripheral/scb/cy_scb_uart.h **** /** SmartCard only: the transmitter lost arbitration */
 906:Generated_Source\PSoC6\pdl\drivers/peripheral/scb/cy_scb_uart.h **** #define CY_SCB_UART_TRANSMIT_ARB_LOST  (SCB_INTR_TX_UART_ARB_LOST_Msk)
 907:Generated_Source\PSoC6\pdl\drivers/peripheral/scb/cy_scb_uart.h **** /** \} group_scb_uart_macros_transmit_status */
 908:Generated_Source\PSoC6\pdl\drivers/peripheral/scb/cy_scb_uart.h **** 
 909:Generated_Source\PSoC6\pdl\drivers/peripheral/scb/cy_scb_uart.h **** /**
 910:Generated_Source\PSoC6\pdl\drivers/peripheral/scb/cy_scb_uart.h **** * \defgroup group_scb_uart_macros_callback_events UART Callback Events
 911:Generated_Source\PSoC6\pdl\drivers/peripheral/scb/cy_scb_uart.h **** * \{
 912:Generated_Source\PSoC6\pdl\drivers/peripheral/scb/cy_scb_uart.h **** * Macros to check UART events passed by \ref cy_cb_scb_uart_handle_events_t callback.
 913:Generated_Source\PSoC6\pdl\drivers/peripheral/scb/cy_scb_uart.h **** * Note that only single event is notified by the callback when it is called.
 914:Generated_Source\PSoC6\pdl\drivers/peripheral/scb/cy_scb_uart.h **** */
ARM GAS  C:\Users\jmori\AppData\Local\Temp\ccYuPisP.s 			page 23


 915:Generated_Source\PSoC6\pdl\drivers/peripheral/scb/cy_scb_uart.h **** 
 916:Generated_Source\PSoC6\pdl\drivers/peripheral/scb/cy_scb_uart.h **** /**
 917:Generated_Source\PSoC6\pdl\drivers/peripheral/scb/cy_scb_uart.h **** * All data elements specified by \ref Cy_SCB_UART_Transmit have been loaded
 918:Generated_Source\PSoC6\pdl\drivers/peripheral/scb/cy_scb_uart.h **** * into the TX FIFO
 919:Generated_Source\PSoC6\pdl\drivers/peripheral/scb/cy_scb_uart.h **** */
 920:Generated_Source\PSoC6\pdl\drivers/peripheral/scb/cy_scb_uart.h **** #define CY_SCB_UART_TRANSMIT_IN_FIFO_EVENT (0x01UL)
 921:Generated_Source\PSoC6\pdl\drivers/peripheral/scb/cy_scb_uart.h **** 
 922:Generated_Source\PSoC6\pdl\drivers/peripheral/scb/cy_scb_uart.h **** /** The transmit operation started by \ref Cy_SCB_UART_Transmit is complete */
 923:Generated_Source\PSoC6\pdl\drivers/peripheral/scb/cy_scb_uart.h **** #define CY_SCB_UART_TRANSMIT_DONE_EVENT    (0x02UL)
 924:Generated_Source\PSoC6\pdl\drivers/peripheral/scb/cy_scb_uart.h **** 
 925:Generated_Source\PSoC6\pdl\drivers/peripheral/scb/cy_scb_uart.h **** /** The receive operation started by \ref Cy_SCB_UART_Receive is complete */
 926:Generated_Source\PSoC6\pdl\drivers/peripheral/scb/cy_scb_uart.h **** #define CY_SCB_UART_RECEIVE_DONE_EVENT     (0x04UL)
 927:Generated_Source\PSoC6\pdl\drivers/peripheral/scb/cy_scb_uart.h **** 
 928:Generated_Source\PSoC6\pdl\drivers/peripheral/scb/cy_scb_uart.h **** /**
 929:Generated_Source\PSoC6\pdl\drivers/peripheral/scb/cy_scb_uart.h **** * The ring buffer is full, there is no more space for additional data.
 930:Generated_Source\PSoC6\pdl\drivers/peripheral/scb/cy_scb_uart.h **** * Additional data is stored in the RX FIFO until it becomes full, at which
 931:Generated_Source\PSoC6\pdl\drivers/peripheral/scb/cy_scb_uart.h **** * point data is dropped.
 932:Generated_Source\PSoC6\pdl\drivers/peripheral/scb/cy_scb_uart.h **** */
 933:Generated_Source\PSoC6\pdl\drivers/peripheral/scb/cy_scb_uart.h **** #define CY_SCB_UART_RB_FULL_EVENT          (0x08UL)
 934:Generated_Source\PSoC6\pdl\drivers/peripheral/scb/cy_scb_uart.h **** 
 935:Generated_Source\PSoC6\pdl\drivers/peripheral/scb/cy_scb_uart.h **** /**
 936:Generated_Source\PSoC6\pdl\drivers/peripheral/scb/cy_scb_uart.h **** * An error was detected during the receive operation. This includes overflow,
 937:Generated_Source\PSoC6\pdl\drivers/peripheral/scb/cy_scb_uart.h **** * frame error, or parity error. Check \ref Cy_SCB_UART_GetReceiveStatus to
 938:Generated_Source\PSoC6\pdl\drivers/peripheral/scb/cy_scb_uart.h **** * determine the source of the error.
 939:Generated_Source\PSoC6\pdl\drivers/peripheral/scb/cy_scb_uart.h **** */
 940:Generated_Source\PSoC6\pdl\drivers/peripheral/scb/cy_scb_uart.h **** #define CY_SCB_UART_RECEIVE_ERR_EVENT      (0x10UL)
 941:Generated_Source\PSoC6\pdl\drivers/peripheral/scb/cy_scb_uart.h **** 
 942:Generated_Source\PSoC6\pdl\drivers/peripheral/scb/cy_scb_uart.h **** /**
 943:Generated_Source\PSoC6\pdl\drivers/peripheral/scb/cy_scb_uart.h **** * An error was detected during the transmit operation. This includes a NACK
 944:Generated_Source\PSoC6\pdl\drivers/peripheral/scb/cy_scb_uart.h **** * or lost arbitration. Check \ref Cy_SCB_UART_GetTransmitStatus to determine
 945:Generated_Source\PSoC6\pdl\drivers/peripheral/scb/cy_scb_uart.h **** * the source of the error
 946:Generated_Source\PSoC6\pdl\drivers/peripheral/scb/cy_scb_uart.h **** */
 947:Generated_Source\PSoC6\pdl\drivers/peripheral/scb/cy_scb_uart.h **** #define CY_SCB_UART_TRANSMIT_ERR_EVENT     (0x20UL)
 948:Generated_Source\PSoC6\pdl\drivers/peripheral/scb/cy_scb_uart.h **** /** \} group_scb_uart_macros_callback_events */
 949:Generated_Source\PSoC6\pdl\drivers/peripheral/scb/cy_scb_uart.h **** 
 950:Generated_Source\PSoC6\pdl\drivers/peripheral/scb/cy_scb_uart.h **** /** Data returned by the hardware when an empty RX FIFO is read */
 951:Generated_Source\PSoC6\pdl\drivers/peripheral/scb/cy_scb_uart.h **** #define CY_SCB_UART_RX_NO_DATA         (0xFFFFFFFFUL)
 952:Generated_Source\PSoC6\pdl\drivers/peripheral/scb/cy_scb_uart.h **** 
 953:Generated_Source\PSoC6\pdl\drivers/peripheral/scb/cy_scb_uart.h **** 
 954:Generated_Source\PSoC6\pdl\drivers/peripheral/scb/cy_scb_uart.h **** /*******************************************************************************
 955:Generated_Source\PSoC6\pdl\drivers/peripheral/scb/cy_scb_uart.h **** *                            Internal Constants
 956:Generated_Source\PSoC6\pdl\drivers/peripheral/scb/cy_scb_uart.h **** *******************************************************************************/
 957:Generated_Source\PSoC6\pdl\drivers/peripheral/scb/cy_scb_uart.h **** 
 958:Generated_Source\PSoC6\pdl\drivers/peripheral/scb/cy_scb_uart.h **** /** \cond INTERNAL */
 959:Generated_Source\PSoC6\pdl\drivers/peripheral/scb/cy_scb_uart.h **** #define CY_SCB_UART_TX_INTR_MASK    (CY_SCB_UART_TX_TRIGGER  | CY_SCB_UART_TX_NOT_FULL  | CY_SCB_UA
 960:Generated_Source\PSoC6\pdl\drivers/peripheral/scb/cy_scb_uart.h ****                                      CY_SCB_UART_TX_OVERFLOW | CY_SCB_UART_TX_UNDERFLOW | CY_SCB_UA
 961:Generated_Source\PSoC6\pdl\drivers/peripheral/scb/cy_scb_uart.h ****                                      CY_SCB_UART_TX_NACK     | CY_SCB_UART_TX_ARB_LOST)
 962:Generated_Source\PSoC6\pdl\drivers/peripheral/scb/cy_scb_uart.h **** 
 963:Generated_Source\PSoC6\pdl\drivers/peripheral/scb/cy_scb_uart.h **** #define CY_SCB_UART_RX_INTR_MASK    (CY_SCB_UART_RX_TRIGGER    | CY_SCB_UART_RX_NOT_EMPTY | CY_SCB_
 964:Generated_Source\PSoC6\pdl\drivers/peripheral/scb/cy_scb_uart.h ****                                      CY_SCB_UART_RX_OVERFLOW   | CY_SCB_UART_RX_UNDERFLOW | CY_SCB_
 965:Generated_Source\PSoC6\pdl\drivers/peripheral/scb/cy_scb_uart.h ****                                      CY_SCB_UART_RX_ERR_PARITY | CY_SCB_UART_RX_BREAK_DETECT)
 966:Generated_Source\PSoC6\pdl\drivers/peripheral/scb/cy_scb_uart.h **** 
 967:Generated_Source\PSoC6\pdl\drivers/peripheral/scb/cy_scb_uart.h **** #define CY_SCB_UART_TX_INTR        (CY_SCB_TX_INTR_LEVEL | CY_SCB_TX_INTR_UART_NACK | CY_SCB_TX_INT
 968:Generated_Source\PSoC6\pdl\drivers/peripheral/scb/cy_scb_uart.h **** 
 969:Generated_Source\PSoC6\pdl\drivers/peripheral/scb/cy_scb_uart.h **** #define CY_SCB_UART_RX_INTR        (CY_SCB_RX_INTR_LEVEL | CY_SCB_RX_INTR_OVERFLOW | CY_SCB_RX_INTR
 970:Generated_Source\PSoC6\pdl\drivers/peripheral/scb/cy_scb_uart.h ****                                     CY_SCB_RX_INTR_UART_PARITY_ERROR | CY_SCB_RX_INTR_UART_BREAK_DE
 971:Generated_Source\PSoC6\pdl\drivers/peripheral/scb/cy_scb_uart.h **** 
ARM GAS  C:\Users\jmori\AppData\Local\Temp\ccYuPisP.s 			page 24


 972:Generated_Source\PSoC6\pdl\drivers/peripheral/scb/cy_scb_uart.h **** #define CY_SCB_UART_RECEIVE_ERR    (CY_SCB_RX_INTR_OVERFLOW | CY_SCB_RX_INTR_UART_FRAME_ERROR | \
 973:Generated_Source\PSoC6\pdl\drivers/peripheral/scb/cy_scb_uart.h ****                                     CY_SCB_RX_INTR_UART_PARITY_ERROR)
 974:Generated_Source\PSoC6\pdl\drivers/peripheral/scb/cy_scb_uart.h **** 
 975:Generated_Source\PSoC6\pdl\drivers/peripheral/scb/cy_scb_uart.h **** #define CY_SCB_UART_TRANSMIT_ERR   (CY_SCB_TX_INTR_UART_NACK | CY_SCB_TX_INTR_UART_ARB_LOST)
 976:Generated_Source\PSoC6\pdl\drivers/peripheral/scb/cy_scb_uart.h **** 
 977:Generated_Source\PSoC6\pdl\drivers/peripheral/scb/cy_scb_uart.h **** #define CY_SCB_UART_INIT_KEY       (0x00ABCDEFUL)
 978:Generated_Source\PSoC6\pdl\drivers/peripheral/scb/cy_scb_uart.h **** 
 979:Generated_Source\PSoC6\pdl\drivers/peripheral/scb/cy_scb_uart.h **** #define CY_SCB_UART_IS_MODE_VALID(mode)     ( (CY_SCB_UART_STANDARD  == (mode)) || \
 980:Generated_Source\PSoC6\pdl\drivers/peripheral/scb/cy_scb_uart.h ****                                               (CY_SCB_UART_SMARTCARD == (mode)) || \
 981:Generated_Source\PSoC6\pdl\drivers/peripheral/scb/cy_scb_uart.h ****                                               (CY_SCB_UART_IRDA      == (mode)) )
 982:Generated_Source\PSoC6\pdl\drivers/peripheral/scb/cy_scb_uart.h **** 
 983:Generated_Source\PSoC6\pdl\drivers/peripheral/scb/cy_scb_uart.h **** #define CY_SCB_UART_IS_STOP_BITS_VALID(stopBits)    ( (CY_SCB_UART_STOP_BITS_1   == (stopBits)) || 
 984:Generated_Source\PSoC6\pdl\drivers/peripheral/scb/cy_scb_uart.h ****                                                       (CY_SCB_UART_STOP_BITS_1_5 == (stopBits)) || 
 985:Generated_Source\PSoC6\pdl\drivers/peripheral/scb/cy_scb_uart.h ****                                                       (CY_SCB_UART_STOP_BITS_2   == (stopBits)) || 
 986:Generated_Source\PSoC6\pdl\drivers/peripheral/scb/cy_scb_uart.h ****                                                       (CY_SCB_UART_STOP_BITS_2_5 == (stopBits)) || 
 987:Generated_Source\PSoC6\pdl\drivers/peripheral/scb/cy_scb_uart.h ****                                                       (CY_SCB_UART_STOP_BITS_3   == (stopBits)) || 
 988:Generated_Source\PSoC6\pdl\drivers/peripheral/scb/cy_scb_uart.h ****                                                       (CY_SCB_UART_STOP_BITS_3_5 == (stopBits)) || 
 989:Generated_Source\PSoC6\pdl\drivers/peripheral/scb/cy_scb_uart.h ****                                                       (CY_SCB_UART_STOP_BITS_4   == (stopBits)) )
 990:Generated_Source\PSoC6\pdl\drivers/peripheral/scb/cy_scb_uart.h **** 
 991:Generated_Source\PSoC6\pdl\drivers/peripheral/scb/cy_scb_uart.h **** #define CY_SCB_UART_IS_PARITY_VALID(parity)         ( (CY_SCB_UART_PARITY_NONE == (parity)) || \
 992:Generated_Source\PSoC6\pdl\drivers/peripheral/scb/cy_scb_uart.h ****                                                       (CY_SCB_UART_PARITY_EVEN == (parity)) || \
 993:Generated_Source\PSoC6\pdl\drivers/peripheral/scb/cy_scb_uart.h ****                                                       (CY_SCB_UART_PARITY_ODD  == (parity)) )
 994:Generated_Source\PSoC6\pdl\drivers/peripheral/scb/cy_scb_uart.h **** 
 995:Generated_Source\PSoC6\pdl\drivers/peripheral/scb/cy_scb_uart.h **** #define CY_SCB_UART_IS_POLARITY_VALID(polarity)     ( (CY_SCB_UART_ACTIVE_LOW  == (polarity)) || \
 996:Generated_Source\PSoC6\pdl\drivers/peripheral/scb/cy_scb_uart.h ****                                                       (CY_SCB_UART_ACTIVE_HIGH == (polarity)) )
 997:Generated_Source\PSoC6\pdl\drivers/peripheral/scb/cy_scb_uart.h **** 
 998:Generated_Source\PSoC6\pdl\drivers/peripheral/scb/cy_scb_uart.h **** #define CY_SCB_UART_IS_IRDA_LP_OVS_VALID(ovs)       ( (CY_SCB_UART_IRDA_LP_OVS16   == (ovs)) || \
 999:Generated_Source\PSoC6\pdl\drivers/peripheral/scb/cy_scb_uart.h ****                                                       (CY_SCB_UART_IRDA_LP_OVS32   == (ovs)) || \
1000:Generated_Source\PSoC6\pdl\drivers/peripheral/scb/cy_scb_uart.h ****                                                       (CY_SCB_UART_IRDA_LP_OVS48   == (ovs)) || \
1001:Generated_Source\PSoC6\pdl\drivers/peripheral/scb/cy_scb_uart.h ****                                                       (CY_SCB_UART_IRDA_LP_OVS96   == (ovs)) || \
1002:Generated_Source\PSoC6\pdl\drivers/peripheral/scb/cy_scb_uart.h ****                                                       (CY_SCB_UART_IRDA_LP_OVS192  == (ovs)) || \
1003:Generated_Source\PSoC6\pdl\drivers/peripheral/scb/cy_scb_uart.h ****                                                       (CY_SCB_UART_IRDA_LP_OVS768  == (ovs)) || \
1004:Generated_Source\PSoC6\pdl\drivers/peripheral/scb/cy_scb_uart.h ****                                                       (CY_SCB_UART_IRDA_LP_OVS1536 == (ovs)) )
1005:Generated_Source\PSoC6\pdl\drivers/peripheral/scb/cy_scb_uart.h **** 
1006:Generated_Source\PSoC6\pdl\drivers/peripheral/scb/cy_scb_uart.h **** #define CY_SCB_UART_IS_ADDRESS_VALID(addr)          ((addr) <= 0xFFUL)
1007:Generated_Source\PSoC6\pdl\drivers/peripheral/scb/cy_scb_uart.h **** #define CY_SCB_UART_IS_ADDRESS_MASK_VALID(mask)     ((mask) <= 0xFFUL)
1008:Generated_Source\PSoC6\pdl\drivers/peripheral/scb/cy_scb_uart.h **** #define CY_SCB_UART_IS_DATA_WIDTH_VALID(width)      ( ((width) >= 5UL) && ((width) <= 9UL) )
1009:Generated_Source\PSoC6\pdl\drivers/peripheral/scb/cy_scb_uart.h **** #define CY_SCB_UART_IS_OVERSAMPLE_VALID(ovs, mode, lpRx)    ( ((CY_SCB_UART_STANDARD  == (mode)) ||
1010:Generated_Source\PSoC6\pdl\drivers/peripheral/scb/cy_scb_uart.h ****                                                               (((ovs) >= 8UL) && ((ovs) <= 16UL)) :
1011:Generated_Source\PSoC6\pdl\drivers/peripheral/scb/cy_scb_uart.h ****                                                               ((lpRx) ? CY_SCB_UART_IS_IRDA_LP_OVS_
1012:Generated_Source\PSoC6\pdl\drivers/peripheral/scb/cy_scb_uart.h **** 
1013:Generated_Source\PSoC6\pdl\drivers/peripheral/scb/cy_scb_uart.h **** #define CY_SCB_UART_IS_RX_BREAK_WIDTH_VALID(base, width)    ( ((width) >= (_FLD2VAL(SCB_RX_CTRL_DAT
1014:Generated_Source\PSoC6\pdl\drivers/peripheral/scb/cy_scb_uart.h ****                                                               ((width) <= 16UL) )
1015:Generated_Source\PSoC6\pdl\drivers/peripheral/scb/cy_scb_uart.h **** #define CY_SCB_UART_IS_TX_BREAK_WIDTH_VALID(width)          ( ((width) >= 4UL) && ((width) <= 16UL)
1016:Generated_Source\PSoC6\pdl\drivers/peripheral/scb/cy_scb_uart.h **** 
1017:Generated_Source\PSoC6\pdl\drivers/peripheral/scb/cy_scb_uart.h **** #define CY_SCB_UART_IS_MUTLI_PROC_VALID(mp, mode, width, parity)    ( (mp) ? ((CY_SCB_UART_STANDARD
1018:Generated_Source\PSoC6\pdl\drivers/peripheral/scb/cy_scb_uart.h ****                                                                               (CY_SCB_UART_PARITY_N
1019:Generated_Source\PSoC6\pdl\drivers/peripheral/scb/cy_scb_uart.h **** /** \endcond */
1020:Generated_Source\PSoC6\pdl\drivers/peripheral/scb/cy_scb_uart.h **** 
1021:Generated_Source\PSoC6\pdl\drivers/peripheral/scb/cy_scb_uart.h **** /** \} group_scb_uart_macros */
1022:Generated_Source\PSoC6\pdl\drivers/peripheral/scb/cy_scb_uart.h **** 
1023:Generated_Source\PSoC6\pdl\drivers/peripheral/scb/cy_scb_uart.h **** 
1024:Generated_Source\PSoC6\pdl\drivers/peripheral/scb/cy_scb_uart.h **** /*******************************************************************************
1025:Generated_Source\PSoC6\pdl\drivers/peripheral/scb/cy_scb_uart.h **** *                    In-line Function Implementation
1026:Generated_Source\PSoC6\pdl\drivers/peripheral/scb/cy_scb_uart.h **** *******************************************************************************/
1027:Generated_Source\PSoC6\pdl\drivers/peripheral/scb/cy_scb_uart.h **** 
1028:Generated_Source\PSoC6\pdl\drivers/peripheral/scb/cy_scb_uart.h **** /**
ARM GAS  C:\Users\jmori\AppData\Local\Temp\ccYuPisP.s 			page 25


1029:Generated_Source\PSoC6\pdl\drivers/peripheral/scb/cy_scb_uart.h **** * \addtogroup group_scb_uart_general_functions
1030:Generated_Source\PSoC6\pdl\drivers/peripheral/scb/cy_scb_uart.h **** * \{
1031:Generated_Source\PSoC6\pdl\drivers/peripheral/scb/cy_scb_uart.h **** */
1032:Generated_Source\PSoC6\pdl\drivers/peripheral/scb/cy_scb_uart.h **** 
1033:Generated_Source\PSoC6\pdl\drivers/peripheral/scb/cy_scb_uart.h **** /*******************************************************************************
1034:Generated_Source\PSoC6\pdl\drivers/peripheral/scb/cy_scb_uart.h **** * Function Name: Cy_SCB_UART_Enable
1035:Generated_Source\PSoC6\pdl\drivers/peripheral/scb/cy_scb_uart.h **** ****************************************************************************//**
1036:Generated_Source\PSoC6\pdl\drivers/peripheral/scb/cy_scb_uart.h **** *
1037:Generated_Source\PSoC6\pdl\drivers/peripheral/scb/cy_scb_uart.h **** * Enables the SCB block for the UART operation.
1038:Generated_Source\PSoC6\pdl\drivers/peripheral/scb/cy_scb_uart.h **** *
1039:Generated_Source\PSoC6\pdl\drivers/peripheral/scb/cy_scb_uart.h **** * \param base
1040:Generated_Source\PSoC6\pdl\drivers/peripheral/scb/cy_scb_uart.h **** * The pointer to the UART SCB instance.
1041:Generated_Source\PSoC6\pdl\drivers/peripheral/scb/cy_scb_uart.h **** *
1042:Generated_Source\PSoC6\pdl\drivers/peripheral/scb/cy_scb_uart.h **** *******************************************************************************/
1043:Generated_Source\PSoC6\pdl\drivers/peripheral/scb/cy_scb_uart.h **** __STATIC_INLINE void Cy_SCB_UART_Enable(CySCB_Type *base)
1044:Generated_Source\PSoC6\pdl\drivers/peripheral/scb/cy_scb_uart.h **** {
1045:Generated_Source\PSoC6\pdl\drivers/peripheral/scb/cy_scb_uart.h ****     SCB_CTRL(base) |= SCB_CTRL_ENABLED_Msk;
1046:Generated_Source\PSoC6\pdl\drivers/peripheral/scb/cy_scb_uart.h **** }
1047:Generated_Source\PSoC6\pdl\drivers/peripheral/scb/cy_scb_uart.h **** 
1048:Generated_Source\PSoC6\pdl\drivers/peripheral/scb/cy_scb_uart.h **** 
1049:Generated_Source\PSoC6\pdl\drivers/peripheral/scb/cy_scb_uart.h **** /*******************************************************************************
1050:Generated_Source\PSoC6\pdl\drivers/peripheral/scb/cy_scb_uart.h **** * Function Name: Cy_SCB_UART_EnableCts
1051:Generated_Source\PSoC6\pdl\drivers/peripheral/scb/cy_scb_uart.h **** ****************************************************************************//**
1052:Generated_Source\PSoC6\pdl\drivers/peripheral/scb/cy_scb_uart.h **** *
1053:Generated_Source\PSoC6\pdl\drivers/peripheral/scb/cy_scb_uart.h **** * Enables the Clear to Send (CTS) input for the UART. The UART will not transmit
1054:Generated_Source\PSoC6\pdl\drivers/peripheral/scb/cy_scb_uart.h **** * data while this signal is inactive.
1055:Generated_Source\PSoC6\pdl\drivers/peripheral/scb/cy_scb_uart.h **** *
1056:Generated_Source\PSoC6\pdl\drivers/peripheral/scb/cy_scb_uart.h **** * \param base
1057:Generated_Source\PSoC6\pdl\drivers/peripheral/scb/cy_scb_uart.h **** * The pointer to the UART SCB instance.
1058:Generated_Source\PSoC6\pdl\drivers/peripheral/scb/cy_scb_uart.h **** *
1059:Generated_Source\PSoC6\pdl\drivers/peripheral/scb/cy_scb_uart.h **** *******************************************************************************/
1060:Generated_Source\PSoC6\pdl\drivers/peripheral/scb/cy_scb_uart.h **** __STATIC_INLINE void Cy_SCB_UART_EnableCts(CySCB_Type *base)
1061:Generated_Source\PSoC6\pdl\drivers/peripheral/scb/cy_scb_uart.h **** {
1062:Generated_Source\PSoC6\pdl\drivers/peripheral/scb/cy_scb_uart.h ****     SCB_UART_FLOW_CTRL(base) |= SCB_UART_FLOW_CTRL_CTS_ENABLED_Msk;
1063:Generated_Source\PSoC6\pdl\drivers/peripheral/scb/cy_scb_uart.h **** }
1064:Generated_Source\PSoC6\pdl\drivers/peripheral/scb/cy_scb_uart.h **** 
1065:Generated_Source\PSoC6\pdl\drivers/peripheral/scb/cy_scb_uart.h **** 
1066:Generated_Source\PSoC6\pdl\drivers/peripheral/scb/cy_scb_uart.h **** /*******************************************************************************
1067:Generated_Source\PSoC6\pdl\drivers/peripheral/scb/cy_scb_uart.h **** * Function Name: Cy_SCB_UART_DisableCts
1068:Generated_Source\PSoC6\pdl\drivers/peripheral/scb/cy_scb_uart.h **** ****************************************************************************//**
1069:Generated_Source\PSoC6\pdl\drivers/peripheral/scb/cy_scb_uart.h **** *
1070:Generated_Source\PSoC6\pdl\drivers/peripheral/scb/cy_scb_uart.h **** * Disables the Clear to Send (CTS) input for the UART.
1071:Generated_Source\PSoC6\pdl\drivers/peripheral/scb/cy_scb_uart.h **** * See \ref Cy_SCB_UART_EnableCts for the details.
1072:Generated_Source\PSoC6\pdl\drivers/peripheral/scb/cy_scb_uart.h **** *
1073:Generated_Source\PSoC6\pdl\drivers/peripheral/scb/cy_scb_uart.h **** * \param base
1074:Generated_Source\PSoC6\pdl\drivers/peripheral/scb/cy_scb_uart.h **** * The pointer to the UART SCB instance.
1075:Generated_Source\PSoC6\pdl\drivers/peripheral/scb/cy_scb_uart.h **** *
1076:Generated_Source\PSoC6\pdl\drivers/peripheral/scb/cy_scb_uart.h **** *******************************************************************************/
1077:Generated_Source\PSoC6\pdl\drivers/peripheral/scb/cy_scb_uart.h **** __STATIC_INLINE void Cy_SCB_UART_DisableCts(CySCB_Type *base)
1078:Generated_Source\PSoC6\pdl\drivers/peripheral/scb/cy_scb_uart.h **** {
1079:Generated_Source\PSoC6\pdl\drivers/peripheral/scb/cy_scb_uart.h ****     SCB_UART_FLOW_CTRL(base) &= (uint32_t) ~SCB_UART_FLOW_CTRL_CTS_ENABLED_Msk;
1080:Generated_Source\PSoC6\pdl\drivers/peripheral/scb/cy_scb_uart.h **** }
1081:Generated_Source\PSoC6\pdl\drivers/peripheral/scb/cy_scb_uart.h **** 
1082:Generated_Source\PSoC6\pdl\drivers/peripheral/scb/cy_scb_uart.h **** 
1083:Generated_Source\PSoC6\pdl\drivers/peripheral/scb/cy_scb_uart.h **** /*******************************************************************************
1084:Generated_Source\PSoC6\pdl\drivers/peripheral/scb/cy_scb_uart.h **** * Function Name: Cy_SCB_UART_SetRtsFifoLevel
1085:Generated_Source\PSoC6\pdl\drivers/peripheral/scb/cy_scb_uart.h **** ****************************************************************************//**
ARM GAS  C:\Users\jmori\AppData\Local\Temp\ccYuPisP.s 			page 26


1086:Generated_Source\PSoC6\pdl\drivers/peripheral/scb/cy_scb_uart.h **** *
1087:Generated_Source\PSoC6\pdl\drivers/peripheral/scb/cy_scb_uart.h **** * Sets a level for the Ready To Send (RTS) signal activation.
1088:Generated_Source\PSoC6\pdl\drivers/peripheral/scb/cy_scb_uart.h **** * When the number of data elements in the receive FIFO is below this level,
1089:Generated_Source\PSoC6\pdl\drivers/peripheral/scb/cy_scb_uart.h **** * then the RTS output is active. Otherwise, the RTS signal is inactive.
1090:Generated_Source\PSoC6\pdl\drivers/peripheral/scb/cy_scb_uart.h **** * To disable the RTS signal generation, set this level to zero.
1091:Generated_Source\PSoC6\pdl\drivers/peripheral/scb/cy_scb_uart.h **** *
1092:Generated_Source\PSoC6\pdl\drivers/peripheral/scb/cy_scb_uart.h **** * \param base
1093:Generated_Source\PSoC6\pdl\drivers/peripheral/scb/cy_scb_uart.h **** * The pointer to the UART SCB instance.
1094:Generated_Source\PSoC6\pdl\drivers/peripheral/scb/cy_scb_uart.h **** *
1095:Generated_Source\PSoC6\pdl\drivers/peripheral/scb/cy_scb_uart.h **** * \param level
1096:Generated_Source\PSoC6\pdl\drivers/peripheral/scb/cy_scb_uart.h **** * The level in the RX FIFO for RTS signal activation.
1097:Generated_Source\PSoC6\pdl\drivers/peripheral/scb/cy_scb_uart.h **** *
1098:Generated_Source\PSoC6\pdl\drivers/peripheral/scb/cy_scb_uart.h **** *******************************************************************************/
1099:Generated_Source\PSoC6\pdl\drivers/peripheral/scb/cy_scb_uart.h **** __STATIC_INLINE void Cy_SCB_UART_SetRtsFifoLevel(CySCB_Type *base, uint32_t level)
1100:Generated_Source\PSoC6\pdl\drivers/peripheral/scb/cy_scb_uart.h **** {
1101:Generated_Source\PSoC6\pdl\drivers/peripheral/scb/cy_scb_uart.h ****     CY_ASSERT_L2(CY_SCB_IS_TRIGGER_LEVEL_VALID(base, level));
1102:Generated_Source\PSoC6\pdl\drivers/peripheral/scb/cy_scb_uart.h **** 
1103:Generated_Source\PSoC6\pdl\drivers/peripheral/scb/cy_scb_uart.h ****     CY_REG32_CLR_SET(SCB_UART_FLOW_CTRL(base), SCB_UART_FLOW_CTRL_TRIGGER_LEVEL, level);
1104:Generated_Source\PSoC6\pdl\drivers/peripheral/scb/cy_scb_uart.h **** }
1105:Generated_Source\PSoC6\pdl\drivers/peripheral/scb/cy_scb_uart.h **** 
1106:Generated_Source\PSoC6\pdl\drivers/peripheral/scb/cy_scb_uart.h **** 
1107:Generated_Source\PSoC6\pdl\drivers/peripheral/scb/cy_scb_uart.h **** /*******************************************************************************
1108:Generated_Source\PSoC6\pdl\drivers/peripheral/scb/cy_scb_uart.h **** * Function Name: Cy_SCB_UART_GetRtsFifoLevel
1109:Generated_Source\PSoC6\pdl\drivers/peripheral/scb/cy_scb_uart.h **** ****************************************************************************//**
1110:Generated_Source\PSoC6\pdl\drivers/peripheral/scb/cy_scb_uart.h **** *
1111:Generated_Source\PSoC6\pdl\drivers/peripheral/scb/cy_scb_uart.h **** * Returns the level in the RX FIFO for the RTS signal activation.
1112:Generated_Source\PSoC6\pdl\drivers/peripheral/scb/cy_scb_uart.h **** *
1113:Generated_Source\PSoC6\pdl\drivers/peripheral/scb/cy_scb_uart.h **** * \param base
1114:Generated_Source\PSoC6\pdl\drivers/peripheral/scb/cy_scb_uart.h **** * The pointer to the UART SCB instance.
1115:Generated_Source\PSoC6\pdl\drivers/peripheral/scb/cy_scb_uart.h **** *
1116:Generated_Source\PSoC6\pdl\drivers/peripheral/scb/cy_scb_uart.h **** * \return
1117:Generated_Source\PSoC6\pdl\drivers/peripheral/scb/cy_scb_uart.h **** * The level in the RX FIFO for RTS signal activation.
1118:Generated_Source\PSoC6\pdl\drivers/peripheral/scb/cy_scb_uart.h **** *
1119:Generated_Source\PSoC6\pdl\drivers/peripheral/scb/cy_scb_uart.h **** *******************************************************************************/
1120:Generated_Source\PSoC6\pdl\drivers/peripheral/scb/cy_scb_uart.h **** __STATIC_INLINE uint32_t Cy_SCB_UART_GetRtsFifoLevel(CySCB_Type const *base)
1121:Generated_Source\PSoC6\pdl\drivers/peripheral/scb/cy_scb_uart.h **** {
1122:Generated_Source\PSoC6\pdl\drivers/peripheral/scb/cy_scb_uart.h ****     return _FLD2VAL(SCB_UART_FLOW_CTRL_TRIGGER_LEVEL, SCB_UART_FLOW_CTRL(base));
1123:Generated_Source\PSoC6\pdl\drivers/peripheral/scb/cy_scb_uart.h **** }
1124:Generated_Source\PSoC6\pdl\drivers/peripheral/scb/cy_scb_uart.h **** 
1125:Generated_Source\PSoC6\pdl\drivers/peripheral/scb/cy_scb_uart.h **** 
1126:Generated_Source\PSoC6\pdl\drivers/peripheral/scb/cy_scb_uart.h **** /*******************************************************************************
1127:Generated_Source\PSoC6\pdl\drivers/peripheral/scb/cy_scb_uart.h **** * Function Name: Cy_SCB_UART_EnableSkipStart
1128:Generated_Source\PSoC6\pdl\drivers/peripheral/scb/cy_scb_uart.h **** ****************************************************************************//**
1129:Generated_Source\PSoC6\pdl\drivers/peripheral/scb/cy_scb_uart.h **** *
1130:Generated_Source\PSoC6\pdl\drivers/peripheral/scb/cy_scb_uart.h **** * Enables the skip start-bit functionality.
1131:Generated_Source\PSoC6\pdl\drivers/peripheral/scb/cy_scb_uart.h **** * When skip start is enabled the UART hardware does not synchronize to a 
1132:Generated_Source\PSoC6\pdl\drivers/peripheral/scb/cy_scb_uart.h **** * start bit but synchronizes to the first rising edge. To create a rising edge, 
1133:Generated_Source\PSoC6\pdl\drivers/peripheral/scb/cy_scb_uart.h **** * the first data bit must be a 1. This feature is useful when the start bit 
1134:Generated_Source\PSoC6\pdl\drivers/peripheral/scb/cy_scb_uart.h **** * falling edge is used to wake the device through a GPIO interrupt.
1135:Generated_Source\PSoC6\pdl\drivers/peripheral/scb/cy_scb_uart.h **** *
1136:Generated_Source\PSoC6\pdl\drivers/peripheral/scb/cy_scb_uart.h **** * \param base
1137:Generated_Source\PSoC6\pdl\drivers/peripheral/scb/cy_scb_uart.h **** * The pointer to the UART SCB instance.
1138:Generated_Source\PSoC6\pdl\drivers/peripheral/scb/cy_scb_uart.h **** *
1139:Generated_Source\PSoC6\pdl\drivers/peripheral/scb/cy_scb_uart.h **** * \note
1140:Generated_Source\PSoC6\pdl\drivers/peripheral/scb/cy_scb_uart.h **** * When skip start-bit feature is enabled, it is applied (UART synchronizes 
1141:Generated_Source\PSoC6\pdl\drivers/peripheral/scb/cy_scb_uart.h **** * to the first rising edge after start bit) whenever the SCB is enabled. 
1142:Generated_Source\PSoC6\pdl\drivers/peripheral/scb/cy_scb_uart.h **** * This can cause incorrect UART synchronization and data reception when 
ARM GAS  C:\Users\jmori\AppData\Local\Temp\ccYuPisP.s 			page 27


1143:Generated_Source\PSoC6\pdl\drivers/peripheral/scb/cy_scb_uart.h **** * the first data bit is not a 1. Therefore, disable the skip start-bit 
1144:Generated_Source\PSoC6\pdl\drivers/peripheral/scb/cy_scb_uart.h **** * when it should not be applied.
1145:Generated_Source\PSoC6\pdl\drivers/peripheral/scb/cy_scb_uart.h **** * Note that SCB is disabled before enter Deep Sleep mode or after calling 
1146:Generated_Source\PSoC6\pdl\drivers/peripheral/scb/cy_scb_uart.h **** * \ref Cy_SCB_UART_Disable.
1147:Generated_Source\PSoC6\pdl\drivers/peripheral/scb/cy_scb_uart.h **** *
1148:Generated_Source\PSoC6\pdl\drivers/peripheral/scb/cy_scb_uart.h **** *******************************************************************************/
1149:Generated_Source\PSoC6\pdl\drivers/peripheral/scb/cy_scb_uart.h **** __STATIC_INLINE void Cy_SCB_UART_EnableSkipStart(CySCB_Type *base)
1150:Generated_Source\PSoC6\pdl\drivers/peripheral/scb/cy_scb_uart.h **** {
1151:Generated_Source\PSoC6\pdl\drivers/peripheral/scb/cy_scb_uart.h ****     SCB_UART_RX_CTRL(base) |= SCB_UART_RX_CTRL_SKIP_START_Msk;
1152:Generated_Source\PSoC6\pdl\drivers/peripheral/scb/cy_scb_uart.h **** }
1153:Generated_Source\PSoC6\pdl\drivers/peripheral/scb/cy_scb_uart.h **** 
1154:Generated_Source\PSoC6\pdl\drivers/peripheral/scb/cy_scb_uart.h **** 
1155:Generated_Source\PSoC6\pdl\drivers/peripheral/scb/cy_scb_uart.h **** /*******************************************************************************
1156:Generated_Source\PSoC6\pdl\drivers/peripheral/scb/cy_scb_uart.h **** * Function Name: Cy_SCB_UART_DisableSkipStart
1157:Generated_Source\PSoC6\pdl\drivers/peripheral/scb/cy_scb_uart.h **** ****************************************************************************//**
1158:Generated_Source\PSoC6\pdl\drivers/peripheral/scb/cy_scb_uart.h **** *
1159:Generated_Source\PSoC6\pdl\drivers/peripheral/scb/cy_scb_uart.h **** * Disable the skip start-bit functionality.
1160:Generated_Source\PSoC6\pdl\drivers/peripheral/scb/cy_scb_uart.h **** * See \ref Cy_SCB_UART_EnableSkipStart for the details.
1161:Generated_Source\PSoC6\pdl\drivers/peripheral/scb/cy_scb_uart.h **** *
1162:Generated_Source\PSoC6\pdl\drivers/peripheral/scb/cy_scb_uart.h **** * \param base
1163:Generated_Source\PSoC6\pdl\drivers/peripheral/scb/cy_scb_uart.h **** * The pointer to the UART SCB instance.
1164:Generated_Source\PSoC6\pdl\drivers/peripheral/scb/cy_scb_uart.h **** *
1165:Generated_Source\PSoC6\pdl\drivers/peripheral/scb/cy_scb_uart.h **** *******************************************************************************/
1166:Generated_Source\PSoC6\pdl\drivers/peripheral/scb/cy_scb_uart.h **** __STATIC_INLINE void Cy_SCB_UART_DisableSkipStart(CySCB_Type *base)
1167:Generated_Source\PSoC6\pdl\drivers/peripheral/scb/cy_scb_uart.h **** {
1168:Generated_Source\PSoC6\pdl\drivers/peripheral/scb/cy_scb_uart.h ****     SCB_UART_RX_CTRL(base) &= (uint32_t) ~SCB_UART_RX_CTRL_SKIP_START_Msk;
1169:Generated_Source\PSoC6\pdl\drivers/peripheral/scb/cy_scb_uart.h **** }
1170:Generated_Source\PSoC6\pdl\drivers/peripheral/scb/cy_scb_uart.h **** /** \} group_scb_uart_general_functions */
1171:Generated_Source\PSoC6\pdl\drivers/peripheral/scb/cy_scb_uart.h **** 
1172:Generated_Source\PSoC6\pdl\drivers/peripheral/scb/cy_scb_uart.h **** 
1173:Generated_Source\PSoC6\pdl\drivers/peripheral/scb/cy_scb_uart.h **** /**
1174:Generated_Source\PSoC6\pdl\drivers/peripheral/scb/cy_scb_uart.h **** * \addtogroup group_scb_uart_low_level_functions
1175:Generated_Source\PSoC6\pdl\drivers/peripheral/scb/cy_scb_uart.h **** * \{
1176:Generated_Source\PSoC6\pdl\drivers/peripheral/scb/cy_scb_uart.h **** */
1177:Generated_Source\PSoC6\pdl\drivers/peripheral/scb/cy_scb_uart.h **** /*******************************************************************************
1178:Generated_Source\PSoC6\pdl\drivers/peripheral/scb/cy_scb_uart.h **** * Function Name: Cy_SCB_UART_Get
1179:Generated_Source\PSoC6\pdl\drivers/peripheral/scb/cy_scb_uart.h **** ****************************************************************************//**
1180:Generated_Source\PSoC6\pdl\drivers/peripheral/scb/cy_scb_uart.h **** *
1181:Generated_Source\PSoC6\pdl\drivers/peripheral/scb/cy_scb_uart.h **** * Reads a single data element from the UART RX FIFO.
1182:Generated_Source\PSoC6\pdl\drivers/peripheral/scb/cy_scb_uart.h **** * This function does not check whether the RX FIFO has data before reading it.
1183:Generated_Source\PSoC6\pdl\drivers/peripheral/scb/cy_scb_uart.h **** * If the RX FIFO is empty, the function returns \ref CY_SCB_UART_RX_NO_DATA.
1184:Generated_Source\PSoC6\pdl\drivers/peripheral/scb/cy_scb_uart.h **** *
1185:Generated_Source\PSoC6\pdl\drivers/peripheral/scb/cy_scb_uart.h **** * \param base
1186:Generated_Source\PSoC6\pdl\drivers/peripheral/scb/cy_scb_uart.h **** * The pointer to the UART SCB instance.
1187:Generated_Source\PSoC6\pdl\drivers/peripheral/scb/cy_scb_uart.h **** *
1188:Generated_Source\PSoC6\pdl\drivers/peripheral/scb/cy_scb_uart.h **** * \return
1189:Generated_Source\PSoC6\pdl\drivers/peripheral/scb/cy_scb_uart.h **** * Data from the RX FIFO.
1190:Generated_Source\PSoC6\pdl\drivers/peripheral/scb/cy_scb_uart.h **** * The data element size is defined by the configured data width.
1191:Generated_Source\PSoC6\pdl\drivers/peripheral/scb/cy_scb_uart.h **** *
1192:Generated_Source\PSoC6\pdl\drivers/peripheral/scb/cy_scb_uart.h **** *******************************************************************************/
1193:Generated_Source\PSoC6\pdl\drivers/peripheral/scb/cy_scb_uart.h **** __STATIC_INLINE uint32_t Cy_SCB_UART_Get(CySCB_Type const *base)
1194:Generated_Source\PSoC6\pdl\drivers/peripheral/scb/cy_scb_uart.h **** {
1195:Generated_Source\PSoC6\pdl\drivers/peripheral/scb/cy_scb_uart.h ****     return Cy_SCB_ReadRxFifo(base);
1196:Generated_Source\PSoC6\pdl\drivers/peripheral/scb/cy_scb_uart.h **** }
1197:Generated_Source\PSoC6\pdl\drivers/peripheral/scb/cy_scb_uart.h **** 
1198:Generated_Source\PSoC6\pdl\drivers/peripheral/scb/cy_scb_uart.h **** 
1199:Generated_Source\PSoC6\pdl\drivers/peripheral/scb/cy_scb_uart.h **** /*******************************************************************************
ARM GAS  C:\Users\jmori\AppData\Local\Temp\ccYuPisP.s 			page 28


1200:Generated_Source\PSoC6\pdl\drivers/peripheral/scb/cy_scb_uart.h **** * Function Name: Cy_SCB_UART_GetArray
1201:Generated_Source\PSoC6\pdl\drivers/peripheral/scb/cy_scb_uart.h **** ****************************************************************************//**
1202:Generated_Source\PSoC6\pdl\drivers/peripheral/scb/cy_scb_uart.h **** *
1203:Generated_Source\PSoC6\pdl\drivers/peripheral/scb/cy_scb_uart.h **** * Reads an array of data out of the UART RX FIFO.
1204:Generated_Source\PSoC6\pdl\drivers/peripheral/scb/cy_scb_uart.h **** * This function does not block. It returns how many data elements were read
1205:Generated_Source\PSoC6\pdl\drivers/peripheral/scb/cy_scb_uart.h **** * from the RX FIFO.
1206:Generated_Source\PSoC6\pdl\drivers/peripheral/scb/cy_scb_uart.h **** *
1207:Generated_Source\PSoC6\pdl\drivers/peripheral/scb/cy_scb_uart.h **** * \param base
1208:Generated_Source\PSoC6\pdl\drivers/peripheral/scb/cy_scb_uart.h **** * The pointer to the UART SCB instance.
1209:Generated_Source\PSoC6\pdl\drivers/peripheral/scb/cy_scb_uart.h **** *
1210:Generated_Source\PSoC6\pdl\drivers/peripheral/scb/cy_scb_uart.h **** * \param buffer
1211:Generated_Source\PSoC6\pdl\drivers/peripheral/scb/cy_scb_uart.h **** * The pointer to the location to place the data read from the RX FIFO.
1212:Generated_Source\PSoC6\pdl\drivers/peripheral/scb/cy_scb_uart.h **** * The element size is defined by the data type, which depends on the configured
1213:Generated_Source\PSoC6\pdl\drivers/peripheral/scb/cy_scb_uart.h **** * data width.
1214:Generated_Source\PSoC6\pdl\drivers/peripheral/scb/cy_scb_uart.h **** *
1215:Generated_Source\PSoC6\pdl\drivers/peripheral/scb/cy_scb_uart.h **** * \param size
1216:Generated_Source\PSoC6\pdl\drivers/peripheral/scb/cy_scb_uart.h **** * The number of data elements to read from the RX FIFO.
1217:Generated_Source\PSoC6\pdl\drivers/peripheral/scb/cy_scb_uart.h **** *
1218:Generated_Source\PSoC6\pdl\drivers/peripheral/scb/cy_scb_uart.h **** * \return
1219:Generated_Source\PSoC6\pdl\drivers/peripheral/scb/cy_scb_uart.h **** * The number of data elements read from the RX FIFO.
1220:Generated_Source\PSoC6\pdl\drivers/peripheral/scb/cy_scb_uart.h **** *
1221:Generated_Source\PSoC6\pdl\drivers/peripheral/scb/cy_scb_uart.h **** *******************************************************************************/
1222:Generated_Source\PSoC6\pdl\drivers/peripheral/scb/cy_scb_uart.h **** __STATIC_INLINE uint32_t Cy_SCB_UART_GetArray(CySCB_Type const *base, void *buffer, uint32_t size)
1223:Generated_Source\PSoC6\pdl\drivers/peripheral/scb/cy_scb_uart.h **** {
1224:Generated_Source\PSoC6\pdl\drivers/peripheral/scb/cy_scb_uart.h ****     CY_ASSERT_L1(CY_SCB_IS_BUFFER_VALID(buffer, size));
1225:Generated_Source\PSoC6\pdl\drivers/peripheral/scb/cy_scb_uart.h **** 
1226:Generated_Source\PSoC6\pdl\drivers/peripheral/scb/cy_scb_uart.h ****     return Cy_SCB_ReadArray(base, buffer, size);
1227:Generated_Source\PSoC6\pdl\drivers/peripheral/scb/cy_scb_uart.h **** }
1228:Generated_Source\PSoC6\pdl\drivers/peripheral/scb/cy_scb_uart.h **** 
1229:Generated_Source\PSoC6\pdl\drivers/peripheral/scb/cy_scb_uart.h **** 
1230:Generated_Source\PSoC6\pdl\drivers/peripheral/scb/cy_scb_uart.h **** /*******************************************************************************
1231:Generated_Source\PSoC6\pdl\drivers/peripheral/scb/cy_scb_uart.h **** * Function Name: Cy_SCB_UART_GetArrayBlocking
1232:Generated_Source\PSoC6\pdl\drivers/peripheral/scb/cy_scb_uart.h **** ****************************************************************************//**
1233:Generated_Source\PSoC6\pdl\drivers/peripheral/scb/cy_scb_uart.h **** *
1234:Generated_Source\PSoC6\pdl\drivers/peripheral/scb/cy_scb_uart.h **** * Reads an array of data out of the UART RX FIFO.
1235:Generated_Source\PSoC6\pdl\drivers/peripheral/scb/cy_scb_uart.h **** * This function blocks until the number of data elements specified by the
1236:Generated_Source\PSoC6\pdl\drivers/peripheral/scb/cy_scb_uart.h **** * size has been read from the RX FIFO.
1237:Generated_Source\PSoC6\pdl\drivers/peripheral/scb/cy_scb_uart.h **** *
1238:Generated_Source\PSoC6\pdl\drivers/peripheral/scb/cy_scb_uart.h **** * \param base
1239:Generated_Source\PSoC6\pdl\drivers/peripheral/scb/cy_scb_uart.h **** * The pointer to the UART SCB instance.
1240:Generated_Source\PSoC6\pdl\drivers/peripheral/scb/cy_scb_uart.h **** *
1241:Generated_Source\PSoC6\pdl\drivers/peripheral/scb/cy_scb_uart.h **** * \param buffer
1242:Generated_Source\PSoC6\pdl\drivers/peripheral/scb/cy_scb_uart.h **** * The pointer to the location to place the data read from the RX FIFO.
1243:Generated_Source\PSoC6\pdl\drivers/peripheral/scb/cy_scb_uart.h **** * The element size is defined by the data type, which depends on the configured
1244:Generated_Source\PSoC6\pdl\drivers/peripheral/scb/cy_scb_uart.h **** * data width.
1245:Generated_Source\PSoC6\pdl\drivers/peripheral/scb/cy_scb_uart.h **** *
1246:Generated_Source\PSoC6\pdl\drivers/peripheral/scb/cy_scb_uart.h **** * \param size
1247:Generated_Source\PSoC6\pdl\drivers/peripheral/scb/cy_scb_uart.h **** * The number of data elements to read from the RX FIFO.
1248:Generated_Source\PSoC6\pdl\drivers/peripheral/scb/cy_scb_uart.h **** *
1249:Generated_Source\PSoC6\pdl\drivers/peripheral/scb/cy_scb_uart.h **** *******************************************************************************/
1250:Generated_Source\PSoC6\pdl\drivers/peripheral/scb/cy_scb_uart.h **** __STATIC_INLINE void Cy_SCB_UART_GetArrayBlocking(CySCB_Type const *base, void *buffer, uint32_t si
1251:Generated_Source\PSoC6\pdl\drivers/peripheral/scb/cy_scb_uart.h **** {
1252:Generated_Source\PSoC6\pdl\drivers/peripheral/scb/cy_scb_uart.h ****     CY_ASSERT_L1(CY_SCB_IS_BUFFER_VALID(buffer, size));
1253:Generated_Source\PSoC6\pdl\drivers/peripheral/scb/cy_scb_uart.h **** 
1254:Generated_Source\PSoC6\pdl\drivers/peripheral/scb/cy_scb_uart.h ****     Cy_SCB_ReadArrayBlocking(base, buffer, size);
1255:Generated_Source\PSoC6\pdl\drivers/peripheral/scb/cy_scb_uart.h **** }
1256:Generated_Source\PSoC6\pdl\drivers/peripheral/scb/cy_scb_uart.h **** 
ARM GAS  C:\Users\jmori\AppData\Local\Temp\ccYuPisP.s 			page 29


1257:Generated_Source\PSoC6\pdl\drivers/peripheral/scb/cy_scb_uart.h **** 
1258:Generated_Source\PSoC6\pdl\drivers/peripheral/scb/cy_scb_uart.h **** /*******************************************************************************
1259:Generated_Source\PSoC6\pdl\drivers/peripheral/scb/cy_scb_uart.h **** * Function Name: Cy_SCB_UART_GetRxFifoStatus
1260:Generated_Source\PSoC6\pdl\drivers/peripheral/scb/cy_scb_uart.h **** ****************************************************************************//**
1261:Generated_Source\PSoC6\pdl\drivers/peripheral/scb/cy_scb_uart.h **** *
1262:Generated_Source\PSoC6\pdl\drivers/peripheral/scb/cy_scb_uart.h **** * Returns the current status of the RX FIFO.
1263:Generated_Source\PSoC6\pdl\drivers/peripheral/scb/cy_scb_uart.h **** *
1264:Generated_Source\PSoC6\pdl\drivers/peripheral/scb/cy_scb_uart.h **** * \param base
1265:Generated_Source\PSoC6\pdl\drivers/peripheral/scb/cy_scb_uart.h **** * The pointer to the UART SCB instance.
1266:Generated_Source\PSoC6\pdl\drivers/peripheral/scb/cy_scb_uart.h **** *
1267:Generated_Source\PSoC6\pdl\drivers/peripheral/scb/cy_scb_uart.h **** * \return
1268:Generated_Source\PSoC6\pdl\drivers/peripheral/scb/cy_scb_uart.h **** * \ref group_scb_uart_macros_rx_fifo_status
1269:Generated_Source\PSoC6\pdl\drivers/peripheral/scb/cy_scb_uart.h **** *
1270:Generated_Source\PSoC6\pdl\drivers/peripheral/scb/cy_scb_uart.h **** *******************************************************************************/
1271:Generated_Source\PSoC6\pdl\drivers/peripheral/scb/cy_scb_uart.h **** __STATIC_INLINE uint32_t Cy_SCB_UART_GetRxFifoStatus(CySCB_Type const *base)
1272:Generated_Source\PSoC6\pdl\drivers/peripheral/scb/cy_scb_uart.h **** {
1273:Generated_Source\PSoC6\pdl\drivers/peripheral/scb/cy_scb_uart.h ****     return (Cy_SCB_GetRxInterruptStatus(base) & CY_SCB_UART_RX_INTR_MASK);
1274:Generated_Source\PSoC6\pdl\drivers/peripheral/scb/cy_scb_uart.h **** }
1275:Generated_Source\PSoC6\pdl\drivers/peripheral/scb/cy_scb_uart.h **** 
1276:Generated_Source\PSoC6\pdl\drivers/peripheral/scb/cy_scb_uart.h **** 
1277:Generated_Source\PSoC6\pdl\drivers/peripheral/scb/cy_scb_uart.h **** /*******************************************************************************
1278:Generated_Source\PSoC6\pdl\drivers/peripheral/scb/cy_scb_uart.h **** * Function Name: Cy_SCB_UART_ClearRxFifoStatus
1279:Generated_Source\PSoC6\pdl\drivers/peripheral/scb/cy_scb_uart.h **** ****************************************************************************//**
1280:Generated_Source\PSoC6\pdl\drivers/peripheral/scb/cy_scb_uart.h **** *
1281:Generated_Source\PSoC6\pdl\drivers/peripheral/scb/cy_scb_uart.h **** * Clears the selected statuses of the RX FIFO.
1282:Generated_Source\PSoC6\pdl\drivers/peripheral/scb/cy_scb_uart.h **** *
1283:Generated_Source\PSoC6\pdl\drivers/peripheral/scb/cy_scb_uart.h **** * \param base
1284:Generated_Source\PSoC6\pdl\drivers/peripheral/scb/cy_scb_uart.h **** * The pointer to the UART SCB instance.
1285:Generated_Source\PSoC6\pdl\drivers/peripheral/scb/cy_scb_uart.h **** *
1286:Generated_Source\PSoC6\pdl\drivers/peripheral/scb/cy_scb_uart.h **** * \param clearMask
1287:Generated_Source\PSoC6\pdl\drivers/peripheral/scb/cy_scb_uart.h **** * The mask whose statuses to clear.
1288:Generated_Source\PSoC6\pdl\drivers/peripheral/scb/cy_scb_uart.h **** * See \ref group_scb_uart_macros_rx_fifo_status for the set of constants.
1289:Generated_Source\PSoC6\pdl\drivers/peripheral/scb/cy_scb_uart.h **** *
1290:Generated_Source\PSoC6\pdl\drivers/peripheral/scb/cy_scb_uart.h **** * \note
1291:Generated_Source\PSoC6\pdl\drivers/peripheral/scb/cy_scb_uart.h **** * * This status is also used for interrupt generation, so clearing it also
1292:Generated_Source\PSoC6\pdl\drivers/peripheral/scb/cy_scb_uart.h **** *   clears the interrupt sources.
1293:Generated_Source\PSoC6\pdl\drivers/peripheral/scb/cy_scb_uart.h **** * * Level-sensitive statuses such as \ref CY_SCB_UART_RX_TRIGGER,
1294:Generated_Source\PSoC6\pdl\drivers/peripheral/scb/cy_scb_uart.h **** *   \ref CY_SCB_UART_RX_NOT_EMPTY and \ref CY_SCB_UART_RX_FULL are set high again after
1295:Generated_Source\PSoC6\pdl\drivers/peripheral/scb/cy_scb_uart.h **** *   being cleared if the condition remains true.
1296:Generated_Source\PSoC6\pdl\drivers/peripheral/scb/cy_scb_uart.h **** *
1297:Generated_Source\PSoC6\pdl\drivers/peripheral/scb/cy_scb_uart.h **** *******************************************************************************/
1298:Generated_Source\PSoC6\pdl\drivers/peripheral/scb/cy_scb_uart.h **** __STATIC_INLINE void Cy_SCB_UART_ClearRxFifoStatus(CySCB_Type *base, uint32_t clearMask)
1299:Generated_Source\PSoC6\pdl\drivers/peripheral/scb/cy_scb_uart.h **** {
1300:Generated_Source\PSoC6\pdl\drivers/peripheral/scb/cy_scb_uart.h ****     CY_ASSERT_L2(CY_SCB_IS_INTR_VALID(clearMask, CY_SCB_UART_RX_INTR_MASK));
1301:Generated_Source\PSoC6\pdl\drivers/peripheral/scb/cy_scb_uart.h **** 
1302:Generated_Source\PSoC6\pdl\drivers/peripheral/scb/cy_scb_uart.h ****     Cy_SCB_ClearRxInterrupt(base, clearMask);
1303:Generated_Source\PSoC6\pdl\drivers/peripheral/scb/cy_scb_uart.h **** }
1304:Generated_Source\PSoC6\pdl\drivers/peripheral/scb/cy_scb_uart.h **** 
1305:Generated_Source\PSoC6\pdl\drivers/peripheral/scb/cy_scb_uart.h **** 
1306:Generated_Source\PSoC6\pdl\drivers/peripheral/scb/cy_scb_uart.h **** /*******************************************************************************
1307:Generated_Source\PSoC6\pdl\drivers/peripheral/scb/cy_scb_uart.h **** * Function Name: Cy_SCB_UART_GetNumInRxFifo
1308:Generated_Source\PSoC6\pdl\drivers/peripheral/scb/cy_scb_uart.h **** ****************************************************************************//**
1309:Generated_Source\PSoC6\pdl\drivers/peripheral/scb/cy_scb_uart.h **** *
1310:Generated_Source\PSoC6\pdl\drivers/peripheral/scb/cy_scb_uart.h **** * Returns the number of data elements in the UART RX FIFO.
1311:Generated_Source\PSoC6\pdl\drivers/peripheral/scb/cy_scb_uart.h **** *
1312:Generated_Source\PSoC6\pdl\drivers/peripheral/scb/cy_scb_uart.h **** * \param base
1313:Generated_Source\PSoC6\pdl\drivers/peripheral/scb/cy_scb_uart.h **** * The pointer to the UART SCB instance.
ARM GAS  C:\Users\jmori\AppData\Local\Temp\ccYuPisP.s 			page 30


1314:Generated_Source\PSoC6\pdl\drivers/peripheral/scb/cy_scb_uart.h **** *
1315:Generated_Source\PSoC6\pdl\drivers/peripheral/scb/cy_scb_uart.h **** * \return
1316:Generated_Source\PSoC6\pdl\drivers/peripheral/scb/cy_scb_uart.h **** * The number of data elements in the RX FIFO.
1317:Generated_Source\PSoC6\pdl\drivers/peripheral/scb/cy_scb_uart.h **** * The size of date element defined by the configured data width.
1318:Generated_Source\PSoC6\pdl\drivers/peripheral/scb/cy_scb_uart.h **** *
1319:Generated_Source\PSoC6\pdl\drivers/peripheral/scb/cy_scb_uart.h **** *******************************************************************************/
1320:Generated_Source\PSoC6\pdl\drivers/peripheral/scb/cy_scb_uart.h **** __STATIC_INLINE uint32_t Cy_SCB_UART_GetNumInRxFifo(CySCB_Type const *base)
1321:Generated_Source\PSoC6\pdl\drivers/peripheral/scb/cy_scb_uart.h **** {
1322:Generated_Source\PSoC6\pdl\drivers/peripheral/scb/cy_scb_uart.h ****     return Cy_SCB_GetNumInRxFifo(base);
1323:Generated_Source\PSoC6\pdl\drivers/peripheral/scb/cy_scb_uart.h **** }
1324:Generated_Source\PSoC6\pdl\drivers/peripheral/scb/cy_scb_uart.h **** 
1325:Generated_Source\PSoC6\pdl\drivers/peripheral/scb/cy_scb_uart.h **** /*******************************************************************************
1326:Generated_Source\PSoC6\pdl\drivers/peripheral/scb/cy_scb_uart.h **** * Function Name: Cy_SCB_UART_ClearRxFifo
1327:Generated_Source\PSoC6\pdl\drivers/peripheral/scb/cy_scb_uart.h **** ****************************************************************************//**
1328:Generated_Source\PSoC6\pdl\drivers/peripheral/scb/cy_scb_uart.h **** *
1329:Generated_Source\PSoC6\pdl\drivers/peripheral/scb/cy_scb_uart.h **** * Clears all data out of the UART RX FIFO.
1330:Generated_Source\PSoC6\pdl\drivers/peripheral/scb/cy_scb_uart.h **** *
1331:Generated_Source\PSoC6\pdl\drivers/peripheral/scb/cy_scb_uart.h **** * \param base
1332:Generated_Source\PSoC6\pdl\drivers/peripheral/scb/cy_scb_uart.h **** * The pointer to the UART SCB instance.
1333:Generated_Source\PSoC6\pdl\drivers/peripheral/scb/cy_scb_uart.h **** *
1334:Generated_Source\PSoC6\pdl\drivers/peripheral/scb/cy_scb_uart.h **** * \sideeffect
1335:Generated_Source\PSoC6\pdl\drivers/peripheral/scb/cy_scb_uart.h **** * Any data currently in the shifter is cleared and lost.
1336:Generated_Source\PSoC6\pdl\drivers/peripheral/scb/cy_scb_uart.h **** *
1337:Generated_Source\PSoC6\pdl\drivers/peripheral/scb/cy_scb_uart.h **** *******************************************************************************/
1338:Generated_Source\PSoC6\pdl\drivers/peripheral/scb/cy_scb_uart.h **** __STATIC_INLINE void Cy_SCB_UART_ClearRxFifo(CySCB_Type *base)
1339:Generated_Source\PSoC6\pdl\drivers/peripheral/scb/cy_scb_uart.h **** {
1340:Generated_Source\PSoC6\pdl\drivers/peripheral/scb/cy_scb_uart.h ****     Cy_SCB_ClearRxFifo(base);
1341:Generated_Source\PSoC6\pdl\drivers/peripheral/scb/cy_scb_uart.h **** }
1342:Generated_Source\PSoC6\pdl\drivers/peripheral/scb/cy_scb_uart.h **** 
1343:Generated_Source\PSoC6\pdl\drivers/peripheral/scb/cy_scb_uart.h **** 
1344:Generated_Source\PSoC6\pdl\drivers/peripheral/scb/cy_scb_uart.h **** /*******************************************************************************
1345:Generated_Source\PSoC6\pdl\drivers/peripheral/scb/cy_scb_uart.h **** * Function Name: Cy_SCB_UART_Put
1346:Generated_Source\PSoC6\pdl\drivers/peripheral/scb/cy_scb_uart.h **** ****************************************************************************//**
1347:Generated_Source\PSoC6\pdl\drivers/peripheral/scb/cy_scb_uart.h **** *
1348:Generated_Source\PSoC6\pdl\drivers/peripheral/scb/cy_scb_uart.h **** * Places a single data element in the UART TX FIFO.
1349:Generated_Source\PSoC6\pdl\drivers/peripheral/scb/cy_scb_uart.h **** * This function does not block and returns how many data elements were placed
1350:Generated_Source\PSoC6\pdl\drivers/peripheral/scb/cy_scb_uart.h **** * in the TX FIFO.
1351:Generated_Source\PSoC6\pdl\drivers/peripheral/scb/cy_scb_uart.h **** *
1352:Generated_Source\PSoC6\pdl\drivers/peripheral/scb/cy_scb_uart.h **** * \param base
1353:Generated_Source\PSoC6\pdl\drivers/peripheral/scb/cy_scb_uart.h **** * The pointer to the UART SCB instance.
1354:Generated_Source\PSoC6\pdl\drivers/peripheral/scb/cy_scb_uart.h **** *
1355:Generated_Source\PSoC6\pdl\drivers/peripheral/scb/cy_scb_uart.h **** * \param data
1356:Generated_Source\PSoC6\pdl\drivers/peripheral/scb/cy_scb_uart.h **** * Data to put in the TX FIFO.
1357:Generated_Source\PSoC6\pdl\drivers/peripheral/scb/cy_scb_uart.h **** * The element size is defined by the data type, which depends on the configured
1358:Generated_Source\PSoC6\pdl\drivers/peripheral/scb/cy_scb_uart.h **** * data width.
1359:Generated_Source\PSoC6\pdl\drivers/peripheral/scb/cy_scb_uart.h **** *
1360:Generated_Source\PSoC6\pdl\drivers/peripheral/scb/cy_scb_uart.h **** * \return
1361:Generated_Source\PSoC6\pdl\drivers/peripheral/scb/cy_scb_uart.h **** * The number of data elements placed in the TX FIFO: 0 or 1.
1362:Generated_Source\PSoC6\pdl\drivers/peripheral/scb/cy_scb_uart.h **** *
1363:Generated_Source\PSoC6\pdl\drivers/peripheral/scb/cy_scb_uart.h **** *******************************************************************************/
1364:Generated_Source\PSoC6\pdl\drivers/peripheral/scb/cy_scb_uart.h **** __STATIC_INLINE uint32_t Cy_SCB_UART_Put(CySCB_Type *base, uint32_t data)
1365:Generated_Source\PSoC6\pdl\drivers/peripheral/scb/cy_scb_uart.h **** {
1366:Generated_Source\PSoC6\pdl\drivers/peripheral/scb/cy_scb_uart.h ****     return Cy_SCB_Write(base, data);
1367:Generated_Source\PSoC6\pdl\drivers/peripheral/scb/cy_scb_uart.h **** }
1368:Generated_Source\PSoC6\pdl\drivers/peripheral/scb/cy_scb_uart.h **** 
1369:Generated_Source\PSoC6\pdl\drivers/peripheral/scb/cy_scb_uart.h **** 
1370:Generated_Source\PSoC6\pdl\drivers/peripheral/scb/cy_scb_uart.h **** /*******************************************************************************
ARM GAS  C:\Users\jmori\AppData\Local\Temp\ccYuPisP.s 			page 31


1371:Generated_Source\PSoC6\pdl\drivers/peripheral/scb/cy_scb_uart.h **** * Function Name: Cy_SCB_UART_PutArray
1372:Generated_Source\PSoC6\pdl\drivers/peripheral/scb/cy_scb_uart.h **** ****************************************************************************//**
1373:Generated_Source\PSoC6\pdl\drivers/peripheral/scb/cy_scb_uart.h **** *
1374:Generated_Source\PSoC6\pdl\drivers/peripheral/scb/cy_scb_uart.h **** * Places an array of data in the UART TX FIFO.
1375:Generated_Source\PSoC6\pdl\drivers/peripheral/scb/cy_scb_uart.h **** * This function does not block. It returns how many data elements were
1376:Generated_Source\PSoC6\pdl\drivers/peripheral/scb/cy_scb_uart.h **** * placed in the TX FIFO.
1377:Generated_Source\PSoC6\pdl\drivers/peripheral/scb/cy_scb_uart.h **** *
1378:Generated_Source\PSoC6\pdl\drivers/peripheral/scb/cy_scb_uart.h **** * \param base
1379:Generated_Source\PSoC6\pdl\drivers/peripheral/scb/cy_scb_uart.h **** * The pointer to the UART SCB instance.
1380:Generated_Source\PSoC6\pdl\drivers/peripheral/scb/cy_scb_uart.h **** *
1381:Generated_Source\PSoC6\pdl\drivers/peripheral/scb/cy_scb_uart.h **** * \param buffer
1382:Generated_Source\PSoC6\pdl\drivers/peripheral/scb/cy_scb_uart.h **** * The pointer to data to place in the TX FIFO.
1383:Generated_Source\PSoC6\pdl\drivers/peripheral/scb/cy_scb_uart.h **** * The element size is defined by the data type, which depends on the configured
1384:Generated_Source\PSoC6\pdl\drivers/peripheral/scb/cy_scb_uart.h **** * TX data width.
1385:Generated_Source\PSoC6\pdl\drivers/peripheral/scb/cy_scb_uart.h **** *
1386:Generated_Source\PSoC6\pdl\drivers/peripheral/scb/cy_scb_uart.h **** * \param size
1387:Generated_Source\PSoC6\pdl\drivers/peripheral/scb/cy_scb_uart.h **** * The number of data elements to TX.
1388:Generated_Source\PSoC6\pdl\drivers/peripheral/scb/cy_scb_uart.h **** *
1389:Generated_Source\PSoC6\pdl\drivers/peripheral/scb/cy_scb_uart.h **** * \return
1390:Generated_Source\PSoC6\pdl\drivers/peripheral/scb/cy_scb_uart.h **** * The number of data elements placed in the TX FIFO.
1391:Generated_Source\PSoC6\pdl\drivers/peripheral/scb/cy_scb_uart.h **** *
1392:Generated_Source\PSoC6\pdl\drivers/peripheral/scb/cy_scb_uart.h **** *******************************************************************************/
1393:Generated_Source\PSoC6\pdl\drivers/peripheral/scb/cy_scb_uart.h **** __STATIC_INLINE uint32_t Cy_SCB_UART_PutArray(CySCB_Type *base, void *buffer, uint32_t size)
1394:Generated_Source\PSoC6\pdl\drivers/peripheral/scb/cy_scb_uart.h **** {
1395:Generated_Source\PSoC6\pdl\drivers/peripheral/scb/cy_scb_uart.h ****     CY_ASSERT_L1(CY_SCB_IS_BUFFER_VALID(buffer, size));
1396:Generated_Source\PSoC6\pdl\drivers/peripheral/scb/cy_scb_uart.h **** 
1397:Generated_Source\PSoC6\pdl\drivers/peripheral/scb/cy_scb_uart.h ****     return Cy_SCB_WriteArray(base, buffer, size);
 182              		.loc 2 1397 0
 183 0110 0A22     		movs	r2, #10
 184 0112 02A9     		add	r1, sp, #8
 185              	.LVL18:
 186 0114 1E48     		ldr	r0, .L4+32
 187 0116 FFF7FEFF 		bl	Cy_SCB_WriteArray
 188              	.LVL19:
 189              	.LBE16:
 190              	.LBE15:
 191              	.LBE14:
 160:main_cm4.c    ****       UART_1_PutArray(&buffer[0], 10);
 161:main_cm4.c    ****      SpO2 = -16.666666*(R*R) + 8.3333333*R + 100;
 192              		.loc 1 161 0
 193 011a 94ED007A 		vldr.32	s14, [r4]
 194 011e D4ED007A 		vldr.32	s15, [r4]
 195 0122 67EE277A 		vmul.f32	s15, s14, s15
 196 0126 17EE900A 		vmov	r0, s15
 197 012a FFF7FEFF 		bl	__aeabi_f2d
 198              	.LVL20:
 199 012e 10A3     		adr	r3, .L4
 200 0130 D3E90023 		ldrd	r2, [r3]
 201 0134 FFF7FEFF 		bl	__aeabi_dmul
 202              	.LVL21:
 203 0138 0646     		mov	r6, r0
 204 013a 0F46     		mov	r7, r1
 205 013c 2068     		ldr	r0, [r4]	@ float
 206 013e FFF7FEFF 		bl	__aeabi_f2d
 207              	.LVL22:
 208 0142 0DA3     		adr	r3, .L4+8
 209 0144 D3E90023 		ldrd	r2, [r3]
ARM GAS  C:\Users\jmori\AppData\Local\Temp\ccYuPisP.s 			page 32


 210 0148 FFF7FEFF 		bl	__aeabi_dmul
 211              	.LVL23:
 212 014c 0246     		mov	r2, r0
 213 014e 0B46     		mov	r3, r1
 214 0150 3046     		mov	r0, r6
 215 0152 3946     		mov	r1, r7
 216 0154 FFF7FEFF 		bl	__aeabi_dadd
 217              	.LVL24:
 218 0158 0022     		movs	r2, #0
 219 015a 0E4B     		ldr	r3, .L4+36
 220 015c FFF7FEFF 		bl	__aeabi_dadd
 221              	.LVL25:
 222 0160 FFF7FEFF 		bl	__aeabi_d2f
 223              	.LVL26:
 224 0164 05F2DC75 		addw	r5, r5, #2012
 225 0168 2860     		str	r0, [r5]	@ float
 226              	.LBB17:
 227              	.LBB18:
 228              		.file 3 "..\\CMSIS\\Core\\Include/cmsis_gcc.h"
   1:..\CMSIS\Core\Include/cmsis_gcc.h **** /**************************************************************************//**
   2:..\CMSIS\Core\Include/cmsis_gcc.h ****  * @file     cmsis_gcc.h
   3:..\CMSIS\Core\Include/cmsis_gcc.h ****  * @brief    CMSIS compiler GCC header file
   4:..\CMSIS\Core\Include/cmsis_gcc.h ****  * @version  V5.0.4
   5:..\CMSIS\Core\Include/cmsis_gcc.h ****  * @date     09. April 2018
   6:..\CMSIS\Core\Include/cmsis_gcc.h ****  ******************************************************************************/
   7:..\CMSIS\Core\Include/cmsis_gcc.h **** /*
   8:..\CMSIS\Core\Include/cmsis_gcc.h ****  * Copyright (c) 2009-2018 Arm Limited. All rights reserved.
   9:..\CMSIS\Core\Include/cmsis_gcc.h ****  *
  10:..\CMSIS\Core\Include/cmsis_gcc.h ****  * SPDX-License-Identifier: Apache-2.0
  11:..\CMSIS\Core\Include/cmsis_gcc.h ****  *
  12:..\CMSIS\Core\Include/cmsis_gcc.h ****  * Licensed under the Apache License, Version 2.0 (the License); you may
  13:..\CMSIS\Core\Include/cmsis_gcc.h ****  * not use this file except in compliance with the License.
  14:..\CMSIS\Core\Include/cmsis_gcc.h ****  * You may obtain a copy of the License at
  15:..\CMSIS\Core\Include/cmsis_gcc.h ****  *
  16:..\CMSIS\Core\Include/cmsis_gcc.h ****  * www.apache.org/licenses/LICENSE-2.0
  17:..\CMSIS\Core\Include/cmsis_gcc.h ****  *
  18:..\CMSIS\Core\Include/cmsis_gcc.h ****  * Unless required by applicable law or agreed to in writing, software
  19:..\CMSIS\Core\Include/cmsis_gcc.h ****  * distributed under the License is distributed on an AS IS BASIS, WITHOUT
  20:..\CMSIS\Core\Include/cmsis_gcc.h ****  * WARRANTIES OR CONDITIONS OF ANY KIND, either express or implied.
  21:..\CMSIS\Core\Include/cmsis_gcc.h ****  * See the License for the specific language governing permissions and
  22:..\CMSIS\Core\Include/cmsis_gcc.h ****  * limitations under the License.
  23:..\CMSIS\Core\Include/cmsis_gcc.h ****  */
  24:..\CMSIS\Core\Include/cmsis_gcc.h **** 
  25:..\CMSIS\Core\Include/cmsis_gcc.h **** #ifndef __CMSIS_GCC_H
  26:..\CMSIS\Core\Include/cmsis_gcc.h **** #define __CMSIS_GCC_H
  27:..\CMSIS\Core\Include/cmsis_gcc.h **** 
  28:..\CMSIS\Core\Include/cmsis_gcc.h **** /* ignore some GCC warnings */
  29:..\CMSIS\Core\Include/cmsis_gcc.h **** #pragma GCC diagnostic push
  30:..\CMSIS\Core\Include/cmsis_gcc.h **** #pragma GCC diagnostic ignored "-Wsign-conversion"
  31:..\CMSIS\Core\Include/cmsis_gcc.h **** #pragma GCC diagnostic ignored "-Wconversion"
  32:..\CMSIS\Core\Include/cmsis_gcc.h **** #pragma GCC diagnostic ignored "-Wunused-parameter"
  33:..\CMSIS\Core\Include/cmsis_gcc.h **** 
  34:..\CMSIS\Core\Include/cmsis_gcc.h **** /* Fallback for __has_builtin */
  35:..\CMSIS\Core\Include/cmsis_gcc.h **** #ifndef __has_builtin
  36:..\CMSIS\Core\Include/cmsis_gcc.h ****   #define __has_builtin(x) (0)
  37:..\CMSIS\Core\Include/cmsis_gcc.h **** #endif
  38:..\CMSIS\Core\Include/cmsis_gcc.h **** 
ARM GAS  C:\Users\jmori\AppData\Local\Temp\ccYuPisP.s 			page 33


  39:..\CMSIS\Core\Include/cmsis_gcc.h **** /* CMSIS compiler specific defines */
  40:..\CMSIS\Core\Include/cmsis_gcc.h **** #ifndef   __ASM
  41:..\CMSIS\Core\Include/cmsis_gcc.h ****   #define __ASM                                  __asm
  42:..\CMSIS\Core\Include/cmsis_gcc.h **** #endif
  43:..\CMSIS\Core\Include/cmsis_gcc.h **** #ifndef   __INLINE
  44:..\CMSIS\Core\Include/cmsis_gcc.h ****   #define __INLINE                               inline
  45:..\CMSIS\Core\Include/cmsis_gcc.h **** #endif
  46:..\CMSIS\Core\Include/cmsis_gcc.h **** #ifndef   __STATIC_INLINE
  47:..\CMSIS\Core\Include/cmsis_gcc.h ****   #define __STATIC_INLINE                        static inline
  48:..\CMSIS\Core\Include/cmsis_gcc.h **** #endif
  49:..\CMSIS\Core\Include/cmsis_gcc.h **** #ifndef   __STATIC_FORCEINLINE                 
  50:..\CMSIS\Core\Include/cmsis_gcc.h ****   #define __STATIC_FORCEINLINE                   __attribute__((always_inline)) static inline
  51:..\CMSIS\Core\Include/cmsis_gcc.h **** #endif                                           
  52:..\CMSIS\Core\Include/cmsis_gcc.h **** #ifndef   __NO_RETURN
  53:..\CMSIS\Core\Include/cmsis_gcc.h ****   #define __NO_RETURN                            __attribute__((__noreturn__))
  54:..\CMSIS\Core\Include/cmsis_gcc.h **** #endif
  55:..\CMSIS\Core\Include/cmsis_gcc.h **** #ifndef   __USED
  56:..\CMSIS\Core\Include/cmsis_gcc.h ****   #define __USED                                 __attribute__((used))
  57:..\CMSIS\Core\Include/cmsis_gcc.h **** #endif
  58:..\CMSIS\Core\Include/cmsis_gcc.h **** #ifndef   __WEAK
  59:..\CMSIS\Core\Include/cmsis_gcc.h ****   #define __WEAK                                 __attribute__((weak))
  60:..\CMSIS\Core\Include/cmsis_gcc.h **** #endif
  61:..\CMSIS\Core\Include/cmsis_gcc.h **** #ifndef   __PACKED
  62:..\CMSIS\Core\Include/cmsis_gcc.h ****   #define __PACKED                               __attribute__((packed, aligned(1)))
  63:..\CMSIS\Core\Include/cmsis_gcc.h **** #endif
  64:..\CMSIS\Core\Include/cmsis_gcc.h **** #ifndef   __PACKED_STRUCT
  65:..\CMSIS\Core\Include/cmsis_gcc.h ****   #define __PACKED_STRUCT                        struct __attribute__((packed, aligned(1)))
  66:..\CMSIS\Core\Include/cmsis_gcc.h **** #endif
  67:..\CMSIS\Core\Include/cmsis_gcc.h **** #ifndef   __PACKED_UNION
  68:..\CMSIS\Core\Include/cmsis_gcc.h ****   #define __PACKED_UNION                         union __attribute__((packed, aligned(1)))
  69:..\CMSIS\Core\Include/cmsis_gcc.h **** #endif
  70:..\CMSIS\Core\Include/cmsis_gcc.h **** #ifndef   __UNALIGNED_UINT32        /* deprecated */
  71:..\CMSIS\Core\Include/cmsis_gcc.h ****   #pragma GCC diagnostic push
  72:..\CMSIS\Core\Include/cmsis_gcc.h ****   #pragma GCC diagnostic ignored "-Wpacked"
  73:..\CMSIS\Core\Include/cmsis_gcc.h ****   #pragma GCC diagnostic ignored "-Wattributes"
  74:..\CMSIS\Core\Include/cmsis_gcc.h ****   struct __attribute__((packed)) T_UINT32 { uint32_t v; };
  75:..\CMSIS\Core\Include/cmsis_gcc.h ****   #pragma GCC diagnostic pop
  76:..\CMSIS\Core\Include/cmsis_gcc.h ****   #define __UNALIGNED_UINT32(x)                  (((struct T_UINT32 *)(x))->v)
  77:..\CMSIS\Core\Include/cmsis_gcc.h **** #endif
  78:..\CMSIS\Core\Include/cmsis_gcc.h **** #ifndef   __UNALIGNED_UINT16_WRITE
  79:..\CMSIS\Core\Include/cmsis_gcc.h ****   #pragma GCC diagnostic push
  80:..\CMSIS\Core\Include/cmsis_gcc.h ****   #pragma GCC diagnostic ignored "-Wpacked"
  81:..\CMSIS\Core\Include/cmsis_gcc.h ****   #pragma GCC diagnostic ignored "-Wattributes"
  82:..\CMSIS\Core\Include/cmsis_gcc.h ****   __PACKED_STRUCT T_UINT16_WRITE { uint16_t v; };
  83:..\CMSIS\Core\Include/cmsis_gcc.h ****   #pragma GCC diagnostic pop
  84:..\CMSIS\Core\Include/cmsis_gcc.h ****   #define __UNALIGNED_UINT16_WRITE(addr, val)    (void)((((struct T_UINT16_WRITE *)(void *)(addr))-
  85:..\CMSIS\Core\Include/cmsis_gcc.h **** #endif
  86:..\CMSIS\Core\Include/cmsis_gcc.h **** #ifndef   __UNALIGNED_UINT16_READ
  87:..\CMSIS\Core\Include/cmsis_gcc.h ****   #pragma GCC diagnostic push
  88:..\CMSIS\Core\Include/cmsis_gcc.h ****   #pragma GCC diagnostic ignored "-Wpacked"
  89:..\CMSIS\Core\Include/cmsis_gcc.h ****   #pragma GCC diagnostic ignored "-Wattributes"
  90:..\CMSIS\Core\Include/cmsis_gcc.h ****   __PACKED_STRUCT T_UINT16_READ { uint16_t v; };
  91:..\CMSIS\Core\Include/cmsis_gcc.h ****   #pragma GCC diagnostic pop
  92:..\CMSIS\Core\Include/cmsis_gcc.h ****   #define __UNALIGNED_UINT16_READ(addr)          (((const struct T_UINT16_READ *)(const void *)(add
  93:..\CMSIS\Core\Include/cmsis_gcc.h **** #endif
  94:..\CMSIS\Core\Include/cmsis_gcc.h **** #ifndef   __UNALIGNED_UINT32_WRITE
  95:..\CMSIS\Core\Include/cmsis_gcc.h ****   #pragma GCC diagnostic push
ARM GAS  C:\Users\jmori\AppData\Local\Temp\ccYuPisP.s 			page 34


  96:..\CMSIS\Core\Include/cmsis_gcc.h ****   #pragma GCC diagnostic ignored "-Wpacked"
  97:..\CMSIS\Core\Include/cmsis_gcc.h ****   #pragma GCC diagnostic ignored "-Wattributes"
  98:..\CMSIS\Core\Include/cmsis_gcc.h ****   __PACKED_STRUCT T_UINT32_WRITE { uint32_t v; };
  99:..\CMSIS\Core\Include/cmsis_gcc.h ****   #pragma GCC diagnostic pop
 100:..\CMSIS\Core\Include/cmsis_gcc.h ****   #define __UNALIGNED_UINT32_WRITE(addr, val)    (void)((((struct T_UINT32_WRITE *)(void *)(addr))-
 101:..\CMSIS\Core\Include/cmsis_gcc.h **** #endif
 102:..\CMSIS\Core\Include/cmsis_gcc.h **** #ifndef   __UNALIGNED_UINT32_READ
 103:..\CMSIS\Core\Include/cmsis_gcc.h ****   #pragma GCC diagnostic push
 104:..\CMSIS\Core\Include/cmsis_gcc.h ****   #pragma GCC diagnostic ignored "-Wpacked"
 105:..\CMSIS\Core\Include/cmsis_gcc.h ****   #pragma GCC diagnostic ignored "-Wattributes"
 106:..\CMSIS\Core\Include/cmsis_gcc.h ****   __PACKED_STRUCT T_UINT32_READ { uint32_t v; };
 107:..\CMSIS\Core\Include/cmsis_gcc.h ****   #pragma GCC diagnostic pop
 108:..\CMSIS\Core\Include/cmsis_gcc.h ****   #define __UNALIGNED_UINT32_READ(addr)          (((const struct T_UINT32_READ *)(const void *)(add
 109:..\CMSIS\Core\Include/cmsis_gcc.h **** #endif
 110:..\CMSIS\Core\Include/cmsis_gcc.h **** #ifndef   __ALIGNED
 111:..\CMSIS\Core\Include/cmsis_gcc.h ****   #define __ALIGNED(x)                           __attribute__((aligned(x)))
 112:..\CMSIS\Core\Include/cmsis_gcc.h **** #endif
 113:..\CMSIS\Core\Include/cmsis_gcc.h **** #ifndef   __RESTRICT
 114:..\CMSIS\Core\Include/cmsis_gcc.h ****   #define __RESTRICT                             __restrict
 115:..\CMSIS\Core\Include/cmsis_gcc.h **** #endif
 116:..\CMSIS\Core\Include/cmsis_gcc.h **** 
 117:..\CMSIS\Core\Include/cmsis_gcc.h **** 
 118:..\CMSIS\Core\Include/cmsis_gcc.h **** /* ###########################  Core Function Access  ########################### */
 119:..\CMSIS\Core\Include/cmsis_gcc.h **** /** \ingroup  CMSIS_Core_FunctionInterface
 120:..\CMSIS\Core\Include/cmsis_gcc.h ****     \defgroup CMSIS_Core_RegAccFunctions CMSIS Core Register Access Functions
 121:..\CMSIS\Core\Include/cmsis_gcc.h ****   @{
 122:..\CMSIS\Core\Include/cmsis_gcc.h ****  */
 123:..\CMSIS\Core\Include/cmsis_gcc.h **** 
 124:..\CMSIS\Core\Include/cmsis_gcc.h **** /**
 125:..\CMSIS\Core\Include/cmsis_gcc.h ****   \brief   Enable IRQ Interrupts
 126:..\CMSIS\Core\Include/cmsis_gcc.h ****   \details Enables IRQ interrupts by clearing the I-bit in the CPSR.
 127:..\CMSIS\Core\Include/cmsis_gcc.h ****            Can only be executed in Privileged modes.
 128:..\CMSIS\Core\Include/cmsis_gcc.h ****  */
 129:..\CMSIS\Core\Include/cmsis_gcc.h **** __STATIC_FORCEINLINE void __enable_irq(void)
 130:..\CMSIS\Core\Include/cmsis_gcc.h **** {
 131:..\CMSIS\Core\Include/cmsis_gcc.h ****   __ASM volatile ("cpsie i" : : : "memory");
 229              		.loc 3 131 0
 230              		.syntax unified
 231              	@ 131 "..\CMSIS\Core\Include/cmsis_gcc.h" 1
 232 016a 62B6     		cpsie i
 233              	@ 0 "" 2
 234              		.thumb
 235              		.syntax unified
 236              	.L2:
 237 016c FEE7     		b	.L2
 238              	.L5:
 239 016e 00BF     		.align	3
 240              	.L4:
 241 0170 EA5A7B9F 		.word	-1619305750
 242 0174 AAAA30C0 		.word	-1070552406
 243 0178 E4558CA9 		.word	-1450420764
 244 017c AAAA2040 		.word	1075882666
 245 0180 00000000 		.word	.LANCHOR0
 246 0184 00000000 		.word	.LANCHOR1
 247 0188 00000000 		.word	.LANCHOR2
 248 018c 00000000 		.word	.LC2
 249 0190 00006640 		.word	1080426496
ARM GAS  C:\Users\jmori\AppData\Local\Temp\ccYuPisP.s 			page 35


 250 0194 00005940 		.word	1079574528
 251 0198 00000000 		.word	S
 252              	.LBE18:
 253              	.LBE17:
 254              		.cfi_endproc
 255              	.LFE518:
 256              		.size	main, .-main
 257              		.global	SpO2
 258              		.global	R
 259              		.comm	S,12,4
 260              		.global	numBlocks
 261              		.global	blockSize
 262              		.global	firCoeffs32
 263              		.section	.rodata
 264              		.align	2
 265              		.set	.LANCHOR1,. + 0
 266              		.type	firCoeffs32, %object
 267              		.size	firCoeffs32, 1012
 268              	firCoeffs32:
 269 0000 6F0FC7BB 		.word	-1144582289
 270 0004 3CB81FBB 		.word	-1155549124
 271 0008 4E1236BB 		.word	-1154084274
 272 000c 94CA46BB 		.word	-1152988524
 273 0010 FFFA4FBB 		.word	-1152386305
 274 0014 00DF4FBB 		.word	-1152393472
 275 0018 8EFF44BB 		.word	-1153106034
 276 001c DE362EBB 		.word	-1154599202
 277 0020 0EFB0ABB 		.word	-1156908274
 278 0024 0198B6BA 		.word	-1162438655
 279 0028 B71CFEB9 		.word	-1174528841
 280 002c 3D5A193A 		.word	974740029
 281 0030 F51EEA3A 		.word	988421877
 282 0034 DFEA493B 		.word	994699999
 283 0038 F2F6903B 		.word	999356146
 284 003c 1DDEBC3B 		.word	1002233373
 285 0040 73E1E63B 		.word	1004986739
 286 0044 F499063C 		.word	1007065588
 287 0048 510D173C 		.word	1008143697
 288 004c 3903243C 		.word	1008993081
 289 0050 6DD42C3C 		.word	1009570925
 290 0054 F404313C 		.word	1009845492
 291 0058 FE4D303C 		.word	1009798654
 292 005c A6A32A3C 		.word	1009427366
 293 0060 E235203C 		.word	1008743906
 294 0064 9370113C 		.word	1007775891
 295 0068 1BF1FD3B 		.word	1006498075
 296 006c E248D33B 		.word	1003702498
 297 0070 DAE3A43B 		.word	1000661978
 298 0074 5EE1693B 		.word	996794718
 299 0078 58660B3B 		.word	990602840
 300 007c 1C3E4B3A 		.word	978009628
 301 0080 2499DDB9 		.word	-1176659676
 302 0084 05F6B8BA 		.word	-1162283515
 303 0088 85A50CBB 		.word	-1156799099
 304 008c 38402ABB 		.word	-1154858952
 305 0090 D06734BB 		.word	-1154193456
 306 0094 69582BBB 		.word	-1154787223
ARM GAS  C:\Users\jmori\AppData\Local\Temp\ccYuPisP.s 			page 36


 307 0098 C96B10BB 		.word	-1156551735
 308 009c 1013CCBA 		.word	-1161030896
 309 00a0 B50B3EBA 		.word	-1170338891
 310 00a4 03427239 		.word	963789315
 311 00a8 4EE5A23A 		.word	983754062
 312 00ac A6B7123B 		.word	991082406
 313 00b0 3E514E3B 		.word	994988350
 314 00b4 4BF47F3B 		.word	998241355
 315 00b8 F3F8913B 		.word	999422195
 316 00bc B4BC9B3B 		.word	1000062132
 317 00c0 F9689C3B 		.word	1000106233
 318 00c4 54BC933B 		.word	999537748
 319 00c8 2F17823B 		.word	998381359
 320 00cc 7EE4503B 		.word	995157118
 321 00d0 7E91103B 		.word	990941566
 322 00d4 190C8E3A 		.word	982387737
 323 00d8 4A14E5B8 		.word	-1192946614
 324 00dc FBC5A9BA 		.word	-1163278853
 325 00e0 C4ED1CBB 		.word	-1155732028
 326 00e4 44635ABB 		.word	-1151704252
 327 00e8 698E84BB 		.word	-1148940695
 328 00ec 56FA92BB 		.word	-1147995562
 329 00f0 BC3897BB 		.word	-1147717444
 330 00f4 0C9490BB 		.word	-1148152820
 331 00f8 2DAC7EBB 		.word	-1149326291
 332 00fc E7E749BB 		.word	-1152784409
 333 0100 090004BB 		.word	-1157365751
 334 0104 A7024CBA 		.word	-1169423705
 335 0108 AC3C133A 		.word	974339244
 336 010c 16BDFA3A 		.word	989510934
 337 0110 E8A7503B 		.word	995141608
 338 0114 59648C3B 		.word	999056473
 339 0118 0744A83B 		.word	1000883207
 340 011c E1B9B93B 		.word	1002027489
 341 0120 6331BF3B 		.word	1002385763
 342 0124 18DDB73B 		.word	1001905432
 343 0128 65C1A33B 		.word	1000587621
 344 012c D6B7833B 		.word	998488022
 345 0130 53E8323B 		.word	993192019
 346 0134 A5B09D3A 		.word	983412901
 347 0138 8DC2F4B9 		.word	-1175141747
 348 013c 61640EBB 		.word	-1156684703
 349 0140 BF1579BB 		.word	-1149692481
 350 0144 4F9DABBB 		.word	-1146380977
 351 0148 0BEDD0BB 		.word	-1143935733
 352 014c 147CE9BB 		.word	-1142326252
 353 0150 2706F3BB 		.word	-1141701081
 354 0154 152DECBB 		.word	-1142149867
 355 0158 1C97D4BB 		.word	-1143695588
 356 015c 6A02ADBB 		.word	-1146289558
 357 0160 D18D6EBB 		.word	-1150382639
 358 0164 2E1CD9BA 		.word	-1160176594
 359 0168 9A97113A 		.word	974231450
 360 016c D7543B3B 		.word	993744087
 361 0170 6731A73B 		.word	1000812903
 362 0174 CBAFE93B 		.word	1005170635
 363 0178 A919103C 		.word	1007688105
ARM GAS  C:\Users\jmori\AppData\Local\Temp\ccYuPisP.s 			page 37


 364 017c 1322233C 		.word	1008935443
 365 0180 E71A2C3C 		.word	1009523431
 366 0184 C3B7293C 		.word	1009366979
 367 0188 73531B3C 		.word	1008423795
 368 018c B303013C 		.word	1006699443
 369 0190 9946B73B 		.word	1001866905
 370 0194 1A4A333B 		.word	993217050
 371 0198 284A11BA 		.word	-1173272024
 372 019c 382A86BB 		.word	-1148835272
 373 01a0 5E5EFBBB 		.word	-1141154210
 374 01a4 4C0B35BC 		.word	-1137374388
 375 01a8 982D65BC 		.word	-1134219880
 376 01ac D61585BC 		.word	-1132128810
 377 01b0 773190BC 		.word	-1131400841
 378 01b4 665692BC 		.word	-1131260314
 379 01b8 AA478ABC 		.word	-1131788374
 380 01bc 9D686EBC 		.word	-1133614947
 381 01c0 E29231BC 		.word	-1137601822
 382 01c4 02EEBCBB 		.word	-1145246206
 383 01c8 1A01173A 		.word	974586138
 384 01cc 9A9C033C 		.word	1006869658
 385 01d0 A947863C 		.word	1015433129
 386 01d4 B3F8CF3C 		.word	1020262579
 387 01d8 03300E3D 		.word	1024339971
 388 01dc 6B62343D 		.word	1026843243
 389 01e0 C42B593D 		.word	1029254084
 390 01e4 C2277B3D 		.word	1031481282
 391 01e8 84818C3D 		.word	1032618372
 392 01ec 94C8983D 		.word	1033422996
 393 01f0 CEECA13D 		.word	1034022094
 394 01f4 DE90A73D 		.word	1034391774
 395 01f8 7C76A93D 		.word	1034516092
 396 01fc DE90A73D 		.word	1034391774
 397 0200 CEECA13D 		.word	1034022094
 398 0204 94C8983D 		.word	1033422996
 399 0208 84818C3D 		.word	1032618372
 400 020c C2277B3D 		.word	1031481282
 401 0210 C42B593D 		.word	1029254084
 402 0214 6B62343D 		.word	1026843243
 403 0218 03300E3D 		.word	1024339971
 404 021c B3F8CF3C 		.word	1020262579
 405 0220 A947863C 		.word	1015433129
 406 0224 9A9C033C 		.word	1006869658
 407 0228 1A01173A 		.word	974586138
 408 022c 02EEBCBB 		.word	-1145246206
 409 0230 E29231BC 		.word	-1137601822
 410 0234 9D686EBC 		.word	-1133614947
 411 0238 AA478ABC 		.word	-1131788374
 412 023c 665692BC 		.word	-1131260314
 413 0240 773190BC 		.word	-1131400841
 414 0244 D61585BC 		.word	-1132128810
 415 0248 982D65BC 		.word	-1134219880
 416 024c 4C0B35BC 		.word	-1137374388
 417 0250 5E5EFBBB 		.word	-1141154210
 418 0254 382A86BB 		.word	-1148835272
 419 0258 284A11BA 		.word	-1173272024
 420 025c 1A4A333B 		.word	993217050
ARM GAS  C:\Users\jmori\AppData\Local\Temp\ccYuPisP.s 			page 38


 421 0260 9946B73B 		.word	1001866905
 422 0264 B303013C 		.word	1006699443
 423 0268 73531B3C 		.word	1008423795
 424 026c C3B7293C 		.word	1009366979
 425 0270 E71A2C3C 		.word	1009523431
 426 0274 1322233C 		.word	1008935443
 427 0278 A919103C 		.word	1007688105
 428 027c CBAFE93B 		.word	1005170635
 429 0280 6731A73B 		.word	1000812903
 430 0284 D7543B3B 		.word	993744087
 431 0288 9A97113A 		.word	974231450
 432 028c 2E1CD9BA 		.word	-1160176594
 433 0290 D18D6EBB 		.word	-1150382639
 434 0294 6A02ADBB 		.word	-1146289558
 435 0298 1C97D4BB 		.word	-1143695588
 436 029c 152DECBB 		.word	-1142149867
 437 02a0 2706F3BB 		.word	-1141701081
 438 02a4 147CE9BB 		.word	-1142326252
 439 02a8 0BEDD0BB 		.word	-1143935733
 440 02ac 4F9DABBB 		.word	-1146380977
 441 02b0 BF1579BB 		.word	-1149692481
 442 02b4 61640EBB 		.word	-1156684703
 443 02b8 8DC2F4B9 		.word	-1175141747
 444 02bc A5B09D3A 		.word	983412901
 445 02c0 53E8323B 		.word	993192019
 446 02c4 D6B7833B 		.word	998488022
 447 02c8 65C1A33B 		.word	1000587621
 448 02cc 18DDB73B 		.word	1001905432
 449 02d0 6331BF3B 		.word	1002385763
 450 02d4 E1B9B93B 		.word	1002027489
 451 02d8 0744A83B 		.word	1000883207
 452 02dc 59648C3B 		.word	999056473
 453 02e0 E8A7503B 		.word	995141608
 454 02e4 16BDFA3A 		.word	989510934
 455 02e8 AC3C133A 		.word	974339244
 456 02ec A7024CBA 		.word	-1169423705
 457 02f0 090004BB 		.word	-1157365751
 458 02f4 E7E749BB 		.word	-1152784409
 459 02f8 2DAC7EBB 		.word	-1149326291
 460 02fc 0C9490BB 		.word	-1148152820
 461 0300 BC3897BB 		.word	-1147717444
 462 0304 56FA92BB 		.word	-1147995562
 463 0308 698E84BB 		.word	-1148940695
 464 030c 44635ABB 		.word	-1151704252
 465 0310 C4ED1CBB 		.word	-1155732028
 466 0314 FBC5A9BA 		.word	-1163278853
 467 0318 4A14E5B8 		.word	-1192946614
 468 031c 190C8E3A 		.word	982387737
 469 0320 7E91103B 		.word	990941566
 470 0324 7EE4503B 		.word	995157118
 471 0328 2F17823B 		.word	998381359
 472 032c 54BC933B 		.word	999537748
 473 0330 F9689C3B 		.word	1000106233
 474 0334 B4BC9B3B 		.word	1000062132
 475 0338 F3F8913B 		.word	999422195
 476 033c 4BF47F3B 		.word	998241355
 477 0340 3E514E3B 		.word	994988350
ARM GAS  C:\Users\jmori\AppData\Local\Temp\ccYuPisP.s 			page 39


 478 0344 A6B7123B 		.word	991082406
 479 0348 4EE5A23A 		.word	983754062
 480 034c 03427239 		.word	963789315
 481 0350 B50B3EBA 		.word	-1170338891
 482 0354 1013CCBA 		.word	-1161030896
 483 0358 C96B10BB 		.word	-1156551735
 484 035c 69582BBB 		.word	-1154787223
 485 0360 D06734BB 		.word	-1154193456
 486 0364 38402ABB 		.word	-1154858952
 487 0368 85A50CBB 		.word	-1156799099
 488 036c 05F6B8BA 		.word	-1162283515
 489 0370 2499DDB9 		.word	-1176659676
 490 0374 1C3E4B3A 		.word	978009628
 491 0378 58660B3B 		.word	990602840
 492 037c 5EE1693B 		.word	996794718
 493 0380 DAE3A43B 		.word	1000661978
 494 0384 E248D33B 		.word	1003702498
 495 0388 1BF1FD3B 		.word	1006498075
 496 038c 9370113C 		.word	1007775891
 497 0390 E235203C 		.word	1008743906
 498 0394 A6A32A3C 		.word	1009427366
 499 0398 FE4D303C 		.word	1009798654
 500 039c F404313C 		.word	1009845492
 501 03a0 6DD42C3C 		.word	1009570925
 502 03a4 3903243C 		.word	1008993081
 503 03a8 510D173C 		.word	1008143697
 504 03ac F499063C 		.word	1007065588
 505 03b0 73E1E63B 		.word	1004986739
 506 03b4 1DDEBC3B 		.word	1002233373
 507 03b8 F2F6903B 		.word	999356146
 508 03bc DFEA493B 		.word	994699999
 509 03c0 F51EEA3A 		.word	988421877
 510 03c4 3D5A193A 		.word	974740029
 511 03c8 B71CFEB9 		.word	-1174528841
 512 03cc 0198B6BA 		.word	-1162438655
 513 03d0 0EFB0ABB 		.word	-1156908274
 514 03d4 DE362EBB 		.word	-1154599202
 515 03d8 8EFF44BB 		.word	-1153106034
 516 03dc 00DF4FBB 		.word	-1152393472
 517 03e0 FFFA4FBB 		.word	-1152386305
 518 03e4 94CA46BB 		.word	-1152988524
 519 03e8 4E1236BB 		.word	-1154084274
 520 03ec 3CB81FBB 		.word	-1155549124
 521 03f0 6F0FC7BB 		.word	-1144582289
 522              	.LC0:
 523 03f4 808DBB47 		.word	1203473792
 524 03f8 80ACBE47 		.word	1203678336
 525 03fc 00D3BB47 		.word	1203491584
 526 0400 009BBF47 		.word	1203739392
 527 0404 0001BC47 		.word	1203503360
 528 0408 0050C047 		.word	1203785728
 529 040c 005EBC47 		.word	1203527168
 530 0410 8011C047 		.word	1203769728
 531 0414 80F7BC47 		.word	1203566464
 532 0418 809BC047 		.word	1203805056
 533 041c 0030BD47 		.word	1203580928
 534 0420 803EC047 		.word	1203781248
ARM GAS  C:\Users\jmori\AppData\Local\Temp\ccYuPisP.s 			page 40


 535 0424 80ACBD47 		.word	1203612800
 536 0428 00F4BF47 		.word	1203762176
 537 042c 8000BE47 		.word	1203634304
 538 0430 806ABF47 		.word	1203726976
 539 0434 0035BE47 		.word	1203647744
 540 0438 8009BF47 		.word	1203702144
 541 043c 80E1BE47 		.word	1203691904
 542 0440 004EBE47 		.word	1203654144
 543 0444 004EBF47 		.word	1203719680
 544 0448 80BCBD47 		.word	1203616896
 545 044c 8031BF47 		.word	1203712384
 546 0450 8028BD47 		.word	1203579008
 547 0454 0031C047 		.word	1203777792
 548 0458 80AFBC47 		.word	1203548032
 549 045c 00A0BF47 		.word	1203740672
 550 0460 0090BC47 		.word	1203539968
 551 0464 8010C047 		.word	1203769472
 552 0468 8051BC47 		.word	1203523968
 553 046c 8082C047 		.word	1203798656
 554 0470 007ABC47 		.word	1203534336
 555 0474 00E3BF47 		.word	1203757824
 556 0478 0073BC47 		.word	1203532544
 557 047c 802CC047 		.word	1203776640
 558 0480 0086BC47 		.word	1203537408
 559 0484 009ABF47 		.word	1203739136
 560 0488 00EBBC47 		.word	1203563264
 561 048c 0055BF47 		.word	1203721472
 562 0490 0043BD47 		.word	1203585792
 563 0494 00CCBE47 		.word	1203686400
 564 0498 8084BD47 		.word	1203602560
 565 049c 806DBE47 		.word	1203662208
 566 04a0 005EBE47 		.word	1203658240
 567 04a4 800FBE47 		.word	1203638144
 568 04a8 80D6BE47 		.word	1203689088
 569 04ac 00BBBD47 		.word	1203616512
 570 04b0 805BBF47 		.word	1203723136
 571 04b4 0093BD47 		.word	1203606272
 572 04b8 006BC047 		.word	1203792640
 573 04bc 8050BD47 		.word	1203589248
 574 04c0 805EC047 		.word	1203789440
 575 04c4 0092BD47 		.word	1203606016
 576 04c8 0053C147 		.word	1203852032
 577 04cc 00BBBD47 		.word	1203616512
 578 04d0 001EC247 		.word	1203904000
 579 04d4 003FBE47 		.word	1203650304
 580 04d8 80E2C147 		.word	1203888768
 581 04dc 00A1BE47 		.word	1203675392
 582 04e0 8086C247 		.word	1203930752
 583 04e4 0000BF47 		.word	1203699712
 584 04e8 8040C247 		.word	1203912832
 585 04ec 0098BF47 		.word	1203738624
 586 04f0 802DC247 		.word	1203907968
 587 04f4 0024C047 		.word	1203774464
 588 04f8 80F5C147 		.word	1203893632
 589 04fc 009BC047 		.word	1203804928
 590 0500 80D6C147 		.word	1203885696
 591 0504 8076C147 		.word	1203861120
ARM GAS  C:\Users\jmori\AppData\Local\Temp\ccYuPisP.s 			page 41


 592 0508 8075C147 		.word	1203860864
 593 050c 000CC247 		.word	1203899392
 594 0510 8019C147 		.word	1203837312
 595 0514 80A8C247 		.word	1203939456
 596 0518 00E6C047 		.word	1203824128
 597 051c 80BBC347 		.word	1204009856
 598 0520 00C0C047 		.word	1203814400
 599 0524 0098C347 		.word	1204000768
 600 0528 80DBC047 		.word	1203821440
 601 052c 8089C447 		.word	1204062592
 602 0530 00E0C047 		.word	1203822592
 603 0534 801DC547 		.word	1204100480
 604 0538 006CC147 		.word	1203858432
 605 053c 80DFC447 		.word	1204084608
 606 0540 008BC147 		.word	1203866368
 607 0544 807BC547 		.word	1204124544
 608 0548 00D6C147 		.word	1203885568
 609 054c 0002C547 		.word	1204093440
 610 0550 8025C247 		.word	1203905920
 611 0554 80DEC447 		.word	1204084352
 612 0558 8092C247 		.word	1203933824
 613 055c 8076C447 		.word	1204057728
 614 0560 80D9C247 		.word	1203952000
 615 0564 800CC447 		.word	1204030592
 616 0568 0082C347 		.word	1203995136
 617 056c 0096C347 		.word	1204000256
 618 0570 80D6C347 		.word	1204016768
 619 0574 8010C347 		.word	1203966080
 620 0578 8069C447 		.word	1204054400
 621 057c 00ADC247 		.word	1203940608
 622 0580 804EC547 		.word	1204113024
 623 0584 0062C247 		.word	1203921408
 624 0588 8034C547 		.word	1204106368
 625 058c 806FC247 		.word	1203924864
 626 0590 002BC647 		.word	1204169472
 627 0594 0076C247 		.word	1203926528
 628 0598 8086C647 		.word	1204192896
 629 059c 00B6C247 		.word	1203942912
 630 05a0 0023C647 		.word	1204167424
 631 05a4 00DDC247 		.word	1203952896
 632 05a8 80D5C647 		.word	1204213120
 633 05ac 801EC347 		.word	1203969664
 634 05b0 008AC647 		.word	1204193792
 635 05b4 808EC347 		.word	1203998336
 636 05b8 0040C647 		.word	1204174848
 637 05bc 80DBC347 		.word	1204018048
 638 05c0 80E9C547 		.word	1204152704
 639 05c4 8034C447 		.word	1204040832
 640 05c8 007BC547 		.word	1204124416
 641 05cc 00D5C447 		.word	1204081920
 642 05d0 8019C547 		.word	1204099456
 643 05d4 8047C547 		.word	1204111232
 644 05d8 809FC447 		.word	1204068224
 645 05dc 80D4C547 		.word	1204147328
 646 05e0 0079C447 		.word	1204058368
 647 05e4 00DDC647 		.word	1204215040
 648 05e8 0001C447 		.word	1204027648
ARM GAS  C:\Users\jmori\AppData\Local\Temp\ccYuPisP.s 			page 42


 649 05ec 80ACC647 		.word	1204202624
 650 05f0 800CC447 		.word	1204030592
 651 05f4 00BFC747 		.word	1204272896
 652 05f8 80F0C347 		.word	1204023424
 653 05fc 00F5C747 		.word	1204286720
 654 0600 805CC447 		.word	1204051072
 655 0604 00EDC747 		.word	1204284672
 656 0608 00A6C447 		.word	1204069888
 657 060c 80C7C847 		.word	1204340608
 658 0610 80E2C447 		.word	1204085376
 659 0614 805CC847 		.word	1204313216
 660 0618 0071C547 		.word	1204121856
 661 061c 0069C847 		.word	1204316416
 662 0620 80C9C547 		.word	1204144512
 663 0624 8002C847 		.word	1204290176
 664 0628 8029C647 		.word	1204169088
 665 062c 80B9C747 		.word	1204271488
 666 0630 000BC747 		.word	1204226816
 667 0634 806CC747 		.word	1204251776
 668 0638 0086C747 		.word	1204258304
 669 063c 0027C747 		.word	1204233984
 670 0640 0015C847 		.word	1204294912
 671 0644 80D1C647 		.word	1204212096
 672 0648 8014C947 		.word	1204360320
 673 064c 0078C647 		.word	1204189184
 674 0650 80FCC847 		.word	1204354176
 675 0654 0086C647 		.word	1204192768
 676 0658 003BCA47 		.word	1204435712
 677 065c 0069C647 		.word	1204185344
 678 0660 801DCA47 		.word	1204428160
 679 0664 0079C647 		.word	1204189440
 680 0668 00C9C947 		.word	1204406528
 681 066c 0014C647 		.word	1204163584
 682 0670 00BCC947 		.word	1204403200
 683 0674 004CC547 		.word	1204112384
 684 0678 8038C847 		.word	1204304000
 685 067c 8082C447 		.word	1204060800
 686 0680 80B7C647 		.word	1204205440
 687 0684 802EC347 		.word	1203973760
 688 0688 80CCC447 		.word	1204079744
 689 068c 0037C247 		.word	1203910400
 690 0690 00F5C247 		.word	1203959040
 691 0694 002EC147 		.word	1203842560
 692 0698 8027C147 		.word	1203840896
 693 069c 803CC047 		.word	1203780736
 694 06a0 8066BF47 		.word	1203725952
 695 06a4 00BCBF47 		.word	1203747840
 696 06a8 00D8BD47 		.word	1203623936
 697 06ac 006CBF47 		.word	1203727360
 698 06b0 808ABC47 		.word	1203538560
 699 06b4 8090BE47 		.word	1203671168
 700 06b8 00CFBB47 		.word	1203490560
 701 06bc 8016BF47 		.word	1203705472
 702 06c0 0026BB47 		.word	1203447296
 703 06c4 0084BE47 		.word	1203667968
 704 06c8 8008BB47 		.word	1203439744
 705 06cc 006CBE47 		.word	1203661824
ARM GAS  C:\Users\jmori\AppData\Local\Temp\ccYuPisP.s 			page 43


 706 06d0 0007BB47 		.word	1203439360
 707 06d4 0011BF47 		.word	1203704064
 708 06d8 803BBB47 		.word	1203452800
 709 06dc 0095BE47 		.word	1203672320
 710 06e0 8093BB47 		.word	1203475328
 711 06e4 0084BE47 		.word	1203667968
 712 06e8 80E8BB47 		.word	1203497088
 713 06ec 806ABE47 		.word	1203661440
 714 06f0 0050BC47 		.word	1203523584
 715 06f4 8046BE47 		.word	1203652224
 716 06f8 8039BD47 		.word	1203583360
 717 06fc 001EBE47 		.word	1203641856
 718 0700 00CFBD47 		.word	1203621632
 719 0704 80E9BD47 		.word	1203628416
 720 0708 008DBE47 		.word	1203670272
 721 070c 00ADBD47 		.word	1203612928
 722 0710 8097BF47 		.word	1203738496
 723 0714 8058BD47 		.word	1203591296
 724 0718 80AFBF47 		.word	1203744640
 725 071c 8066BD47 		.word	1203594880
 726 0720 8012C147 		.word	1203835520
 727 0724 0067BD47 		.word	1203595008
 728 0728 8014C147 		.word	1203836032
 729 072c 80C6BD47 		.word	1203619456
 730 0730 0051C147 		.word	1203851520
 731 0734 8000BE47 		.word	1203634304
 732 0738 8029C247 		.word	1203906944
 733 073c 006CBE47 		.word	1203661824
 734 0740 80FCC147 		.word	1203895424
 735 0744 80D8BE47 		.word	1203689600
 736 0748 80F8C147 		.word	1203894400
 737 074c 804ABF47 		.word	1203718784
 738 0750 000BC247 		.word	1203899136
 739 0754 00CEBF47 		.word	1203752448
 740 0758 80CFC147 		.word	1203883904
 741 075c 009CC047 		.word	1203805184
 742 0760 0062C147 		.word	1203855872
 743 0764 00FDC047 		.word	1203830016
 744 0768 8010C147 		.word	1203835008
 745 076c 009FC147 		.word	1203871488
 746 0770 00A7C047 		.word	1203808000
 747 0774 0032C247 		.word	1203909120
 748 0778 801DC047 		.word	1203772800
 749 077c 001EC247 		.word	1203904000
 750 0780 00D4BF47 		.word	1203753984
 751 0784 801EC347 		.word	1203969664
 752 0788 8069BF47 		.word	1203726720
 753 078c 80A3C247 		.word	1203938176
 754 0790 0055BF47 		.word	1203721472
 755 0794 00E4C247 		.word	1203954688
 756 0798 004EBF47 		.word	1203719680
 757 079c 0049C347 		.word	1203980544
 758 07a0 803BBF47 		.word	1203714944
 759 07a4 8084C247 		.word	1203930240
 760 07a8 0054BF47 		.word	1203721216
 761 07ac 006DC247 		.word	1203924224
 762 07b0 8049BF47 		.word	1203718528
ARM GAS  C:\Users\jmori\AppData\Local\Temp\ccYuPisP.s 			page 44


 763 07b4 0009C247 		.word	1203898624
 764 07b8 0088BF47 		.word	1203734528
 765 07bc 806CC147 		.word	1203858560
 766 07c0 00EDBF47 		.word	1203760384
 767 07c4 80E7C047 		.word	1203824512
 768 07c8 803BC047 		.word	1203780480
 769 07cc 005EC047 		.word	1203789312
 770 07d0 00F3C047 		.word	1203827456
 771 07d4 00F7BF47 		.word	1203762944
 772 07d8 8074C147 		.word	1203860608
 773              	.LC1:
 774 07dc 40254948 		.word	1212753216
 775 07e0 40724A48 		.word	1212838464
 776 07e4 00564948 		.word	1212765696
 777 07e8 40204B48 		.word	1212883008
 778 07ec 005B4948 		.word	1212766976
 779 07f0 802C4B48 		.word	1212886144
 780 07f4 C0884948 		.word	1212778688
 781 07f8 40584B48 		.word	1212897344
 782 07fc 00B44948 		.word	1212789760
 783 0800 40B04B48 		.word	1212919872
 784 0804 C0DF4948 		.word	1212800960
 785 0808 409D4B48 		.word	1212915008
 786 080c 80234A48 		.word	1212818304
 787 0810 40964B48 		.word	1212913216
 788 0814 C0534A48 		.word	1212830656
 789 0818 40884B48 		.word	1212909632
 790 081c C0814A48 		.word	1212842432
 791 0820 C07E4B48 		.word	1212907200
 792 0824 00DB4A48 		.word	1212865280
 793 0828 C0454B48 		.word	1212892608
 794 082c 801C4B48 		.word	1212882048
 795 0830 401E4B48 		.word	1212882496
 796 0834 C06B4B48 		.word	1212902336
 797 0838 80EE4A48 		.word	1212870272
 798 083c 80CA4B48 		.word	1212926592
 799 0840 80C14A48 		.word	1212858752
 800 0844 80D64B48 		.word	1212929664
 801 0848 C0B84A48 		.word	1212856512
 802 084c 40754C48 		.word	1212970304
 803 0850 C0974A48 		.word	1212848064
 804 0854 404E4C48 		.word	1212960320
 805 0858 40AD4A48 		.word	1212853568
 806 085c 406E4C48 		.word	1212968512
 807 0860 40AF4A48 		.word	1212854080
 808 0864 C0B84C48 		.word	1212987584
 809 0868 80EF4A48 		.word	1212870528
 810 086c 40974C48 		.word	1212979008
 811 0870 40154B48 		.word	1212880192
 812 0874 408D4C48 		.word	1212976448
 813 0878 001F4B48 		.word	1212882688
 814 087c 40694C48 		.word	1212967232
 815 0880 C0394B48 		.word	1212889536
 816 0884 003D4C48 		.word	1212955904
 817 0888 C09A4B48 		.word	1212914368
 818 088c 001A4C48 		.word	1212946944
 819 0890 00C84B48 		.word	1212925952
ARM GAS  C:\Users\jmori\AppData\Local\Temp\ccYuPisP.s 			page 45


 820 0894 00DB4B48 		.word	1212930816
 821 0898 801B4C48 		.word	1212947328
 822 089c C09A4B48 		.word	1212914368
 823 08a0 40734C48 		.word	1212969792
 824 08a4 80774B48 		.word	1212905344
 825 08a8 806B4C48 		.word	1212967808
 826 08ac 805C4B48 		.word	1212898432
 827 08b0 C0064D48 		.word	1213007552
 828 08b4 40364B48 		.word	1212888640
 829 08b8 80E84C48 		.word	1212999808
 830 08bc 00564B48 		.word	1212896768
 831 08c0 001B4D48 		.word	1213012736
 832 08c4 806C4B48 		.word	1212902528
 833 08c8 C0764D48 		.word	1213036224
 834 08cc 408B4B48 		.word	1212910400
 835 08d0 C0464D48 		.word	1213023936
 836 08d4 00B54B48 		.word	1212921088
 837 08d8 005D4D48 		.word	1213029632
 838 08dc 80CB4B48 		.word	1212926848
 839 08e0 403E4D48 		.word	1213021760
 840 08e4 800E4C48 		.word	1212944000
 841 08e8 C0214D48 		.word	1213014464
 842 08ec 80724C48 		.word	1212969600
 843 08f0 C0104D48 		.word	1213010112
 844 08f4 00BB4C48 		.word	1212988160
 845 08f8 40E74C48 		.word	1212999488
 846 08fc C01A4D48 		.word	1213012672
 847 0900 00BF4C48 		.word	1212989184
 848 0904 00824D48 		.word	1213039104
 849 0908 C0924C48 		.word	1212977856
 850 090c 009F4D48 		.word	1213046528
 851 0910 80A44C48 		.word	1212982400
 852 0914 005A4E48 		.word	1213094400
 853 0918 00934C48 		.word	1212977920
 854 091c 404D4E48 		.word	1213091136
 855 0920 00C84C48 		.word	1212991488
 856 0924 40A04E48 		.word	1213112384
 857 0928 40E64C48 		.word	1212999232
 858 092c 80004F48 		.word	1213137024
 859 0930 C0164D48 		.word	1213011648
 860 0934 80E04E48 		.word	1213128832
 861 0938 80404D48 		.word	1213022336
 862 093c 00CF4E48 		.word	1213124352
 863 0940 000D4D48 		.word	1213009152
 864 0944 C0414E48 		.word	1213088192
 865 0948 80B14C48 		.word	1212985728
 866 094c 804D4D48 		.word	1213025664
 867 0950 800E4C48 		.word	1212944000
 868 0954 402F4C48 		.word	1212952384
 869 0958 C02A4B48 		.word	1212885696
 870 095c 80D74A48 		.word	1212864384
 871 0960 C0674A48 		.word	1212835776
 872 0964 806E4948 		.word	1212771968
 873 0968 C0994948 		.word	1212783040
 874 096c 40324848 		.word	1212691008
 875 0970 00944848 		.word	1212716032
 876 0974 000B4748 		.word	1212615424
ARM GAS  C:\Users\jmori\AppData\Local\Temp\ccYuPisP.s 			page 46


 877 0978 802A4848 		.word	1212689024
 878 097c 00014648 		.word	1212547328
 879 0980 C02C4748 		.word	1212624064
 880 0984 40564548 		.word	1212503616
 881 0988 00BE4648 		.word	1212595712
 882 098c C0BC4448 		.word	1212464320
 883 0990 409C4648 		.word	1212587072
 884 0994 807A4448 		.word	1212447360
 885 0998 C0014648 		.word	1212547520
 886 099c 40484448 		.word	1212434496
 887 09a0 40F64548 		.word	1212544576
 888 09a4 804A4448 		.word	1212435072
 889 09a8 C0B64548 		.word	1212528320
 890 09ac 807B4448 		.word	1212447616
 891 09b0 808F4548 		.word	1212518272
 892 09b4 40CA4448 		.word	1212467776
 893 09b8 00734548 		.word	1212510976
 894 09bc C01A4548 		.word	1212488384
 895 09c0 005F4548 		.word	1212505856
 896 09c4 C0954548 		.word	1212519872
 897 09c8 40584548 		.word	1212504128
 898 09cc 00124648 		.word	1212551680
 899 09d0 403B4548 		.word	1212496704
 900 09d4 C03E4648 		.word	1212563136
 901 09d8 00704548 		.word	1212510208
 902 09dc 00274748 		.word	1212622592
 903 09e0 C0864548 		.word	1212516032
 904 09e4 80234748 		.word	1212621696
 905 09e8 00C14548 		.word	1212530944
 906 09ec 00A54748 		.word	1212654848
 907 09f0 40064648 		.word	1212548672
 908 09f4 401E4848 		.word	1212685888
 909 09f8 00464648 		.word	1212564992
 910 09fc 00144848 		.word	1212683264
 911 0a00 008C4648 		.word	1212582912
 912 0a04 40594848 		.word	1212700992
 913 0a08 00C04648 		.word	1212596224
 914 0a0c 40404848 		.word	1212694592
 915 0a10 80084748 		.word	1212614784
 916 0a14 803A4848 		.word	1212693120
 917 0a18 406F4748 		.word	1212641088
 918 0a1c 40314848 		.word	1212690752
 919 0a20 C0BB4748 		.word	1212660672
 920 0a24 001C4848 		.word	1212685312
 921 0a28 80304848 		.word	1212690560
 922 0a2c 401D4848 		.word	1212685632
 923 0a30 009A4848 		.word	1212717568
 924 0a34 40094848 		.word	1212680512
 925 0a38 C0D94848 		.word	1212733888
 926 0a3c 00EF4748 		.word	1212673792
 927 0a40 80804948 		.word	1212776576
 928 0a44 40DC4748 		.word	1212668992
 929 0a48 C06A4948 		.word	1212771008
 930 0a4c 80D14748 		.word	1212666240
 931 0a50 009F4948 		.word	1212784384
 932 0a54 C0CB4748 		.word	1212664768
 933 0a58 80D14948 		.word	1212797312
ARM GAS  C:\Users\jmori\AppData\Local\Temp\ccYuPisP.s 			page 47


 934 0a5c 40C94748 		.word	1212664128
 935 0a60 C0874948 		.word	1212778432
 936 0a64 80CA4748 		.word	1212664448
 937 0a68 80904948 		.word	1212780672
 938 0a6c 00C14748 		.word	1212662016
 939 0a70 C0234948 		.word	1212752832
 940 0a74 00C14748 		.word	1212662016
 941 0a78 C0DC4848 		.word	1212734656
 942 0a7c 00C84748 		.word	1212663808
 943 0a80 00804848 		.word	1212710912
 944 0a84 80C14748 		.word	1212662144
 945 0a88 C0304848 		.word	1212690624
 946 0a8c 000B4848 		.word	1212680960
 947 0a90 C0D94748 		.word	1212668352
 948 0a94 C03A4848 		.word	1212693184
 949 0a98 008A4748 		.word	1212647936
 950 0a9c 40504848 		.word	1212698688
 951 0aa0 C05B4748 		.word	1212636096
 952 0aa4 40E34848 		.word	1212736320
 953 0aa8 C0294748 		.word	1212623296
 954 0aac 80A84848 		.word	1212721280
 955 0ab0 C0364748 		.word	1212626624
 956 0ab4 80154948 		.word	1212749184
 957 0ab8 804A4748 		.word	1212631680
 958 0abc 00484948 		.word	1212762112
 959 0ac0 C06B4748 		.word	1212640192
 960 0ac4 C01D4948 		.word	1212751296
 961 0ac8 C0964748 		.word	1212651200
 962 0acc 40804948 		.word	1212776512
 963 0ad0 C0BF4748 		.word	1212661696
 964 0ad4 405C4948 		.word	1212767296
 965 0ad8 C0134848 		.word	1212683200
 966 0adc C0604948 		.word	1212768448
 967 0ae0 407A4848 		.word	1212709440
 968 0ae4 40554948 		.word	1212765504
 969 0ae8 40C34848 		.word	1212728128
 970 0aec 80514948 		.word	1212764544
 971 0af0 00464948 		.word	1212761600
 972 0af4 404F4948 		.word	1212763968
 973 0af8 80B94948 		.word	1212791168
 974 0afc 802E4948 		.word	1212755584
 975 0b00 800F4A48 		.word	1212813184
 976 0b04 40484948 		.word	1212762176
 977 0b08 80C04A48 		.word	1212858496
 978 0b0c 003F4948 		.word	1212759808
 979 0b10 80BC4A48 		.word	1212857472
 980 0b14 006B4948 		.word	1212771072
 981 0b18 005C4B48 		.word	1212898304
 982 0b1c 00964948 		.word	1212782080
 983 0b20 C0AC4B48 		.word	1212918976
 984 0b24 40D24948 		.word	1212797504
 985 0b28 80854B48 		.word	1212908928
 986 0b2c 80094A48 		.word	1212811648
 987 0b30 C0054C48 		.word	1212941760
 988 0b34 403A4A48 		.word	1212824128
 989 0b38 C0F04B48 		.word	1212936384
 990 0b3c C0814A48 		.word	1212842432
ARM GAS  C:\Users\jmori\AppData\Local\Temp\ccYuPisP.s 			page 48


 991 0b40 80DE4B48 		.word	1212931712
 992 0b44 80C54A48 		.word	1212859776
 993 0b48 40D64B48 		.word	1212929600
 994 0b4c 00064B48 		.word	1212876288
 995 0b50 80A34B48 		.word	1212916608
 996 0b54 00774B48 		.word	1212905216
 997 0b58 C0804B48 		.word	1212907712
 998 0b5c 00D74B48 		.word	1212929792
 999 0b60 C0524B48 		.word	1212895936
 1000 0b64 C01E4C48 		.word	1212948160
 1001 0b68 80314B48 		.word	1212887424
 1002 0b6c C07B4C48 		.word	1212971968
 1003 0b70 000B4B48 		.word	1212877568
 1004 0b74 C0674C48 		.word	1212966848
 1005 0b78 00074B48 		.word	1212876544
 1006 0b7c 80DD4C48 		.word	1212996992
 1007 0b80 400A4B48 		.word	1212877376
 1008 0b84 800E4D48 		.word	1213009536
 1009 0b88 80294B48 		.word	1212885376
 1010 0b8c C0F14C48 		.word	1213002176
 1011 0b90 40494B48 		.word	1212893504
 1012 0b94 40364D48 		.word	1213019712
 1013 0b98 005A4B48 		.word	1212897792
 1014 0b9c C00A4D48 		.word	1213008576
 1015 0ba0 40974B48 		.word	1212913472
 1016 0ba4 C0E84C48 		.word	1212999872
 1017 0ba8 C0B54B48 		.word	1212921280
 1018 0bac 80C34C48 		.word	1212990336
 1019 0bb0 40EF4B48 		.word	1212936000
 1020 0bb4 00904C48 		.word	1212977152
 1021 0bb8 00524C48 		.word	1212961280
 1022 0bbc C07D4C48 		.word	1212972480
 1023 0bc0 409C4C48 		.word	1212980288
 1024              		.data
 1025              		.align	2
 1026              		.set	.LANCHOR2,. + 0
 1027              		.type	blockSize, %object
 1028              		.size	blockSize, 4
 1029              	blockSize:
 1030 0000 FA000000 		.word	250
 1031              		.type	numBlocks, %object
 1032              		.size	numBlocks, 4
 1033              	numBlocks:
 1034 0004 01000000 		.word	1
 1035              		.section	.rodata.str1.4,"aMS",%progbits,1
 1036              		.align	2
 1037              	.LC2:
 1038 0000 256600   		.ascii	"%f\000"
 1039              		.bss
 1040              		.align	2
 1041              		.set	.LANCHOR0,. + 0
 1042              		.type	firStateF32, %object
 1043              		.size	firStateF32, 2008
 1044              	firStateF32:
 1045 0000 00000000 		.space	2008
 1045      00000000 
 1045      00000000 
ARM GAS  C:\Users\jmori\AppData\Local\Temp\ccYuPisP.s 			page 49


 1045      00000000 
 1045      00000000 
 1046              		.type	R, %object
 1047              		.size	R, 4
 1048              	R:
 1049 07d8 00000000 		.space	4
 1050              		.type	SpO2, %object
 1051              		.size	SpO2, 4
 1052              	SpO2:
 1053 07dc 00000000 		.space	4
 1054              		.text
 1055              	.Letext0:
 1056              		.file 4 "c:\\program files (x86)\\cypress\\psoc creator\\4.4\\psoc creator\\import\\gnu\\arm\\5.4.
 1057              		.file 5 "c:\\program files (x86)\\cypress\\psoc creator\\4.4\\psoc creator\\import\\gnu\\arm\\5.4.
 1058              		.file 6 "Generated_Source\\PSoC6\\pdl\\devices/psoc6/include/ip/cyip_scb.h"
 1059              		.file 7 "Generated_Source\\PSoC6\\pdl\\devices/psoc6/include/psoc6_01_config.h"
 1060              		.file 8 "Generated_Source\\PSoC6\\pdl\\drivers/peripheral/device/cy_device.h"
 1061              		.file 9 "Generated_Source\\PSoC6\\pdl\\drivers/peripheral/syslib/cy_syslib.h"
 1062              		.file 10 "..\\CMSIS\\DSP\\Include/arm_math.h"
 1063              		.file 11 "Generated_Source\\PSoC6/UART_1.h"
 1064              		.file 12 "..\\CMSIS\\Core\\Include/core_cm4.h"
 1065              		.file 13 "Generated_Source\\PSoC6\\pdl\\drivers/peripheral/scb/cy_scb_common.h"
 1066              		.file 14 "./system_psoc6.h"
 1067              		.file 15 "c:\\program files (x86)\\cypress\\psoc creator\\4.4\\psoc creator\\import\\gnu\\arm\\5.4
 1068              		.section	.debug_info,"",%progbits
 1069              	.Ldebug_info0:
 1070 0000 46100000 		.4byte	0x1046
 1071 0004 0400     		.2byte	0x4
 1072 0006 00000000 		.4byte	.Ldebug_abbrev0
 1073 000a 04       		.byte	0x4
 1074 000b 01       		.uleb128 0x1
 1075 000c 21070000 		.4byte	.LASF238
 1076 0010 0C       		.byte	0xc
 1077 0011 090D0000 		.4byte	.LASF239
 1078 0015 AE0B0000 		.4byte	.LASF240
 1079 0019 00000000 		.4byte	.Ldebug_ranges0+0
 1080 001d 00000000 		.4byte	0
 1081 0021 00000000 		.4byte	.Ldebug_line0
 1082 0025 02       		.uleb128 0x2
 1083 0026 04       		.byte	0x4
 1084 0027 04       		.byte	0x4
 1085 0028 E0070000 		.4byte	.LASF0
 1086 002c 02       		.uleb128 0x2
 1087 002d 02       		.byte	0x2
 1088 002e 05       		.byte	0x5
 1089 002f DD080000 		.4byte	.LASF1
 1090 0033 02       		.uleb128 0x2
 1091 0034 01       		.byte	0x1
 1092 0035 06       		.byte	0x6
 1093 0036 B6010000 		.4byte	.LASF2
 1094 003a 03       		.uleb128 0x3
 1095 003b AB000000 		.4byte	.LASF4
 1096 003f 04       		.byte	0x4
 1097 0040 1D       		.byte	0x1d
 1098 0041 45000000 		.4byte	0x45
 1099 0045 02       		.uleb128 0x2
 1100 0046 01       		.byte	0x1
ARM GAS  C:\Users\jmori\AppData\Local\Temp\ccYuPisP.s 			page 50


 1101 0047 08       		.byte	0x8
 1102 0048 7E080000 		.4byte	.LASF3
 1103 004c 03       		.uleb128 0x3
 1104 004d 85030000 		.4byte	.LASF5
 1105 0051 04       		.byte	0x4
 1106 0052 29       		.byte	0x29
 1107 0053 2C000000 		.4byte	0x2c
 1108 0057 03       		.uleb128 0x3
 1109 0058 2F0A0000 		.4byte	.LASF6
 1110 005c 04       		.byte	0x4
 1111 005d 2B       		.byte	0x2b
 1112 005e 62000000 		.4byte	0x62
 1113 0062 02       		.uleb128 0x2
 1114 0063 02       		.byte	0x2
 1115 0064 07       		.byte	0x7
 1116 0065 D20A0000 		.4byte	.LASF7
 1117 0069 03       		.uleb128 0x3
 1118 006a 560A0000 		.4byte	.LASF8
 1119 006e 04       		.byte	0x4
 1120 006f 3F       		.byte	0x3f
 1121 0070 74000000 		.4byte	0x74
 1122 0074 02       		.uleb128 0x2
 1123 0075 04       		.byte	0x4
 1124 0076 05       		.byte	0x5
 1125 0077 67020000 		.4byte	.LASF9
 1126 007b 03       		.uleb128 0x3
 1127 007c 50030000 		.4byte	.LASF10
 1128 0080 04       		.byte	0x4
 1129 0081 41       		.byte	0x41
 1130 0082 86000000 		.4byte	0x86
 1131 0086 02       		.uleb128 0x2
 1132 0087 04       		.byte	0x4
 1133 0088 07       		.byte	0x7
 1134 0089 6D040000 		.4byte	.LASF11
 1135 008d 02       		.uleb128 0x2
 1136 008e 08       		.byte	0x8
 1137 008f 05       		.byte	0x5
 1138 0090 CA030000 		.4byte	.LASF12
 1139 0094 02       		.uleb128 0x2
 1140 0095 08       		.byte	0x8
 1141 0096 07       		.byte	0x7
 1142 0097 26010000 		.4byte	.LASF13
 1143 009b 04       		.uleb128 0x4
 1144 009c 04       		.byte	0x4
 1145 009d 05       		.byte	0x5
 1146 009e 696E7400 		.ascii	"int\000"
 1147 00a2 02       		.uleb128 0x2
 1148 00a3 04       		.byte	0x4
 1149 00a4 07       		.byte	0x7
 1150 00a5 16040000 		.4byte	.LASF14
 1151 00a9 03       		.uleb128 0x3
 1152 00aa 540C0000 		.4byte	.LASF15
 1153 00ae 05       		.byte	0x5
 1154 00af 18       		.byte	0x18
 1155 00b0 3A000000 		.4byte	0x3a
 1156 00b4 03       		.uleb128 0x3
 1157 00b5 99010000 		.4byte	.LASF16
ARM GAS  C:\Users\jmori\AppData\Local\Temp\ccYuPisP.s 			page 51


 1158 00b9 05       		.byte	0x5
 1159 00ba 20       		.byte	0x20
 1160 00bb 4C000000 		.4byte	0x4c
 1161 00bf 03       		.uleb128 0x3
 1162 00c0 D3020000 		.4byte	.LASF17
 1163 00c4 05       		.byte	0x5
 1164 00c5 24       		.byte	0x24
 1165 00c6 57000000 		.4byte	0x57
 1166 00ca 03       		.uleb128 0x3
 1167 00cb 4A060000 		.4byte	.LASF18
 1168 00cf 05       		.byte	0x5
 1169 00d0 2C       		.byte	0x2c
 1170 00d1 69000000 		.4byte	0x69
 1171 00d5 03       		.uleb128 0x3
 1172 00d6 690B0000 		.4byte	.LASF19
 1173 00da 05       		.byte	0x5
 1174 00db 30       		.byte	0x30
 1175 00dc 7B000000 		.4byte	0x7b
 1176 00e0 02       		.uleb128 0x2
 1177 00e1 04       		.byte	0x4
 1178 00e2 07       		.byte	0x7
 1179 00e3 52060000 		.4byte	.LASF20
 1180 00e7 05       		.uleb128 0x5
 1181 00e8 D5000000 		.4byte	0xd5
 1182 00ec 06       		.uleb128 0x6
 1183 00ed E7000000 		.4byte	0xe7
 1184 00f1 07       		.uleb128 0x7
 1185 00f2 EC000000 		.4byte	0xec
 1186 00f6 01010000 		.4byte	0x101
 1187 00fa 08       		.uleb128 0x8
 1188 00fb E0000000 		.4byte	0xe0
 1189 00ff 03       		.byte	0x3
 1190 0100 00       		.byte	0
 1191 0101 07       		.uleb128 0x7
 1192 0102 EC000000 		.4byte	0xec
 1193 0106 11010000 		.4byte	0x111
 1194 010a 08       		.uleb128 0x8
 1195 010b E0000000 		.4byte	0xe0
 1196 010f 05       		.byte	0x5
 1197 0110 00       		.byte	0
 1198 0111 07       		.uleb128 0x7
 1199 0112 EC000000 		.4byte	0xec
 1200 0116 21010000 		.4byte	0x121
 1201 011a 08       		.uleb128 0x8
 1202 011b E0000000 		.4byte	0xe0
 1203 011f 7F       		.byte	0x7f
 1204 0120 00       		.byte	0
 1205 0121 07       		.uleb128 0x7
 1206 0122 EC000000 		.4byte	0xec
 1207 0126 31010000 		.4byte	0x131
 1208 012a 08       		.uleb128 0x8
 1209 012b E0000000 		.4byte	0xe0
 1210 012f 0C       		.byte	0xc
 1211 0130 00       		.byte	0
 1212 0131 07       		.uleb128 0x7
 1213 0132 EC000000 		.4byte	0xec
 1214 0136 41010000 		.4byte	0x141
ARM GAS  C:\Users\jmori\AppData\Local\Temp\ccYuPisP.s 			page 52


 1215 013a 08       		.uleb128 0x8
 1216 013b E0000000 		.4byte	0xe0
 1217 013f 1E       		.byte	0x1e
 1218 0140 00       		.byte	0
 1219 0141 07       		.uleb128 0x7
 1220 0142 EC000000 		.4byte	0xec
 1221 0146 51010000 		.4byte	0x151
 1222 014a 08       		.uleb128 0x8
 1223 014b E0000000 		.4byte	0xe0
 1224 014f 02       		.byte	0x2
 1225 0150 00       		.byte	0
 1226 0151 07       		.uleb128 0x7
 1227 0152 EC000000 		.4byte	0xec
 1228 0156 61010000 		.4byte	0x161
 1229 015a 08       		.uleb128 0x8
 1230 015b E0000000 		.4byte	0xe0
 1231 015f 0B       		.byte	0xb
 1232 0160 00       		.byte	0
 1233 0161 07       		.uleb128 0x7
 1234 0162 EC000000 		.4byte	0xec
 1235 0166 71010000 		.4byte	0x171
 1236 016a 08       		.uleb128 0x8
 1237 016b E0000000 		.4byte	0xe0
 1238 016f 0A       		.byte	0xa
 1239 0170 00       		.byte	0
 1240 0171 07       		.uleb128 0x7
 1241 0172 EC000000 		.4byte	0xec
 1242 0176 81010000 		.4byte	0x181
 1243 017a 08       		.uleb128 0x8
 1244 017b E0000000 		.4byte	0xe0
 1245 017f 2E       		.byte	0x2e
 1246 0180 00       		.byte	0
 1247 0181 07       		.uleb128 0x7
 1248 0182 EC000000 		.4byte	0xec
 1249 0186 91010000 		.4byte	0x191
 1250 018a 08       		.uleb128 0x8
 1251 018b E0000000 		.4byte	0xe0
 1252 018f 2D       		.byte	0x2d
 1253 0190 00       		.byte	0
 1254 0191 07       		.uleb128 0x7
 1255 0192 E7000000 		.4byte	0xe7
 1256 0196 A2010000 		.4byte	0x1a2
 1257 019a 09       		.uleb128 0x9
 1258 019b E0000000 		.4byte	0xe0
 1259 019f FF01     		.2byte	0x1ff
 1260 01a1 00       		.byte	0
 1261 01a2 07       		.uleb128 0x7
 1262 01a3 EC000000 		.4byte	0xec
 1263 01a7 B2010000 		.4byte	0x1b2
 1264 01ab 08       		.uleb128 0x8
 1265 01ac E0000000 		.4byte	0xe0
 1266 01b0 62       		.byte	0x62
 1267 01b1 00       		.byte	0
 1268 01b2 0A       		.uleb128 0xa
 1269 01b3 D00F     		.2byte	0xfd0
 1270 01b5 06       		.byte	0x6
 1271 01b6 21       		.byte	0x21
ARM GAS  C:\Users\jmori\AppData\Local\Temp\ccYuPisP.s 			page 53


 1272 01b7 1C050000 		.4byte	0x51c
 1273 01bb 0B       		.uleb128 0xb
 1274 01bc 3D0B0000 		.4byte	.LASF21
 1275 01c0 06       		.byte	0x6
 1276 01c1 22       		.byte	0x22
 1277 01c2 E7000000 		.4byte	0xe7
 1278 01c6 00       		.byte	0
 1279 01c7 0B       		.uleb128 0xb
 1280 01c8 8C0B0000 		.4byte	.LASF22
 1281 01cc 06       		.byte	0x6
 1282 01cd 23       		.byte	0x23
 1283 01ce EC000000 		.4byte	0xec
 1284 01d2 04       		.byte	0x4
 1285 01d3 0B       		.uleb128 0xb
 1286 01d4 08060000 		.4byte	.LASF23
 1287 01d8 06       		.byte	0x6
 1288 01d9 24       		.byte	0x24
 1289 01da E7000000 		.4byte	0xe7
 1290 01de 08       		.byte	0x8
 1291 01df 0B       		.uleb128 0xb
 1292 01e0 0E050000 		.4byte	.LASF24
 1293 01e4 06       		.byte	0x6
 1294 01e5 25       		.byte	0x25
 1295 01e6 EC000000 		.4byte	0xec
 1296 01ea 0C       		.byte	0xc
 1297 01eb 0B       		.uleb128 0xb
 1298 01ec 06090000 		.4byte	.LASF25
 1299 01f0 06       		.byte	0x6
 1300 01f1 26       		.byte	0x26
 1301 01f2 21050000 		.4byte	0x521
 1302 01f6 10       		.byte	0x10
 1303 01f7 0B       		.uleb128 0xb
 1304 01f8 AB030000 		.4byte	.LASF26
 1305 01fc 06       		.byte	0x6
 1306 01fd 27       		.byte	0x27
 1307 01fe E7000000 		.4byte	0xe7
 1308 0202 20       		.byte	0x20
 1309 0203 0B       		.uleb128 0xb
 1310 0204 D0090000 		.4byte	.LASF27
 1311 0208 06       		.byte	0x6
 1312 0209 28       		.byte	0x28
 1313 020a EC000000 		.4byte	0xec
 1314 020e 24       		.byte	0x24
 1315 020f 0B       		.uleb128 0xb
 1316 0210 F7070000 		.4byte	.LASF28
 1317 0214 06       		.byte	0x6
 1318 0215 29       		.byte	0x29
 1319 0216 2B050000 		.4byte	0x52b
 1320 021a 28       		.byte	0x28
 1321 021b 0B       		.uleb128 0xb
 1322 021c 9F060000 		.4byte	.LASF29
 1323 0220 06       		.byte	0x6
 1324 0221 2A       		.byte	0x2a
 1325 0222 E7000000 		.4byte	0xe7
 1326 0226 40       		.byte	0x40
 1327 0227 0B       		.uleb128 0xb
 1328 0228 D9040000 		.4byte	.LASF30
ARM GAS  C:\Users\jmori\AppData\Local\Temp\ccYuPisP.s 			page 54


 1329 022c 06       		.byte	0x6
 1330 022d 2B       		.byte	0x2b
 1331 022e E7000000 		.4byte	0xe7
 1332 0232 44       		.byte	0x44
 1333 0233 0B       		.uleb128 0xb
 1334 0234 51040000 		.4byte	.LASF31
 1335 0238 06       		.byte	0x6
 1336 0239 2C       		.byte	0x2c
 1337 023a E7000000 		.4byte	0xe7
 1338 023e 48       		.byte	0x48
 1339 023f 0B       		.uleb128 0xb
 1340 0240 42050000 		.4byte	.LASF32
 1341 0244 06       		.byte	0x6
 1342 0245 2D       		.byte	0x2d
 1343 0246 EC000000 		.4byte	0xec
 1344 024a 4C       		.byte	0x4c
 1345 024b 0B       		.uleb128 0xb
 1346 024c 16060000 		.4byte	.LASF33
 1347 0250 06       		.byte	0x6
 1348 0251 2E       		.byte	0x2e
 1349 0252 E7000000 		.4byte	0xe7
 1350 0256 50       		.byte	0x50
 1351 0257 0B       		.uleb128 0xb
 1352 0258 C80A0000 		.4byte	.LASF34
 1353 025c 06       		.byte	0x6
 1354 025d 2F       		.byte	0x2f
 1355 025e 35050000 		.4byte	0x535
 1356 0262 54       		.byte	0x54
 1357 0263 0B       		.uleb128 0xb
 1358 0264 75080000 		.4byte	.LASF35
 1359 0268 06       		.byte	0x6
 1360 0269 30       		.byte	0x30
 1361 026a E7000000 		.4byte	0xe7
 1362 026e 60       		.byte	0x60
 1363 026f 0B       		.uleb128 0xb
 1364 0270 92000000 		.4byte	.LASF36
 1365 0274 06       		.byte	0x6
 1366 0275 31       		.byte	0x31
 1367 0276 EC000000 		.4byte	0xec
 1368 027a 64       		.byte	0x64
 1369 027b 0B       		.uleb128 0xb
 1370 027c 5C0C0000 		.4byte	.LASF37
 1371 0280 06       		.byte	0x6
 1372 0281 32       		.byte	0x32
 1373 0282 E7000000 		.4byte	0xe7
 1374 0286 68       		.byte	0x68
 1375 0287 0B       		.uleb128 0xb
 1376 0288 EC090000 		.4byte	.LASF38
 1377 028c 06       		.byte	0x6
 1378 028d 33       		.byte	0x33
 1379 028e E7000000 		.4byte	0xe7
 1380 0292 6C       		.byte	0x6c
 1381 0293 0B       		.uleb128 0xb
 1382 0294 3A050000 		.4byte	.LASF39
 1383 0298 06       		.byte	0x6
 1384 0299 34       		.byte	0x34
 1385 029a E7000000 		.4byte	0xe7
ARM GAS  C:\Users\jmori\AppData\Local\Temp\ccYuPisP.s 			page 55


 1386 029e 70       		.byte	0x70
 1387 029f 0B       		.uleb128 0xb
 1388 02a0 0B080000 		.4byte	.LASF40
 1389 02a4 06       		.byte	0x6
 1390 02a5 35       		.byte	0x35
 1391 02a6 3F050000 		.4byte	0x53f
 1392 02aa 74       		.byte	0x74
 1393 02ab 0C       		.uleb128 0xc
 1394 02ac 090B0000 		.4byte	.LASF41
 1395 02b0 06       		.byte	0x6
 1396 02b1 36       		.byte	0x36
 1397 02b2 E7000000 		.4byte	0xe7
 1398 02b6 0002     		.2byte	0x200
 1399 02b8 0C       		.uleb128 0xc
 1400 02b9 45080000 		.4byte	.LASF42
 1401 02bd 06       		.byte	0x6
 1402 02be 37       		.byte	0x37
 1403 02bf E7000000 		.4byte	0xe7
 1404 02c3 0402     		.2byte	0x204
 1405 02c5 0C       		.uleb128 0xc
 1406 02c6 F0000000 		.4byte	.LASF43
 1407 02ca 06       		.byte	0x6
 1408 02cb 38       		.byte	0x38
 1409 02cc EC000000 		.4byte	0xec
 1410 02d0 0802     		.2byte	0x208
 1411 02d2 0C       		.uleb128 0xc
 1412 02d3 6F090000 		.4byte	.LASF44
 1413 02d7 06       		.byte	0x6
 1414 02d8 39       		.byte	0x39
 1415 02d9 49050000 		.4byte	0x549
 1416 02dd 0C02     		.2byte	0x20c
 1417 02df 0C       		.uleb128 0xc
 1418 02e0 C8020000 		.4byte	.LASF45
 1419 02e4 06       		.byte	0x6
 1420 02e5 3A       		.byte	0x3a
 1421 02e6 E7000000 		.4byte	0xe7
 1422 02ea 4002     		.2byte	0x240
 1423 02ec 0C       		.uleb128 0xc
 1424 02ed 89090000 		.4byte	.LASF46
 1425 02f1 06       		.byte	0x6
 1426 02f2 3B       		.byte	0x3b
 1427 02f3 53050000 		.4byte	0x553
 1428 02f7 4402     		.2byte	0x244
 1429 02f9 0C       		.uleb128 0xc
 1430 02fa E90C0000 		.4byte	.LASF47
 1431 02fe 06       		.byte	0x6
 1432 02ff 3C       		.byte	0x3c
 1433 0300 E7000000 		.4byte	0xe7
 1434 0304 0003     		.2byte	0x300
 1435 0306 0C       		.uleb128 0xc
 1436 0307 470C0000 		.4byte	.LASF48
 1437 030b 06       		.byte	0x6
 1438 030c 3D       		.byte	0x3d
 1439 030d E7000000 		.4byte	0xe7
 1440 0311 0403     		.2byte	0x304
 1441 0313 0C       		.uleb128 0xc
 1442 0314 600A0000 		.4byte	.LASF49
ARM GAS  C:\Users\jmori\AppData\Local\Temp\ccYuPisP.s 			page 56


 1443 0318 06       		.byte	0x6
 1444 0319 3E       		.byte	0x3e
 1445 031a EC000000 		.4byte	0xec
 1446 031e 0803     		.2byte	0x308
 1447 0320 0C       		.uleb128 0xc
 1448 0321 330B0000 		.4byte	.LASF50
 1449 0325 06       		.byte	0x6
 1450 0326 3F       		.byte	0x3f
 1451 0327 EC000000 		.4byte	0xec
 1452 032b 0C03     		.2byte	0x30c
 1453 032d 0C       		.uleb128 0xc
 1454 032e 8D050000 		.4byte	.LASF51
 1455 0332 06       		.byte	0x6
 1456 0333 40       		.byte	0x40
 1457 0334 E7000000 		.4byte	0xe7
 1458 0338 1003     		.2byte	0x310
 1459 033a 0C       		.uleb128 0xc
 1460 033b B1090000 		.4byte	.LASF52
 1461 033f 06       		.byte	0x6
 1462 0340 41       		.byte	0x41
 1463 0341 5D050000 		.4byte	0x55d
 1464 0345 1403     		.2byte	0x314
 1465 0347 0C       		.uleb128 0xc
 1466 0348 110B0000 		.4byte	.LASF53
 1467 034c 06       		.byte	0x6
 1468 034d 42       		.byte	0x42
 1469 034e EC000000 		.4byte	0xec
 1470 0352 4003     		.2byte	0x340
 1471 0354 0C       		.uleb128 0xc
 1472 0355 91040000 		.4byte	.LASF54
 1473 0359 06       		.byte	0x6
 1474 035a 43       		.byte	0x43
 1475 035b EC000000 		.4byte	0xec
 1476 035f 4403     		.2byte	0x344
 1477 0361 0C       		.uleb128 0xc
 1478 0362 BB090000 		.4byte	.LASF55
 1479 0366 06       		.byte	0x6
 1480 0367 44       		.byte	0x44
 1481 0368 67050000 		.4byte	0x567
 1482 036c 4803     		.2byte	0x348
 1483 036e 0C       		.uleb128 0xc
 1484 036f 27080000 		.4byte	.LASF56
 1485 0373 06       		.byte	0x6
 1486 0374 45       		.byte	0x45
 1487 0375 6C050000 		.4byte	0x56c
 1488 0379 0004     		.2byte	0x400
 1489 037b 0C       		.uleb128 0xc
 1490 037c 52080000 		.4byte	.LASF57
 1491 0380 06       		.byte	0x6
 1492 0381 46       		.byte	0x46
 1493 0382 76050000 		.4byte	0x576
 1494 0386 000C     		.2byte	0xc00
 1495 0388 0C       		.uleb128 0xc
 1496 0389 86020000 		.4byte	.LASF58
 1497 038d 06       		.byte	0x6
 1498 038e 47       		.byte	0x47
 1499 038f EC000000 		.4byte	0xec
ARM GAS  C:\Users\jmori\AppData\Local\Temp\ccYuPisP.s 			page 57


 1500 0393 000E     		.2byte	0xe00
 1501 0395 0C       		.uleb128 0xc
 1502 0396 08020000 		.4byte	.LASF59
 1503 039a 06       		.byte	0x6
 1504 039b 48       		.byte	0x48
 1505 039c 80050000 		.4byte	0x580
 1506 03a0 040E     		.2byte	0xe04
 1507 03a2 0C       		.uleb128 0xc
 1508 03a3 91020000 		.4byte	.LASF60
 1509 03a7 06       		.byte	0x6
 1510 03a8 49       		.byte	0x49
 1511 03a9 E7000000 		.4byte	0xe7
 1512 03ad 800E     		.2byte	0xe80
 1513 03af 0C       		.uleb128 0xc
 1514 03b0 94060000 		.4byte	.LASF61
 1515 03b4 06       		.byte	0x6
 1516 03b5 4A       		.byte	0x4a
 1517 03b6 EC000000 		.4byte	0xec
 1518 03ba 840E     		.2byte	0xe84
 1519 03bc 0C       		.uleb128 0xc
 1520 03bd 9A0C0000 		.4byte	.LASF62
 1521 03c1 06       		.byte	0x6
 1522 03c2 4B       		.byte	0x4b
 1523 03c3 E7000000 		.4byte	0xe7
 1524 03c7 880E     		.2byte	0xe88
 1525 03c9 0C       		.uleb128 0xc
 1526 03ca 25060000 		.4byte	.LASF63
 1527 03ce 06       		.byte	0x6
 1528 03cf 4C       		.byte	0x4c
 1529 03d0 EC000000 		.4byte	0xec
 1530 03d4 8C0E     		.2byte	0xe8c
 1531 03d6 0C       		.uleb128 0xc
 1532 03d7 1D020000 		.4byte	.LASF64
 1533 03db 06       		.byte	0x6
 1534 03dc 4D       		.byte	0x4d
 1535 03dd 8A050000 		.4byte	0x58a
 1536 03e1 900E     		.2byte	0xe90
 1537 03e3 0C       		.uleb128 0xc
 1538 03e4 EE050000 		.4byte	.LASF65
 1539 03e8 06       		.byte	0x6
 1540 03e9 4E       		.byte	0x4e
 1541 03ea E7000000 		.4byte	0xe7
 1542 03ee C00E     		.2byte	0xec0
 1543 03f0 0C       		.uleb128 0xc
 1544 03f1 28020000 		.4byte	.LASF66
 1545 03f5 06       		.byte	0x6
 1546 03f6 4F       		.byte	0x4f
 1547 03f7 EC000000 		.4byte	0xec
 1548 03fb C40E     		.2byte	0xec4
 1549 03fd 0C       		.uleb128 0xc
 1550 03fe 93090000 		.4byte	.LASF67
 1551 0402 06       		.byte	0x6
 1552 0403 50       		.byte	0x50
 1553 0404 E7000000 		.4byte	0xe7
 1554 0408 C80E     		.2byte	0xec8
 1555 040a 0C       		.uleb128 0xc
 1556 040b 98030000 		.4byte	.LASF68
ARM GAS  C:\Users\jmori\AppData\Local\Temp\ccYuPisP.s 			page 58


 1557 040f 06       		.byte	0x6
 1558 0410 51       		.byte	0x51
 1559 0411 EC000000 		.4byte	0xec
 1560 0415 CC0E     		.2byte	0xecc
 1561 0417 0C       		.uleb128 0xc
 1562 0418 33020000 		.4byte	.LASF69
 1563 041c 06       		.byte	0x6
 1564 041d 52       		.byte	0x52
 1565 041e 94050000 		.4byte	0x594
 1566 0422 D00E     		.2byte	0xed0
 1567 0424 0C       		.uleb128 0xc
 1568 0425 A9060000 		.4byte	.LASF70
 1569 0429 06       		.byte	0x6
 1570 042a 53       		.byte	0x53
 1571 042b E7000000 		.4byte	0xe7
 1572 042f 000F     		.2byte	0xf00
 1573 0431 0C       		.uleb128 0xc
 1574 0432 C5090000 		.4byte	.LASF71
 1575 0436 06       		.byte	0x6
 1576 0437 54       		.byte	0x54
 1577 0438 E7000000 		.4byte	0xe7
 1578 043c 040F     		.2byte	0xf04
 1579 043e 0C       		.uleb128 0xc
 1580 043f 230A0000 		.4byte	.LASF72
 1581 0443 06       		.byte	0x6
 1582 0444 55       		.byte	0x55
 1583 0445 E7000000 		.4byte	0xe7
 1584 0449 080F     		.2byte	0xf08
 1585 044b 0C       		.uleb128 0xc
 1586 044c FA050000 		.4byte	.LASF73
 1587 0450 06       		.byte	0x6
 1588 0451 56       		.byte	0x56
 1589 0452 EC000000 		.4byte	0xec
 1590 0456 0C0F     		.2byte	0xf0c
 1591 0458 0C       		.uleb128 0xc
 1592 0459 3E020000 		.4byte	.LASF74
 1593 045d 06       		.byte	0x6
 1594 045e 57       		.byte	0x57
 1595 045f 9E050000 		.4byte	0x59e
 1596 0463 100F     		.2byte	0xf10
 1597 0465 0C       		.uleb128 0xc
 1598 0466 D8060000 		.4byte	.LASF75
 1599 046a 06       		.byte	0x6
 1600 046b 58       		.byte	0x58
 1601 046c E7000000 		.4byte	0xe7
 1602 0470 400F     		.2byte	0xf40
 1603 0472 0C       		.uleb128 0xc
 1604 0473 66060000 		.4byte	.LASF76
 1605 0477 06       		.byte	0x6
 1606 0478 59       		.byte	0x59
 1607 0479 E7000000 		.4byte	0xe7
 1608 047d 440F     		.2byte	0xf44
 1609 047f 0C       		.uleb128 0xc
 1610 0480 61010000 		.4byte	.LASF77
 1611 0484 06       		.byte	0x6
 1612 0485 5A       		.byte	0x5a
 1613 0486 E7000000 		.4byte	0xe7
ARM GAS  C:\Users\jmori\AppData\Local\Temp\ccYuPisP.s 			page 59


 1614 048a 480F     		.2byte	0xf48
 1615 048c 0C       		.uleb128 0xc
 1616 048d 48090000 		.4byte	.LASF78
 1617 0491 06       		.byte	0x6
 1618 0492 5B       		.byte	0x5b
 1619 0493 EC000000 		.4byte	0xec
 1620 0497 4C0F     		.2byte	0xf4c
 1621 0499 0C       		.uleb128 0xc
 1622 049a 49020000 		.4byte	.LASF79
 1623 049e 06       		.byte	0x6
 1624 049f 5C       		.byte	0x5c
 1625 04a0 A8050000 		.4byte	0x5a8
 1626 04a4 500F     		.2byte	0xf50
 1627 04a6 0C       		.uleb128 0xc
 1628 04a7 E1050000 		.4byte	.LASF80
 1629 04ab 06       		.byte	0x6
 1630 04ac 5D       		.byte	0x5d
 1631 04ad E7000000 		.4byte	0xe7
 1632 04b1 800F     		.2byte	0xf80
 1633 04b3 0C       		.uleb128 0xc
 1634 04b4 170A0000 		.4byte	.LASF81
 1635 04b8 06       		.byte	0x6
 1636 04b9 5E       		.byte	0x5e
 1637 04ba E7000000 		.4byte	0xe7
 1638 04be 840F     		.2byte	0xf84
 1639 04c0 0C       		.uleb128 0xc
 1640 04c1 6F0A0000 		.4byte	.LASF82
 1641 04c5 06       		.byte	0x6
 1642 04c6 5F       		.byte	0x5f
 1643 04c7 E7000000 		.4byte	0xe7
 1644 04cb 880F     		.2byte	0xf88
 1645 04cd 0C       		.uleb128 0xc
 1646 04ce 8C080000 		.4byte	.LASF83
 1647 04d2 06       		.byte	0x6
 1648 04d3 60       		.byte	0x60
 1649 04d4 EC000000 		.4byte	0xec
 1650 04d8 8C0F     		.2byte	0xf8c
 1651 04da 0C       		.uleb128 0xc
 1652 04db 54020000 		.4byte	.LASF84
 1653 04df 06       		.byte	0x6
 1654 04e0 61       		.byte	0x61
 1655 04e1 B2050000 		.4byte	0x5b2
 1656 04e5 900F     		.2byte	0xf90
 1657 04e7 0C       		.uleb128 0xc
 1658 04e8 9D020000 		.4byte	.LASF85
 1659 04ec 06       		.byte	0x6
 1660 04ed 62       		.byte	0x62
 1661 04ee E7000000 		.4byte	0xe7
 1662 04f2 C00F     		.2byte	0xfc0
 1663 04f4 0C       		.uleb128 0xc
 1664 04f5 38040000 		.4byte	.LASF86
 1665 04f9 06       		.byte	0x6
 1666 04fa 63       		.byte	0x63
 1667 04fb E7000000 		.4byte	0xe7
 1668 04ff C40F     		.2byte	0xfc4
 1669 0501 0C       		.uleb128 0xc
 1670 0502 0A0A0000 		.4byte	.LASF87
ARM GAS  C:\Users\jmori\AppData\Local\Temp\ccYuPisP.s 			page 60


 1671 0506 06       		.byte	0x6
 1672 0507 64       		.byte	0x64
 1673 0508 E7000000 		.4byte	0xe7
 1674 050c C80F     		.2byte	0xfc8
 1675 050e 0C       		.uleb128 0xc
 1676 050f 5E040000 		.4byte	.LASF88
 1677 0513 06       		.byte	0x6
 1678 0514 65       		.byte	0x65
 1679 0515 EC000000 		.4byte	0xec
 1680 0519 CC0F     		.2byte	0xfcc
 1681 051b 00       		.byte	0
 1682 051c 05       		.uleb128 0x5
 1683 051d F1000000 		.4byte	0xf1
 1684 0521 06       		.uleb128 0x6
 1685 0522 1C050000 		.4byte	0x51c
 1686 0526 05       		.uleb128 0x5
 1687 0527 01010000 		.4byte	0x101
 1688 052b 06       		.uleb128 0x6
 1689 052c 26050000 		.4byte	0x526
 1690 0530 05       		.uleb128 0x5
 1691 0531 41010000 		.4byte	0x141
 1692 0535 06       		.uleb128 0x6
 1693 0536 30050000 		.4byte	0x530
 1694 053a 05       		.uleb128 0x5
 1695 053b A2010000 		.4byte	0x1a2
 1696 053f 06       		.uleb128 0x6
 1697 0540 3A050000 		.4byte	0x53a
 1698 0544 05       		.uleb128 0x5
 1699 0545 21010000 		.4byte	0x121
 1700 0549 06       		.uleb128 0x6
 1701 054a 44050000 		.4byte	0x544
 1702 054e 05       		.uleb128 0x5
 1703 054f 71010000 		.4byte	0x171
 1704 0553 06       		.uleb128 0x6
 1705 0554 4E050000 		.4byte	0x54e
 1706 0558 05       		.uleb128 0x5
 1707 0559 61010000 		.4byte	0x161
 1708 055d 06       		.uleb128 0x6
 1709 055e 58050000 		.4byte	0x558
 1710 0562 05       		.uleb128 0x5
 1711 0563 81010000 		.4byte	0x181
 1712 0567 06       		.uleb128 0x6
 1713 0568 62050000 		.4byte	0x562
 1714 056c 05       		.uleb128 0x5
 1715 056d 91010000 		.4byte	0x191
 1716 0571 05       		.uleb128 0x5
 1717 0572 11010000 		.4byte	0x111
 1718 0576 06       		.uleb128 0x6
 1719 0577 71050000 		.4byte	0x571
 1720 057b 05       		.uleb128 0x5
 1721 057c 31010000 		.4byte	0x131
 1722 0580 06       		.uleb128 0x6
 1723 0581 7B050000 		.4byte	0x57b
 1724 0585 05       		.uleb128 0x5
 1725 0586 51010000 		.4byte	0x151
 1726 058a 06       		.uleb128 0x6
 1727 058b 85050000 		.4byte	0x585
ARM GAS  C:\Users\jmori\AppData\Local\Temp\ccYuPisP.s 			page 61


 1728 058f 05       		.uleb128 0x5
 1729 0590 51010000 		.4byte	0x151
 1730 0594 06       		.uleb128 0x6
 1731 0595 8F050000 		.4byte	0x58f
 1732 0599 05       		.uleb128 0x5
 1733 059a 51010000 		.4byte	0x151
 1734 059e 06       		.uleb128 0x6
 1735 059f 99050000 		.4byte	0x599
 1736 05a3 05       		.uleb128 0x5
 1737 05a4 51010000 		.4byte	0x151
 1738 05a8 06       		.uleb128 0x6
 1739 05a9 A3050000 		.4byte	0x5a3
 1740 05ad 05       		.uleb128 0x5
 1741 05ae 51010000 		.4byte	0x151
 1742 05b2 06       		.uleb128 0x6
 1743 05b3 AD050000 		.4byte	0x5ad
 1744 05b7 03       		.uleb128 0x3
 1745 05b8 2C050000 		.4byte	.LASF89
 1746 05bc 06       		.byte	0x6
 1747 05bd 66       		.byte	0x66
 1748 05be B2010000 		.4byte	0x1b2
 1749 05c2 0D       		.uleb128 0xd
 1750 05c3 320D0000 		.4byte	.LASF90
 1751 05c7 07       		.byte	0x7
 1752 05c8 4F06     		.2byte	0x64f
 1753 05ca B7050000 		.4byte	0x5b7
 1754 05ce 02       		.uleb128 0x2
 1755 05cf 08       		.byte	0x8
 1756 05d0 04       		.byte	0x4
 1757 05d1 DB090000 		.4byte	.LASF91
 1758 05d5 0E       		.uleb128 0xe
 1759 05d6 B8       		.byte	0xb8
 1760 05d7 08       		.byte	0x8
 1761 05d8 34       		.byte	0x34
 1762 05d9 E6090000 		.4byte	0x9e6
 1763 05dd 0B       		.uleb128 0xb
 1764 05de FF000000 		.4byte	.LASF92
 1765 05e2 08       		.byte	0x8
 1766 05e3 37       		.byte	0x37
 1767 05e4 D5000000 		.4byte	0xd5
 1768 05e8 00       		.byte	0
 1769 05e9 0B       		.uleb128 0xb
 1770 05ea 3C030000 		.4byte	.LASF93
 1771 05ee 08       		.byte	0x8
 1772 05ef 38       		.byte	0x38
 1773 05f0 D5000000 		.4byte	0xd5
 1774 05f4 04       		.byte	0x4
 1775 05f5 0B       		.uleb128 0xb
 1776 05f6 47030000 		.4byte	.LASF94
 1777 05fa 08       		.byte	0x8
 1778 05fb 39       		.byte	0x39
 1779 05fc D5000000 		.4byte	0xd5
 1780 0600 08       		.byte	0x8
 1781 0601 0B       		.uleb128 0xb
 1782 0602 67080000 		.4byte	.LASF95
 1783 0606 08       		.byte	0x8
 1784 0607 3A       		.byte	0x3a
ARM GAS  C:\Users\jmori\AppData\Local\Temp\ccYuPisP.s 			page 62


 1785 0608 D5000000 		.4byte	0xd5
 1786 060c 0C       		.byte	0xc
 1787 060d 0B       		.uleb128 0xb
 1788 060e AB050000 		.4byte	.LASF96
 1789 0612 08       		.byte	0x8
 1790 0613 3B       		.byte	0x3b
 1791 0614 D5000000 		.4byte	0xd5
 1792 0618 10       		.byte	0x10
 1793 0619 0B       		.uleb128 0xb
 1794 061a 13020000 		.4byte	.LASF97
 1795 061e 08       		.byte	0x8
 1796 061f 3C       		.byte	0x3c
 1797 0620 D5000000 		.4byte	0xd5
 1798 0624 14       		.byte	0x14
 1799 0625 0B       		.uleb128 0xb
 1800 0626 3A0A0000 		.4byte	.LASF98
 1801 062a 08       		.byte	0x8
 1802 062b 3D       		.byte	0x3d
 1803 062c D5000000 		.4byte	0xd5
 1804 0630 18       		.byte	0x18
 1805 0631 0B       		.uleb128 0xb
 1806 0632 7B000000 		.4byte	.LASF99
 1807 0636 08       		.byte	0x8
 1808 0637 3E       		.byte	0x3e
 1809 0638 D5000000 		.4byte	0xd5
 1810 063c 1C       		.byte	0x1c
 1811 063d 0B       		.uleb128 0xb
 1812 063e DC0C0000 		.4byte	.LASF100
 1813 0642 08       		.byte	0x8
 1814 0643 3F       		.byte	0x3f
 1815 0644 D5000000 		.4byte	0xd5
 1816 0648 20       		.byte	0x20
 1817 0649 0B       		.uleb128 0xb
 1818 064a F6060000 		.4byte	.LASF101
 1819 064e 08       		.byte	0x8
 1820 064f 40       		.byte	0x40
 1821 0650 D5000000 		.4byte	0xd5
 1822 0654 24       		.byte	0x24
 1823 0655 0B       		.uleb128 0xb
 1824 0656 140D0000 		.4byte	.LASF102
 1825 065a 08       		.byte	0x8
 1826 065b 43       		.byte	0x43
 1827 065c A9000000 		.4byte	0xa9
 1828 0660 28       		.byte	0x28
 1829 0661 0B       		.uleb128 0xb
 1830 0662 61000000 		.4byte	.LASF103
 1831 0666 08       		.byte	0x8
 1832 0667 44       		.byte	0x44
 1833 0668 A9000000 		.4byte	0xa9
 1834 066c 29       		.byte	0x29
 1835 066d 0B       		.uleb128 0xb
 1836 066e D20C0000 		.4byte	.LASF104
 1837 0672 08       		.byte	0x8
 1838 0673 45       		.byte	0x45
 1839 0674 A9000000 		.4byte	0xa9
 1840 0678 2A       		.byte	0x2a
 1841 0679 0B       		.uleb128 0xb
ARM GAS  C:\Users\jmori\AppData\Local\Temp\ccYuPisP.s 			page 63


 1842 067a E8060000 		.4byte	.LASF105
 1843 067e 08       		.byte	0x8
 1844 067f 46       		.byte	0x46
 1845 0680 A9000000 		.4byte	0xa9
 1846 0684 2B       		.byte	0x2b
 1847 0685 0B       		.uleb128 0xb
 1848 0686 71050000 		.4byte	.LASF106
 1849 068a 08       		.byte	0x8
 1850 068b 47       		.byte	0x47
 1851 068c A9000000 		.4byte	0xa9
 1852 0690 2C       		.byte	0x2c
 1853 0691 0B       		.uleb128 0xb
 1854 0692 7C0A0000 		.4byte	.LASF107
 1855 0696 08       		.byte	0x8
 1856 0697 48       		.byte	0x48
 1857 0698 A9000000 		.4byte	0xa9
 1858 069c 2D       		.byte	0x2d
 1859 069d 0B       		.uleb128 0xb
 1860 069e E8010000 		.4byte	.LASF108
 1861 06a2 08       		.byte	0x8
 1862 06a3 49       		.byte	0x49
 1863 06a4 A9000000 		.4byte	0xa9
 1864 06a8 2E       		.byte	0x2e
 1865 06a9 0B       		.uleb128 0xb
 1866 06aa D4070000 		.4byte	.LASF109
 1867 06ae 08       		.byte	0x8
 1868 06af 4A       		.byte	0x4a
 1869 06b0 A9000000 		.4byte	0xa9
 1870 06b4 2F       		.byte	0x2f
 1871 06b5 0B       		.uleb128 0xb
 1872 06b6 B0060000 		.4byte	.LASF110
 1873 06ba 08       		.byte	0x8
 1874 06bb 4B       		.byte	0x4b
 1875 06bc A9000000 		.4byte	0xa9
 1876 06c0 30       		.byte	0x30
 1877 06c1 0B       		.uleb128 0xb
 1878 06c2 C2040000 		.4byte	.LASF111
 1879 06c6 08       		.byte	0x8
 1880 06c7 4E       		.byte	0x4e
 1881 06c8 A9000000 		.4byte	0xa9
 1882 06cc 31       		.byte	0x31
 1883 06cd 0B       		.uleb128 0xb
 1884 06ce 9D000000 		.4byte	.LASF112
 1885 06d2 08       		.byte	0x8
 1886 06d3 4F       		.byte	0x4f
 1887 06d4 A9000000 		.4byte	0xa9
 1888 06d8 32       		.byte	0x32
 1889 06d9 0B       		.uleb128 0xb
 1890 06da CD040000 		.4byte	.LASF113
 1891 06de 08       		.byte	0x8
 1892 06df 50       		.byte	0x50
 1893 06e0 A9000000 		.4byte	0xa9
 1894 06e4 33       		.byte	0x33
 1895 06e5 0B       		.uleb128 0xb
 1896 06e6 B5000000 		.4byte	.LASF114
 1897 06ea 08       		.byte	0x8
 1898 06eb 51       		.byte	0x51
ARM GAS  C:\Users\jmori\AppData\Local\Temp\ccYuPisP.s 			page 64


 1899 06ec A9000000 		.4byte	0xa9
 1900 06f0 34       		.byte	0x34
 1901 06f1 0B       		.uleb128 0xb
 1902 06f2 260B0000 		.4byte	.LASF115
 1903 06f6 08       		.byte	0x8
 1904 06f7 52       		.byte	0x52
 1905 06f8 B4000000 		.4byte	0xb4
 1906 06fc 36       		.byte	0x36
 1907 06fd 0B       		.uleb128 0xb
 1908 06fe AC020000 		.4byte	.LASF116
 1909 0702 08       		.byte	0x8
 1910 0703 53       		.byte	0x53
 1911 0704 B4000000 		.4byte	0xb4
 1912 0708 38       		.byte	0x38
 1913 0709 0B       		.uleb128 0xb
 1914 070a 0D0C0000 		.4byte	.LASF117
 1915 070e 08       		.byte	0x8
 1916 070f 54       		.byte	0x54
 1917 0710 B4000000 		.4byte	0xb4
 1918 0714 3A       		.byte	0x3a
 1919 0715 0B       		.uleb128 0xb
 1920 0716 FA0A0000 		.4byte	.LASF118
 1921 071a 08       		.byte	0x8
 1922 071b 55       		.byte	0x55
 1923 071c A9000000 		.4byte	0xa9
 1924 0720 3C       		.byte	0x3c
 1925 0721 0B       		.uleb128 0xb
 1926 0722 F8020000 		.4byte	.LASF119
 1927 0726 08       		.byte	0x8
 1928 0727 56       		.byte	0x56
 1929 0728 A9000000 		.4byte	0xa9
 1930 072c 3D       		.byte	0x3d
 1931 072d 0B       		.uleb128 0xb
 1932 072e 930B0000 		.4byte	.LASF120
 1933 0732 08       		.byte	0x8
 1934 0733 57       		.byte	0x57
 1935 0734 A9000000 		.4byte	0xa9
 1936 0738 3E       		.byte	0x3e
 1937 0739 0B       		.uleb128 0xb
 1938 073a 6F000000 		.4byte	.LASF121
 1939 073e 08       		.byte	0x8
 1940 073f 58       		.byte	0x58
 1941 0740 A9000000 		.4byte	0xa9
 1942 0744 3F       		.byte	0x3f
 1943 0745 0B       		.uleb128 0xb
 1944 0746 01070000 		.4byte	.LASF122
 1945 074a 08       		.byte	0x8
 1946 074b 59       		.byte	0x59
 1947 074c A9000000 		.4byte	0xa9
 1948 0750 40       		.byte	0x40
 1949 0751 0B       		.uleb128 0xb
 1950 0752 5B030000 		.4byte	.LASF123
 1951 0756 08       		.byte	0x8
 1952 0757 5A       		.byte	0x5a
 1953 0758 A9000000 		.4byte	0xa9
 1954 075c 41       		.byte	0x41
 1955 075d 0B       		.uleb128 0xb
ARM GAS  C:\Users\jmori\AppData\Local\Temp\ccYuPisP.s 			page 65


 1956 075e 88060000 		.4byte	.LASF124
 1957 0762 08       		.byte	0x8
 1958 0763 5B       		.byte	0x5b
 1959 0764 A9000000 		.4byte	0xa9
 1960 0768 42       		.byte	0x42
 1961 0769 0B       		.uleb128 0xb
 1962 076a CD060000 		.4byte	.LASF125
 1963 076e 08       		.byte	0x8
 1964 076f 5C       		.byte	0x5c
 1965 0770 A9000000 		.4byte	0xa9
 1966 0774 43       		.byte	0x43
 1967 0775 0B       		.uleb128 0xb
 1968 0776 B7020000 		.4byte	.LASF126
 1969 077a 08       		.byte	0x8
 1970 077b 5D       		.byte	0x5d
 1971 077c A9000000 		.4byte	0xa9
 1972 0780 44       		.byte	0x44
 1973 0781 0B       		.uleb128 0xb
 1974 0782 00000000 		.4byte	.LASF127
 1975 0786 08       		.byte	0x8
 1976 0787 5E       		.byte	0x5e
 1977 0788 D5000000 		.4byte	0xd5
 1978 078c 48       		.byte	0x48
 1979 078d 0B       		.uleb128 0xb
 1980 078e 08030000 		.4byte	.LASF128
 1981 0792 08       		.byte	0x8
 1982 0793 5F       		.byte	0x5f
 1983 0794 D5000000 		.4byte	0xd5
 1984 0798 4C       		.byte	0x4c
 1985 0799 0B       		.uleb128 0xb
 1986 079a 210D0000 		.4byte	.LASF129
 1987 079e 08       		.byte	0x8
 1988 079f 60       		.byte	0x60
 1989 07a0 A9000000 		.4byte	0xa9
 1990 07a4 50       		.byte	0x50
 1991 07a5 0B       		.uleb128 0xb
 1992 07a6 73010000 		.4byte	.LASF130
 1993 07aa 08       		.byte	0x8
 1994 07ab 61       		.byte	0x61
 1995 07ac A9000000 		.4byte	0xa9
 1996 07b0 51       		.byte	0x51
 1997 07b1 0B       		.uleb128 0xb
 1998 07b2 370C0000 		.4byte	.LASF131
 1999 07b6 08       		.byte	0x8
 2000 07b7 62       		.byte	0x62
 2001 07b8 A9000000 		.4byte	0xa9
 2002 07bc 52       		.byte	0x52
 2003 07bd 0B       		.uleb128 0xb
 2004 07be 930A0000 		.4byte	.LASF132
 2005 07c2 08       		.byte	0x8
 2006 07c3 63       		.byte	0x63
 2007 07c4 A9000000 		.4byte	0xa9
 2008 07c8 53       		.byte	0x53
 2009 07c9 0B       		.uleb128 0xb
 2010 07ca 79090000 		.4byte	.LASF133
 2011 07ce 08       		.byte	0x8
 2012 07cf 64       		.byte	0x64
ARM GAS  C:\Users\jmori\AppData\Local\Temp\ccYuPisP.s 			page 66


 2013 07d0 A9000000 		.4byte	0xa9
 2014 07d4 54       		.byte	0x54
 2015 07d5 0B       		.uleb128 0xb
 2016 07d6 85010000 		.4byte	.LASF134
 2017 07da 08       		.byte	0x8
 2018 07db 65       		.byte	0x65
 2019 07dc A9000000 		.4byte	0xa9
 2020 07e0 55       		.byte	0x55
 2021 07e1 0B       		.uleb128 0xb
 2022 07e2 F6090000 		.4byte	.LASF135
 2023 07e6 08       		.byte	0x8
 2024 07e7 66       		.byte	0x66
 2025 07e8 A9000000 		.4byte	0xa9
 2026 07ec 56       		.byte	0x56
 2027 07ed 0B       		.uleb128 0xb
 2028 07ee E6040000 		.4byte	.LASF136
 2029 07f2 08       		.byte	0x8
 2030 07f3 67       		.byte	0x67
 2031 07f4 A9000000 		.4byte	0xa9
 2032 07f8 57       		.byte	0x57
 2033 07f9 0B       		.uleb128 0xb
 2034 07fa 1C000000 		.4byte	.LASF137
 2035 07fe 08       		.byte	0x8
 2036 07ff 68       		.byte	0x68
 2037 0800 A9000000 		.4byte	0xa9
 2038 0804 58       		.byte	0x58
 2039 0805 0B       		.uleb128 0xb
 2040 0806 9B080000 		.4byte	.LASF138
 2041 080a 08       		.byte	0x8
 2042 080b 69       		.byte	0x69
 2043 080c A9000000 		.4byte	0xa9
 2044 0810 59       		.byte	0x59
 2045 0811 0B       		.uleb128 0xb
 2046 0812 5B060000 		.4byte	.LASF139
 2047 0816 08       		.byte	0x8
 2048 0817 6E       		.byte	0x6e
 2049 0818 BF000000 		.4byte	0xbf
 2050 081c 5A       		.byte	0x5a
 2051 081d 0B       		.uleb128 0xb
 2052 081e E50A0000 		.4byte	.LASF140
 2053 0822 08       		.byte	0x8
 2054 0823 6F       		.byte	0x6f
 2055 0824 BF000000 		.4byte	0xbf
 2056 0828 5C       		.byte	0x5c
 2057 0829 0B       		.uleb128 0xb
 2058 082a 10010000 		.4byte	.LASF141
 2059 082e 08       		.byte	0x8
 2060 082f 70       		.byte	0x70
 2061 0830 A9000000 		.4byte	0xa9
 2062 0834 5E       		.byte	0x5e
 2063 0835 0B       		.uleb128 0xb
 2064 0836 2F080000 		.4byte	.LASF142
 2065 083a 08       		.byte	0x8
 2066 083b 71       		.byte	0x71
 2067 083c A9000000 		.4byte	0xa9
 2068 0840 5F       		.byte	0x5f
 2069 0841 0B       		.uleb128 0xb
ARM GAS  C:\Users\jmori\AppData\Local\Temp\ccYuPisP.s 			page 67


 2070 0842 BC060000 		.4byte	.LASF143
 2071 0846 08       		.byte	0x8
 2072 0847 72       		.byte	0x72
 2073 0848 A9000000 		.4byte	0xa9
 2074 084c 60       		.byte	0x60
 2075 084d 0B       		.uleb128 0xb
 2076 084e E6070000 		.4byte	.LASF144
 2077 0852 08       		.byte	0x8
 2078 0853 73       		.byte	0x73
 2079 0854 D5000000 		.4byte	0xd5
 2080 0858 64       		.byte	0x64
 2081 0859 0B       		.uleb128 0xb
 2082 085a 3D010000 		.4byte	.LASF145
 2083 085e 08       		.byte	0x8
 2084 085f 76       		.byte	0x76
 2085 0860 BF000000 		.4byte	0xbf
 2086 0864 68       		.byte	0x68
 2087 0865 0B       		.uleb128 0xb
 2088 0866 38060000 		.4byte	.LASF146
 2089 086a 08       		.byte	0x8
 2090 086b 77       		.byte	0x77
 2091 086c BF000000 		.4byte	0xbf
 2092 0870 6A       		.byte	0x6a
 2093 0871 0B       		.uleb128 0xb
 2094 0872 FF040000 		.4byte	.LASF147
 2095 0876 08       		.byte	0x8
 2096 0877 78       		.byte	0x78
 2097 0878 BF000000 		.4byte	0xbf
 2098 087c 6C       		.byte	0x6c
 2099 087d 0B       		.uleb128 0xb
 2100 087e A4090000 		.4byte	.LASF148
 2101 0882 08       		.byte	0x8
 2102 0883 79       		.byte	0x79
 2103 0884 BF000000 		.4byte	0xbf
 2104 0888 6E       		.byte	0x6e
 2105 0889 0B       		.uleb128 0xb
 2106 088a 1E090000 		.4byte	.LASF149
 2107 088e 08       		.byte	0x8
 2108 088f 7B       		.byte	0x7b
 2109 0890 A9000000 		.4byte	0xa9
 2110 0894 70       		.byte	0x70
 2111 0895 0B       		.uleb128 0xb
 2112 0896 C2010000 		.4byte	.LASF150
 2113 089a 08       		.byte	0x8
 2114 089b 7C       		.byte	0x7c
 2115 089c A9000000 		.4byte	0xa9
 2116 08a0 71       		.byte	0x71
 2117 08a1 0B       		.uleb128 0xb
 2118 08a2 B4030000 		.4byte	.LASF151
 2119 08a6 08       		.byte	0x8
 2120 08a7 7D       		.byte	0x7d
 2121 08a8 A9000000 		.4byte	0xa9
 2122 08ac 72       		.byte	0x72
 2123 08ad 0B       		.uleb128 0xb
 2124 08ae 71060000 		.4byte	.LASF152
 2125 08b2 08       		.byte	0x8
 2126 08b3 7E       		.byte	0x7e
ARM GAS  C:\Users\jmori\AppData\Local\Temp\ccYuPisP.s 			page 68


 2127 08b4 A9000000 		.4byte	0xa9
 2128 08b8 73       		.byte	0x73
 2129 08b9 0B       		.uleb128 0xb
 2130 08ba 16030000 		.4byte	.LASF153
 2131 08be 08       		.byte	0x8
 2132 08bf 80       		.byte	0x80
 2133 08c0 BF000000 		.4byte	0xbf
 2134 08c4 74       		.byte	0x74
 2135 08c5 0B       		.uleb128 0xb
 2136 08c6 430A0000 		.4byte	.LASF154
 2137 08ca 08       		.byte	0x8
 2138 08cb 81       		.byte	0x81
 2139 08cc BF000000 		.4byte	0xbf
 2140 08d0 76       		.byte	0x76
 2141 08d1 0B       		.uleb128 0xb
 2142 08d2 E3020000 		.4byte	.LASF155
 2143 08d6 08       		.byte	0x8
 2144 08d7 82       		.byte	0x82
 2145 08d8 BF000000 		.4byte	0xbf
 2146 08dc 78       		.byte	0x78
 2147 08dd 0B       		.uleb128 0xb
 2148 08de C8080000 		.4byte	.LASF156
 2149 08e2 08       		.byte	0x8
 2150 08e3 83       		.byte	0x83
 2151 08e4 BF000000 		.4byte	0xbf
 2152 08e8 7A       		.byte	0x7a
 2153 08e9 0B       		.uleb128 0xb
 2154 08ea 6B0C0000 		.4byte	.LASF157
 2155 08ee 08       		.byte	0x8
 2156 08ef 86       		.byte	0x86
 2157 08f0 A9000000 		.4byte	0xa9
 2158 08f4 7C       		.byte	0x7c
 2159 08f5 0B       		.uleb128 0xb
 2160 08f6 60050000 		.4byte	.LASF158
 2161 08fa 08       		.byte	0x8
 2162 08fb 87       		.byte	0x87
 2163 08fc A9000000 		.4byte	0xa9
 2164 0900 7D       		.byte	0x7d
 2165 0901 0B       		.uleb128 0xb
 2166 0902 30000000 		.4byte	.LASF159
 2167 0906 08       		.byte	0x8
 2168 0907 88       		.byte	0x88
 2169 0908 A9000000 		.4byte	0xa9
 2170 090c 7E       		.byte	0x7e
 2171 090d 0B       		.uleb128 0xb
 2172 090e 28030000 		.4byte	.LASF160
 2173 0912 08       		.byte	0x8
 2174 0913 89       		.byte	0x89
 2175 0914 A9000000 		.4byte	0xa9
 2176 0918 7F       		.byte	0x7f
 2177 0919 0B       		.uleb128 0xb
 2178 091a 4D010000 		.4byte	.LASF161
 2179 091e 08       		.byte	0x8
 2180 091f 8A       		.byte	0x8a
 2181 0920 A9000000 		.4byte	0xa9
 2182 0924 80       		.byte	0x80
 2183 0925 0B       		.uleb128 0xb
ARM GAS  C:\Users\jmori\AppData\Local\Temp\ccYuPisP.s 			page 69


 2184 0926 CA050000 		.4byte	.LASF162
 2185 092a 08       		.byte	0x8
 2186 092b 8D       		.byte	0x8d
 2187 092c D5000000 		.4byte	0xd5
 2188 0930 84       		.byte	0x84
 2189 0931 0B       		.uleb128 0xb
 2190 0932 CC000000 		.4byte	.LASF163
 2191 0936 08       		.byte	0x8
 2192 0937 8E       		.byte	0x8e
 2193 0938 D5000000 		.4byte	0xd5
 2194 093c 88       		.byte	0x88
 2195 093d 0B       		.uleb128 0xb
 2196 093e 420B0000 		.4byte	.LASF164
 2197 0942 08       		.byte	0x8
 2198 0943 8F       		.byte	0x8f
 2199 0944 D5000000 		.4byte	0xd5
 2200 0948 8C       		.byte	0x8c
 2201 0949 0B       		.uleb128 0xb
 2202 094a 01040000 		.4byte	.LASF165
 2203 094e 08       		.byte	0x8
 2204 094f 90       		.byte	0x90
 2205 0950 D5000000 		.4byte	0xd5
 2206 0954 90       		.byte	0x90
 2207 0955 0B       		.uleb128 0xb
 2208 0956 D8030000 		.4byte	.LASF166
 2209 095a 08       		.byte	0x8
 2210 095b 91       		.byte	0x91
 2211 095c D5000000 		.4byte	0xd5
 2212 0960 94       		.byte	0x94
 2213 0961 0B       		.uleb128 0xb
 2214 0962 B4050000 		.4byte	.LASF167
 2215 0966 08       		.byte	0x8
 2216 0967 92       		.byte	0x92
 2217 0968 D5000000 		.4byte	0xd5
 2218 096c 98       		.byte	0x98
 2219 096d 0B       		.uleb128 0xb
 2220 096e AB0C0000 		.4byte	.LASF168
 2221 0972 08       		.byte	0x8
 2222 0973 93       		.byte	0x93
 2223 0974 D5000000 		.4byte	0xd5
 2224 0978 9C       		.byte	0x9c
 2225 0979 0B       		.uleb128 0xb
 2226 097a 32090000 		.4byte	.LASF169
 2227 097e 08       		.byte	0x8
 2228 097f 94       		.byte	0x94
 2229 0980 D5000000 		.4byte	0xd5
 2230 0984 A0       		.byte	0xa0
 2231 0985 0B       		.uleb128 0xb
 2232 0986 F3010000 		.4byte	.LASF170
 2233 098a 08       		.byte	0x8
 2234 098b 95       		.byte	0x95
 2235 098c BF000000 		.4byte	0xbf
 2236 0990 A4       		.byte	0xa4
 2237 0991 0B       		.uleb128 0xb
 2238 0992 220C0000 		.4byte	.LASF171
 2239 0996 08       		.byte	0x8
 2240 0997 96       		.byte	0x96
ARM GAS  C:\Users\jmori\AppData\Local\Temp\ccYuPisP.s 			page 70


 2241 0998 BF000000 		.4byte	0xbf
 2242 099c A6       		.byte	0xa6
 2243 099d 0B       		.uleb128 0xb
 2244 099e 15080000 		.4byte	.LASF172
 2245 09a2 08       		.byte	0x8
 2246 09a3 97       		.byte	0x97
 2247 09a4 BF000000 		.4byte	0xbf
 2248 09a8 A8       		.byte	0xa8
 2249 09a9 0B       		.uleb128 0xb
 2250 09aa E7080000 		.4byte	.LASF173
 2251 09ae 08       		.byte	0x8
 2252 09af 98       		.byte	0x98
 2253 09b0 BF000000 		.4byte	0xbf
 2254 09b4 AA       		.byte	0xaa
 2255 09b5 0B       		.uleb128 0xb
 2256 09b6 1E050000 		.4byte	.LASF174
 2257 09ba 08       		.byte	0x8
 2258 09bb 99       		.byte	0x99
 2259 09bc BF000000 		.4byte	0xbf
 2260 09c0 AC       		.byte	0xac
 2261 09c1 0B       		.uleb128 0xb
 2262 09c2 84000000 		.4byte	.LASF175
 2263 09c6 08       		.byte	0x8
 2264 09c7 9A       		.byte	0x9a
 2265 09c8 BF000000 		.4byte	0xbf
 2266 09cc AE       		.byte	0xae
 2267 09cd 0B       		.uleb128 0xb
 2268 09ce 0E070000 		.4byte	.LASF176
 2269 09d2 08       		.byte	0x8
 2270 09d3 9D       		.byte	0x9d
 2271 09d4 BF000000 		.4byte	0xbf
 2272 09d8 B0       		.byte	0xb0
 2273 09d9 0B       		.uleb128 0xb
 2274 09da 71030000 		.4byte	.LASF177
 2275 09de 08       		.byte	0x8
 2276 09df 9E       		.byte	0x9e
 2277 09e0 D5000000 		.4byte	0xd5
 2278 09e4 B4       		.byte	0xb4
 2279 09e5 00       		.byte	0
 2280 09e6 03       		.uleb128 0x3
 2281 09e7 7D050000 		.4byte	.LASF178
 2282 09eb 08       		.byte	0x8
 2283 09ec 9F       		.byte	0x9f
 2284 09ed D5050000 		.4byte	0x5d5
 2285 09f1 0D       		.uleb128 0xd
 2286 09f2 44040000 		.4byte	.LASF179
 2287 09f6 09       		.byte	0x9
 2288 09f7 F601     		.2byte	0x1f6
 2289 09f9 FD090000 		.4byte	0x9fd
 2290 09fd 02       		.uleb128 0x2
 2291 09fe 01       		.byte	0x1
 2292 09ff 08       		.byte	0x8
 2293 0a00 E7090000 		.4byte	.LASF180
 2294 0a04 0D       		.uleb128 0xd
 2295 0a05 890A0000 		.4byte	.LASF181
 2296 0a09 09       		.byte	0x9
 2297 0a0a F701     		.2byte	0x1f7
ARM GAS  C:\Users\jmori\AppData\Local\Temp\ccYuPisP.s 			page 71


 2298 0a0c 25000000 		.4byte	0x25
 2299 0a10 02       		.uleb128 0x2
 2300 0a11 08       		.byte	0x8
 2301 0a12 04       		.byte	0x4
 2302 0a13 DC020000 		.4byte	.LASF182
 2303 0a17 0F       		.uleb128 0xf
 2304 0a18 04       		.byte	0x4
 2305 0a19 02       		.uleb128 0x2
 2306 0a1a 01       		.byte	0x1
 2307 0a1b 02       		.byte	0x2
 2308 0a1c 6F080000 		.4byte	.LASF183
 2309 0a20 10       		.uleb128 0x10
 2310 0a21 04       		.byte	0x4
 2311 0a22 260A0000 		.4byte	0xa26
 2312 0a26 11       		.uleb128 0x11
 2313 0a27 310A0000 		.4byte	0xa31
 2314 0a2b 12       		.uleb128 0x12
 2315 0a2c D5000000 		.4byte	0xd5
 2316 0a30 00       		.byte	0
 2317 0a31 0D       		.uleb128 0xd
 2318 0a32 A3040000 		.4byte	.LASF184
 2319 0a36 02       		.byte	0x2
 2320 0a37 D901     		.2byte	0x1d9
 2321 0a39 200A0000 		.4byte	0xa20
 2322 0a3d 13       		.uleb128 0x13
 2323 0a3e F10C0000 		.4byte	.LASF241
 2324 0a42 38       		.byte	0x38
 2325 0a43 02       		.byte	0x2
 2326 0a44 7502     		.2byte	0x275
 2327 0a46 010B0000 		.4byte	0xb01
 2328 0a4a 14       		.uleb128 0x14
 2329 0a4b C90C0000 		.4byte	.LASF185
 2330 0a4f 02       		.byte	0x2
 2331 0a50 7802     		.2byte	0x278
 2332 0a52 E7000000 		.4byte	0xe7
 2333 0a56 00       		.byte	0
 2334 0a57 14       		.uleb128 0x14
 2335 0a58 DF060000 		.4byte	.LASF186
 2336 0a5c 02       		.byte	0x2
 2337 0a5d 7902     		.2byte	0x279
 2338 0a5f E7000000 		.4byte	0xe7
 2339 0a63 04       		.byte	0x4
 2340 0a64 14       		.uleb128 0x14
 2341 0a65 43000000 		.4byte	.LASF187
 2342 0a69 02       		.byte	0x2
 2343 0a6a 7B02     		.2byte	0x27b
 2344 0a6c 170A0000 		.4byte	0xa17
 2345 0a70 08       		.byte	0x8
 2346 0a71 14       		.uleb128 0x14
 2347 0a72 BA0A0000 		.4byte	.LASF188
 2348 0a76 02       		.byte	0x2
 2349 0a77 7C02     		.2byte	0x27c
 2350 0a79 D5000000 		.4byte	0xd5
 2351 0a7d 0C       		.byte	0xc
 2352 0a7e 14       		.uleb128 0x14
 2353 0a7f AC0A0000 		.4byte	.LASF189
 2354 0a83 02       		.byte	0x2
ARM GAS  C:\Users\jmori\AppData\Local\Temp\ccYuPisP.s 			page 72


 2355 0a84 7D02     		.2byte	0x27d
 2356 0a86 E7000000 		.4byte	0xe7
 2357 0a8a 10       		.byte	0x10
 2358 0a8b 14       		.uleb128 0x14
 2359 0a8c 8C0C0000 		.4byte	.LASF190
 2360 0a90 02       		.byte	0x2
 2361 0a91 7E02     		.2byte	0x27e
 2362 0a93 E7000000 		.4byte	0xe7
 2363 0a97 14       		.byte	0x14
 2364 0a98 14       		.uleb128 0x14
 2365 0a99 6B030000 		.4byte	.LASF191
 2366 0a9d 02       		.byte	0x2
 2367 0a9e 8002     		.2byte	0x280
 2368 0aa0 170A0000 		.4byte	0xa17
 2369 0aa4 18       		.byte	0x18
 2370 0aa5 14       		.uleb128 0x14
 2371 0aa6 12000000 		.4byte	.LASF192
 2372 0aaa 02       		.byte	0x2
 2373 0aab 8102     		.2byte	0x281
 2374 0aad D5000000 		.4byte	0xd5
 2375 0ab1 1C       		.byte	0x1c
 2376 0ab2 14       		.uleb128 0x14
 2377 0ab3 8F030000 		.4byte	.LASF193
 2378 0ab7 02       		.byte	0x2
 2379 0ab8 8202     		.2byte	0x282
 2380 0aba E7000000 		.4byte	0xe7
 2381 0abe 20       		.byte	0x20
 2382 0abf 14       		.uleb128 0x14
 2383 0ac0 6D010000 		.4byte	.LASF194
 2384 0ac4 02       		.byte	0x2
 2385 0ac5 8402     		.2byte	0x284
 2386 0ac7 170A0000 		.4byte	0xa17
 2387 0acb 24       		.byte	0x24
 2388 0acc 14       		.uleb128 0x14
 2389 0acd ED030000 		.4byte	.LASF195
 2390 0ad1 02       		.byte	0x2
 2391 0ad2 8502     		.2byte	0x285
 2392 0ad4 D5000000 		.4byte	0xd5
 2393 0ad8 28       		.byte	0x28
 2394 0ad9 14       		.uleb128 0x14
 2395 0ada F5080000 		.4byte	.LASF196
 2396 0ade 02       		.byte	0x2
 2397 0adf 8602     		.2byte	0x286
 2398 0ae1 E7000000 		.4byte	0xe7
 2399 0ae5 2C       		.byte	0x2c
 2400 0ae6 14       		.uleb128 0x14
 2401 0ae7 57050000 		.4byte	.LASF197
 2402 0aeb 02       		.byte	0x2
 2403 0aec 8B02     		.2byte	0x28b
 2404 0aee 310A0000 		.4byte	0xa31
 2405 0af2 30       		.byte	0x30
 2406 0af3 14       		.uleb128 0x14
 2407 0af4 570B0000 		.4byte	.LASF198
 2408 0af8 02       		.byte	0x2
 2409 0af9 8E02     		.2byte	0x28e
 2410 0afb D5000000 		.4byte	0xd5
 2411 0aff 34       		.byte	0x34
ARM GAS  C:\Users\jmori\AppData\Local\Temp\ccYuPisP.s 			page 73


 2412 0b00 00       		.byte	0
 2413 0b01 0D       		.uleb128 0xd
 2414 0b02 720B0000 		.4byte	.LASF199
 2415 0b06 02       		.byte	0x2
 2416 0b07 9102     		.2byte	0x291
 2417 0b09 3D0A0000 		.4byte	0xa3d
 2418 0b0d 15       		.uleb128 0x15
 2419 0b0e 0C       		.byte	0xc
 2420 0b0f 0A       		.byte	0xa
 2421 0b10 1004     		.2byte	0x410
 2422 0b12 3E0B0000 		.4byte	0xb3e
 2423 0b16 14       		.uleb128 0x14
 2424 0b17 0F090000 		.4byte	.LASF200
 2425 0b1b 0A       		.byte	0xa
 2426 0b1c 1204     		.2byte	0x412
 2427 0b1e BF000000 		.4byte	0xbf
 2428 0b22 00       		.byte	0
 2429 0b23 14       		.uleb128 0x14
 2430 0b24 A50A0000 		.4byte	.LASF201
 2431 0b28 0A       		.byte	0xa
 2432 0b29 1304     		.2byte	0x413
 2433 0b2b 3E0B0000 		.4byte	0xb3e
 2434 0b2f 04       		.byte	0x4
 2435 0b30 14       		.uleb128 0x14
 2436 0b31 C10C0000 		.4byte	.LASF202
 2437 0b35 0A       		.byte	0xa
 2438 0b36 1404     		.2byte	0x414
 2439 0b38 3E0B0000 		.4byte	0xb3e
 2440 0b3c 08       		.byte	0x8
 2441 0b3d 00       		.byte	0
 2442 0b3e 10       		.uleb128 0x10
 2443 0b3f 04       		.byte	0x4
 2444 0b40 040A0000 		.4byte	0xa04
 2445 0b44 0D       		.uleb128 0xd
 2446 0b45 A1010000 		.4byte	.LASF203
 2447 0b49 0A       		.byte	0xa
 2448 0b4a 1504     		.2byte	0x415
 2449 0b4c 0D0B0000 		.4byte	0xb0d
 2450 0b50 06       		.uleb128 0x6
 2451 0b51 040A0000 		.4byte	0xa04
 2452 0b55 16       		.uleb128 0x16
 2453 0b56 E3000000 		.4byte	.LASF242
 2454 0b5a 03       		.byte	0x3
 2455 0b5b 81       		.byte	0x81
 2456 0b5c 03       		.byte	0x3
 2457 0b5d 17       		.uleb128 0x17
 2458 0b5e 5F090000 		.4byte	.LASF206
 2459 0b62 0B       		.byte	0xb
 2460 0b63 A001     		.2byte	0x1a0
 2461 0b65 D5000000 		.4byte	0xd5
 2462 0b69 03       		.byte	0x3
 2463 0b6a 870B0000 		.4byte	0xb87
 2464 0b6e 18       		.uleb128 0x18
 2465 0b6f 17090000 		.4byte	.LASF204
 2466 0b73 0B       		.byte	0xb
 2467 0b74 A001     		.2byte	0x1a0
 2468 0b76 170A0000 		.4byte	0xa17
ARM GAS  C:\Users\jmori\AppData\Local\Temp\ccYuPisP.s 			page 74


 2469 0b7a 18       		.uleb128 0x18
 2470 0b7b FA040000 		.4byte	.LASF205
 2471 0b7f 0B       		.byte	0xb
 2472 0b80 A001     		.2byte	0x1a0
 2473 0b82 D5000000 		.4byte	0xd5
 2474 0b86 00       		.byte	0
 2475 0b87 17       		.uleb128 0x17
 2476 0b88 96050000 		.4byte	.LASF207
 2477 0b8c 02       		.byte	0x2
 2478 0b8d 7105     		.2byte	0x571
 2479 0b8f D5000000 		.4byte	0xd5
 2480 0b93 03       		.byte	0x3
 2481 0b94 BD0B0000 		.4byte	0xbbd
 2482 0b98 18       		.uleb128 0x18
 2483 0b99 E9050000 		.4byte	.LASF208
 2484 0b9d 02       		.byte	0x2
 2485 0b9e 7105     		.2byte	0x571
 2486 0ba0 BD0B0000 		.4byte	0xbbd
 2487 0ba4 18       		.uleb128 0x18
 2488 0ba5 17090000 		.4byte	.LASF204
 2489 0ba9 02       		.byte	0x2
 2490 0baa 7105     		.2byte	0x571
 2491 0bac 170A0000 		.4byte	0xa17
 2492 0bb0 18       		.uleb128 0x18
 2493 0bb1 FA040000 		.4byte	.LASF205
 2494 0bb5 02       		.byte	0x2
 2495 0bb6 7105     		.2byte	0x571
 2496 0bb8 D5000000 		.4byte	0xd5
 2497 0bbc 00       		.byte	0
 2498 0bbd 10       		.uleb128 0x10
 2499 0bbe 04       		.byte	0x4
 2500 0bbf C2050000 		.4byte	0x5c2
 2501 0bc3 19       		.uleb128 0x19
 2502 0bc4 E40C0000 		.4byte	.LASF243
 2503 0bc8 01       		.byte	0x1
 2504 0bc9 40       		.byte	0x40
 2505 0bca 9B000000 		.4byte	0x9b
 2506 0bce 00000000 		.4byte	.LFB518
 2507 0bd2 9C010000 		.4byte	.LFE518-.LFB518
 2508 0bd6 01       		.uleb128 0x1
 2509 0bd7 9C       		.byte	0x9c
 2510 0bd8 F20E0000 		.4byte	0xef2
 2511 0bdc 1A       		.uleb128 0x1a
 2512 0bdd 1F010000 		.4byte	.LASF209
 2513 0be1 01       		.byte	0x1
 2514 0be2 4B       		.byte	0x4b
 2515 0be3 F20E0000 		.4byte	0xef2
 2516 0be7 03       		.uleb128 0x3
 2517 0be8 91       		.byte	0x91
 2518 0be9 8078     		.sleb128 -1024
 2519 0beb 1A       		.uleb128 0x1a
 2520 0bec 5F020000 		.4byte	.LASF210
 2521 0bf0 01       		.byte	0x1
 2522 0bf1 66       		.byte	0x66
 2523 0bf2 F20E0000 		.4byte	0xef2
 2524 0bf6 03       		.uleb128 0x3
 2525 0bf7 91       		.byte	0x91
ARM GAS  C:\Users\jmori\AppData\Local\Temp\ccYuPisP.s 			page 75


 2526 0bf8 9870     		.sleb128 -2024
 2527 0bfa 1A       		.uleb128 0x1a
 2528 0bfb 660C0000 		.4byte	.LASF211
 2529 0bff 01       		.byte	0x1
 2530 0c00 82       		.byte	0x82
 2531 0c01 25000000 		.4byte	0x25
 2532 0c05 03       		.uleb128 0x3
 2533 0c06 91       		.byte	0x91
 2534 0c07 9470     		.sleb128 -2028
 2535 0c09 1A       		.uleb128 0x1a
 2536 0c0a 21080000 		.4byte	.LASF212
 2537 0c0e 01       		.byte	0x1
 2538 0c0f 83       		.byte	0x83
 2539 0c10 25000000 		.4byte	0x25
 2540 0c14 03       		.uleb128 0x3
 2541 0c15 91       		.byte	0x91
 2542 0c16 9070     		.sleb128 -2032
 2543 0c18 1A       		.uleb128 0x1a
 2544 0c19 56090000 		.4byte	.LASF213
 2545 0c1d 01       		.byte	0x1
 2546 0c1e 89       		.byte	0x89
 2547 0c1f F20E0000 		.4byte	0xef2
 2548 0c23 03       		.uleb128 0x3
 2549 0c24 91       		.byte	0x91
 2550 0c25 A868     		.sleb128 -3032
 2551 0c27 1A       		.uleb128 0x1a
 2552 0c28 F7030000 		.4byte	.LASF214
 2553 0c2c 01       		.byte	0x1
 2554 0c2d 8A       		.byte	0x8a
 2555 0c2e F20E0000 		.4byte	0xef2
 2556 0c32 03       		.uleb128 0x3
 2557 0c33 91       		.byte	0x91
 2558 0c34 C060     		.sleb128 -4032
 2559 0c36 1A       		.uleb128 0x1a
 2560 0c37 51050000 		.4byte	.LASF215
 2561 0c3b 01       		.byte	0x1
 2562 0c3c 8B       		.byte	0x8b
 2563 0c3d 25000000 		.4byte	0x25
 2564 0c41 03       		.uleb128 0x3
 2565 0c42 91       		.byte	0x91
 2566 0c43 BC60     		.sleb128 -4036
 2567 0c45 1A       		.uleb128 0x1a
 2568 0c46 09010000 		.4byte	.LASF216
 2569 0c4a 01       		.byte	0x1
 2570 0c4b 8C       		.byte	0x8c
 2571 0c4c 25000000 		.4byte	0x25
 2572 0c50 03       		.uleb128 0x3
 2573 0c51 91       		.byte	0x91
 2574 0c52 B860     		.sleb128 -4040
 2575 0c54 1A       		.uleb128 0x1a
 2576 0c55 4B040000 		.4byte	.LASF217
 2577 0c59 01       		.byte	0x1
 2578 0c5a 8D       		.byte	0x8d
 2579 0c5b 25000000 		.4byte	0x25
 2580 0c5f 03       		.uleb128 0x3
 2581 0c60 91       		.byte	0x91
 2582 0c61 B460     		.sleb128 -4044
ARM GAS  C:\Users\jmori\AppData\Local\Temp\ccYuPisP.s 			page 76


 2583 0c63 1A       		.uleb128 0x1a
 2584 0c64 7F020000 		.4byte	.LASF218
 2585 0c68 01       		.byte	0x1
 2586 0c69 8E       		.byte	0x8e
 2587 0c6a 25000000 		.4byte	0x25
 2588 0c6e 03       		.uleb128 0x3
 2589 0c6f 91       		.byte	0x91
 2590 0c70 B060     		.sleb128 -4048
 2591 0c72 1A       		.uleb128 0x1a
 2592 0c73 2F040000 		.4byte	.LASF219
 2593 0c77 01       		.byte	0x1
 2594 0c78 8F       		.byte	0x8f
 2595 0c79 D5000000 		.4byte	0xd5
 2596 0c7d 03       		.uleb128 0x3
 2597 0c7e 91       		.byte	0x91
 2598 0c7f AC60     		.sleb128 -4052
 2599 0c81 1B       		.uleb128 0x1b
 2600 0c82 03030000 		.4byte	.LASF220
 2601 0c86 01       		.byte	0x1
 2602 0c87 9A       		.byte	0x9a
 2603 0c88 25000000 		.4byte	0x25
 2604 0c8c 00000000 		.4byte	.LLST0
 2605 0c90 1B       		.uleb128 0x1b
 2606 0c91 C6000000 		.4byte	.LASF221
 2607 0c95 01       		.byte	0x1
 2608 0c96 9B       		.byte	0x9b
 2609 0c97 25000000 		.4byte	0x25
 2610 0c9b 2C000000 		.4byte	.LLST1
 2611 0c9f 1A       		.uleb128 0x1a
 2612 0ca0 17090000 		.4byte	.LASF204
 2613 0ca4 01       		.byte	0x1
 2614 0ca5 9E       		.byte	0x9e
 2615 0ca6 020F0000 		.4byte	0xf02
 2616 0caa 03       		.uleb128 0x3
 2617 0cab 91       		.byte	0x91
 2618 0cac A060     		.sleb128 -4064
 2619 0cae 1C       		.uleb128 0x1c
 2620 0caf 5D0B0000 		.4byte	0xb5d
 2621 0cb3 10010000 		.4byte	.LBB14
 2622 0cb7 0A000000 		.4byte	.LBE14-.LBB14
 2623 0cbb 01       		.byte	0x1
 2624 0cbc A0       		.byte	0xa0
 2625 0cbd 1F0D0000 		.4byte	0xd1f
 2626 0cc1 1D       		.uleb128 0x1d
 2627 0cc2 7A0B0000 		.4byte	0xb7a
 2628 0cc6 58000000 		.4byte	.LLST2
 2629 0cca 1D       		.uleb128 0x1d
 2630 0ccb 6E0B0000 		.4byte	0xb6e
 2631 0ccf 6C000000 		.4byte	.LLST3
 2632 0cd3 1E       		.uleb128 0x1e
 2633 0cd4 870B0000 		.4byte	0xb87
 2634 0cd8 10010000 		.4byte	.LBB15
 2635 0cdc 0A000000 		.4byte	.LBE15-.LBB15
 2636 0ce0 0B       		.byte	0xb
 2637 0ce1 A201     		.2byte	0x1a2
 2638 0ce3 1D       		.uleb128 0x1d
 2639 0ce4 B00B0000 		.4byte	0xbb0
ARM GAS  C:\Users\jmori\AppData\Local\Temp\ccYuPisP.s 			page 77


 2640 0ce8 58000000 		.4byte	.LLST2
 2641 0cec 1D       		.uleb128 0x1d
 2642 0ced A40B0000 		.4byte	0xba4
 2643 0cf1 6C000000 		.4byte	.LLST3
 2644 0cf5 1D       		.uleb128 0x1d
 2645 0cf6 980B0000 		.4byte	0xb98
 2646 0cfa 9B000000 		.4byte	.LLST6
 2647 0cfe 1F       		.uleb128 0x1f
 2648 0cff 1A010000 		.4byte	.LVL19
 2649 0d03 E20F0000 		.4byte	0xfe2
 2650 0d07 20       		.uleb128 0x20
 2651 0d08 01       		.uleb128 0x1
 2652 0d09 50       		.byte	0x50
 2653 0d0a 05       		.uleb128 0x5
 2654 0d0b 0C       		.byte	0xc
 2655 0d0c 00006640 		.4byte	0x40660000
 2656 0d10 20       		.uleb128 0x20
 2657 0d11 01       		.uleb128 0x1
 2658 0d12 51       		.byte	0x51
 2659 0d13 03       		.uleb128 0x3
 2660 0d14 91       		.byte	0x91
 2661 0d15 A060     		.sleb128 -4064
 2662 0d17 20       		.uleb128 0x20
 2663 0d18 01       		.uleb128 0x1
 2664 0d19 52       		.byte	0x52
 2665 0d1a 01       		.uleb128 0x1
 2666 0d1b 3A       		.byte	0x3a
 2667 0d1c 00       		.byte	0
 2668 0d1d 00       		.byte	0
 2669 0d1e 00       		.byte	0
 2670 0d1f 21       		.uleb128 0x21
 2671 0d20 550B0000 		.4byte	0xb55
 2672 0d24 6A010000 		.4byte	.LBB17
 2673 0d28 32000000 		.4byte	.LBE17-.LBB17
 2674 0d2c 01       		.byte	0x1
 2675 0d2d A5       		.byte	0xa5
 2676 0d2e 22       		.uleb128 0x22
 2677 0d2f 0C000000 		.4byte	.LVL0
 2678 0d33 ED0F0000 		.4byte	0xfed
 2679 0d37 23       		.uleb128 0x23
 2680 0d38 26000000 		.4byte	.LVL1
 2681 0d3c F90F0000 		.4byte	0xff9
 2682 0d40 5D0D0000 		.4byte	0xd5d
 2683 0d44 20       		.uleb128 0x20
 2684 0d45 01       		.uleb128 0x1
 2685 0d46 50       		.byte	0x50
 2686 0d47 02       		.uleb128 0x2
 2687 0d48 78       		.byte	0x78
 2688 0d49 00       		.sleb128 0
 2689 0d4a 20       		.uleb128 0x20
 2690 0d4b 01       		.uleb128 0x1
 2691 0d4c 51       		.byte	0x51
 2692 0d4d 02       		.uleb128 0x2
 2693 0d4e 08       		.byte	0x8
 2694 0d4f FD       		.byte	0xfd
 2695 0d50 20       		.uleb128 0x20
 2696 0d51 01       		.uleb128 0x1
ARM GAS  C:\Users\jmori\AppData\Local\Temp\ccYuPisP.s 			page 78


 2697 0d52 52       		.byte	0x52
 2698 0d53 02       		.uleb128 0x2
 2699 0d54 74       		.byte	0x74
 2700 0d55 00       		.sleb128 0
 2701 0d56 20       		.uleb128 0x20
 2702 0d57 01       		.uleb128 0x1
 2703 0d58 53       		.byte	0x53
 2704 0d59 02       		.uleb128 0x2
 2705 0d5a 75       		.byte	0x75
 2706 0d5b 00       		.sleb128 0
 2707 0d5c 00       		.byte	0
 2708 0d5d 23       		.uleb128 0x23
 2709 0d5e 38000000 		.4byte	.LVL2
 2710 0d62 05100000 		.4byte	0x1005
 2711 0d66 7F0D0000 		.4byte	0xd7f
 2712 0d6a 20       		.uleb128 0x20
 2713 0d6b 01       		.uleb128 0x1
 2714 0d6c 50       		.byte	0x50
 2715 0d6d 03       		.uleb128 0x3
 2716 0d6e 91       		.byte	0x91
 2717 0d6f 8078     		.sleb128 -1024
 2718 0d71 20       		.uleb128 0x20
 2719 0d72 01       		.uleb128 0x1
 2720 0d73 51       		.byte	0x51
 2721 0d74 03       		.uleb128 0x3
 2722 0d75 74       		.byte	0x74
 2723 0d76 F407     		.sleb128 1012
 2724 0d78 20       		.uleb128 0x20
 2725 0d79 01       		.uleb128 0x1
 2726 0d7a 52       		.byte	0x52
 2727 0d7b 02       		.uleb128 0x2
 2728 0d7c 76       		.byte	0x76
 2729 0d7d 00       		.sleb128 0
 2730 0d7e 00       		.byte	0
 2731 0d7f 23       		.uleb128 0x23
 2732 0d80 46000000 		.4byte	.LVL3
 2733 0d84 05100000 		.4byte	0x1005
 2734 0d88 A10D0000 		.4byte	0xda1
 2735 0d8c 20       		.uleb128 0x20
 2736 0d8d 01       		.uleb128 0x1
 2737 0d8e 50       		.byte	0x50
 2738 0d8f 03       		.uleb128 0x3
 2739 0d90 91       		.byte	0x91
 2740 0d91 9870     		.sleb128 -2024
 2741 0d93 20       		.uleb128 0x20
 2742 0d94 01       		.uleb128 0x1
 2743 0d95 51       		.byte	0x51
 2744 0d96 03       		.uleb128 0x3
 2745 0d97 74       		.byte	0x74
 2746 0d98 DC0F     		.sleb128 2012
 2747 0d9a 20       		.uleb128 0x20
 2748 0d9b 01       		.uleb128 0x1
 2749 0d9c 52       		.byte	0x52
 2750 0d9d 02       		.uleb128 0x2
 2751 0d9e 76       		.byte	0x76
 2752 0d9f 00       		.sleb128 0
 2753 0da0 00       		.byte	0
ARM GAS  C:\Users\jmori\AppData\Local\Temp\ccYuPisP.s 			page 79


 2754 0da1 23       		.uleb128 0x23
 2755 0da2 60000000 		.4byte	.LVL4
 2756 0da6 0E100000 		.4byte	0x100e
 2757 0daa C20D0000 		.4byte	0xdc2
 2758 0dae 20       		.uleb128 0x20
 2759 0daf 01       		.uleb128 0x1
 2760 0db0 50       		.byte	0x50
 2761 0db1 03       		.uleb128 0x3
 2762 0db2 91       		.byte	0x91
 2763 0db3 8078     		.sleb128 -1024
 2764 0db5 20       		.uleb128 0x20
 2765 0db6 01       		.uleb128 0x1
 2766 0db7 51       		.byte	0x51
 2767 0db8 02       		.uleb128 0x2
 2768 0db9 08       		.byte	0x8
 2769 0dba FA       		.byte	0xfa
 2770 0dbb 20       		.uleb128 0x20
 2771 0dbc 01       		.uleb128 0x1
 2772 0dbd 52       		.byte	0x52
 2773 0dbe 02       		.uleb128 0x2
 2774 0dbf 76       		.byte	0x76
 2775 0dc0 00       		.sleb128 0
 2776 0dc1 00       		.byte	0
 2777 0dc2 23       		.uleb128 0x23
 2778 0dc3 6C000000 		.4byte	.LVL5
 2779 0dc7 0E100000 		.4byte	0x100e
 2780 0dcb E30D0000 		.4byte	0xde3
 2781 0dcf 20       		.uleb128 0x20
 2782 0dd0 01       		.uleb128 0x1
 2783 0dd1 50       		.byte	0x50
 2784 0dd2 03       		.uleb128 0x3
 2785 0dd3 91       		.byte	0x91
 2786 0dd4 9870     		.sleb128 -2024
 2787 0dd6 20       		.uleb128 0x20
 2788 0dd7 01       		.uleb128 0x1
 2789 0dd8 51       		.byte	0x51
 2790 0dd9 02       		.uleb128 0x2
 2791 0dda 08       		.byte	0x8
 2792 0ddb FA       		.byte	0xfa
 2793 0ddc 20       		.uleb128 0x20
 2794 0ddd 01       		.uleb128 0x1
 2795 0dde 52       		.byte	0x52
 2796 0ddf 02       		.uleb128 0x2
 2797 0de0 77       		.byte	0x77
 2798 0de1 00       		.sleb128 0
 2799 0de2 00       		.byte	0
 2800 0de3 23       		.uleb128 0x23
 2801 0de4 88000000 		.4byte	.LVL6
 2802 0de8 1A100000 		.4byte	0x101a
 2803 0dec 0B0E0000 		.4byte	0xe0b
 2804 0df0 20       		.uleb128 0x20
 2805 0df1 01       		.uleb128 0x1
 2806 0df2 50       		.byte	0x50
 2807 0df3 02       		.uleb128 0x2
 2808 0df4 78       		.byte	0x78
 2809 0df5 00       		.sleb128 0
 2810 0df6 20       		.uleb128 0x20
ARM GAS  C:\Users\jmori\AppData\Local\Temp\ccYuPisP.s 			page 80


 2811 0df7 01       		.uleb128 0x1
 2812 0df8 51       		.byte	0x51
 2813 0df9 03       		.uleb128 0x3
 2814 0dfa 91       		.byte	0x91
 2815 0dfb 8078     		.sleb128 -1024
 2816 0dfd 20       		.uleb128 0x20
 2817 0dfe 01       		.uleb128 0x1
 2818 0dff 52       		.byte	0x52
 2819 0e00 03       		.uleb128 0x3
 2820 0e01 91       		.byte	0x91
 2821 0e02 A868     		.sleb128 -3032
 2822 0e04 20       		.uleb128 0x20
 2823 0e05 01       		.uleb128 0x1
 2824 0e06 53       		.byte	0x53
 2825 0e07 02       		.uleb128 0x2
 2826 0e08 08       		.byte	0x8
 2827 0e09 FA       		.byte	0xfa
 2828 0e0a 00       		.byte	0
 2829 0e0b 23       		.uleb128 0x23
 2830 0e0c 96000000 		.4byte	.LVL7
 2831 0e10 1A100000 		.4byte	0x101a
 2832 0e14 330E0000 		.4byte	0xe33
 2833 0e18 20       		.uleb128 0x20
 2834 0e19 01       		.uleb128 0x1
 2835 0e1a 50       		.byte	0x50
 2836 0e1b 02       		.uleb128 0x2
 2837 0e1c 78       		.byte	0x78
 2838 0e1d 00       		.sleb128 0
 2839 0e1e 20       		.uleb128 0x20
 2840 0e1f 01       		.uleb128 0x1
 2841 0e20 51       		.byte	0x51
 2842 0e21 03       		.uleb128 0x3
 2843 0e22 91       		.byte	0x91
 2844 0e23 9870     		.sleb128 -2024
 2845 0e25 20       		.uleb128 0x20
 2846 0e26 01       		.uleb128 0x1
 2847 0e27 52       		.byte	0x52
 2848 0e28 03       		.uleb128 0x3
 2849 0e29 91       		.byte	0x91
 2850 0e2a C060     		.sleb128 -4032
 2851 0e2c 20       		.uleb128 0x20
 2852 0e2d 01       		.uleb128 0x1
 2853 0e2e 53       		.byte	0x53
 2854 0e2f 02       		.uleb128 0x2
 2855 0e30 08       		.byte	0x8
 2856 0e31 FA       		.byte	0xfa
 2857 0e32 00       		.byte	0
 2858 0e33 23       		.uleb128 0x23
 2859 0e34 A4000000 		.4byte	.LVL8
 2860 0e38 26100000 		.4byte	0x1026
 2861 0e3c 5C0E0000 		.4byte	0xe5c
 2862 0e40 20       		.uleb128 0x20
 2863 0e41 01       		.uleb128 0x1
 2864 0e42 50       		.byte	0x50
 2865 0e43 03       		.uleb128 0x3
 2866 0e44 91       		.byte	0x91
 2867 0e45 A868     		.sleb128 -3032
ARM GAS  C:\Users\jmori\AppData\Local\Temp\ccYuPisP.s 			page 81


 2868 0e47 20       		.uleb128 0x20
 2869 0e48 01       		.uleb128 0x1
 2870 0e49 51       		.byte	0x51
 2871 0e4a 02       		.uleb128 0x2
 2872 0e4b 08       		.byte	0x8
 2873 0e4c FA       		.byte	0xfa
 2874 0e4d 20       		.uleb128 0x20
 2875 0e4e 01       		.uleb128 0x1
 2876 0e4f 52       		.byte	0x52
 2877 0e50 03       		.uleb128 0x3
 2878 0e51 91       		.byte	0x91
 2879 0e52 BC60     		.sleb128 -4036
 2880 0e54 20       		.uleb128 0x20
 2881 0e55 01       		.uleb128 0x1
 2882 0e56 53       		.byte	0x53
 2883 0e57 03       		.uleb128 0x3
 2884 0e58 91       		.byte	0x91
 2885 0e59 AC60     		.sleb128 -4052
 2886 0e5b 00       		.byte	0
 2887 0e5c 23       		.uleb128 0x23
 2888 0e5d B0000000 		.4byte	.LVL9
 2889 0e61 26100000 		.4byte	0x1026
 2890 0e65 850E0000 		.4byte	0xe85
 2891 0e69 20       		.uleb128 0x20
 2892 0e6a 01       		.uleb128 0x1
 2893 0e6b 50       		.byte	0x50
 2894 0e6c 03       		.uleb128 0x3
 2895 0e6d 91       		.byte	0x91
 2896 0e6e C060     		.sleb128 -4032
 2897 0e70 20       		.uleb128 0x20
 2898 0e71 01       		.uleb128 0x1
 2899 0e72 51       		.byte	0x51
 2900 0e73 02       		.uleb128 0x2
 2901 0e74 08       		.byte	0x8
 2902 0e75 FA       		.byte	0xfa
 2903 0e76 20       		.uleb128 0x20
 2904 0e77 01       		.uleb128 0x1
 2905 0e78 52       		.byte	0x52
 2906 0e79 03       		.uleb128 0x3
 2907 0e7a 91       		.byte	0x91
 2908 0e7b B860     		.sleb128 -4040
 2909 0e7d 20       		.uleb128 0x20
 2910 0e7e 01       		.uleb128 0x1
 2911 0e7f 53       		.byte	0x53
 2912 0e80 03       		.uleb128 0x3
 2913 0e81 91       		.byte	0x91
 2914 0e82 AC60     		.sleb128 -4052
 2915 0e84 00       		.byte	0
 2916 0e85 23       		.uleb128 0x23
 2917 0e86 BE000000 		.4byte	.LVL10
 2918 0e8a 32100000 		.4byte	0x1032
 2919 0e8e AE0E0000 		.4byte	0xeae
 2920 0e92 20       		.uleb128 0x20
 2921 0e93 01       		.uleb128 0x1
 2922 0e94 50       		.byte	0x50
 2923 0e95 03       		.uleb128 0x3
 2924 0e96 91       		.byte	0x91
ARM GAS  C:\Users\jmori\AppData\Local\Temp\ccYuPisP.s 			page 82


 2925 0e97 A868     		.sleb128 -3032
 2926 0e99 20       		.uleb128 0x20
 2927 0e9a 01       		.uleb128 0x1
 2928 0e9b 51       		.byte	0x51
 2929 0e9c 02       		.uleb128 0x2
 2930 0e9d 08       		.byte	0x8
 2931 0e9e FA       		.byte	0xfa
 2932 0e9f 20       		.uleb128 0x20
 2933 0ea0 01       		.uleb128 0x1
 2934 0ea1 52       		.byte	0x52
 2935 0ea2 03       		.uleb128 0x3
 2936 0ea3 91       		.byte	0x91
 2937 0ea4 B460     		.sleb128 -4044
 2938 0ea6 20       		.uleb128 0x20
 2939 0ea7 01       		.uleb128 0x1
 2940 0ea8 53       		.byte	0x53
 2941 0ea9 03       		.uleb128 0x3
 2942 0eaa 91       		.byte	0x91
 2943 0eab AC60     		.sleb128 -4052
 2944 0ead 00       		.byte	0
 2945 0eae 23       		.uleb128 0x23
 2946 0eaf CA000000 		.4byte	.LVL11
 2947 0eb3 32100000 		.4byte	0x1032
 2948 0eb7 D70E0000 		.4byte	0xed7
 2949 0ebb 20       		.uleb128 0x20
 2950 0ebc 01       		.uleb128 0x1
 2951 0ebd 50       		.byte	0x50
 2952 0ebe 03       		.uleb128 0x3
 2953 0ebf 91       		.byte	0x91
 2954 0ec0 C060     		.sleb128 -4032
 2955 0ec2 20       		.uleb128 0x20
 2956 0ec3 01       		.uleb128 0x1
 2957 0ec4 51       		.byte	0x51
 2958 0ec5 02       		.uleb128 0x2
 2959 0ec6 08       		.byte	0x8
 2960 0ec7 FA       		.byte	0xfa
 2961 0ec8 20       		.uleb128 0x20
 2962 0ec9 01       		.uleb128 0x1
 2963 0eca 52       		.byte	0x52
 2964 0ecb 03       		.uleb128 0x3
 2965 0ecc 91       		.byte	0x91
 2966 0ecd B060     		.sleb128 -4048
 2967 0ecf 20       		.uleb128 0x20
 2968 0ed0 01       		.uleb128 0x1
 2969 0ed1 53       		.byte	0x53
 2970 0ed2 03       		.uleb128 0x3
 2971 0ed3 91       		.byte	0x91
 2972 0ed4 AC60     		.sleb128 -4052
 2973 0ed6 00       		.byte	0
 2974 0ed7 1F       		.uleb128 0x1f
 2975 0ed8 10010000 		.4byte	.LVL17
 2976 0edc 3E100000 		.4byte	0x103e
 2977 0ee0 20       		.uleb128 0x20
 2978 0ee1 01       		.uleb128 0x1
 2979 0ee2 50       		.byte	0x50
 2980 0ee3 03       		.uleb128 0x3
 2981 0ee4 91       		.byte	0x91
ARM GAS  C:\Users\jmori\AppData\Local\Temp\ccYuPisP.s 			page 83


 2982 0ee5 A060     		.sleb128 -4064
 2983 0ee7 20       		.uleb128 0x20
 2984 0ee8 01       		.uleb128 0x1
 2985 0ee9 51       		.byte	0x51
 2986 0eea 05       		.uleb128 0x5
 2987 0eeb 03       		.byte	0x3
 2988 0eec 00000000 		.4byte	.LC2
 2989 0ef0 00       		.byte	0
 2990 0ef1 00       		.byte	0
 2991 0ef2 07       		.uleb128 0x7
 2992 0ef3 25000000 		.4byte	0x25
 2993 0ef7 020F0000 		.4byte	0xf02
 2994 0efb 08       		.uleb128 0x8
 2995 0efc E0000000 		.4byte	0xe0
 2996 0f00 F9       		.byte	0xf9
 2997 0f01 00       		.byte	0
 2998 0f02 07       		.uleb128 0x7
 2999 0f03 FD090000 		.4byte	0x9fd
 3000 0f07 120F0000 		.4byte	0xf12
 3001 0f0b 08       		.uleb128 0x8
 3002 0f0c E0000000 		.4byte	0xe0
 3003 0f10 09       		.byte	0x9
 3004 0f11 00       		.byte	0
 3005 0f12 07       		.uleb128 0x7
 3006 0f13 040A0000 		.4byte	0xa04
 3007 0f17 230F0000 		.4byte	0xf23
 3008 0f1b 09       		.uleb128 0x9
 3009 0f1c E0000000 		.4byte	0xe0
 3010 0f20 F501     		.2byte	0x1f5
 3011 0f22 00       		.byte	0
 3012 0f23 1A       		.uleb128 0x1a
 3013 0f24 800C0000 		.4byte	.LASF222
 3014 0f28 01       		.byte	0x1
 3015 0f29 1A       		.byte	0x1a
 3016 0f2a 120F0000 		.4byte	0xf12
 3017 0f2e 05       		.uleb128 0x5
 3018 0f2f 03       		.byte	0x3
 3019 0f30 00000000 		.4byte	firStateF32
 3020 0f34 24       		.uleb128 0x24
 3021 0f35 AF080000 		.4byte	.LASF223
 3022 0f39 0C       		.byte	0xc
 3023 0f3a 0108     		.2byte	0x801
 3024 0f3c 400F0000 		.4byte	0xf40
 3025 0f40 05       		.uleb128 0x5
 3026 0f41 CA000000 		.4byte	0xca
 3027 0f45 25       		.uleb128 0x25
 3028 0f46 01080000 		.4byte	.LASF224
 3029 0f4a 08       		.byte	0x8
 3030 0f4b A7       		.byte	0xa7
 3031 0f4c 500F0000 		.4byte	0xf50
 3032 0f50 10       		.uleb128 0x10
 3033 0f51 04       		.byte	0x4
 3034 0f52 560F0000 		.4byte	0xf56
 3035 0f56 06       		.uleb128 0x6
 3036 0f57 E6090000 		.4byte	0x9e6
 3037 0f5b 25       		.uleb128 0x25
 3038 0f5c 70020000 		.4byte	.LASF225
ARM GAS  C:\Users\jmori\AppData\Local\Temp\ccYuPisP.s 			page 84


 3039 0f60 0B       		.byte	0xb
 3040 0f61 87       		.byte	0x87
 3041 0f62 010B0000 		.4byte	0xb01
 3042 0f66 07       		.uleb128 0x7
 3043 0f67 500B0000 		.4byte	0xb50
 3044 0f6b 760F0000 		.4byte	0xf76
 3045 0f6f 08       		.uleb128 0x8
 3046 0f70 E0000000 		.4byte	0xe0
 3047 0f74 FC       		.byte	0xfc
 3048 0f75 00       		.byte	0
 3049 0f76 26       		.uleb128 0x26
 3050 0f77 23040000 		.4byte	.LASF226
 3051 0f7b 01       		.byte	0x1
 3052 0f7c 1B       		.byte	0x1b
 3053 0f7d 870F0000 		.4byte	0xf87
 3054 0f81 05       		.uleb128 0x5
 3055 0f82 03       		.byte	0x3
 3056 0f83 00000000 		.4byte	firCoeffs32
 3057 0f87 06       		.uleb128 0x6
 3058 0f88 660F0000 		.4byte	0xf66
 3059 0f8c 26       		.uleb128 0x26
 3060 0f8d 5F0B0000 		.4byte	.LASF227
 3061 0f91 01       		.byte	0x1
 3062 0f92 39       		.byte	0x39
 3063 0f93 D5000000 		.4byte	0xd5
 3064 0f97 05       		.uleb128 0x5
 3065 0f98 03       		.byte	0x3
 3066 0f99 00000000 		.4byte	blockSize
 3067 0f9d 26       		.uleb128 0x26
 3068 0f9e 1C0B0000 		.4byte	.LASF228
 3069 0fa2 01       		.byte	0x1
 3070 0fa3 3A       		.byte	0x3a
 3071 0fa4 D5000000 		.4byte	0xd5
 3072 0fa8 05       		.uleb128 0x5
 3073 0fa9 03       		.byte	0x3
 3074 0faa 00000000 		.4byte	numBlocks
 3075 0fae 27       		.uleb128 0x27
 3076 0faf 5300     		.ascii	"S\000"
 3077 0fb1 01       		.byte	0x1
 3078 0fb2 3B       		.byte	0x3b
 3079 0fb3 440B0000 		.4byte	0xb44
 3080 0fb7 05       		.uleb128 0x5
 3081 0fb8 03       		.byte	0x3
 3082 0fb9 00000000 		.4byte	S
 3083 0fbd 27       		.uleb128 0x27
 3084 0fbe 5200     		.ascii	"R\000"
 3085 0fc0 01       		.byte	0x1
 3086 0fc1 3C       		.byte	0x3c
 3087 0fc2 CC0F0000 		.4byte	0xfcc
 3088 0fc6 05       		.uleb128 0x5
 3089 0fc7 03       		.byte	0x3
 3090 0fc8 00000000 		.4byte	R
 3091 0fcc 05       		.uleb128 0x5
 3092 0fcd 25000000 		.4byte	0x25
 3093 0fd1 26       		.uleb128 0x26
 3094 0fd2 1C070000 		.4byte	.LASF229
 3095 0fd6 01       		.byte	0x1
ARM GAS  C:\Users\jmori\AppData\Local\Temp\ccYuPisP.s 			page 85


 3096 0fd7 3D       		.byte	0x3d
 3097 0fd8 CC0F0000 		.4byte	0xfcc
 3098 0fdc 05       		.uleb128 0x5
 3099 0fdd 03       		.byte	0x3
 3100 0fde 00000000 		.4byte	SpO2
 3101 0fe2 28       		.uleb128 0x28
 3102 0fe3 7F040000 		.4byte	.LASF230
 3103 0fe7 7F040000 		.4byte	.LASF230
 3104 0feb 0D       		.byte	0xd
 3105 0fec E1       		.byte	0xe1
 3106 0fed 29       		.uleb128 0x29
 3107 0fee 5C080000 		.4byte	.LASF231
 3108 0ff2 5C080000 		.4byte	.LASF231
 3109 0ff6 0E       		.byte	0xe
 3110 0ff7 1902     		.2byte	0x219
 3111 0ff9 29       		.uleb128 0x29
 3112 0ffa D7010000 		.4byte	.LASF232
 3113 0ffe D7010000 		.4byte	.LASF232
 3114 1002 0A       		.byte	0xa
 3115 1003 A604     		.2byte	0x4a6
 3116 1005 2A       		.uleb128 0x2a
 3117 1006 A5020000 		.4byte	.LASF244
 3118 100a A5020000 		.4byte	.LASF244
 3119 100e 29       		.uleb128 0x29
 3120 100f A10B0000 		.4byte	.LASF233
 3121 1013 A10B0000 		.4byte	.LASF233
 3122 1017 0A       		.byte	0xa
 3123 1018 1D18     		.2byte	0x181d
 3124 101a 29       		.uleb128 0x29
 3125 101b 55000000 		.4byte	.LASF234
 3126 101f 55000000 		.4byte	.LASF234
 3127 1023 0A       		.byte	0xa
 3128 1024 9704     		.2byte	0x497
 3129 1026 29       		.uleb128 0x29
 3130 1027 EE0A0000 		.4byte	.LASF235
 3131 102b EE0A0000 		.4byte	.LASF235
 3132 102f 0A       		.byte	0xa
 3133 1030 7619     		.2byte	0x1976
 3134 1032 29       		.uleb128 0x29
 3135 1033 BC080000 		.4byte	.LASF236
 3136 1037 BC080000 		.4byte	.LASF236
 3137 103b 0A       		.byte	0xa
 3138 103c 3E19     		.2byte	0x193e
 3139 103e 28       		.uleb128 0x28
 3140 103f 4D000000 		.4byte	.LASF237
 3141 1043 4D000000 		.4byte	.LASF237
 3142 1047 0F       		.byte	0xf
 3143 1048 E7       		.byte	0xe7
 3144 1049 00       		.byte	0
 3145              		.section	.debug_abbrev,"",%progbits
 3146              	.Ldebug_abbrev0:
 3147 0000 01       		.uleb128 0x1
 3148 0001 11       		.uleb128 0x11
 3149 0002 01       		.byte	0x1
 3150 0003 25       		.uleb128 0x25
 3151 0004 0E       		.uleb128 0xe
 3152 0005 13       		.uleb128 0x13
ARM GAS  C:\Users\jmori\AppData\Local\Temp\ccYuPisP.s 			page 86


 3153 0006 0B       		.uleb128 0xb
 3154 0007 03       		.uleb128 0x3
 3155 0008 0E       		.uleb128 0xe
 3156 0009 1B       		.uleb128 0x1b
 3157 000a 0E       		.uleb128 0xe
 3158 000b 55       		.uleb128 0x55
 3159 000c 17       		.uleb128 0x17
 3160 000d 11       		.uleb128 0x11
 3161 000e 01       		.uleb128 0x1
 3162 000f 10       		.uleb128 0x10
 3163 0010 17       		.uleb128 0x17
 3164 0011 00       		.byte	0
 3165 0012 00       		.byte	0
 3166 0013 02       		.uleb128 0x2
 3167 0014 24       		.uleb128 0x24
 3168 0015 00       		.byte	0
 3169 0016 0B       		.uleb128 0xb
 3170 0017 0B       		.uleb128 0xb
 3171 0018 3E       		.uleb128 0x3e
 3172 0019 0B       		.uleb128 0xb
 3173 001a 03       		.uleb128 0x3
 3174 001b 0E       		.uleb128 0xe
 3175 001c 00       		.byte	0
 3176 001d 00       		.byte	0
 3177 001e 03       		.uleb128 0x3
 3178 001f 16       		.uleb128 0x16
 3179 0020 00       		.byte	0
 3180 0021 03       		.uleb128 0x3
 3181 0022 0E       		.uleb128 0xe
 3182 0023 3A       		.uleb128 0x3a
 3183 0024 0B       		.uleb128 0xb
 3184 0025 3B       		.uleb128 0x3b
 3185 0026 0B       		.uleb128 0xb
 3186 0027 49       		.uleb128 0x49
 3187 0028 13       		.uleb128 0x13
 3188 0029 00       		.byte	0
 3189 002a 00       		.byte	0
 3190 002b 04       		.uleb128 0x4
 3191 002c 24       		.uleb128 0x24
 3192 002d 00       		.byte	0
 3193 002e 0B       		.uleb128 0xb
 3194 002f 0B       		.uleb128 0xb
 3195 0030 3E       		.uleb128 0x3e
 3196 0031 0B       		.uleb128 0xb
 3197 0032 03       		.uleb128 0x3
 3198 0033 08       		.uleb128 0x8
 3199 0034 00       		.byte	0
 3200 0035 00       		.byte	0
 3201 0036 05       		.uleb128 0x5
 3202 0037 35       		.uleb128 0x35
 3203 0038 00       		.byte	0
 3204 0039 49       		.uleb128 0x49
 3205 003a 13       		.uleb128 0x13
 3206 003b 00       		.byte	0
 3207 003c 00       		.byte	0
 3208 003d 06       		.uleb128 0x6
 3209 003e 26       		.uleb128 0x26
ARM GAS  C:\Users\jmori\AppData\Local\Temp\ccYuPisP.s 			page 87


 3210 003f 00       		.byte	0
 3211 0040 49       		.uleb128 0x49
 3212 0041 13       		.uleb128 0x13
 3213 0042 00       		.byte	0
 3214 0043 00       		.byte	0
 3215 0044 07       		.uleb128 0x7
 3216 0045 01       		.uleb128 0x1
 3217 0046 01       		.byte	0x1
 3218 0047 49       		.uleb128 0x49
 3219 0048 13       		.uleb128 0x13
 3220 0049 01       		.uleb128 0x1
 3221 004a 13       		.uleb128 0x13
 3222 004b 00       		.byte	0
 3223 004c 00       		.byte	0
 3224 004d 08       		.uleb128 0x8
 3225 004e 21       		.uleb128 0x21
 3226 004f 00       		.byte	0
 3227 0050 49       		.uleb128 0x49
 3228 0051 13       		.uleb128 0x13
 3229 0052 2F       		.uleb128 0x2f
 3230 0053 0B       		.uleb128 0xb
 3231 0054 00       		.byte	0
 3232 0055 00       		.byte	0
 3233 0056 09       		.uleb128 0x9
 3234 0057 21       		.uleb128 0x21
 3235 0058 00       		.byte	0
 3236 0059 49       		.uleb128 0x49
 3237 005a 13       		.uleb128 0x13
 3238 005b 2F       		.uleb128 0x2f
 3239 005c 05       		.uleb128 0x5
 3240 005d 00       		.byte	0
 3241 005e 00       		.byte	0
 3242 005f 0A       		.uleb128 0xa
 3243 0060 13       		.uleb128 0x13
 3244 0061 01       		.byte	0x1
 3245 0062 0B       		.uleb128 0xb
 3246 0063 05       		.uleb128 0x5
 3247 0064 3A       		.uleb128 0x3a
 3248 0065 0B       		.uleb128 0xb
 3249 0066 3B       		.uleb128 0x3b
 3250 0067 0B       		.uleb128 0xb
 3251 0068 01       		.uleb128 0x1
 3252 0069 13       		.uleb128 0x13
 3253 006a 00       		.byte	0
 3254 006b 00       		.byte	0
 3255 006c 0B       		.uleb128 0xb
 3256 006d 0D       		.uleb128 0xd
 3257 006e 00       		.byte	0
 3258 006f 03       		.uleb128 0x3
 3259 0070 0E       		.uleb128 0xe
 3260 0071 3A       		.uleb128 0x3a
 3261 0072 0B       		.uleb128 0xb
 3262 0073 3B       		.uleb128 0x3b
 3263 0074 0B       		.uleb128 0xb
 3264 0075 49       		.uleb128 0x49
 3265 0076 13       		.uleb128 0x13
 3266 0077 38       		.uleb128 0x38
ARM GAS  C:\Users\jmori\AppData\Local\Temp\ccYuPisP.s 			page 88


 3267 0078 0B       		.uleb128 0xb
 3268 0079 00       		.byte	0
 3269 007a 00       		.byte	0
 3270 007b 0C       		.uleb128 0xc
 3271 007c 0D       		.uleb128 0xd
 3272 007d 00       		.byte	0
 3273 007e 03       		.uleb128 0x3
 3274 007f 0E       		.uleb128 0xe
 3275 0080 3A       		.uleb128 0x3a
 3276 0081 0B       		.uleb128 0xb
 3277 0082 3B       		.uleb128 0x3b
 3278 0083 0B       		.uleb128 0xb
 3279 0084 49       		.uleb128 0x49
 3280 0085 13       		.uleb128 0x13
 3281 0086 38       		.uleb128 0x38
 3282 0087 05       		.uleb128 0x5
 3283 0088 00       		.byte	0
 3284 0089 00       		.byte	0
 3285 008a 0D       		.uleb128 0xd
 3286 008b 16       		.uleb128 0x16
 3287 008c 00       		.byte	0
 3288 008d 03       		.uleb128 0x3
 3289 008e 0E       		.uleb128 0xe
 3290 008f 3A       		.uleb128 0x3a
 3291 0090 0B       		.uleb128 0xb
 3292 0091 3B       		.uleb128 0x3b
 3293 0092 05       		.uleb128 0x5
 3294 0093 49       		.uleb128 0x49
 3295 0094 13       		.uleb128 0x13
 3296 0095 00       		.byte	0
 3297 0096 00       		.byte	0
 3298 0097 0E       		.uleb128 0xe
 3299 0098 13       		.uleb128 0x13
 3300 0099 01       		.byte	0x1
 3301 009a 0B       		.uleb128 0xb
 3302 009b 0B       		.uleb128 0xb
 3303 009c 3A       		.uleb128 0x3a
 3304 009d 0B       		.uleb128 0xb
 3305 009e 3B       		.uleb128 0x3b
 3306 009f 0B       		.uleb128 0xb
 3307 00a0 01       		.uleb128 0x1
 3308 00a1 13       		.uleb128 0x13
 3309 00a2 00       		.byte	0
 3310 00a3 00       		.byte	0
 3311 00a4 0F       		.uleb128 0xf
 3312 00a5 0F       		.uleb128 0xf
 3313 00a6 00       		.byte	0
 3314 00a7 0B       		.uleb128 0xb
 3315 00a8 0B       		.uleb128 0xb
 3316 00a9 00       		.byte	0
 3317 00aa 00       		.byte	0
 3318 00ab 10       		.uleb128 0x10
 3319 00ac 0F       		.uleb128 0xf
 3320 00ad 00       		.byte	0
 3321 00ae 0B       		.uleb128 0xb
 3322 00af 0B       		.uleb128 0xb
 3323 00b0 49       		.uleb128 0x49
ARM GAS  C:\Users\jmori\AppData\Local\Temp\ccYuPisP.s 			page 89


 3324 00b1 13       		.uleb128 0x13
 3325 00b2 00       		.byte	0
 3326 00b3 00       		.byte	0
 3327 00b4 11       		.uleb128 0x11
 3328 00b5 15       		.uleb128 0x15
 3329 00b6 01       		.byte	0x1
 3330 00b7 27       		.uleb128 0x27
 3331 00b8 19       		.uleb128 0x19
 3332 00b9 01       		.uleb128 0x1
 3333 00ba 13       		.uleb128 0x13
 3334 00bb 00       		.byte	0
 3335 00bc 00       		.byte	0
 3336 00bd 12       		.uleb128 0x12
 3337 00be 05       		.uleb128 0x5
 3338 00bf 00       		.byte	0
 3339 00c0 49       		.uleb128 0x49
 3340 00c1 13       		.uleb128 0x13
 3341 00c2 00       		.byte	0
 3342 00c3 00       		.byte	0
 3343 00c4 13       		.uleb128 0x13
 3344 00c5 13       		.uleb128 0x13
 3345 00c6 01       		.byte	0x1
 3346 00c7 03       		.uleb128 0x3
 3347 00c8 0E       		.uleb128 0xe
 3348 00c9 0B       		.uleb128 0xb
 3349 00ca 0B       		.uleb128 0xb
 3350 00cb 3A       		.uleb128 0x3a
 3351 00cc 0B       		.uleb128 0xb
 3352 00cd 3B       		.uleb128 0x3b
 3353 00ce 05       		.uleb128 0x5
 3354 00cf 01       		.uleb128 0x1
 3355 00d0 13       		.uleb128 0x13
 3356 00d1 00       		.byte	0
 3357 00d2 00       		.byte	0
 3358 00d3 14       		.uleb128 0x14
 3359 00d4 0D       		.uleb128 0xd
 3360 00d5 00       		.byte	0
 3361 00d6 03       		.uleb128 0x3
 3362 00d7 0E       		.uleb128 0xe
 3363 00d8 3A       		.uleb128 0x3a
 3364 00d9 0B       		.uleb128 0xb
 3365 00da 3B       		.uleb128 0x3b
 3366 00db 05       		.uleb128 0x5
 3367 00dc 49       		.uleb128 0x49
 3368 00dd 13       		.uleb128 0x13
 3369 00de 38       		.uleb128 0x38
 3370 00df 0B       		.uleb128 0xb
 3371 00e0 00       		.byte	0
 3372 00e1 00       		.byte	0
 3373 00e2 15       		.uleb128 0x15
 3374 00e3 13       		.uleb128 0x13
 3375 00e4 01       		.byte	0x1
 3376 00e5 0B       		.uleb128 0xb
 3377 00e6 0B       		.uleb128 0xb
 3378 00e7 3A       		.uleb128 0x3a
 3379 00e8 0B       		.uleb128 0xb
 3380 00e9 3B       		.uleb128 0x3b
ARM GAS  C:\Users\jmori\AppData\Local\Temp\ccYuPisP.s 			page 90


 3381 00ea 05       		.uleb128 0x5
 3382 00eb 01       		.uleb128 0x1
 3383 00ec 13       		.uleb128 0x13
 3384 00ed 00       		.byte	0
 3385 00ee 00       		.byte	0
 3386 00ef 16       		.uleb128 0x16
 3387 00f0 2E       		.uleb128 0x2e
 3388 00f1 00       		.byte	0
 3389 00f2 03       		.uleb128 0x3
 3390 00f3 0E       		.uleb128 0xe
 3391 00f4 3A       		.uleb128 0x3a
 3392 00f5 0B       		.uleb128 0xb
 3393 00f6 3B       		.uleb128 0x3b
 3394 00f7 0B       		.uleb128 0xb
 3395 00f8 27       		.uleb128 0x27
 3396 00f9 19       		.uleb128 0x19
 3397 00fa 20       		.uleb128 0x20
 3398 00fb 0B       		.uleb128 0xb
 3399 00fc 00       		.byte	0
 3400 00fd 00       		.byte	0
 3401 00fe 17       		.uleb128 0x17
 3402 00ff 2E       		.uleb128 0x2e
 3403 0100 01       		.byte	0x1
 3404 0101 03       		.uleb128 0x3
 3405 0102 0E       		.uleb128 0xe
 3406 0103 3A       		.uleb128 0x3a
 3407 0104 0B       		.uleb128 0xb
 3408 0105 3B       		.uleb128 0x3b
 3409 0106 05       		.uleb128 0x5
 3410 0107 27       		.uleb128 0x27
 3411 0108 19       		.uleb128 0x19
 3412 0109 49       		.uleb128 0x49
 3413 010a 13       		.uleb128 0x13
 3414 010b 20       		.uleb128 0x20
 3415 010c 0B       		.uleb128 0xb
 3416 010d 01       		.uleb128 0x1
 3417 010e 13       		.uleb128 0x13
 3418 010f 00       		.byte	0
 3419 0110 00       		.byte	0
 3420 0111 18       		.uleb128 0x18
 3421 0112 05       		.uleb128 0x5
 3422 0113 00       		.byte	0
 3423 0114 03       		.uleb128 0x3
 3424 0115 0E       		.uleb128 0xe
 3425 0116 3A       		.uleb128 0x3a
 3426 0117 0B       		.uleb128 0xb
 3427 0118 3B       		.uleb128 0x3b
 3428 0119 05       		.uleb128 0x5
 3429 011a 49       		.uleb128 0x49
 3430 011b 13       		.uleb128 0x13
 3431 011c 00       		.byte	0
 3432 011d 00       		.byte	0
 3433 011e 19       		.uleb128 0x19
 3434 011f 2E       		.uleb128 0x2e
 3435 0120 01       		.byte	0x1
 3436 0121 3F       		.uleb128 0x3f
 3437 0122 19       		.uleb128 0x19
ARM GAS  C:\Users\jmori\AppData\Local\Temp\ccYuPisP.s 			page 91


 3438 0123 03       		.uleb128 0x3
 3439 0124 0E       		.uleb128 0xe
 3440 0125 3A       		.uleb128 0x3a
 3441 0126 0B       		.uleb128 0xb
 3442 0127 3B       		.uleb128 0x3b
 3443 0128 0B       		.uleb128 0xb
 3444 0129 27       		.uleb128 0x27
 3445 012a 19       		.uleb128 0x19
 3446 012b 49       		.uleb128 0x49
 3447 012c 13       		.uleb128 0x13
 3448 012d 8701     		.uleb128 0x87
 3449 012f 19       		.uleb128 0x19
 3450 0130 11       		.uleb128 0x11
 3451 0131 01       		.uleb128 0x1
 3452 0132 12       		.uleb128 0x12
 3453 0133 06       		.uleb128 0x6
 3454 0134 40       		.uleb128 0x40
 3455 0135 18       		.uleb128 0x18
 3456 0136 9642     		.uleb128 0x2116
 3457 0138 19       		.uleb128 0x19
 3458 0139 01       		.uleb128 0x1
 3459 013a 13       		.uleb128 0x13
 3460 013b 00       		.byte	0
 3461 013c 00       		.byte	0
 3462 013d 1A       		.uleb128 0x1a
 3463 013e 34       		.uleb128 0x34
 3464 013f 00       		.byte	0
 3465 0140 03       		.uleb128 0x3
 3466 0141 0E       		.uleb128 0xe
 3467 0142 3A       		.uleb128 0x3a
 3468 0143 0B       		.uleb128 0xb
 3469 0144 3B       		.uleb128 0x3b
 3470 0145 0B       		.uleb128 0xb
 3471 0146 49       		.uleb128 0x49
 3472 0147 13       		.uleb128 0x13
 3473 0148 02       		.uleb128 0x2
 3474 0149 18       		.uleb128 0x18
 3475 014a 00       		.byte	0
 3476 014b 00       		.byte	0
 3477 014c 1B       		.uleb128 0x1b
 3478 014d 34       		.uleb128 0x34
 3479 014e 00       		.byte	0
 3480 014f 03       		.uleb128 0x3
 3481 0150 0E       		.uleb128 0xe
 3482 0151 3A       		.uleb128 0x3a
 3483 0152 0B       		.uleb128 0xb
 3484 0153 3B       		.uleb128 0x3b
 3485 0154 0B       		.uleb128 0xb
 3486 0155 49       		.uleb128 0x49
 3487 0156 13       		.uleb128 0x13
 3488 0157 02       		.uleb128 0x2
 3489 0158 17       		.uleb128 0x17
 3490 0159 00       		.byte	0
 3491 015a 00       		.byte	0
 3492 015b 1C       		.uleb128 0x1c
 3493 015c 1D       		.uleb128 0x1d
 3494 015d 01       		.byte	0x1
ARM GAS  C:\Users\jmori\AppData\Local\Temp\ccYuPisP.s 			page 92


 3495 015e 31       		.uleb128 0x31
 3496 015f 13       		.uleb128 0x13
 3497 0160 11       		.uleb128 0x11
 3498 0161 01       		.uleb128 0x1
 3499 0162 12       		.uleb128 0x12
 3500 0163 06       		.uleb128 0x6
 3501 0164 58       		.uleb128 0x58
 3502 0165 0B       		.uleb128 0xb
 3503 0166 59       		.uleb128 0x59
 3504 0167 0B       		.uleb128 0xb
 3505 0168 01       		.uleb128 0x1
 3506 0169 13       		.uleb128 0x13
 3507 016a 00       		.byte	0
 3508 016b 00       		.byte	0
 3509 016c 1D       		.uleb128 0x1d
 3510 016d 05       		.uleb128 0x5
 3511 016e 00       		.byte	0
 3512 016f 31       		.uleb128 0x31
 3513 0170 13       		.uleb128 0x13
 3514 0171 02       		.uleb128 0x2
 3515 0172 17       		.uleb128 0x17
 3516 0173 00       		.byte	0
 3517 0174 00       		.byte	0
 3518 0175 1E       		.uleb128 0x1e
 3519 0176 1D       		.uleb128 0x1d
 3520 0177 01       		.byte	0x1
 3521 0178 31       		.uleb128 0x31
 3522 0179 13       		.uleb128 0x13
 3523 017a 11       		.uleb128 0x11
 3524 017b 01       		.uleb128 0x1
 3525 017c 12       		.uleb128 0x12
 3526 017d 06       		.uleb128 0x6
 3527 017e 58       		.uleb128 0x58
 3528 017f 0B       		.uleb128 0xb
 3529 0180 59       		.uleb128 0x59
 3530 0181 05       		.uleb128 0x5
 3531 0182 00       		.byte	0
 3532 0183 00       		.byte	0
 3533 0184 1F       		.uleb128 0x1f
 3534 0185 898201   		.uleb128 0x4109
 3535 0188 01       		.byte	0x1
 3536 0189 11       		.uleb128 0x11
 3537 018a 01       		.uleb128 0x1
 3538 018b 31       		.uleb128 0x31
 3539 018c 13       		.uleb128 0x13
 3540 018d 00       		.byte	0
 3541 018e 00       		.byte	0
 3542 018f 20       		.uleb128 0x20
 3543 0190 8A8201   		.uleb128 0x410a
 3544 0193 00       		.byte	0
 3545 0194 02       		.uleb128 0x2
 3546 0195 18       		.uleb128 0x18
 3547 0196 9142     		.uleb128 0x2111
 3548 0198 18       		.uleb128 0x18
 3549 0199 00       		.byte	0
 3550 019a 00       		.byte	0
 3551 019b 21       		.uleb128 0x21
ARM GAS  C:\Users\jmori\AppData\Local\Temp\ccYuPisP.s 			page 93


 3552 019c 1D       		.uleb128 0x1d
 3553 019d 00       		.byte	0
 3554 019e 31       		.uleb128 0x31
 3555 019f 13       		.uleb128 0x13
 3556 01a0 11       		.uleb128 0x11
 3557 01a1 01       		.uleb128 0x1
 3558 01a2 12       		.uleb128 0x12
 3559 01a3 06       		.uleb128 0x6
 3560 01a4 58       		.uleb128 0x58
 3561 01a5 0B       		.uleb128 0xb
 3562 01a6 59       		.uleb128 0x59
 3563 01a7 0B       		.uleb128 0xb
 3564 01a8 00       		.byte	0
 3565 01a9 00       		.byte	0
 3566 01aa 22       		.uleb128 0x22
 3567 01ab 898201   		.uleb128 0x4109
 3568 01ae 00       		.byte	0
 3569 01af 11       		.uleb128 0x11
 3570 01b0 01       		.uleb128 0x1
 3571 01b1 31       		.uleb128 0x31
 3572 01b2 13       		.uleb128 0x13
 3573 01b3 00       		.byte	0
 3574 01b4 00       		.byte	0
 3575 01b5 23       		.uleb128 0x23
 3576 01b6 898201   		.uleb128 0x4109
 3577 01b9 01       		.byte	0x1
 3578 01ba 11       		.uleb128 0x11
 3579 01bb 01       		.uleb128 0x1
 3580 01bc 31       		.uleb128 0x31
 3581 01bd 13       		.uleb128 0x13
 3582 01be 01       		.uleb128 0x1
 3583 01bf 13       		.uleb128 0x13
 3584 01c0 00       		.byte	0
 3585 01c1 00       		.byte	0
 3586 01c2 24       		.uleb128 0x24
 3587 01c3 34       		.uleb128 0x34
 3588 01c4 00       		.byte	0
 3589 01c5 03       		.uleb128 0x3
 3590 01c6 0E       		.uleb128 0xe
 3591 01c7 3A       		.uleb128 0x3a
 3592 01c8 0B       		.uleb128 0xb
 3593 01c9 3B       		.uleb128 0x3b
 3594 01ca 05       		.uleb128 0x5
 3595 01cb 49       		.uleb128 0x49
 3596 01cc 13       		.uleb128 0x13
 3597 01cd 3F       		.uleb128 0x3f
 3598 01ce 19       		.uleb128 0x19
 3599 01cf 3C       		.uleb128 0x3c
 3600 01d0 19       		.uleb128 0x19
 3601 01d1 00       		.byte	0
 3602 01d2 00       		.byte	0
 3603 01d3 25       		.uleb128 0x25
 3604 01d4 34       		.uleb128 0x34
 3605 01d5 00       		.byte	0
 3606 01d6 03       		.uleb128 0x3
 3607 01d7 0E       		.uleb128 0xe
 3608 01d8 3A       		.uleb128 0x3a
ARM GAS  C:\Users\jmori\AppData\Local\Temp\ccYuPisP.s 			page 94


 3609 01d9 0B       		.uleb128 0xb
 3610 01da 3B       		.uleb128 0x3b
 3611 01db 0B       		.uleb128 0xb
 3612 01dc 49       		.uleb128 0x49
 3613 01dd 13       		.uleb128 0x13
 3614 01de 3F       		.uleb128 0x3f
 3615 01df 19       		.uleb128 0x19
 3616 01e0 3C       		.uleb128 0x3c
 3617 01e1 19       		.uleb128 0x19
 3618 01e2 00       		.byte	0
 3619 01e3 00       		.byte	0
 3620 01e4 26       		.uleb128 0x26
 3621 01e5 34       		.uleb128 0x34
 3622 01e6 00       		.byte	0
 3623 01e7 03       		.uleb128 0x3
 3624 01e8 0E       		.uleb128 0xe
 3625 01e9 3A       		.uleb128 0x3a
 3626 01ea 0B       		.uleb128 0xb
 3627 01eb 3B       		.uleb128 0x3b
 3628 01ec 0B       		.uleb128 0xb
 3629 01ed 49       		.uleb128 0x49
 3630 01ee 13       		.uleb128 0x13
 3631 01ef 3F       		.uleb128 0x3f
 3632 01f0 19       		.uleb128 0x19
 3633 01f1 02       		.uleb128 0x2
 3634 01f2 18       		.uleb128 0x18
 3635 01f3 00       		.byte	0
 3636 01f4 00       		.byte	0
 3637 01f5 27       		.uleb128 0x27
 3638 01f6 34       		.uleb128 0x34
 3639 01f7 00       		.byte	0
 3640 01f8 03       		.uleb128 0x3
 3641 01f9 08       		.uleb128 0x8
 3642 01fa 3A       		.uleb128 0x3a
 3643 01fb 0B       		.uleb128 0xb
 3644 01fc 3B       		.uleb128 0x3b
 3645 01fd 0B       		.uleb128 0xb
 3646 01fe 49       		.uleb128 0x49
 3647 01ff 13       		.uleb128 0x13
 3648 0200 3F       		.uleb128 0x3f
 3649 0201 19       		.uleb128 0x19
 3650 0202 02       		.uleb128 0x2
 3651 0203 18       		.uleb128 0x18
 3652 0204 00       		.byte	0
 3653 0205 00       		.byte	0
 3654 0206 28       		.uleb128 0x28
 3655 0207 2E       		.uleb128 0x2e
 3656 0208 00       		.byte	0
 3657 0209 3F       		.uleb128 0x3f
 3658 020a 19       		.uleb128 0x19
 3659 020b 3C       		.uleb128 0x3c
 3660 020c 19       		.uleb128 0x19
 3661 020d 6E       		.uleb128 0x6e
 3662 020e 0E       		.uleb128 0xe
 3663 020f 03       		.uleb128 0x3
 3664 0210 0E       		.uleb128 0xe
 3665 0211 3A       		.uleb128 0x3a
ARM GAS  C:\Users\jmori\AppData\Local\Temp\ccYuPisP.s 			page 95


 3666 0212 0B       		.uleb128 0xb
 3667 0213 3B       		.uleb128 0x3b
 3668 0214 0B       		.uleb128 0xb
 3669 0215 00       		.byte	0
 3670 0216 00       		.byte	0
 3671 0217 29       		.uleb128 0x29
 3672 0218 2E       		.uleb128 0x2e
 3673 0219 00       		.byte	0
 3674 021a 3F       		.uleb128 0x3f
 3675 021b 19       		.uleb128 0x19
 3676 021c 3C       		.uleb128 0x3c
 3677 021d 19       		.uleb128 0x19
 3678 021e 6E       		.uleb128 0x6e
 3679 021f 0E       		.uleb128 0xe
 3680 0220 03       		.uleb128 0x3
 3681 0221 0E       		.uleb128 0xe
 3682 0222 3A       		.uleb128 0x3a
 3683 0223 0B       		.uleb128 0xb
 3684 0224 3B       		.uleb128 0x3b
 3685 0225 05       		.uleb128 0x5
 3686 0226 00       		.byte	0
 3687 0227 00       		.byte	0
 3688 0228 2A       		.uleb128 0x2a
 3689 0229 2E       		.uleb128 0x2e
 3690 022a 00       		.byte	0
 3691 022b 3F       		.uleb128 0x3f
 3692 022c 19       		.uleb128 0x19
 3693 022d 3C       		.uleb128 0x3c
 3694 022e 19       		.uleb128 0x19
 3695 022f 6E       		.uleb128 0x6e
 3696 0230 0E       		.uleb128 0xe
 3697 0231 03       		.uleb128 0x3
 3698 0232 0E       		.uleb128 0xe
 3699 0233 00       		.byte	0
 3700 0234 00       		.byte	0
 3701 0235 00       		.byte	0
 3702              		.section	.debug_loc,"",%progbits
 3703              	.Ldebug_loc0:
 3704              	.LLST0:
 3705 0000 D6000000 		.4byte	.LVL12
 3706 0004 F6000000 		.4byte	.LVL15
 3707 0008 0200     		.2byte	0x2
 3708 000a 90       		.byte	0x90
 3709 000b 4F       		.uleb128 0x4f
 3710 000c F6000000 		.4byte	.LVL15
 3711 0010 03010000 		.4byte	.LVL16-1
 3712 0014 0E00     		.2byte	0xe
 3713 0016 91       		.byte	0x91
 3714 0017 BC60     		.sleb128 -4036
 3715 0019 F6       		.byte	0xf6
 3716 001a 04       		.byte	0x4
 3717 001b 25       		.uleb128 0x25
 3718 001c 91       		.byte	0x91
 3719 001d B460     		.sleb128 -4044
 3720 001f F6       		.byte	0xf6
 3721 0020 04       		.byte	0x4
 3722 0021 25       		.uleb128 0x25
ARM GAS  C:\Users\jmori\AppData\Local\Temp\ccYuPisP.s 			page 96


 3723 0022 1C       		.byte	0x1c
 3724 0023 9F       		.byte	0x9f
 3725 0024 00000000 		.4byte	0
 3726 0028 00000000 		.4byte	0
 3727              	.LLST1:
 3728 002c E2000000 		.4byte	.LVL13
 3729 0030 F2000000 		.4byte	.LVL14
 3730 0034 0200     		.2byte	0x2
 3731 0036 90       		.byte	0x90
 3732 0037 4E       		.uleb128 0x4e
 3733 0038 F2000000 		.4byte	.LVL14
 3734 003c 03010000 		.4byte	.LVL16-1
 3735 0040 0E00     		.2byte	0xe
 3736 0042 91       		.byte	0x91
 3737 0043 B860     		.sleb128 -4040
 3738 0045 F6       		.byte	0xf6
 3739 0046 04       		.byte	0x4
 3740 0047 25       		.uleb128 0x25
 3741 0048 91       		.byte	0x91
 3742 0049 B060     		.sleb128 -4048
 3743 004b F6       		.byte	0xf6
 3744 004c 04       		.byte	0x4
 3745 004d 25       		.uleb128 0x25
 3746 004e 1C       		.byte	0x1c
 3747 004f 9F       		.byte	0x9f
 3748 0050 00000000 		.4byte	0
 3749 0054 00000000 		.4byte	0
 3750              	.LLST2:
 3751 0058 10010000 		.4byte	.LVL17
 3752 005c 1A010000 		.4byte	.LVL19
 3753 0060 0200     		.2byte	0x2
 3754 0062 3A       		.byte	0x3a
 3755 0063 9F       		.byte	0x9f
 3756 0064 00000000 		.4byte	0
 3757 0068 00000000 		.4byte	0
 3758              	.LLST3:
 3759 006c 10010000 		.4byte	.LVL17
 3760 0070 14010000 		.4byte	.LVL18
 3761 0074 0400     		.2byte	0x4
 3762 0076 91       		.byte	0x91
 3763 0077 A060     		.sleb128 -4064
 3764 0079 9F       		.byte	0x9f
 3765 007a 14010000 		.4byte	.LVL18
 3766 007e 19010000 		.4byte	.LVL19-1
 3767 0082 0100     		.2byte	0x1
 3768 0084 51       		.byte	0x51
 3769 0085 19010000 		.4byte	.LVL19-1
 3770 0089 1A010000 		.4byte	.LVL19
 3771 008d 0400     		.2byte	0x4
 3772 008f 91       		.byte	0x91
 3773 0090 A060     		.sleb128 -4064
 3774 0092 9F       		.byte	0x9f
 3775 0093 00000000 		.4byte	0
 3776 0097 00000000 		.4byte	0
 3777              	.LLST6:
 3778 009b 10010000 		.4byte	.LVL17
 3779 009f 1A010000 		.4byte	.LVL19
ARM GAS  C:\Users\jmori\AppData\Local\Temp\ccYuPisP.s 			page 97


 3780 00a3 0600     		.2byte	0x6
 3781 00a5 0C       		.byte	0xc
 3782 00a6 00006640 		.4byte	0x40660000
 3783 00aa 9F       		.byte	0x9f
 3784 00ab 00000000 		.4byte	0
 3785 00af 00000000 		.4byte	0
 3786              		.section	.debug_aranges,"",%progbits
 3787 0000 1C000000 		.4byte	0x1c
 3788 0004 0200     		.2byte	0x2
 3789 0006 00000000 		.4byte	.Ldebug_info0
 3790 000a 04       		.byte	0x4
 3791 000b 00       		.byte	0
 3792 000c 0000     		.2byte	0
 3793 000e 0000     		.2byte	0
 3794 0010 00000000 		.4byte	.LFB518
 3795 0014 9C010000 		.4byte	.LFE518-.LFB518
 3796 0018 00000000 		.4byte	0
 3797 001c 00000000 		.4byte	0
 3798              		.section	.debug_ranges,"",%progbits
 3799              	.Ldebug_ranges0:
 3800 0000 00000000 		.4byte	.LFB518
 3801 0004 9C010000 		.4byte	.LFE518
 3802 0008 00000000 		.4byte	0
 3803 000c 00000000 		.4byte	0
 3804              		.section	.debug_line,"",%progbits
 3805              	.Ldebug_line0:
 3806 0000 C8030000 		.section	.debug_str,"MS",%progbits,1
 3806      02008403 
 3806      00000201 
 3806      FB0E0D00 
 3806      01010101 
 3807              	.LASF127:
 3808 0000 70726F74 		.ascii	"protBusMasterMask\000"
 3808      4275734D 
 3808      61737465 
 3808      724D6173 
 3808      6B00
 3809              	.LASF192:
 3810 0012 72784275 		.ascii	"rxBufSize\000"
 3810      6653697A 
 3810      6500
 3811              	.LASF137:
 3812 001c 666C6173 		.ascii	"flashCtlMainWs3Freq\000"
 3812      6843746C 
 3812      4D61696E 
 3812      57733346 
 3812      72657100 
 3813              	.LASF159:
 3814 0030 6770696F 		.ascii	"gpioPrtCfgInOffset\000"
 3814      50727443 
 3814      6667496E 
 3814      4F666673 
 3814      657400
 3815              	.LASF187:
 3816 0043 72785269 		.ascii	"rxRingBuf\000"
 3816      6E674275 
 3816      6600
ARM GAS  C:\Users\jmori\AppData\Local\Temp\ccYuPisP.s 			page 98


 3817              	.LASF237:
 3818 004d 73707269 		.ascii	"sprintf\000"
 3818      6E746600 
 3819              	.LASF234:
 3820 0055 61726D5F 		.ascii	"arm_fir_f32\000"
 3820      6669725F 
 3820      66333200 
 3821              	.LASF103:
 3822 0061 63727970 		.ascii	"cryptoVersion\000"
 3822      746F5665 
 3822      7273696F 
 3822      6E00
 3823              	.LASF121:
 3824 006f 70657269 		.ascii	"periClockNr\000"
 3824      436C6F63 
 3824      6B4E7200 
 3825              	.LASF99:
 3826 007b 70617373 		.ascii	"passBase\000"
 3826      42617365 
 3826      00
 3827              	.LASF175:
 3828 0084 63707573 		.ascii	"cpussRam2Ctl0\000"
 3828      7352616D 
 3828      3243746C 
 3828      3000
 3829              	.LASF36:
 3830 0092 4932435F 		.ascii	"I2C_STATUS\000"
 3830      53544154 
 3830      555300
 3831              	.LASF112:
 3832 009d 63707573 		.ascii	"cpussIpcIrqNr\000"
 3832      73497063 
 3832      4972714E 
 3832      7200
 3833              	.LASF4:
 3834 00ab 5F5F7569 		.ascii	"__uint8_t\000"
 3834      6E74385F 
 3834      7400
 3835              	.LASF114:
 3836 00b5 63707573 		.ascii	"cpussFlashPaSize\000"
 3836      73466C61 
 3836      73685061 
 3836      53697A65 
 3836      00
 3837              	.LASF221:
 3838 00c6 41635265 		.ascii	"AcRed\000"
 3838      6400
 3839              	.LASF163:
 3840 00cc 63707573 		.ascii	"cpussCm4ClockCtlOffset\000"
 3840      73436D34 
 3840      436C6F63 
 3840      6B43746C 
 3840      4F666673 
 3841              	.LASF242:
 3842 00e3 5F5F656E 		.ascii	"__enable_irq\000"
 3842      61626C65 
 3842      5F697271 
ARM GAS  C:\Users\jmori\AppData\Local\Temp\ccYuPisP.s 			page 99


 3842      00
 3843              	.LASF43:
 3844 00f0 54585F46 		.ascii	"TX_FIFO_STATUS\000"
 3844      49464F5F 
 3844      53544154 
 3844      555300
 3845              	.LASF92:
 3846 00ff 63707573 		.ascii	"cpussBase\000"
 3846      73426173 
 3846      6500
 3847              	.LASF216:
 3848 0109 6D617852 		.ascii	"maxRed\000"
 3848      656400
 3849              	.LASF141:
 3850 0110 64774368 		.ascii	"dwChCtlPrioPos\000"
 3850      43746C50 
 3850      72696F50 
 3850      6F7300
 3851              	.LASF209:
 3852 011f 64617461 		.ascii	"dataIR\000"
 3852      495200
 3853              	.LASF13:
 3854 0126 6C6F6E67 		.ascii	"long long unsigned int\000"
 3854      206C6F6E 
 3854      6720756E 
 3854      7369676E 
 3854      65642069 
 3855              	.LASF145:
 3856 013d 70657269 		.ascii	"periTrCmdOffset\000"
 3856      5472436D 
 3856      644F6666 
 3856      73657400 
 3857              	.LASF161:
 3858 014d 6770696F 		.ascii	"gpioPrtCfgSioOffset\000"
 3858      50727443 
 3858      66675369 
 3858      6F4F6666 
 3858      73657400 
 3859              	.LASF77:
 3860 0161 494E5452 		.ascii	"INTR_S_MASK\000"
 3860      5F535F4D 
 3860      41534B00 
 3861              	.LASF194:
 3862 016d 74784275 		.ascii	"txBuf\000"
 3862      6600
 3863              	.LASF130:
 3864 0173 666C6173 		.ascii	"flashPipeRequired\000"
 3864      68506970 
 3864      65526571 
 3864      75697265 
 3864      6400
 3865              	.LASF134:
 3866 0185 666C6173 		.ascii	"flashCtlMainWs0Freq\000"
 3866      6843746C 
 3866      4D61696E 
 3866      57733046 
 3866      72657100 
ARM GAS  C:\Users\jmori\AppData\Local\Temp\ccYuPisP.s 			page 100


 3867              	.LASF16:
 3868 0199 696E7431 		.ascii	"int16_t\000"
 3868      365F7400 
 3869              	.LASF203:
 3870 01a1 61726D5F 		.ascii	"arm_fir_instance_f32\000"
 3870      6669725F 
 3870      696E7374 
 3870      616E6365 
 3870      5F663332 
 3871              	.LASF2:
 3872 01b6 7369676E 		.ascii	"signed char\000"
 3872      65642063 
 3872      68617200 
 3873              	.LASF150:
 3874 01c2 70657269 		.ascii	"periDivCmdTypeSelPos\000"
 3874      44697643 
 3874      6D645479 
 3874      70655365 
 3874      6C506F73 
 3875              	.LASF232:
 3876 01d7 61726D5F 		.ascii	"arm_fir_init_f32\000"
 3876      6669725F 
 3876      696E6974 
 3876      5F663332 
 3876      00
 3877              	.LASF108:
 3878 01e8 69706356 		.ascii	"ipcVersion\000"
 3878      65727369 
 3878      6F6E00
 3879              	.LASF170:
 3880 01f3 63707573 		.ascii	"cpussCm0NmiCtlOffset\000"
 3880      73436D30 
 3880      4E6D6943 
 3880      746C4F66 
 3880      66736574 
 3881              	.LASF59:
 3882 0208 52455345 		.ascii	"RESERVED10\000"
 3882      52564544 
 3882      313000
 3883              	.LASF97:
 3884 0213 6873696F 		.ascii	"hsiomBase\000"
 3884      6D426173 
 3884      6500
 3885              	.LASF64:
 3886 021d 52455345 		.ascii	"RESERVED12\000"
 3886      52564544 
 3886      313200
 3887              	.LASF66:
 3888 0228 52455345 		.ascii	"RESERVED13\000"
 3888      52564544 
 3888      313300
 3889              	.LASF69:
 3890 0233 52455345 		.ascii	"RESERVED14\000"
 3890      52564544 
 3890      313400
 3891              	.LASF74:
 3892 023e 52455345 		.ascii	"RESERVED15\000"
ARM GAS  C:\Users\jmori\AppData\Local\Temp\ccYuPisP.s 			page 101


 3892      52564544 
 3892      313500
 3893              	.LASF79:
 3894 0249 52455345 		.ascii	"RESERVED16\000"
 3894      52564544 
 3894      313600
 3895              	.LASF84:
 3896 0254 52455345 		.ascii	"RESERVED17\000"
 3896      52564544 
 3896      313700
 3897              	.LASF210:
 3898 025f 64617461 		.ascii	"dataRed\000"
 3898      52656400 
 3899              	.LASF9:
 3900 0267 6C6F6E67 		.ascii	"long int\000"
 3900      20696E74 
 3900      00
 3901              	.LASF225:
 3902 0270 55415254 		.ascii	"UART_1_context\000"
 3902      5F315F63 
 3902      6F6E7465 
 3902      787400
 3903              	.LASF218:
 3904 027f 6D696E52 		.ascii	"minRed\000"
 3904      656400
 3905              	.LASF58:
 3906 0286 494E5452 		.ascii	"INTR_CAUSE\000"
 3906      5F434155 
 3906      534500
 3907              	.LASF60:
 3908 0291 494E5452 		.ascii	"INTR_I2C_EC\000"
 3908      5F493243 
 3908      5F454300 
 3909              	.LASF85:
 3910 029d 494E5452 		.ascii	"INTR_RX\000"
 3910      5F525800 
 3911              	.LASF244:
 3912 02a5 6D656D63 		.ascii	"memcpy\000"
 3912      707900
 3913              	.LASF116:
 3914 02ac 63707573 		.ascii	"cpussFmIrq\000"
 3914      73466D49 
 3914      727100
 3915              	.LASF126:
 3916 02b7 73797350 		.ascii	"sysPmSimoPresent\000"
 3916      6D53696D 
 3916      6F507265 
 3916      73656E74 
 3916      00
 3917              	.LASF45:
 3918 02c8 54585F46 		.ascii	"TX_FIFO_WR\000"
 3918      49464F5F 
 3918      575200
 3919              	.LASF17:
 3920 02d3 75696E74 		.ascii	"uint16_t\000"
 3920      31365F74 
 3920      00
ARM GAS  C:\Users\jmori\AppData\Local\Temp\ccYuPisP.s 			page 102


 3921              	.LASF182:
 3922 02dc 646F7562 		.ascii	"double\000"
 3922      6C6500
 3923              	.LASF155:
 3924 02e3 70657269 		.ascii	"periDiv16_5CtlOffset\000"
 3924      44697631 
 3924      365F3543 
 3924      746C4F66 
 3924      66736574 
 3925              	.LASF119:
 3926 02f8 73727373 		.ascii	"srssNumPll\000"
 3926      4E756D50 
 3926      6C6C00
 3927              	.LASF220:
 3928 0303 41634972 		.ascii	"AcIr\000"
 3928      00
 3929              	.LASF128:
 3930 0308 63727970 		.ascii	"cryptoMemSize\000"
 3930      746F4D65 
 3930      6D53697A 
 3930      6500
 3931              	.LASF153:
 3932 0316 70657269 		.ascii	"periDiv8CtlOffset\000"
 3932      44697638 
 3932      43746C4F 
 3932      66667365 
 3932      7400
 3933              	.LASF160:
 3934 0328 6770696F 		.ascii	"gpioPrtCfgOutOffset\000"
 3934      50727443 
 3934      66674F75 
 3934      744F6666 
 3934      73657400 
 3935              	.LASF93:
 3936 033c 666C6173 		.ascii	"flashcBase\000"
 3936      68634261 
 3936      736500
 3937              	.LASF94:
 3938 0347 70657269 		.ascii	"periBase\000"
 3938      42617365 
 3938      00
 3939              	.LASF10:
 3940 0350 5F5F7569 		.ascii	"__uint32_t\000"
 3940      6E743332 
 3940      5F7400
 3941              	.LASF123:
 3942 035b 70617373 		.ascii	"passSarChannels\000"
 3942      53617243 
 3942      68616E6E 
 3942      656C7300 
 3943              	.LASF191:
 3944 036b 72784275 		.ascii	"rxBuf\000"
 3944      6600
 3945              	.LASF177:
 3946 0371 6970634C 		.ascii	"ipcLockStatusOffset\000"
 3946      6F636B53 
 3946      74617475 
ARM GAS  C:\Users\jmori\AppData\Local\Temp\ccYuPisP.s 			page 103


 3946      734F6666 
 3946      73657400 
 3947              	.LASF5:
 3948 0385 5F5F696E 		.ascii	"__int16_t\000"
 3948      7431365F 
 3948      7400
 3949              	.LASF193:
 3950 038f 72784275 		.ascii	"rxBufIdx\000"
 3950      66496478 
 3950      00
 3951              	.LASF68:
 3952 0398 494E5452 		.ascii	"INTR_SPI_EC_MASKED\000"
 3952      5F535049 
 3952      5F45435F 
 3952      4D41534B 
 3952      454400
 3953              	.LASF26:
 3954 03ab 5350495F 		.ascii	"SPI_CTRL\000"
 3954      4354524C 
 3954      00
 3955              	.LASF151:
 3956 03b4 70657269 		.ascii	"periDivCmdPaDivSelPos\000"
 3956      44697643 
 3956      6D645061 
 3956      44697653 
 3956      656C506F 
 3957              	.LASF12:
 3958 03ca 6C6F6E67 		.ascii	"long long int\000"
 3958      206C6F6E 
 3958      6720696E 
 3958      7400
 3959              	.LASF166:
 3960 03d8 63707573 		.ascii	"cpussCm4PwrCtlOffset\000"
 3960      73436D34 
 3960      50777243 
 3960      746C4F66 
 3960      66736574 
 3961              	.LASF195:
 3962 03ed 74784275 		.ascii	"txBufSize\000"
 3962      6653697A 
 3962      6500
 3963              	.LASF214:
 3964 03f7 52656446 		.ascii	"RedFiltre\000"
 3964      696C7472 
 3964      6500
 3965              	.LASF165:
 3966 0401 63707573 		.ascii	"cpussCm0StatusOffset\000"
 3966      73436D30 
 3966      53746174 
 3966      75734F66 
 3966      66736574 
 3967              	.LASF14:
 3968 0416 756E7369 		.ascii	"unsigned int\000"
 3968      676E6564 
 3968      20696E74 
 3968      00
 3969              	.LASF226:
ARM GAS  C:\Users\jmori\AppData\Local\Temp\ccYuPisP.s 			page 104


 3970 0423 66697243 		.ascii	"firCoeffs32\000"
 3970      6F656666 
 3970      73333200 
 3971              	.LASF219:
 3972 042f 706F7369 		.ascii	"position\000"
 3972      74696F6E 
 3972      00
 3973              	.LASF86:
 3974 0438 494E5452 		.ascii	"INTR_RX_SET\000"
 3974      5F52585F 
 3974      53455400 
 3975              	.LASF179:
 3976 0444 63686172 		.ascii	"char_t\000"
 3976      5F7400
 3977              	.LASF217:
 3978 044b 6D696E49 		.ascii	"minIr\000"
 3978      7200
 3979              	.LASF31:
 3980 0451 55415254 		.ascii	"UART_RX_CTRL\000"
 3980      5F52585F 
 3980      4354524C 
 3980      00
 3981              	.LASF88:
 3982 045e 494E5452 		.ascii	"INTR_RX_MASKED\000"
 3982      5F52585F 
 3982      4D41534B 
 3982      454400
 3983              	.LASF11:
 3984 046d 6C6F6E67 		.ascii	"long unsigned int\000"
 3984      20756E73 
 3984      69676E65 
 3984      6420696E 
 3984      7400
 3985              	.LASF230:
 3986 047f 43795F53 		.ascii	"Cy_SCB_WriteArray\000"
 3986      43425F57 
 3986      72697465 
 3986      41727261 
 3986      7900
 3987              	.LASF54:
 3988 0491 52585F46 		.ascii	"RX_FIFO_RD_SILENT\000"
 3988      49464F5F 
 3988      52445F53 
 3988      494C454E 
 3988      5400
 3989              	.LASF184:
 3990 04a3 63795F63 		.ascii	"cy_cb_scb_uart_handle_events_t\000"
 3990      625F7363 
 3990      625F7561 
 3990      72745F68 
 3990      616E646C 
 3991              	.LASF111:
 3992 04c2 63707573 		.ascii	"cpussIpcNr\000"
 3992      73497063 
 3992      4E7200
 3993              	.LASF113:
 3994 04cd 63707573 		.ascii	"cpussDwChNr\000"
ARM GAS  C:\Users\jmori\AppData\Local\Temp\ccYuPisP.s 			page 105


 3994      73447743 
 3994      684E7200 
 3995              	.LASF30:
 3996 04d9 55415254 		.ascii	"UART_TX_CTRL\000"
 3996      5F54585F 
 3996      4354524C 
 3996      00
 3997              	.LASF136:
 3998 04e6 666C6173 		.ascii	"flashCtlMainWs2Freq\000"
 3998      6843746C 
 3998      4D61696E 
 3998      57733246 
 3998      72657100 
 3999              	.LASF205:
 4000 04fa 73697A65 		.ascii	"size\000"
 4000      00
 4001              	.LASF147:
 4002 04ff 70657269 		.ascii	"periTrGrOffset\000"
 4002      54724772 
 4002      4F666673 
 4002      657400
 4003              	.LASF24:
 4004 050e 434D445F 		.ascii	"CMD_RESP_STATUS\000"
 4004      52455350 
 4004      5F535441 
 4004      54555300 
 4005              	.LASF174:
 4006 051e 63707573 		.ascii	"cpussRam1Ctl0\000"
 4006      7352616D 
 4006      3143746C 
 4006      3000
 4007              	.LASF89:
 4008 052c 43795343 		.ascii	"CySCB_V1_Type\000"
 4008      425F5631 
 4008      5F547970 
 4008      6500
 4009              	.LASF39:
 4010 053a 4932435F 		.ascii	"I2C_CFG\000"
 4010      43464700 
 4011              	.LASF32:
 4012 0542 55415254 		.ascii	"UART_RX_STATUS\000"
 4012      5F52585F 
 4012      53544154 
 4012      555300
 4013              	.LASF215:
 4014 0551 6D617849 		.ascii	"maxIr\000"
 4014      7200
 4015              	.LASF197:
 4016 0557 63624576 		.ascii	"cbEvents\000"
 4016      656E7473 
 4016      00
 4017              	.LASF158:
 4018 0560 6770696F 		.ascii	"gpioPrtCfgOffset\000"
 4018      50727443 
 4018      66674F66 
 4018      66736574 
 4018      00
ARM GAS  C:\Users\jmori\AppData\Local\Temp\ccYuPisP.s 			page 106


 4019              	.LASF106:
 4020 0571 6770696F 		.ascii	"gpioVersion\000"
 4020      56657273 
 4020      696F6E00 
 4021              	.LASF178:
 4022 057d 63795F73 		.ascii	"cy_stc_device_t\000"
 4022      74635F64 
 4022      65766963 
 4022      655F7400 
 4023              	.LASF51:
 4024 058d 52585F4D 		.ascii	"RX_MATCH\000"
 4024      41544348 
 4024      00
 4025              	.LASF207:
 4026 0596 43795F53 		.ascii	"Cy_SCB_UART_PutArray\000"
 4026      43425F55 
 4026      4152545F 
 4026      50757441 
 4026      72726179 
 4027              	.LASF96:
 4028 05ab 70726F74 		.ascii	"protBase\000"
 4028      42617365 
 4028      00
 4029              	.LASF167:
 4030 05b4 63707573 		.ascii	"cpussTrimRamCtlOffset\000"
 4030      73547269 
 4030      6D52616D 
 4030      43746C4F 
 4030      66667365 
 4031              	.LASF162:
 4032 05ca 63707573 		.ascii	"cpussCm0ClockCtlOffset\000"
 4032      73436D30 
 4032      436C6F63 
 4032      6B43746C 
 4032      4F666673 
 4033              	.LASF80:
 4034 05e1 494E5452 		.ascii	"INTR_TX\000"
 4034      5F545800 
 4035              	.LASF208:
 4036 05e9 62617365 		.ascii	"base\000"
 4036      00
 4037              	.LASF65:
 4038 05ee 494E5452 		.ascii	"INTR_SPI_EC\000"
 4038      5F535049 
 4038      5F454300 
 4039              	.LASF73:
 4040 05fa 494E5452 		.ascii	"INTR_M_MASKED\000"
 4040      5F4D5F4D 
 4040      41534B45 
 4040      4400
 4041              	.LASF23:
 4042 0608 434D445F 		.ascii	"CMD_RESP_CTRL\000"
 4042      52455350 
 4042      5F435452 
 4042      4C00
 4043              	.LASF33:
 4044 0616 55415254 		.ascii	"UART_FLOW_CTRL\000"
ARM GAS  C:\Users\jmori\AppData\Local\Temp\ccYuPisP.s 			page 107


 4044      5F464C4F 
 4044      575F4354 
 4044      524C00
 4045              	.LASF63:
 4046 0625 494E5452 		.ascii	"INTR_I2C_EC_MASKED\000"
 4046      5F493243 
 4046      5F45435F 
 4046      4D41534B 
 4046      454400
 4047              	.LASF146:
 4048 0638 70657269 		.ascii	"periTrCmdGrSelMsk\000"
 4048      5472436D 
 4048      64477253 
 4048      656C4D73 
 4048      6B00
 4049              	.LASF18:
 4050 064a 696E7433 		.ascii	"int32_t\000"
 4050      325F7400 
 4051              	.LASF20:
 4052 0652 73697A65 		.ascii	"sizetype\000"
 4052      74797065 
 4052      00
 4053              	.LASF139:
 4054 065b 64774368 		.ascii	"dwChOffset\000"
 4054      4F666673 
 4054      657400
 4055              	.LASF76:
 4056 0666 494E5452 		.ascii	"INTR_S_SET\000"
 4056      5F535F53 
 4056      455400
 4057              	.LASF152:
 4058 0671 70657269 		.ascii	"periDivCmdPaTypeSelPos\000"
 4058      44697643 
 4058      6D645061 
 4058      54797065 
 4058      53656C50 
 4059              	.LASF124:
 4060 0688 65704D6F 		.ascii	"epMonitorNr\000"
 4060      6E69746F 
 4060      724E7200 
 4061              	.LASF61:
 4062 0694 52455345 		.ascii	"RESERVED11\000"
 4062      52564544 
 4062      313100
 4063              	.LASF29:
 4064 069f 55415254 		.ascii	"UART_CTRL\000"
 4064      5F435452 
 4064      4C00
 4065              	.LASF70:
 4066 06a9 494E5452 		.ascii	"INTR_M\000"
 4066      5F4D00
 4067              	.LASF110:
 4068 06b0 70726F74 		.ascii	"protVersion\000"
 4068      56657273 
 4068      696F6E00 
 4069              	.LASF143:
 4070 06bc 64775374 		.ascii	"dwStatusChIdxPos\000"
ARM GAS  C:\Users\jmori\AppData\Local\Temp\ccYuPisP.s 			page 108


 4070      61747573 
 4070      43684964 
 4070      78506F73 
 4070      00
 4071              	.LASF125:
 4072 06cd 75646250 		.ascii	"udbPresent\000"
 4072      72657365 
 4072      6E7400
 4073              	.LASF75:
 4074 06d8 494E5452 		.ascii	"INTR_S\000"
 4074      5F5300
 4075              	.LASF186:
 4076 06df 72785374 		.ascii	"rxStatus\000"
 4076      61747573 
 4076      00
 4077              	.LASF105:
 4078 06e8 666C6173 		.ascii	"flashcVersion\000"
 4078      68635665 
 4078      7273696F 
 4078      6E00
 4079              	.LASF101:
 4080 06f6 63727970 		.ascii	"cryptoBase\000"
 4080      746F4261 
 4080      736500
 4081              	.LASF122:
 4082 0701 736D6966 		.ascii	"smifDeviceNr\000"
 4082      44657669 
 4082      63654E72 
 4082      00
 4083              	.LASF176:
 4084 070e 69706353 		.ascii	"ipcStructSize\000"
 4084      74727563 
 4084      7453697A 
 4084      6500
 4085              	.LASF229:
 4086 071c 53704F32 		.ascii	"SpO2\000"
 4086      00
 4087              	.LASF238:
 4088 0721 474E5520 		.ascii	"GNU C11 5.4.1 20160609 (release) [ARM/embedded-5-br"
 4088      43313120 
 4088      352E342E 
 4088      31203230 
 4088      31363036 
 4089 0754 616E6368 		.ascii	"anch revision 237715] -mcpu=cortex-m4 -mfloat-abi=s"
 4089      20726576 
 4089      6973696F 
 4089      6E203233 
 4089      37373135 
 4090 0787 6F667466 		.ascii	"oftfp -mfpu=fpv4-sp-d16 -mthumb -g -Og -ffunction-s"
 4090      70202D6D 
 4090      6670753D 
 4090      66707634 
 4090      2D73702D 
 4091 07ba 65637469 		.ascii	"ections -ffat-lto-objects\000"
 4091      6F6E7320 
 4091      2D666661 
 4091      742D6C74 
ARM GAS  C:\Users\jmori\AppData\Local\Temp\ccYuPisP.s 			page 109


 4091      6F2D6F62 
 4092              	.LASF109:
 4093 07d4 70657269 		.ascii	"periVersion\000"
 4093      56657273 
 4093      696F6E00 
 4094              	.LASF0:
 4095 07e0 666C6F61 		.ascii	"float\000"
 4095      7400
 4096              	.LASF144:
 4097 07e6 64775374 		.ascii	"dwStatusChIdxMsk\000"
 4097      61747573 
 4097      43684964 
 4097      784D736B 
 4097      00
 4098              	.LASF28:
 4099 07f7 52455345 		.ascii	"RESERVED1\000"
 4099      52564544 
 4099      3100
 4100              	.LASF224:
 4101 0801 63795F64 		.ascii	"cy_device\000"
 4101      65766963 
 4101      6500
 4102              	.LASF40:
 4103 080b 52455345 		.ascii	"RESERVED3\000"
 4103      52564544 
 4103      3300
 4104              	.LASF172:
 4105 0815 63707573 		.ascii	"cpussRomCtl\000"
 4105      73526F6D 
 4105      43746C00 
 4106              	.LASF212:
 4107 0821 44635265 		.ascii	"DcRed\000"
 4107      6400
 4108              	.LASF56:
 4109 0827 455A5F44 		.ascii	"EZ_DATA\000"
 4109      41544100 
 4110              	.LASF142:
 4111 082f 64774368 		.ascii	"dwChCtlPreemptablePos\000"
 4111      43746C50 
 4111      7265656D 
 4111      70746162 
 4111      6C65506F 
 4112              	.LASF42:
 4113 0845 54585F46 		.ascii	"TX_FIFO_CTRL\000"
 4113      49464F5F 
 4113      4354524C 
 4113      00
 4114              	.LASF57:
 4115 0852 52455345 		.ascii	"RESERVED9\000"
 4115      52564544 
 4115      3900
 4116              	.LASF231:
 4117 085c 53797374 		.ascii	"SystemInit\000"
 4117      656D496E 
 4117      697400
 4118              	.LASF95:
 4119 0867 75646242 		.ascii	"udbBase\000"
ARM GAS  C:\Users\jmori\AppData\Local\Temp\ccYuPisP.s 			page 110


 4119      61736500 
 4120              	.LASF183:
 4121 086f 5F426F6F 		.ascii	"_Bool\000"
 4121      6C00
 4122              	.LASF35:
 4123 0875 4932435F 		.ascii	"I2C_CTRL\000"
 4123      4354524C 
 4123      00
 4124              	.LASF3:
 4125 087e 756E7369 		.ascii	"unsigned char\000"
 4125      676E6564 
 4125      20636861 
 4125      7200
 4126              	.LASF83:
 4127 088c 494E5452 		.ascii	"INTR_TX_MASKED\000"
 4127      5F54585F 
 4127      4D41534B 
 4127      454400
 4128              	.LASF138:
 4129 089b 666C6173 		.ascii	"flashCtlMainWs4Freq\000"
 4129      6843746C 
 4129      4D61696E 
 4129      57733446 
 4129      72657100 
 4130              	.LASF223:
 4131 08af 49544D5F 		.ascii	"ITM_RxBuffer\000"
 4131      52784275 
 4131      66666572 
 4131      00
 4132              	.LASF236:
 4133 08bc 61726D5F 		.ascii	"arm_min_f32\000"
 4133      6D696E5F 
 4133      66333200 
 4134              	.LASF156:
 4135 08c8 70657269 		.ascii	"periDiv24_5CtlOffset\000"
 4135      44697632 
 4135      345F3543 
 4135      746C4F66 
 4135      66736574 
 4136              	.LASF1:
 4137 08dd 73686F72 		.ascii	"short int\000"
 4137      7420696E 
 4137      7400
 4138              	.LASF173:
 4139 08e7 63707573 		.ascii	"cpussRam0Ctl0\000"
 4139      7352616D 
 4139      3043746C 
 4139      3000
 4140              	.LASF196:
 4141 08f5 74784C65 		.ascii	"txLeftToTransmit\000"
 4141      6674546F 
 4141      5472616E 
 4141      736D6974 
 4141      00
 4142              	.LASF25:
 4143 0906 52455345 		.ascii	"RESERVED\000"
 4143      52564544 
ARM GAS  C:\Users\jmori\AppData\Local\Temp\ccYuPisP.s 			page 111


 4143      00
 4144              	.LASF200:
 4145 090f 6E756D54 		.ascii	"numTaps\000"
 4145      61707300 
 4146              	.LASF204:
 4147 0917 62756666 		.ascii	"buffer\000"
 4147      657200
 4148              	.LASF149:
 4149 091e 70657269 		.ascii	"periDivCmdDivSelMsk\000"
 4149      44697643 
 4149      6D644469 
 4149      7653656C 
 4149      4D736B00 
 4150              	.LASF169:
 4151 0932 63707573 		.ascii	"cpussSysTickCtlOffset\000"
 4151      73537973 
 4151      5469636B 
 4151      43746C4F 
 4151      66667365 
 4152              	.LASF78:
 4153 0948 494E5452 		.ascii	"INTR_S_MASKED\000"
 4153      5F535F4D 
 4153      41534B45 
 4153      4400
 4154              	.LASF213:
 4155 0956 49724669 		.ascii	"IrFiltre\000"
 4155      6C747265 
 4155      00
 4156              	.LASF206:
 4157 095f 55415254 		.ascii	"UART_1_PutArray\000"
 4157      5F315F50 
 4157      75744172 
 4157      72617900 
 4158              	.LASF44:
 4159 096f 52455345 		.ascii	"RESERVED4\000"
 4159      52564544 
 4159      3400
 4160              	.LASF133:
 4161 0979 666C6173 		.ascii	"flashEraseDelay\000"
 4161      68457261 
 4161      73654465 
 4161      6C617900 
 4162              	.LASF46:
 4163 0989 52455345 		.ascii	"RESERVED5\000"
 4163      52564544 
 4163      3500
 4164              	.LASF67:
 4165 0993 494E5452 		.ascii	"INTR_SPI_EC_MASK\000"
 4165      5F535049 
 4165      5F45435F 
 4165      4D41534B 
 4165      00
 4166              	.LASF148:
 4167 09a4 70657269 		.ascii	"periTrGrSize\000"
 4167      54724772 
 4167      53697A65 
 4167      00
ARM GAS  C:\Users\jmori\AppData\Local\Temp\ccYuPisP.s 			page 112


 4168              	.LASF52:
 4169 09b1 52455345 		.ascii	"RESERVED7\000"
 4169      52564544 
 4169      3700
 4170              	.LASF55:
 4171 09bb 52455345 		.ascii	"RESERVED8\000"
 4171      52564544 
 4171      3800
 4172              	.LASF71:
 4173 09c5 494E5452 		.ascii	"INTR_M_SET\000"
 4173      5F4D5F53 
 4173      455400
 4174              	.LASF27:
 4175 09d0 5350495F 		.ascii	"SPI_STATUS\000"
 4175      53544154 
 4175      555300
 4176              	.LASF91:
 4177 09db 6C6F6E67 		.ascii	"long double\000"
 4177      20646F75 
 4177      626C6500 
 4178              	.LASF180:
 4179 09e7 63686172 		.ascii	"char\000"
 4179      00
 4180              	.LASF38:
 4181 09ec 4932435F 		.ascii	"I2C_S_CMD\000"
 4181      535F434D 
 4181      4400
 4182              	.LASF135:
 4183 09f6 666C6173 		.ascii	"flashCtlMainWs1Freq\000"
 4183      6843746C 
 4183      4D61696E 
 4183      57733146 
 4183      72657100 
 4184              	.LASF87:
 4185 0a0a 494E5452 		.ascii	"INTR_RX_MASK\000"
 4185      5F52585F 
 4185      4D41534B 
 4185      00
 4186              	.LASF81:
 4187 0a17 494E5452 		.ascii	"INTR_TX_SET\000"
 4187      5F54585F 
 4187      53455400 
 4188              	.LASF72:
 4189 0a23 494E5452 		.ascii	"INTR_M_MASK\000"
 4189      5F4D5F4D 
 4189      41534B00 
 4190              	.LASF6:
 4191 0a2f 5F5F7569 		.ascii	"__uint16_t\000"
 4191      6E743136 
 4191      5F7400
 4192              	.LASF98:
 4193 0a3a 6770696F 		.ascii	"gpioBase\000"
 4193      42617365 
 4193      00
 4194              	.LASF154:
 4195 0a43 70657269 		.ascii	"periDiv16CtlOffset\000"
 4195      44697631 
ARM GAS  C:\Users\jmori\AppData\Local\Temp\ccYuPisP.s 			page 113


 4195      3643746C 
 4195      4F666673 
 4195      657400
 4196              	.LASF8:
 4197 0a56 5F5F696E 		.ascii	"__int32_t\000"
 4197      7433325F 
 4197      7400
 4198              	.LASF49:
 4199 0a60 52585F46 		.ascii	"RX_FIFO_STATUS\000"
 4199      49464F5F 
 4199      53544154 
 4199      555300
 4200              	.LASF82:
 4201 0a6f 494E5452 		.ascii	"INTR_TX_MASK\000"
 4201      5F54585F 
 4201      4D41534B 
 4201      00
 4202              	.LASF107:
 4203 0a7c 6873696F 		.ascii	"hsiomVersion\000"
 4203      6D566572 
 4203      73696F6E 
 4203      00
 4204              	.LASF181:
 4205 0a89 666C6F61 		.ascii	"float32_t\000"
 4205      7433325F 
 4205      7400
 4206              	.LASF132:
 4207 0a93 666C6173 		.ascii	"flashProgramDelay\000"
 4207      6850726F 
 4207      6772616D 
 4207      44656C61 
 4207      7900
 4208              	.LASF201:
 4209 0aa5 70537461 		.ascii	"pState\000"
 4209      746500
 4210              	.LASF189:
 4211 0aac 72785269 		.ascii	"rxRingBufHead\000"
 4211      6E674275 
 4211      66486561 
 4211      6400
 4212              	.LASF188:
 4213 0aba 72785269 		.ascii	"rxRingBufSize\000"
 4213      6E674275 
 4213      6653697A 
 4213      6500
 4214              	.LASF34:
 4215 0ac8 52455345 		.ascii	"RESERVED2\000"
 4215      52564544 
 4215      3200
 4216              	.LASF7:
 4217 0ad2 73686F72 		.ascii	"short unsigned int\000"
 4217      7420756E 
 4217      7369676E 
 4217      65642069 
 4217      6E7400
 4218              	.LASF140:
 4219 0ae5 64774368 		.ascii	"dwChSize\000"
ARM GAS  C:\Users\jmori\AppData\Local\Temp\ccYuPisP.s 			page 114


 4219      53697A65 
 4219      00
 4220              	.LASF235:
 4221 0aee 61726D5F 		.ascii	"arm_max_f32\000"
 4221      6D61785F 
 4221      66333200 
 4222              	.LASF118:
 4223 0afa 73727373 		.ascii	"srssNumClkpath\000"
 4223      4E756D43 
 4223      6C6B7061 
 4223      746800
 4224              	.LASF41:
 4225 0b09 54585F43 		.ascii	"TX_CTRL\000"
 4225      54524C00 
 4226              	.LASF53:
 4227 0b11 52585F46 		.ascii	"RX_FIFO_RD\000"
 4227      49464F5F 
 4227      524400
 4228              	.LASF228:
 4229 0b1c 6E756D42 		.ascii	"numBlocks\000"
 4229      6C6F636B 
 4229      7300
 4230              	.LASF115:
 4231 0b26 63707573 		.ascii	"cpussIpc0Irq\000"
 4231      73497063 
 4231      30497271 
 4231      00
 4232              	.LASF50:
 4233 0b33 52455345 		.ascii	"RESERVED6\000"
 4233      52564544 
 4233      3600
 4234              	.LASF21:
 4235 0b3d 4354524C 		.ascii	"CTRL\000"
 4235      00
 4236              	.LASF164:
 4237 0b42 63707573 		.ascii	"cpussCm4StatusOffset\000"
 4237      73436D34 
 4237      53746174 
 4237      75734F66 
 4237      66736574 
 4238              	.LASF198:
 4239 0b57 696E6974 		.ascii	"initKey\000"
 4239      4B657900 
 4240              	.LASF227:
 4241 0b5f 626C6F63 		.ascii	"blockSize\000"
 4241      6B53697A 
 4241      6500
 4242              	.LASF19:
 4243 0b69 75696E74 		.ascii	"uint32_t\000"
 4243      33325F74 
 4243      00
 4244              	.LASF199:
 4245 0b72 63795F73 		.ascii	"cy_stc_scb_uart_context_t\000"
 4245      74635F73 
 4245      63625F75 
 4245      6172745F 
 4245      636F6E74 
ARM GAS  C:\Users\jmori\AppData\Local\Temp\ccYuPisP.s 			page 115


 4246              	.LASF22:
 4247 0b8c 53544154 		.ascii	"STATUS\000"
 4247      555300
 4248              	.LASF120:
 4249 0b93 73727373 		.ascii	"srssNumHfroot\000"
 4249      4E756D48 
 4249      66726F6F 
 4249      7400
 4250              	.LASF233:
 4251 0ba1 61726D5F 		.ascii	"arm_mean_f32\000"
 4251      6D65616E 
 4251      5F663332 
 4251      00
 4252              	.LASF240:
 4253 0bae 433A5C55 		.ascii	"C:\\Users\\jmori\\OneDrive\\Documents\\PSoC Creator"
 4253      73657273 
 4253      5C6A6D6F 
 4253      72695C4F 
 4253      6E654472 
 4254 0bdc 5C547261 		.ascii	"\\Traitement de signal-exploration\\Design01.cydsn\000"
 4254      6974656D 
 4254      656E7420 
 4254      64652073 
 4254      69676E61 
 4255              	.LASF117:
 4256 0c0d 63707573 		.ascii	"cpussNotConnectedIrq\000"
 4256      734E6F74 
 4256      436F6E6E 
 4256      65637465 
 4256      64497271 
 4257              	.LASF171:
 4258 0c22 63707573 		.ascii	"cpussCm4NmiCtlOffset\000"
 4258      73436D34 
 4258      4E6D6943 
 4258      746C4F66 
 4258      66736574 
 4259              	.LASF131:
 4260 0c37 666C6173 		.ascii	"flashWriteDelay\000"
 4260      68577269 
 4260      74654465 
 4260      6C617900 
 4261              	.LASF48:
 4262 0c47 52585F46 		.ascii	"RX_FIFO_CTRL\000"
 4262      49464F5F 
 4262      4354524C 
 4262      00
 4263              	.LASF15:
 4264 0c54 75696E74 		.ascii	"uint8_t\000"
 4264      385F7400 
 4265              	.LASF37:
 4266 0c5c 4932435F 		.ascii	"I2C_M_CMD\000"
 4266      4D5F434D 
 4266      4400
 4267              	.LASF211:
 4268 0c66 44634972 		.ascii	"DcIr\000"
 4268      00
 4269              	.LASF157:
ARM GAS  C:\Users\jmori\AppData\Local\Temp\ccYuPisP.s 			page 116


 4270 0c6b 6770696F 		.ascii	"gpioPrtIntrCfgOffset\000"
 4270      50727449 
 4270      6E747243 
 4270      66674F66 
 4270      66736574 
 4271              	.LASF222:
 4272 0c80 66697253 		.ascii	"firStateF32\000"
 4272      74617465 
 4272      46333200 
 4273              	.LASF190:
 4274 0c8c 72785269 		.ascii	"rxRingBufTail\000"
 4274      6E674275 
 4274      66546169 
 4274      6C00
 4275              	.LASF62:
 4276 0c9a 494E5452 		.ascii	"INTR_I2C_EC_MASK\000"
 4276      5F493243 
 4276      5F45435F 
 4276      4D41534B 
 4276      00
 4277              	.LASF168:
 4278 0cab 63707573 		.ascii	"cpussTrimRomCtlOffset\000"
 4278      73547269 
 4278      6D526F6D 
 4278      43746C4F 
 4278      66667365 
 4279              	.LASF202:
 4280 0cc1 70436F65 		.ascii	"pCoeffs\000"
 4280      66667300 
 4281              	.LASF185:
 4282 0cc9 74785374 		.ascii	"txStatus\000"
 4282      61747573 
 4282      00
 4283              	.LASF104:
 4284 0cd2 64775665 		.ascii	"dwVersion\000"
 4284      7273696F 
 4284      6E00
 4285              	.LASF100:
 4286 0cdc 69706342 		.ascii	"ipcBase\000"
 4286      61736500 
 4287              	.LASF243:
 4288 0ce4 6D61696E 		.ascii	"main\000"
 4288      00
 4289              	.LASF47:
 4290 0ce9 52585F43 		.ascii	"RX_CTRL\000"
 4290      54524C00 
 4291              	.LASF241:
 4292 0cf1 63795F73 		.ascii	"cy_stc_scb_uart_context\000"
 4292      74635F73 
 4292      63625F75 
 4292      6172745F 
 4292      636F6E74 
 4293              	.LASF239:
 4294 0d09 6D61696E 		.ascii	"main_cm4.c\000"
 4294      5F636D34 
 4294      2E6300
 4295              	.LASF102:
ARM GAS  C:\Users\jmori\AppData\Local\Temp\ccYuPisP.s 			page 117


 4296 0d14 63707573 		.ascii	"cpussVersion\000"
 4296      73566572 
 4296      73696F6E 
 4296      00
 4297              	.LASF129:
 4298 0d21 666C6173 		.ascii	"flashRwwRequired\000"
 4298      68527777 
 4298      52657175 
 4298      69726564 
 4298      00
 4299              	.LASF90:
 4300 0d32 43795343 		.ascii	"CySCB_Type\000"
 4300      425F5479 
 4300      706500
 4301              		.ident	"GCC: (GNU Tools for ARM Embedded Processors) 5.4.1 20160609 (release) [ARM/embedded-5-bran
