ARM GAS  C:\Users\jmori\AppData\Local\Temp\ccFGeXpP.s 			page 1


   1              		.syntax unified
   2              		.cpu cortex-m4
   3              		.eabi_attribute 27, 1
   4              		.fpu fpv4-sp-d16
   5              		.eabi_attribute 20, 1
   6              		.eabi_attribute 21, 1
   7              		.eabi_attribute 23, 3
   8              		.eabi_attribute 24, 1
   9              		.eabi_attribute 25, 1
  10              		.eabi_attribute 26, 1
  11              		.eabi_attribute 30, 1
  12              		.eabi_attribute 34, 1
  13              		.eabi_attribute 18, 4
  14              		.thumb
  15              		.syntax unified
  16              		.file	"main_cm4.c"
  17              		.text
  18              	.Ltext0:
  19              		.cfi_sections	.debug_frame
  20              		.section	.text.AlarmeFC,"ax",%progbits
  21              		.align	2
  22              		.global	AlarmeFC
  23              		.thumb
  24              		.thumb_func
  25              		.type	AlarmeFC, %function
  26              	AlarmeFC:
  27              	.LFB366:
  28              		.file 1 "main_cm4.c"
   1:main_cm4.c    **** /* ========================================
   2:main_cm4.c    ****  *
   3:main_cm4.c    ****  * Copyright YOUR COMPANY, THE YEAR
   4:main_cm4.c    ****  * All Rights Reserved
   5:main_cm4.c    ****  * UNPUBLISHED, LICENSED SOFTWARE.
   6:main_cm4.c    ****  *
   7:main_cm4.c    ****  * CONFIDENTIAL AND PROPRIETARY INFORMATION
   8:main_cm4.c    ****  * WHICH IS THE PROPERTY OF your company.
   9:main_cm4.c    ****  *
  10:main_cm4.c    ****  * ========================================
  11:main_cm4.c    **** */
  12:main_cm4.c    **** #include "project.h"
  13:main_cm4.c    **** #include <arm_math.h>
  14:main_cm4.c    **** #include <core_cm4.h>
  15:main_cm4.c    **** #include "FreeRTOS.h"
  16:main_cm4.c    **** #include "task.h"
  17:main_cm4.c    **** #include <stdio.h>
  18:main_cm4.c    **** # include <stdlib.h>
  19:main_cm4.c    **** 
  20:main_cm4.c    **** 
  21:main_cm4.c    **** #define TEST_LENGTH_SAMPLES  200
  22:main_cm4.c    **** #define BLOCK_SIZE 200 
  23:main_cm4.c    **** #define FILTER_TAP_NUM 861
  24:main_cm4.c    **** static float32_t firStateF32[BLOCK_SIZE + FILTER_TAP_NUM -1];
  25:main_cm4.c    **** 
  26:main_cm4.c    **** static double firCoeffs32[FILTER_TAP_NUM] = {
  27:main_cm4.c    ****   0.00823081660517282,
  28:main_cm4.c    ****   0.004241153255664437,
  29:main_cm4.c    ****   0.0049967657835168705,
ARM GAS  C:\Users\jmori\AppData\Local\Temp\ccFGeXpP.s 			page 2


  30:main_cm4.c    ****   0.005567864835399979,
  31:main_cm4.c    ****   0.005875536616866924,
  32:main_cm4.c    ****   0.005850486069745185,
  33:main_cm4.c    ****   0.005440080226476028,
  34:main_cm4.c    ****   0.004614530313882306,
  35:main_cm4.c    ****   0.003371716494294435,
  36:main_cm4.c    ****   0.0017400445864035816,
  37:main_cm4.c    ****   -0.00022105683123942575,
  38:main_cm4.c    ****   -0.0024231849744504263,
  39:main_cm4.c    ****   -0.004753767563898142,
  40:main_cm4.c    ****   -0.007082864079285067,
  41:main_cm4.c    ****   -0.00927256147200671,
  42:main_cm4.c    ****   -0.01118603689903546,
  43:main_cm4.c    ****   -0.012699778394074901,
  44:main_cm4.c    ****   -0.013710949850814079,
  45:main_cm4.c    ****   -0.014149462499036777,
  46:main_cm4.c    ****   -0.013980700638317634,
  47:main_cm4.c    ****   -0.013212334317102751,
  48:main_cm4.c    ****   -0.011893167163254444,
  49:main_cm4.c    ****   -0.010109777720699726,
  50:main_cm4.c    ****   -0.007981978842737922,
  51:main_cm4.c    ****   -0.005652459117363256,
  52:main_cm4.c    ****   -0.003275896026922075,
  53:main_cm4.c    ****   -0.0010077785816155298,
  54:main_cm4.c    ****   0.0010087598006497094,
  55:main_cm4.c    ****   0.0026545109271496584,
  56:main_cm4.c    ****   0.0038426085932366577,
  57:main_cm4.c    ****   0.004525854626591926,
  58:main_cm4.c    ****   0.004700062182754323,
  59:main_cm4.c    ****   0.0044035916844086115,
  60:main_cm4.c    ****   0.0037123367232186626,
  61:main_cm4.c    ****   0.0027335817434238742,
  62:main_cm4.c    ****   0.001595085428857242,
  63:main_cm4.c    ****   0.0004333784696272693,
  64:main_cm4.c    ****   -0.0006189747821241994,
  65:main_cm4.c    ****   -0.0014450610485866888,
  66:main_cm4.c    ****   -0.001953929718048559,
  67:main_cm4.c    ****   -0.0020892343266503154,
  68:main_cm4.c    ****   -0.0018334673631400697,
  69:main_cm4.c    ****   -0.0012086231585008757,
  70:main_cm4.c    ****   -0.00027362269599643865,
  71:main_cm4.c    ****   0.000881986874828727,
  72:main_cm4.c    ****   0.002147329667583445,
  73:main_cm4.c    ****   0.003401263276020902,
  74:main_cm4.c    ****   0.0045249237719876285,
  75:main_cm4.c    ****   0.005412913293049235,
  76:main_cm4.c    ****   0.0059837643254459045,
  77:main_cm4.c    ****   0.006187847653395958,
  78:main_cm4.c    ****   0.006012410887807678,
  79:main_cm4.c    ****   0.005482120297176556,
  80:main_cm4.c    ****   0.004656422014693793,
  81:main_cm4.c    ****   0.003623450454389641,
  82:main_cm4.c    ****   0.0024909157952062873,
  83:main_cm4.c    ****   0.0013753744828894614,
  84:main_cm4.c    ****   0.0003903051470447329,
  85:main_cm4.c    ****   -0.0003653975308359769,
  86:main_cm4.c    ****   -0.0008173031727375558,
ARM GAS  C:\Users\jmori\AppData\Local\Temp\ccFGeXpP.s 			page 3


  87:main_cm4.c    ****   -0.0009227302196534508,
  88:main_cm4.c    ****   -0.0006750196492298914,
  89:main_cm4.c    ****   -0.00010406624183926928,
  90:main_cm4.c    ****   0.0007266624952602495,
  91:main_cm4.c    ****   0.0017270361939607899,
  92:main_cm4.c    ****   0.0027892684362946967,
  93:main_cm4.c    ****   0.0037991269139328694,
  94:main_cm4.c    ****   0.004647621367459624,
  95:main_cm4.c    ****   0.0052421950906097504,
  96:main_cm4.c    ****   0.00551618053880463,
  97:main_cm4.c    ****   0.00543587407625462,
  98:main_cm4.c    ****   0.005004120306193491,
  99:main_cm4.c    ****   0.004259885172811446,
 100:main_cm4.c    ****   0.0032743591387538497,
 101:main_cm4.c    ****   0.002143728341437602,
 102:main_cm4.c    ****   0.000979418756574715,
 103:main_cm4.c    ****   -0.00010344107943647284,
 104:main_cm4.c    ****   -0.0009978937825336827,
 105:main_cm4.c    ****   -0.0016163850868994632,
 106:main_cm4.c    ****   -0.0018996422393615644,
 107:main_cm4.c    ****   -0.0018230183215532754,
 108:main_cm4.c    ****   -0.0013990734129757938,
 109:main_cm4.c    ****   -0.0006765264034586324,
 110:main_cm4.c    ****   0.0002647782030084028,
 111:main_cm4.c    ****   0.0013219273014404755,
 112:main_cm4.c    ****   0.0023794531710287295,
 113:main_cm4.c    ****   0.0033213112750152016,
 114:main_cm4.c    ****   0.004042969506907968,
 115:main_cm4.c    ****   0.0044622094607614,
 116:main_cm4.c    ****   0.004527639894223874,
 117:main_cm4.c    ****   0.004224304491014824,
 118:main_cm4.c    ****   0.003575442770768358,
 119:main_cm4.c    ****   0.0026404348302519537,
 120:main_cm4.c    ****   0.0015086889021712808,
 121:main_cm4.c    ****   0.00029068147439759856,
 122:main_cm4.c    ****   -0.0008934679387341416,
 123:main_cm4.c    ****   -0.0019262166081541938,
 124:main_cm4.c    ****   -0.0027049552470066835,
 125:main_cm4.c    ****   -0.0031527964788830953,
 126:main_cm4.c    ****   -0.0032267274764691167,
 127:main_cm4.c    ****   -0.002922171185902858,
 128:main_cm4.c    ****   -0.002273839041137672,
 129:main_cm4.c    ****   -0.0013523541186405345,
 130:main_cm4.c    ****   -0.0002570767217403462,
 131:main_cm4.c    ****   0.0008939740011782528,
 132:main_cm4.c    ****   0.0019762991557113426,
 133:main_cm4.c    ****   0.002871833583052578,
 134:main_cm4.c    ****   0.0034812915082844042,
 135:main_cm4.c    ****   0.0037342523361926284,
 136:main_cm4.c    ****   0.003596875090195351,
 137:main_cm4.c    ****   0.003075534878625452,
 138:main_cm4.c    ****   0.0022166326912485,
 139:main_cm4.c    ****   0.0011019386547315142,
 140:main_cm4.c    ****   -0.0001595897722525067,
 141:main_cm4.c    ****   -0.00144288529234411,
 142:main_cm4.c    ****   -0.0026195462436795144,
 143:main_cm4.c    ****   -0.0035711384185811803,
ARM GAS  C:\Users\jmori\AppData\Local\Temp\ccFGeXpP.s 			page 4


 144:main_cm4.c    ****   -0.004201546579437247,
 145:main_cm4.c    ****   -0.004447397240801794,
 146:main_cm4.c    ****   -0.00428469148289335,
 147:main_cm4.c    ****   -0.003731412465717955,
 148:main_cm4.c    ****   -0.002846288492228971,
 149:main_cm4.c    ****   -0.001722817311172108,
 150:main_cm4.c    ****   -0.0004797771963002841,
 151:main_cm4.c    ****   0.0007512466176266699,
 152:main_cm4.c    ****   0.0018390381962432203,
 153:main_cm4.c    ****   0.002666523276288476,
 154:main_cm4.c    ****   0.003142589066385007,
 155:main_cm4.c    ****   0.003211964663986561,
 156:main_cm4.c    ****   0.002861200501445673,
 157:main_cm4.c    ****   0.002120067623416445,
 158:main_cm4.c    ****   0.001059053162401366,
 159:main_cm4.c    ****   -0.0002171868556287631,
 160:main_cm4.c    ****   -0.0015808034288799812,
 161:main_cm4.c    ****   -0.002893845925096016,
 162:main_cm4.c    ****   -0.0040225852203543385,
 163:main_cm4.c    ****   -0.0048514521376895456,
 164:main_cm4.c    ****   -0.0052951377942153915,
 165:main_cm4.c    ****   -0.005308177577469094,
 166:main_cm4.c    ****   -0.004888697004458524,
 167:main_cm4.c    ****   -0.004079354929291533,
 168:main_cm4.c    ****   -0.002963049132551897,
 169:main_cm4.c    ****   -0.0016548536812194294,
 170:main_cm4.c    ****   -0.00029009868494837105,
 171:main_cm4.c    ****   0.000988466421272318,
 172:main_cm4.c    ****   0.0020457139757133706,
 173:main_cm4.c    ****   0.0027688808998729366,
 174:main_cm4.c    ****   0.0030790848137448555,
 175:main_cm4.c    ****   0.002940203156603594,
 176:main_cm4.c    ****   0.0023634054494102792,
 177:main_cm4.c    ****   0.001404553239883905,
 178:main_cm4.c    ****   0.00015886684509532076,
 179:main_cm4.c    ****   -0.0012483410797987059,
 180:main_cm4.c    ****   -0.0026752031119850342,
 181:main_cm4.c    ****   -0.003974651682510259,
 182:main_cm4.c    ****   -0.0050117015010827165,
 183:main_cm4.c    ****   -0.005676444057223514,
 184:main_cm4.c    ****   -0.005898715999070015,
 185:main_cm4.c    ****   -0.005654931752351714,
 186:main_cm4.c    ****   -0.004969490269761149,
 187:main_cm4.c    ****   -0.003909697648408695,
 188:main_cm4.c    ****   -0.002579646659313634,
 189:main_cm4.c    ****   -0.001113936961202932,
 190:main_cm4.c    ****   0.00033316130208663316,
 191:main_cm4.c    ****   0.0016088345203464044,
 192:main_cm4.c    ****   0.0025856816121663205,
 193:main_cm4.c    ****   0.0031682793134694093,
 194:main_cm4.c    ****   0.0032853218916839683,
 195:main_cm4.c    ****   0.0029142162402851614,
 196:main_cm4.c    ****   0.0021196012327006947,
 197:main_cm4.c    ****   0.0009499196573085702,
 198:main_cm4.c    ****   -0.00045382000875485563,
 199:main_cm4.c    ****   -0.001956967661586531,
 200:main_cm4.c    ****   -0.003400859342878748,
ARM GAS  C:\Users\jmori\AppData\Local\Temp\ccFGeXpP.s 			page 5


 201:main_cm4.c    ****   -0.004635683831913569,
 202:main_cm4.c    ****   -0.005531500606083494,
 203:main_cm4.c    ****   -0.0059926047368367786,
 204:main_cm4.c    ****   -0.005967454433130833,
 205:main_cm4.c    ****   -0.0054542431734508285,
 206:main_cm4.c    ****   -0.004501378336018333,
 207:main_cm4.c    ****   -0.003202705192194848,
 208:main_cm4.c    ****   -0.0016881754055945066,
 209:main_cm4.c    ****   -0.00011032781850597607,
 210:main_cm4.c    ****   0.0013705821796699044,
 211:main_cm4.c    ****   0.002604619806861318,
 212:main_cm4.c    ****   0.0034648680283809277,
 213:main_cm4.c    ****   0.0038649817572443375,
 214:main_cm4.c    ****   0.0037624249520520534,
 215:main_cm4.c    ****   0.0031693590603063065,
 216:main_cm4.c    ****   0.002146741957180528,
 217:main_cm4.c    ****   0.0008001765886821162,
 218:main_cm4.c    ****   -0.0007294679510108396,
 219:main_cm4.c    ****   -0.002283085804870226,
 220:main_cm4.c    ****   -0.003698080469997203,
 221:main_cm4.c    ****   -0.0048243339940851945,
 222:main_cm4.c    ****   -0.005541415581873645,
 223:main_cm4.c    ****   -0.005770624745724623,
 224:main_cm4.c    ****   -0.005482135764453317,
 225:main_cm4.c    ****   -0.004699428580036574,
 226:main_cm4.c    ****   -0.0034972337282713844,
 227:main_cm4.c    ****   -0.001993664582831038,
 228:main_cm4.c    ****   -0.0003374471152493748,
 229:main_cm4.c    ****   0.0013055775330870734,
 230:main_cm4.c    ****   0.002770481708445894,
 231:main_cm4.c    ****   0.003909831839175194,
 232:main_cm4.c    ****   0.004609619045728825,
 233:main_cm4.c    ****   0.0048002214112565,
 234:main_cm4.c    ****   0.0044636885912290565,
 235:main_cm4.c    ****   0.0036366636186274614,
 236:main_cm4.c    ****   0.0024063579227247543,
 237:main_cm4.c    ****   0.0009016997219832165,
 238:main_cm4.c    ****   -0.0007197813114096608,
 239:main_cm4.c    ****   -0.0022880479347695925,
 240:main_cm4.c    ****   -0.0036375661565151143,
 241:main_cm4.c    ****   -0.004624327561967898,
 242:main_cm4.c    ****   -0.005141405793525949,
 243:main_cm4.c    ****   -0.0051294640035553845,
 244:main_cm4.c    ****   -0.004583125341633804,
 245:main_cm4.c    ****   -0.003551562330387976,
 246:main_cm4.c    ****   -0.002134074725262968,
 247:main_cm4.c    ****   -0.0004697510139774591,
 248:main_cm4.c    ****   0.0012763218759592808,
 249:main_cm4.c    ****   0.0029301879755476504,
 250:main_cm4.c    ****   0.004326960046842565,
 251:main_cm4.c    ****   0.005327358832307392,
 252:main_cm4.c    ****   0.005832155989010236,
 253:main_cm4.c    ****   0.0057925342572675755,
 254:main_cm4.c    ****   0.005215355003667223,
 255:main_cm4.c    ****   0.00416254638453292,
 256:main_cm4.c    ****   0.0027448830998452398,
 257:main_cm4.c    ****   0.0011107475380140745,
ARM GAS  C:\Users\jmori\AppData\Local\Temp\ccFGeXpP.s 			page 6


 258:main_cm4.c    ****   -0.0005688341515932767,
 259:main_cm4.c    ****   -0.0021178214362861177,
 260:main_cm4.c    ****   -0.0033726879157163466,
 261:main_cm4.c    ****   -0.0041995212737925254,
 262:main_cm4.c    ****   -0.0045078635754674835,
 263:main_cm4.c    ****   -0.004260110179899669,
 264:main_cm4.c    ****   -0.0034752712428021346,
 265:main_cm4.c    ****   -0.00222731258532759,
 266:main_cm4.c    ****   -0.0006378111794222377,
 267:main_cm4.c    ****   0.0011363707047258882,
 268:main_cm4.c    ****   0.0029189301668653012,
 269:main_cm4.c    ****   0.004532194974042062,
 270:main_cm4.c    ****   0.005815213314397732,
 271:main_cm4.c    ****   0.006640262729999733,
 272:main_cm4.c    ****   0.006925962745235069,
 273:main_cm4.c    ****   0.006645732271894018,
 274:main_cm4.c    ****   0.005830361446105214,
 275:main_cm4.c    ****   0.004565212237315229,
 276:main_cm4.c    ****   0.0029816098531068006,
 277:main_cm4.c    ****   0.0012437185891636502,
 278:main_cm4.c    ****   -0.00046835791552680663,
 279:main_cm4.c    ****   -0.001976803422777828,
 280:main_cm4.c    ****   -0.003124160096314482,
 281:main_cm4.c    ****   -0.003789436648608591,
 282:main_cm4.c    ****   -0.003900601566038502,
 283:main_cm4.c    ****   -0.003442027677154025,
 284:main_cm4.c    ****   -0.0024561531469110137,
 285:main_cm4.c    ****   -0.0010393094776983186,
 286:main_cm4.c    ****   0.0006680127478326049,
 287:main_cm4.c    ****   0.0024952258737456884,
 288:main_cm4.c    ****   0.004259082726514134,
 289:main_cm4.c    ****   0.005782276303495958,
 290:main_cm4.c    ****   0.006911628506407377,
 291:main_cm4.c    ****   0.007533427288713753,
 292:main_cm4.c    ****   0.007585155017405015,
 293:main_cm4.c    ****   0.007061889544297205,
 294:main_cm4.c    ****   0.006016974892887592,
 295:main_cm4.c    ****   0.004556705252969327,
 296:main_cm4.c    ****   0.0028297896886451106,
 297:main_cm4.c    ****   0.00101222065797553,
 298:main_cm4.c    ****   -0.0007106285474530595,
 299:main_cm4.c    ****   -0.0021627590503681972,
 300:main_cm4.c    ****   -0.0031954417551041856,
 301:main_cm4.c    ****   -0.0037024047061093436,
 302:main_cm4.c    ****   -0.003630736566606629,
 303:main_cm4.c    ****   -0.0029861239296683356,
 304:main_cm4.c    ****   -0.0018325127957145417,
 305:main_cm4.c    ****   -0.0002855464595370629,
 306:main_cm4.c    ****   0.001498751372721746,
 307:main_cm4.c    ****   0.0033397604841493506,
 308:main_cm4.c    ****   0.005050436094146236,
 309:main_cm4.c    ****   0.006456403307032396,
 310:main_cm4.c    ****   0.0074136107138286535,
 311:main_cm4.c    ****   0.007822890194442112,
 312:main_cm4.c    ****   0.007640085102186445,
 313:main_cm4.c    ****   0.006880854612082917,
 314:main_cm4.c    ****   0.005618906046110469,
ARM GAS  C:\Users\jmori\AppData\Local\Temp\ccFGeXpP.s 			page 7


 315:main_cm4.c    ****   0.003978494723149553,
 316:main_cm4.c    ****   0.002122127123054331,
 317:main_cm4.c    ****   0.0002342178287317056,
 318:main_cm4.c    ****   -0.0014972651674417209,
 319:main_cm4.c    ****   -0.0028999627404832713,
 320:main_cm4.c    ****   -0.0038343863772012043,
 321:main_cm4.c    ****   -0.00420832042604433,
 322:main_cm4.c    ****   -0.003985892988800661,
 323:main_cm4.c    ****   -0.0031917543232510438,
 324:main_cm4.c    ****   -0.0019084910909049925,
 325:main_cm4.c    ****   -0.0002680309549067255,
 326:main_cm4.c    ****   0.0015614323792117351,
 327:main_cm4.c    ****   0.0033920520446989533,
 328:main_cm4.c    ****   0.00503531567123585,
 329:main_cm4.c    ****   0.006320812820510816,
 330:main_cm4.c    ****   0.007113459926543471,
 331:main_cm4.c    ****   0.007327062422186348,
 332:main_cm4.c    ****   0.006933374451183596,
 333:main_cm4.c    ****   0.005965398000479574,
 334:main_cm4.c    ****   0.004513260727446009,
 335:main_cm4.c    ****   0.0027157590884999503,
 336:main_cm4.c    ****   0.0007461447773846315,
 337:main_cm4.c    ****   -0.0012048658803259062,
 338:main_cm4.c    ****   -0.0029482190922131583,
 339:main_cm4.c    ****   -0.0043147361115954555,
 340:main_cm4.c    ****   -0.005172927759859835,
 341:main_cm4.c    ****   -0.005442522823561518,
 342:main_cm4.c    ****   -0.005102113144286665,
 343:main_cm4.c    ****   -0.004191521793737017,
 344:main_cm4.c    ****   -0.0028076529077544453,
 345:main_cm4.c    ****   -0.0010943595151727424,
 346:main_cm4.c    ****   0.000770359250706992,
 347:main_cm4.c    ****   0.002592159979484831,
 348:main_cm4.c    ****   0.004180639960762328,
 349:main_cm4.c    ****   0.005367865925469182,
 350:main_cm4.c    ****   0.006026718509001767,
 351:main_cm4.c    ****   0.006080818196134455,
 352:main_cm4.c    ****   0.005513360898042543,
 353:main_cm4.c    ****   0.00436890997409862,
 354:main_cm4.c    ****   0.0027510756838852153,
 355:main_cm4.c    ****   0.000810793851662708,
 356:main_cm4.c    ****   -0.0012701794708578715,
 357:main_cm4.c    ****   -0.0032962568330379676,
 358:main_cm4.c    ****   -0.005074440977334228,
 359:main_cm4.c    ****   -0.0064350901079020875,
 360:main_cm4.c    ****   -0.0072528639555284645,
 361:main_cm4.c    ****   -0.007455677681591299,
 362:main_cm4.c    ****   -0.007027266833633375,
 363:main_cm4.c    ****   -0.006017984877789674,
 364:main_cm4.c    ****   -0.00453965209206193,
 365:main_cm4.c    ****   -0.0027391771515494867,
 366:main_cm4.c    ****   -0.000810908354515525,
 367:main_cm4.c    ****   0.0010495633867293045,
 368:main_cm4.c    ****   0.0026446256486858857,
 369:main_cm4.c    ****   0.0038055502346725236,
 370:main_cm4.c    ****   0.004404001697177,
 371:main_cm4.c    ****   0.004366776626786619,
ARM GAS  C:\Users\jmori\AppData\Local\Temp\ccFGeXpP.s 			page 8


 372:main_cm4.c    ****   0.003682639543087458,
 373:main_cm4.c    ****   0.0024038815827743826,
 374:main_cm4.c    ****   0.0006414733194466225,
 375:main_cm4.c    ****   -0.001445560120768849,
 376:main_cm4.c    ****   -0.003665456869554576,
 377:main_cm4.c    ****   -0.005812427409091598,
 378:main_cm4.c    ****   -0.007686244637367823,
 379:main_cm4.c    ****   -0.00911296323579852,
 380:main_cm4.c    ****   -0.009959447346656526,
 381:main_cm4.c    ****   -0.010151647036790222,
 382:main_cm4.c    ****   -0.009673793291308538,
 383:main_cm4.c    ****   -0.008581606416714155,
 384:main_cm4.c    ****   -0.006985595548657142,
 385:main_cm4.c    ****   -0.005048991322646507,
 386:main_cm4.c    ****   -0.002970349908230752,
 387:main_cm4.c    ****   -0.0009610363740030039,
 388:main_cm4.c    ****   0.0007708706276601449,
 389:main_cm4.c    ****   0.00204136959049526,
 390:main_cm4.c    ****   0.002711122380762093,
 391:main_cm4.c    ****   0.002697492114030201,
 392:main_cm4.c    ****   0.0019817788286629633,
 393:main_cm4.c    ****   0.0006134592600181664,
 394:main_cm4.c    ****   -0.001293701096478316,
 395:main_cm4.c    ****   -0.0035729292690895747,
 396:main_cm4.c    ****   -0.0060207190473813505,
 397:main_cm4.c    ****   -0.008413886622110678,
 398:main_cm4.c    ****   -0.0105316339118813,
 399:main_cm4.c    ****   -0.012176116531002803,
 400:main_cm4.c    ****   -0.013193134675210688,
 401:main_cm4.c    ****   -0.013485740468409701,
 402:main_cm4.c    ****   -0.013024228140014445,
 403:main_cm4.c    ****   -0.011850457159695038,
 404:main_cm4.c    ****   -0.010074704647967114,
 405:main_cm4.c    ****   -0.007866707105699124,
 406:main_cm4.c    ****   -0.005439896716898209,
 407:main_cm4.c    ****   -0.003031722737214531,
 408:main_cm4.c    ****   -0.0008825440604209002,
 409:main_cm4.c    ****   0.0007867819334218507,
 410:main_cm4.c    ****   0.0017964231353167265,
 411:main_cm4.c    ****   0.0020247487838252268,
 412:main_cm4.c    ****   0.0014212690266915708,
 413:main_cm4.c    ****   0.00001234110401845865,
 414:main_cm4.c    ****   -0.002099580768686369,
 415:main_cm4.c    ****   -0.004744019821783855,
 416:main_cm4.c    ****   -0.00769574239562267,
 417:main_cm4.c    ****   -0.010694482219318202,
 418:main_cm4.c    ****   -0.013467950793824134,
 419:main_cm4.c    ****   -0.015756242808104785,
 420:main_cm4.c    ****   -0.01733602938336906,
 421:main_cm4.c    ****   -0.018041653789344064,
 422:main_cm4.c    ****   -0.01778176076395989,
 423:main_cm4.c    ****   -0.01654976681531032,
 424:main_cm4.c    ****   -0.01442749046027815,
 425:main_cm4.c    ****   -0.011581146077571769,
 426:main_cm4.c    ****   -0.008249561163085188,
 427:main_cm4.c    ****   -0.004725583555264271,
 428:main_cm4.c    ****   -0.001333053614952361,
ARM GAS  C:\Users\jmori\AppData\Local\Temp\ccFGeXpP.s 			page 9


 429:main_cm4.c    ****   0.0016004319246630905,
 430:main_cm4.c    ****   0.0037715496989726397,
 431:main_cm4.c    ****   0.004928517764138442,
 432:main_cm4.c    ****   0.004894931698852287,
 433:main_cm4.c    ****   0.003588797974980247,
 434:main_cm4.c    ****   0.0010344852973691316,
 435:main_cm4.c    ****   -0.0026333230297707626,
 436:main_cm4.c    ****   -0.007174198690151446,
 437:main_cm4.c    ****   -0.012255043967884597,
 438:main_cm4.c    ****   -0.01747032969507739,
 439:main_cm4.c    ****   -0.022368711869528213,
 440:main_cm4.c    ****   -0.026484150157319804,
 441:main_cm4.c    ****   -0.02936922118484423,
 442:main_cm4.c    ****   -0.030628026545232955,
 443:main_cm4.c    ****   -0.029946991841096757,
 444:main_cm4.c    ****   -0.027120661338819713,
 445:main_cm4.c    ****   -0.022071010285378927,
 446:main_cm4.c    ****   -0.014858032586836155,
 447:main_cm4.c    ****   -0.005681640953123928,
 448:main_cm4.c    ****   0.005125861998055412,
 449:main_cm4.c    ****   0.017116153199024247,
 450:main_cm4.c    ****   0.02974931229386181,
 451:main_cm4.c    ****   0.04242475751114372,
 452:main_cm4.c    ****   0.0545167041897555,
 453:main_cm4.c    ****   0.06541176523017146,
 454:main_cm4.c    ****   0.07454621946110591,
 455:main_cm4.c    ****   0.08144080597282957,
 456:main_cm4.c    ****   0.08573028012480859,
 457:main_cm4.c    ****   0.08718606153942189,
 458:main_cm4.c    ****   0.08573028012480859,
 459:main_cm4.c    ****   0.08144080597282957,
 460:main_cm4.c    ****   0.07454621946110591,
 461:main_cm4.c    ****   0.06541176523017146,
 462:main_cm4.c    ****   0.0545167041897555,
 463:main_cm4.c    ****   0.04242475751114372,
 464:main_cm4.c    ****   0.02974931229386181,
 465:main_cm4.c    ****   0.017116153199024247,
 466:main_cm4.c    ****   0.005125861998055412,
 467:main_cm4.c    ****   -0.005681640953123928,
 468:main_cm4.c    ****   -0.014858032586836155,
 469:main_cm4.c    ****   -0.022071010285378927,
 470:main_cm4.c    ****   -0.027120661338819713,
 471:main_cm4.c    ****   -0.029946991841096757,
 472:main_cm4.c    ****   -0.030628026545232955,
 473:main_cm4.c    ****   -0.02936922118484423,
 474:main_cm4.c    ****   -0.026484150157319804,
 475:main_cm4.c    ****   -0.022368711869528213,
 476:main_cm4.c    ****   -0.01747032969507739,
 477:main_cm4.c    ****   -0.012255043967884597,
 478:main_cm4.c    ****   -0.007174198690151446,
 479:main_cm4.c    ****   -0.0026333230297707626,
 480:main_cm4.c    ****   0.0010344852973691316,
 481:main_cm4.c    ****   0.003588797974980247,
 482:main_cm4.c    ****   0.004894931698852287,
 483:main_cm4.c    ****   0.004928517764138442,
 484:main_cm4.c    ****   0.0037715496989726397,
 485:main_cm4.c    ****   0.0016004319246630905,
ARM GAS  C:\Users\jmori\AppData\Local\Temp\ccFGeXpP.s 			page 10


 486:main_cm4.c    ****   -0.001333053614952361,
 487:main_cm4.c    ****   -0.004725583555264271,
 488:main_cm4.c    ****   -0.008249561163085188,
 489:main_cm4.c    ****   -0.011581146077571769,
 490:main_cm4.c    ****   -0.01442749046027815,
 491:main_cm4.c    ****   -0.01654976681531032,
 492:main_cm4.c    ****   -0.01778176076395989,
 493:main_cm4.c    ****   -0.018041653789344064,
 494:main_cm4.c    ****   -0.01733602938336906,
 495:main_cm4.c    ****   -0.015756242808104785,
 496:main_cm4.c    ****   -0.013467950793824134,
 497:main_cm4.c    ****   -0.010694482219318202,
 498:main_cm4.c    ****   -0.00769574239562267,
 499:main_cm4.c    ****   -0.004744019821783855,
 500:main_cm4.c    ****   -0.002099580768686369,
 501:main_cm4.c    ****   0.00001234110401845865,
 502:main_cm4.c    ****   0.0014212690266915708,
 503:main_cm4.c    ****   0.0020247487838252268,
 504:main_cm4.c    ****   0.0017964231353167265,
 505:main_cm4.c    ****   0.0007867819334218507,
 506:main_cm4.c    ****   -0.0008825440604209002,
 507:main_cm4.c    ****   -0.003031722737214531,
 508:main_cm4.c    ****   -0.005439896716898209,
 509:main_cm4.c    ****   -0.007866707105699124,
 510:main_cm4.c    ****   -0.010074704647967114,
 511:main_cm4.c    ****   -0.011850457159695038,
 512:main_cm4.c    ****   -0.013024228140014445,
 513:main_cm4.c    ****   -0.013485740468409701,
 514:main_cm4.c    ****   -0.013193134675210688,
 515:main_cm4.c    ****   -0.012176116531002803,
 516:main_cm4.c    ****   -0.0105316339118813,
 517:main_cm4.c    ****   -0.008413886622110678,
 518:main_cm4.c    ****   -0.0060207190473813505,
 519:main_cm4.c    ****   -0.0035729292690895747,
 520:main_cm4.c    ****   -0.001293701096478316,
 521:main_cm4.c    ****   0.0006134592600181664,
 522:main_cm4.c    ****   0.0019817788286629633,
 523:main_cm4.c    ****   0.002697492114030201,
 524:main_cm4.c    ****   0.002711122380762093,
 525:main_cm4.c    ****   0.00204136959049526,
 526:main_cm4.c    ****   0.0007708706276601449,
 527:main_cm4.c    ****   -0.0009610363740030039,
 528:main_cm4.c    ****   -0.002970349908230752,
 529:main_cm4.c    ****   -0.005048991322646507,
 530:main_cm4.c    ****   -0.006985595548657142,
 531:main_cm4.c    ****   -0.008581606416714155,
 532:main_cm4.c    ****   -0.009673793291308538,
 533:main_cm4.c    ****   -0.010151647036790222,
 534:main_cm4.c    ****   -0.009959447346656526,
 535:main_cm4.c    ****   -0.00911296323579852,
 536:main_cm4.c    ****   -0.007686244637367823,
 537:main_cm4.c    ****   -0.005812427409091598,
 538:main_cm4.c    ****   -0.003665456869554576,
 539:main_cm4.c    ****   -0.001445560120768849,
 540:main_cm4.c    ****   0.0006414733194466225,
 541:main_cm4.c    ****   0.0024038815827743826,
 542:main_cm4.c    ****   0.003682639543087458,
ARM GAS  C:\Users\jmori\AppData\Local\Temp\ccFGeXpP.s 			page 11


 543:main_cm4.c    ****   0.004366776626786619,
 544:main_cm4.c    ****   0.004404001697177,
 545:main_cm4.c    ****   0.0038055502346725236,
 546:main_cm4.c    ****   0.0026446256486858857,
 547:main_cm4.c    ****   0.0010495633867293045,
 548:main_cm4.c    ****   -0.000810908354515525,
 549:main_cm4.c    ****   -0.0027391771515494867,
 550:main_cm4.c    ****   -0.00453965209206193,
 551:main_cm4.c    ****   -0.006017984877789674,
 552:main_cm4.c    ****   -0.007027266833633375,
 553:main_cm4.c    ****   -0.007455677681591299,
 554:main_cm4.c    ****   -0.0072528639555284645,
 555:main_cm4.c    ****   -0.0064350901079020875,
 556:main_cm4.c    ****   -0.005074440977334228,
 557:main_cm4.c    ****   -0.0032962568330379676,
 558:main_cm4.c    ****   -0.0012701794708578715,
 559:main_cm4.c    ****   0.000810793851662708,
 560:main_cm4.c    ****   0.0027510756838852153,
 561:main_cm4.c    ****   0.00436890997409862,
 562:main_cm4.c    ****   0.005513360898042543,
 563:main_cm4.c    ****   0.006080818196134455,
 564:main_cm4.c    ****   0.006026718509001767,
 565:main_cm4.c    ****   0.005367865925469182,
 566:main_cm4.c    ****   0.004180639960762328,
 567:main_cm4.c    ****   0.002592159979484831,
 568:main_cm4.c    ****   0.000770359250706992,
 569:main_cm4.c    ****   -0.0010943595151727424,
 570:main_cm4.c    ****   -0.0028076529077544453,
 571:main_cm4.c    ****   -0.004191521793737017,
 572:main_cm4.c    ****   -0.005102113144286665,
 573:main_cm4.c    ****   -0.005442522823561518,
 574:main_cm4.c    ****   -0.005172927759859835,
 575:main_cm4.c    ****   -0.0043147361115954555,
 576:main_cm4.c    ****   -0.0029482190922131583,
 577:main_cm4.c    ****   -0.0012048658803259062,
 578:main_cm4.c    ****   0.0007461447773846315,
 579:main_cm4.c    ****   0.0027157590884999503,
 580:main_cm4.c    ****   0.004513260727446009,
 581:main_cm4.c    ****   0.005965398000479574,
 582:main_cm4.c    ****   0.006933374451183596,
 583:main_cm4.c    ****   0.007327062422186348,
 584:main_cm4.c    ****   0.007113459926543471,
 585:main_cm4.c    ****   0.006320812820510816,
 586:main_cm4.c    ****   0.00503531567123585,
 587:main_cm4.c    ****   0.0033920520446989533,
 588:main_cm4.c    ****   0.0015614323792117351,
 589:main_cm4.c    ****   -0.0002680309549067255,
 590:main_cm4.c    ****   -0.0019084910909049925,
 591:main_cm4.c    ****   -0.0031917543232510438,
 592:main_cm4.c    ****   -0.003985892988800661,
 593:main_cm4.c    ****   -0.00420832042604433,
 594:main_cm4.c    ****   -0.0038343863772012043,
 595:main_cm4.c    ****   -0.0028999627404832713,
 596:main_cm4.c    ****   -0.0014972651674417209,
 597:main_cm4.c    ****   0.0002342178287317056,
 598:main_cm4.c    ****   0.002122127123054331,
 599:main_cm4.c    ****   0.003978494723149553,
ARM GAS  C:\Users\jmori\AppData\Local\Temp\ccFGeXpP.s 			page 12


 600:main_cm4.c    ****   0.005618906046110469,
 601:main_cm4.c    ****   0.006880854612082917,
 602:main_cm4.c    ****   0.007640085102186445,
 603:main_cm4.c    ****   0.007822890194442112,
 604:main_cm4.c    ****   0.0074136107138286535,
 605:main_cm4.c    ****   0.006456403307032396,
 606:main_cm4.c    ****   0.005050436094146236,
 607:main_cm4.c    ****   0.0033397604841493506,
 608:main_cm4.c    ****   0.001498751372721746,
 609:main_cm4.c    ****   -0.0002855464595370629,
 610:main_cm4.c    ****   -0.0018325127957145417,
 611:main_cm4.c    ****   -0.0029861239296683356,
 612:main_cm4.c    ****   -0.003630736566606629,
 613:main_cm4.c    ****   -0.0037024047061093436,
 614:main_cm4.c    ****   -0.0031954417551041856,
 615:main_cm4.c    ****   -0.0021627590503681972,
 616:main_cm4.c    ****   -0.0007106285474530595,
 617:main_cm4.c    ****   0.00101222065797553,
 618:main_cm4.c    ****   0.0028297896886451106,
 619:main_cm4.c    ****   0.004556705252969327,
 620:main_cm4.c    ****   0.006016974892887592,
 621:main_cm4.c    ****   0.007061889544297205,
 622:main_cm4.c    ****   0.007585155017405015,
 623:main_cm4.c    ****   0.007533427288713753,
 624:main_cm4.c    ****   0.006911628506407377,
 625:main_cm4.c    ****   0.005782276303495958,
 626:main_cm4.c    ****   0.004259082726514134,
 627:main_cm4.c    ****   0.0024952258737456884,
 628:main_cm4.c    ****   0.0006680127478326049,
 629:main_cm4.c    ****   -0.0010393094776983186,
 630:main_cm4.c    ****   -0.0024561531469110137,
 631:main_cm4.c    ****   -0.003442027677154025,
 632:main_cm4.c    ****   -0.003900601566038502,
 633:main_cm4.c    ****   -0.003789436648608591,
 634:main_cm4.c    ****   -0.003124160096314482,
 635:main_cm4.c    ****   -0.001976803422777828,
 636:main_cm4.c    ****   -0.00046835791552680663,
 637:main_cm4.c    ****   0.0012437185891636502,
 638:main_cm4.c    ****   0.0029816098531068006,
 639:main_cm4.c    ****   0.004565212237315229,
 640:main_cm4.c    ****   0.005830361446105214,
 641:main_cm4.c    ****   0.006645732271894018,
 642:main_cm4.c    ****   0.006925962745235069,
 643:main_cm4.c    ****   0.006640262729999733,
 644:main_cm4.c    ****   0.005815213314397732,
 645:main_cm4.c    ****   0.004532194974042062,
 646:main_cm4.c    ****   0.0029189301668653012,
 647:main_cm4.c    ****   0.0011363707047258882,
 648:main_cm4.c    ****   -0.0006378111794222377,
 649:main_cm4.c    ****   -0.00222731258532759,
 650:main_cm4.c    ****   -0.0034752712428021346,
 651:main_cm4.c    ****   -0.004260110179899669,
 652:main_cm4.c    ****   -0.0045078635754674835,
 653:main_cm4.c    ****   -0.0041995212737925254,
 654:main_cm4.c    ****   -0.0033726879157163466,
 655:main_cm4.c    ****   -0.0021178214362861177,
 656:main_cm4.c    ****   -0.0005688341515932767,
ARM GAS  C:\Users\jmori\AppData\Local\Temp\ccFGeXpP.s 			page 13


 657:main_cm4.c    ****   0.0011107475380140745,
 658:main_cm4.c    ****   0.0027448830998452398,
 659:main_cm4.c    ****   0.00416254638453292,
 660:main_cm4.c    ****   0.005215355003667223,
 661:main_cm4.c    ****   0.0057925342572675755,
 662:main_cm4.c    ****   0.005832155989010236,
 663:main_cm4.c    ****   0.005327358832307392,
 664:main_cm4.c    ****   0.004326960046842565,
 665:main_cm4.c    ****   0.0029301879755476504,
 666:main_cm4.c    ****   0.0012763218759592808,
 667:main_cm4.c    ****   -0.0004697510139774591,
 668:main_cm4.c    ****   -0.002134074725262968,
 669:main_cm4.c    ****   -0.003551562330387976,
 670:main_cm4.c    ****   -0.004583125341633804,
 671:main_cm4.c    ****   -0.0051294640035553845,
 672:main_cm4.c    ****   -0.005141405793525949,
 673:main_cm4.c    ****   -0.004624327561967898,
 674:main_cm4.c    ****   -0.0036375661565151143,
 675:main_cm4.c    ****   -0.0022880479347695925,
 676:main_cm4.c    ****   -0.0007197813114096608,
 677:main_cm4.c    ****   0.0009016997219832165,
 678:main_cm4.c    ****   0.0024063579227247543,
 679:main_cm4.c    ****   0.0036366636186274614,
 680:main_cm4.c    ****   0.0044636885912290565,
 681:main_cm4.c    ****   0.0048002214112565,
 682:main_cm4.c    ****   0.004609619045728825,
 683:main_cm4.c    ****   0.003909831839175194,
 684:main_cm4.c    ****   0.002770481708445894,
 685:main_cm4.c    ****   0.0013055775330870734,
 686:main_cm4.c    ****   -0.0003374471152493748,
 687:main_cm4.c    ****   -0.001993664582831038,
 688:main_cm4.c    ****   -0.0034972337282713844,
 689:main_cm4.c    ****   -0.004699428580036574,
 690:main_cm4.c    ****   -0.005482135764453317,
 691:main_cm4.c    ****   -0.005770624745724623,
 692:main_cm4.c    ****   -0.005541415581873645,
 693:main_cm4.c    ****   -0.0048243339940851945,
 694:main_cm4.c    ****   -0.003698080469997203,
 695:main_cm4.c    ****   -0.002283085804870226,
 696:main_cm4.c    ****   -0.0007294679510108396,
 697:main_cm4.c    ****   0.0008001765886821162,
 698:main_cm4.c    ****   0.002146741957180528,
 699:main_cm4.c    ****   0.0031693590603063065,
 700:main_cm4.c    ****   0.0037624249520520534,
 701:main_cm4.c    ****   0.0038649817572443375,
 702:main_cm4.c    ****   0.0034648680283809277,
 703:main_cm4.c    ****   0.002604619806861318,
 704:main_cm4.c    ****   0.0013705821796699044,
 705:main_cm4.c    ****   -0.00011032781850597607,
 706:main_cm4.c    ****   -0.0016881754055945066,
 707:main_cm4.c    ****   -0.003202705192194848,
 708:main_cm4.c    ****   -0.004501378336018333,
 709:main_cm4.c    ****   -0.0054542431734508285,
 710:main_cm4.c    ****   -0.005967454433130833,
 711:main_cm4.c    ****   -0.0059926047368367786,
 712:main_cm4.c    ****   -0.005531500606083494,
 713:main_cm4.c    ****   -0.004635683831913569,
ARM GAS  C:\Users\jmori\AppData\Local\Temp\ccFGeXpP.s 			page 14


 714:main_cm4.c    ****   -0.003400859342878748,
 715:main_cm4.c    ****   -0.001956967661586531,
 716:main_cm4.c    ****   -0.00045382000875485563,
 717:main_cm4.c    ****   0.0009499196573085702,
 718:main_cm4.c    ****   0.0021196012327006947,
 719:main_cm4.c    ****   0.0029142162402851614,
 720:main_cm4.c    ****   0.0032853218916839683,
 721:main_cm4.c    ****   0.0031682793134694093,
 722:main_cm4.c    ****   0.0025856816121663205,
 723:main_cm4.c    ****   0.0016088345203464044,
 724:main_cm4.c    ****   0.00033316130208663316,
 725:main_cm4.c    ****   -0.001113936961202932,
 726:main_cm4.c    ****   -0.002579646659313634,
 727:main_cm4.c    ****   -0.003909697648408695,
 728:main_cm4.c    ****   -0.004969490269761149,
 729:main_cm4.c    ****   -0.005654931752351714,
 730:main_cm4.c    ****   -0.005898715999070015,
 731:main_cm4.c    ****   -0.005676444057223514,
 732:main_cm4.c    ****   -0.0050117015010827165,
 733:main_cm4.c    ****   -0.003974651682510259,
 734:main_cm4.c    ****   -0.0026752031119850342,
 735:main_cm4.c    ****   -0.0012483410797987059,
 736:main_cm4.c    ****   0.00015886684509532076,
 737:main_cm4.c    ****   0.001404553239883905,
 738:main_cm4.c    ****   0.0023634054494102792,
 739:main_cm4.c    ****   0.002940203156603594,
 740:main_cm4.c    ****   0.0030790848137448555,
 741:main_cm4.c    ****   0.0027688808998729366,
 742:main_cm4.c    ****   0.0020457139757133706,
 743:main_cm4.c    ****   0.000988466421272318,
 744:main_cm4.c    ****   -0.00029009868494837105,
 745:main_cm4.c    ****   -0.0016548536812194294,
 746:main_cm4.c    ****   -0.002963049132551897,
 747:main_cm4.c    ****   -0.004079354929291533,
 748:main_cm4.c    ****   -0.004888697004458524,
 749:main_cm4.c    ****   -0.005308177577469094,
 750:main_cm4.c    ****   -0.0052951377942153915,
 751:main_cm4.c    ****   -0.0048514521376895456,
 752:main_cm4.c    ****   -0.0040225852203543385,
 753:main_cm4.c    ****   -0.002893845925096016,
 754:main_cm4.c    ****   -0.0015808034288799812,
 755:main_cm4.c    ****   -0.0002171868556287631,
 756:main_cm4.c    ****   0.001059053162401366,
 757:main_cm4.c    ****   0.002120067623416445,
 758:main_cm4.c    ****   0.002861200501445673,
 759:main_cm4.c    ****   0.003211964663986561,
 760:main_cm4.c    ****   0.003142589066385007,
 761:main_cm4.c    ****   0.002666523276288476,
 762:main_cm4.c    ****   0.0018390381962432203,
 763:main_cm4.c    ****   0.0007512466176266699,
 764:main_cm4.c    ****   -0.0004797771963002841,
 765:main_cm4.c    ****   -0.001722817311172108,
 766:main_cm4.c    ****   -0.002846288492228971,
 767:main_cm4.c    ****   -0.003731412465717955,
 768:main_cm4.c    ****   -0.00428469148289335,
 769:main_cm4.c    ****   -0.004447397240801794,
 770:main_cm4.c    ****   -0.004201546579437247,
ARM GAS  C:\Users\jmori\AppData\Local\Temp\ccFGeXpP.s 			page 15


 771:main_cm4.c    ****   -0.0035711384185811803,
 772:main_cm4.c    ****   -0.0026195462436795144,
 773:main_cm4.c    ****   -0.00144288529234411,
 774:main_cm4.c    ****   -0.0001595897722525067,
 775:main_cm4.c    ****   0.0011019386547315142,
 776:main_cm4.c    ****   0.0022166326912485,
 777:main_cm4.c    ****   0.003075534878625452,
 778:main_cm4.c    ****   0.003596875090195351,
 779:main_cm4.c    ****   0.0037342523361926284,
 780:main_cm4.c    ****   0.0034812915082844042,
 781:main_cm4.c    ****   0.002871833583052578,
 782:main_cm4.c    ****   0.0019762991557113426,
 783:main_cm4.c    ****   0.0008939740011782528,
 784:main_cm4.c    ****   -0.0002570767217403462,
 785:main_cm4.c    ****   -0.0013523541186405345,
 786:main_cm4.c    ****   -0.002273839041137672,
 787:main_cm4.c    ****   -0.002922171185902858,
 788:main_cm4.c    ****   -0.0032267274764691167,
 789:main_cm4.c    ****   -0.0031527964788830953,
 790:main_cm4.c    ****   -0.0027049552470066835,
 791:main_cm4.c    ****   -0.0019262166081541938,
 792:main_cm4.c    ****   -0.0008934679387341416,
 793:main_cm4.c    ****   0.00029068147439759856,
 794:main_cm4.c    ****   0.0015086889021712808,
 795:main_cm4.c    ****   0.0026404348302519537,
 796:main_cm4.c    ****   0.003575442770768358,
 797:main_cm4.c    ****   0.004224304491014824,
 798:main_cm4.c    ****   0.004527639894223874,
 799:main_cm4.c    ****   0.0044622094607614,
 800:main_cm4.c    ****   0.004042969506907968,
 801:main_cm4.c    ****   0.0033213112750152016,
 802:main_cm4.c    ****   0.0023794531710287295,
 803:main_cm4.c    ****   0.0013219273014404755,
 804:main_cm4.c    ****   0.0002647782030084028,
 805:main_cm4.c    ****   -0.0006765264034586324,
 806:main_cm4.c    ****   -0.0013990734129757938,
 807:main_cm4.c    ****   -0.0018230183215532754,
 808:main_cm4.c    ****   -0.0018996422393615644,
 809:main_cm4.c    ****   -0.0016163850868994632,
 810:main_cm4.c    ****   -0.0009978937825336827,
 811:main_cm4.c    ****   -0.00010344107943647284,
 812:main_cm4.c    ****   0.000979418756574715,
 813:main_cm4.c    ****   0.002143728341437602,
 814:main_cm4.c    ****   0.0032743591387538497,
 815:main_cm4.c    ****   0.004259885172811446,
 816:main_cm4.c    ****   0.005004120306193491,
 817:main_cm4.c    ****   0.00543587407625462,
 818:main_cm4.c    ****   0.00551618053880463,
 819:main_cm4.c    ****   0.0052421950906097504,
 820:main_cm4.c    ****   0.004647621367459624,
 821:main_cm4.c    ****   0.0037991269139328694,
 822:main_cm4.c    ****   0.0027892684362946967,
 823:main_cm4.c    ****   0.0017270361939607899,
 824:main_cm4.c    ****   0.0007266624952602495,
 825:main_cm4.c    ****   -0.00010406624183926928,
 826:main_cm4.c    ****   -0.0006750196492298914,
 827:main_cm4.c    ****   -0.0009227302196534508,
ARM GAS  C:\Users\jmori\AppData\Local\Temp\ccFGeXpP.s 			page 16


 828:main_cm4.c    ****   -0.0008173031727375558,
 829:main_cm4.c    ****   -0.0003653975308359769,
 830:main_cm4.c    ****   0.0003903051470447329,
 831:main_cm4.c    ****   0.0013753744828894614,
 832:main_cm4.c    ****   0.0024909157952062873,
 833:main_cm4.c    ****   0.003623450454389641,
 834:main_cm4.c    ****   0.004656422014693793,
 835:main_cm4.c    ****   0.005482120297176556,
 836:main_cm4.c    ****   0.006012410887807678,
 837:main_cm4.c    ****   0.006187847653395958,
 838:main_cm4.c    ****   0.0059837643254459045,
 839:main_cm4.c    ****   0.005412913293049235,
 840:main_cm4.c    ****   0.0045249237719876285,
 841:main_cm4.c    ****   0.003401263276020902,
 842:main_cm4.c    ****   0.002147329667583445,
 843:main_cm4.c    ****   0.000881986874828727,
 844:main_cm4.c    ****   -0.00027362269599643865,
 845:main_cm4.c    ****   -0.0012086231585008757,
 846:main_cm4.c    ****   -0.0018334673631400697,
 847:main_cm4.c    ****   -0.0020892343266503154,
 848:main_cm4.c    ****   -0.001953929718048559,
 849:main_cm4.c    ****   -0.0014450610485866888,
 850:main_cm4.c    ****   -0.0006189747821241994,
 851:main_cm4.c    ****   0.0004333784696272693,
 852:main_cm4.c    ****   0.001595085428857242,
 853:main_cm4.c    ****   0.0027335817434238742,
 854:main_cm4.c    ****   0.0037123367232186626,
 855:main_cm4.c    ****   0.0044035916844086115,
 856:main_cm4.c    ****   0.004700062182754323,
 857:main_cm4.c    ****   0.004525854626591926,
 858:main_cm4.c    ****   0.0038426085932366577,
 859:main_cm4.c    ****   0.0026545109271496584,
 860:main_cm4.c    ****   0.0010087598006497094,
 861:main_cm4.c    ****   -0.0010077785816155298,
 862:main_cm4.c    ****   -0.003275896026922075,
 863:main_cm4.c    ****   -0.005652459117363256,
 864:main_cm4.c    ****   -0.007981978842737922,
 865:main_cm4.c    ****   -0.010109777720699726,
 866:main_cm4.c    ****   -0.011893167163254444,
 867:main_cm4.c    ****   -0.013212334317102751,
 868:main_cm4.c    ****   -0.013980700638317634,
 869:main_cm4.c    ****   -0.014149462499036777,
 870:main_cm4.c    ****   -0.013710949850814079,
 871:main_cm4.c    ****   -0.012699778394074901,
 872:main_cm4.c    ****   -0.01118603689903546,
 873:main_cm4.c    ****   -0.00927256147200671,
 874:main_cm4.c    ****   -0.007082864079285067,
 875:main_cm4.c    ****   -0.004753767563898142,
 876:main_cm4.c    ****   -0.0024231849744504263,
 877:main_cm4.c    ****   -0.00022105683123942575,
 878:main_cm4.c    ****   0.0017400445864035816,
 879:main_cm4.c    ****   0.003371716494294435,
 880:main_cm4.c    ****   0.004614530313882306,
 881:main_cm4.c    ****   0.005440080226476028,
 882:main_cm4.c    ****   0.005850486069745185,
 883:main_cm4.c    ****   0.005875536616866924,
 884:main_cm4.c    ****   0.005567864835399979,
ARM GAS  C:\Users\jmori\AppData\Local\Temp\ccFGeXpP.s 			page 17


 885:main_cm4.c    ****   0.0049967657835168705,
 886:main_cm4.c    ****   0.004241153255664437,
 887:main_cm4.c    ****   0.00823081660517282
 888:main_cm4.c    **** };
 889:main_cm4.c    **** 
 890:main_cm4.c    **** 
 891:main_cm4.c    **** 
 892:main_cm4.c    **** uint32_t blockSize = BLOCK_SIZE;
 893:main_cm4.c    **** uint32_t numBlocks = TEST_LENGTH_SAMPLES/BLOCK_SIZE;
 894:main_cm4.c    **** arm_fir_instance_f32 S; 
 895:main_cm4.c    **** volatile float R =0;
 896:main_cm4.c    **** volatile float SpO2 =0;
 897:main_cm4.c    **** volatile float bpm =0;
 898:main_cm4.c    **** 
 899:main_cm4.c    **** volatile int NbreMax =0;
 900:main_cm4.c    **** volatile int flag =0;
 901:main_cm4.c    **** volatile int NbreSec =0;
 902:main_cm4.c    **** 
 903:main_cm4.c    **** //volatile float Circulaire[60] = {0,0,0,0,0,0,0,0,0,0,0,0,0,0,0,0,0,0,0,0,0,0,0,0,0,0,0,0,0,0,0,0,
 904:main_cm4.c    **** volatile float Circulaire[60]={0};
 905:main_cm4.c    **** volatile int borneSup = 130; // Peuvent etre modifiees par l'utilisateur
 906:main_cm4.c    **** volatile int borneInf = 40;
 907:main_cm4.c    **** 
 908:main_cm4.c    **** 
 909:main_cm4.c    **** void AlarmeFC(){
  29              		.loc 1 909 0
  30              		.cfi_startproc
  31              		@ Volatile: function does not return.
  32              		@ args = 0, pretend = 0, frame = 0
  33              		@ frame_needed = 0, uses_anonymous_args = 0
  34 0000 08B5     		push	{r3, lr}
  35              		.cfi_def_cfa_offset 8
  36              		.cfi_offset 3, -8
  37              		.cfi_offset 14, -4
  38              	.L2:
 910:main_cm4.c    ****     for(;;){
 911:main_cm4.c    ****         if((bpm > borneSup)|| (bpm < borneInf)){
  39              		.loc 1 911 0
  40 0002 134B     		ldr	r3, .L7
  41 0004 D3ED007A 		vldr.32	s15, [r3]	@ int
  42 0008 F8EEE77A 		vcvt.f32.s32	s15, s15
  43 000c 114B     		ldr	r3, .L7+4
  44 000e 93ED007A 		vldr.32	s14, [r3]
  45 0012 F4EEC77A 		vcmpe.f32	s15, s14
  46 0016 F1EE10FA 		vmrs	APSR_nzcv, FPSCR
  47 001a 0CD4     		bmi	.L3
  48              		.loc 1 911 0 is_stmt 0 discriminator 1
  49 001c 0C4B     		ldr	r3, .L7
  50 001e D3ED017A 		vldr.32	s15, [r3, #4]	@ int
  51 0022 F8EEE77A 		vcvt.f32.s32	s15, s15
  52 0026 0B4B     		ldr	r3, .L7+4
  53 0028 93ED007A 		vldr.32	s14, [r3]
  54 002c F4EEC77A 		vcmpe.f32	s15, s14
  55 0030 F1EE10FA 		vmrs	APSR_nzcv, FPSCR
  56 0034 E5DD     		ble	.L2
  57              	.L3:
  58              	.LVL0:
ARM GAS  C:\Users\jmori\AppData\Local\Temp\ccFGeXpP.s 			page 18


  59              	.LBB10:
  60              	.LBB11:
  61              		.file 2 "Generated_Source\\PSoC6\\pdl\\drivers/peripheral/gpio/cy_gpio.h"
   1:Generated_Source\PSoC6\pdl\drivers/peripheral/gpio/cy_gpio.h **** /***************************************************************************//**
   2:Generated_Source\PSoC6\pdl\drivers/peripheral/gpio/cy_gpio.h **** * \file cy_gpio.h
   3:Generated_Source\PSoC6\pdl\drivers/peripheral/gpio/cy_gpio.h **** * \version 1.20
   4:Generated_Source\PSoC6\pdl\drivers/peripheral/gpio/cy_gpio.h **** *
   5:Generated_Source\PSoC6\pdl\drivers/peripheral/gpio/cy_gpio.h **** * Provides an API declaration of the GPIO driver
   6:Generated_Source\PSoC6\pdl\drivers/peripheral/gpio/cy_gpio.h **** *
   7:Generated_Source\PSoC6\pdl\drivers/peripheral/gpio/cy_gpio.h **** ********************************************************************************
   8:Generated_Source\PSoC6\pdl\drivers/peripheral/gpio/cy_gpio.h **** * \copyright
   9:Generated_Source\PSoC6\pdl\drivers/peripheral/gpio/cy_gpio.h **** * Copyright 2016-2018, Cypress Semiconductor Corporation. All rights reserved.
  10:Generated_Source\PSoC6\pdl\drivers/peripheral/gpio/cy_gpio.h **** * You may use this file only in accordance with the license, terms, conditions,
  11:Generated_Source\PSoC6\pdl\drivers/peripheral/gpio/cy_gpio.h **** * disclaimers, and limitations in the end user license agreement accompanying
  12:Generated_Source\PSoC6\pdl\drivers/peripheral/gpio/cy_gpio.h **** * the software package with which this file was provided.
  13:Generated_Source\PSoC6\pdl\drivers/peripheral/gpio/cy_gpio.h **** *******************************************************************************/
  14:Generated_Source\PSoC6\pdl\drivers/peripheral/gpio/cy_gpio.h **** 
  15:Generated_Source\PSoC6\pdl\drivers/peripheral/gpio/cy_gpio.h **** /**
  16:Generated_Source\PSoC6\pdl\drivers/peripheral/gpio/cy_gpio.h **** * \addtogroup group_gpio
  17:Generated_Source\PSoC6\pdl\drivers/peripheral/gpio/cy_gpio.h **** * \{
  18:Generated_Source\PSoC6\pdl\drivers/peripheral/gpio/cy_gpio.h **** * The GPIO driver provides an API to configure and access device Input/Output pins.
  19:Generated_Source\PSoC6\pdl\drivers/peripheral/gpio/cy_gpio.h **** *
  20:Generated_Source\PSoC6\pdl\drivers/peripheral/gpio/cy_gpio.h **** * The functions and other declarations used in this driver are in cy_gpio.h. 
  21:Generated_Source\PSoC6\pdl\drivers/peripheral/gpio/cy_gpio.h **** * You can include cy_pdl.h (ModusToolbox only) to get access to all functions 
  22:Generated_Source\PSoC6\pdl\drivers/peripheral/gpio/cy_gpio.h **** * and declarations in the PDL.
  23:Generated_Source\PSoC6\pdl\drivers/peripheral/gpio/cy_gpio.h **** *
  24:Generated_Source\PSoC6\pdl\drivers/peripheral/gpio/cy_gpio.h **** * IO pins include all general purpose types such as GPIO, SIO, HSIO, AUXIO, and
  25:Generated_Source\PSoC6\pdl\drivers/peripheral/gpio/cy_gpio.h **** * their variants.
  26:Generated_Source\PSoC6\pdl\drivers/peripheral/gpio/cy_gpio.h **** *
  27:Generated_Source\PSoC6\pdl\drivers/peripheral/gpio/cy_gpio.h **** * Initialization can be performed either at the port level or by configuring the
  28:Generated_Source\PSoC6\pdl\drivers/peripheral/gpio/cy_gpio.h **** * individual pins. For efficient use of code space, port
  29:Generated_Source\PSoC6\pdl\drivers/peripheral/gpio/cy_gpio.h **** * configuration should be used in the field. Refer to the product device header files 
  30:Generated_Source\PSoC6\pdl\drivers/peripheral/gpio/cy_gpio.h **** * for the list of supported ports and pins.
  31:Generated_Source\PSoC6\pdl\drivers/peripheral/gpio/cy_gpio.h **** * 
  32:Generated_Source\PSoC6\pdl\drivers/peripheral/gpio/cy_gpio.h **** * - Single pin configuration is performed by using \ref Cy_GPIO_Pin_FastInit 
  33:Generated_Source\PSoC6\pdl\drivers/peripheral/gpio/cy_gpio.h **** *   (provide specific values) or \ref Cy_GPIO_Pin_Init (provide a filled
  34:Generated_Source\PSoC6\pdl\drivers/peripheral/gpio/cy_gpio.h **** *   cy_stc_gpio_pin_config_t structure).
  35:Generated_Source\PSoC6\pdl\drivers/peripheral/gpio/cy_gpio.h **** * - An entire port can be configured using \ref Cy_GPIO_Port_Init. Provide a filled 
  36:Generated_Source\PSoC6\pdl\drivers/peripheral/gpio/cy_gpio.h **** *   cy_stc_gpio_prt_config_t structure. The values in the structure are 
  37:Generated_Source\PSoC6\pdl\drivers/peripheral/gpio/cy_gpio.h **** *   bitfields representing the desired value for each pin in the port.
  38:Generated_Source\PSoC6\pdl\drivers/peripheral/gpio/cy_gpio.h **** * - Pin configuration and management is based on the port address and pin number.
  39:Generated_Source\PSoC6\pdl\drivers/peripheral/gpio/cy_gpio.h **** *   \ref Cy_GPIO_PortToAddr function can optionally be used to calculate the port
  40:Generated_Source\PSoC6\pdl\drivers/peripheral/gpio/cy_gpio.h **** *   address from the port number at run-time.
  41:Generated_Source\PSoC6\pdl\drivers/peripheral/gpio/cy_gpio.h **** *
  42:Generated_Source\PSoC6\pdl\drivers/peripheral/gpio/cy_gpio.h **** * Once the pin/port initialization is complete, each pin can be accessed by 
  43:Generated_Source\PSoC6\pdl\drivers/peripheral/gpio/cy_gpio.h **** * specifying the port (GPIO_PRT_Type) and the pin (0-7) in the provided API 
  44:Generated_Source\PSoC6\pdl\drivers/peripheral/gpio/cy_gpio.h **** * functions.
  45:Generated_Source\PSoC6\pdl\drivers/peripheral/gpio/cy_gpio.h **** *
  46:Generated_Source\PSoC6\pdl\drivers/peripheral/gpio/cy_gpio.h **** * \section group_gpio_configuration Configuration Considerations
  47:Generated_Source\PSoC6\pdl\drivers/peripheral/gpio/cy_gpio.h **** *
  48:Generated_Source\PSoC6\pdl\drivers/peripheral/gpio/cy_gpio.h **** * 1. Pin multiplexing is controlled through the High-Speed IO Matrix (HSIOM) selection.
  49:Generated_Source\PSoC6\pdl\drivers/peripheral/gpio/cy_gpio.h **** *    This allows the pin to connect to signal sources/sinks throughout the device,
  50:Generated_Source\PSoC6\pdl\drivers/peripheral/gpio/cy_gpio.h **** *    as defined by the pin HSIOM selection options (en_hsiom_sel_t).
  51:Generated_Source\PSoC6\pdl\drivers/peripheral/gpio/cy_gpio.h **** * 2. All pins are initialized to High-Z drive mode with HSIOM connected to CPU (SW
  52:Generated_Source\PSoC6\pdl\drivers/peripheral/gpio/cy_gpio.h **** *    control digital pin only) at Power-On-Reset(POR).
  53:Generated_Source\PSoC6\pdl\drivers/peripheral/gpio/cy_gpio.h **** * 3. Some API functions perform read-modify-write operations on shared port
  54:Generated_Source\PSoC6\pdl\drivers/peripheral/gpio/cy_gpio.h **** *    registers. These functions are not thread safe and care must be taken when
ARM GAS  C:\Users\jmori\AppData\Local\Temp\ccFGeXpP.s 			page 19


  55:Generated_Source\PSoC6\pdl\drivers/peripheral/gpio/cy_gpio.h **** *    called by the application.
  56:Generated_Source\PSoC6\pdl\drivers/peripheral/gpio/cy_gpio.h **** * 4. Digital input buffer provides a high-impedance buffer for the external 
  57:Generated_Source\PSoC6\pdl\drivers/peripheral/gpio/cy_gpio.h **** *    digital input. The input buffer is connected to the HSIOM for routing to 
  58:Generated_Source\PSoC6\pdl\drivers/peripheral/gpio/cy_gpio.h **** *    the CPU port registers and selected peripheral. Enabling the input 
  59:Generated_Source\PSoC6\pdl\drivers/peripheral/gpio/cy_gpio.h **** *    buffer provides possibility to read the pin state via the CPU.
  60:Generated_Source\PSoC6\pdl\drivers/peripheral/gpio/cy_gpio.h **** *    If pin is connected to an analog signal, the input buffer should be 
  61:Generated_Source\PSoC6\pdl\drivers/peripheral/gpio/cy_gpio.h **** *    disabled to avoid crowbar currents. For more information refer to device 
  62:Generated_Source\PSoC6\pdl\drivers/peripheral/gpio/cy_gpio.h **** *    TRM and the device datasheet.
  63:Generated_Source\PSoC6\pdl\drivers/peripheral/gpio/cy_gpio.h **** *
  64:Generated_Source\PSoC6\pdl\drivers/peripheral/gpio/cy_gpio.h **** * Multiple pins on a port can be updated using direct port register writes with an
  65:Generated_Source\PSoC6\pdl\drivers/peripheral/gpio/cy_gpio.h **** * appropriate port mask. An example is shown below, highlighting the different ways of 
  66:Generated_Source\PSoC6\pdl\drivers/peripheral/gpio/cy_gpio.h **** * configuring Port 1 pins using:
  67:Generated_Source\PSoC6\pdl\drivers/peripheral/gpio/cy_gpio.h **** * 
  68:Generated_Source\PSoC6\pdl\drivers/peripheral/gpio/cy_gpio.h **** * - Port output data register
  69:Generated_Source\PSoC6\pdl\drivers/peripheral/gpio/cy_gpio.h **** * - Port output data set register
  70:Generated_Source\PSoC6\pdl\drivers/peripheral/gpio/cy_gpio.h **** * - Port output data clear register
  71:Generated_Source\PSoC6\pdl\drivers/peripheral/gpio/cy_gpio.h **** *
  72:Generated_Source\PSoC6\pdl\drivers/peripheral/gpio/cy_gpio.h **** * \snippet gpio/gpio_v1_10_sut_01.cydsn/main_cm4.c Cy_GPIO_Snippet
  73:Generated_Source\PSoC6\pdl\drivers/peripheral/gpio/cy_gpio.h **** *
  74:Generated_Source\PSoC6\pdl\drivers/peripheral/gpio/cy_gpio.h **** * \section group_gpio_more_information More Information
  75:Generated_Source\PSoC6\pdl\drivers/peripheral/gpio/cy_gpio.h **** *
  76:Generated_Source\PSoC6\pdl\drivers/peripheral/gpio/cy_gpio.h **** * Refer to the technical reference manual (TRM) and the device datasheet.
  77:Generated_Source\PSoC6\pdl\drivers/peripheral/gpio/cy_gpio.h **** *
  78:Generated_Source\PSoC6\pdl\drivers/peripheral/gpio/cy_gpio.h **** * \section group_gpio_MISRA MISRA-C Compliance
  79:Generated_Source\PSoC6\pdl\drivers/peripheral/gpio/cy_gpio.h **** * The GPIO driver has the following specific deviations:
  80:Generated_Source\PSoC6\pdl\drivers/peripheral/gpio/cy_gpio.h **** *
  81:Generated_Source\PSoC6\pdl\drivers/peripheral/gpio/cy_gpio.h **** * <table class="doxtable">
  82:Generated_Source\PSoC6\pdl\drivers/peripheral/gpio/cy_gpio.h **** *   <tr>
  83:Generated_Source\PSoC6\pdl\drivers/peripheral/gpio/cy_gpio.h **** *     <th>MISRA Rule</th>
  84:Generated_Source\PSoC6\pdl\drivers/peripheral/gpio/cy_gpio.h **** *     <th>Rule Class (Required/Advisory)</th>
  85:Generated_Source\PSoC6\pdl\drivers/peripheral/gpio/cy_gpio.h **** *     <th>Rule Description</th>
  86:Generated_Source\PSoC6\pdl\drivers/peripheral/gpio/cy_gpio.h **** *     <th>Description of Deviation(s)</th>
  87:Generated_Source\PSoC6\pdl\drivers/peripheral/gpio/cy_gpio.h **** *   </tr>
  88:Generated_Source\PSoC6\pdl\drivers/peripheral/gpio/cy_gpio.h **** *   <tr>
  89:Generated_Source\PSoC6\pdl\drivers/peripheral/gpio/cy_gpio.h **** *     <td>11.4</td>
  90:Generated_Source\PSoC6\pdl\drivers/peripheral/gpio/cy_gpio.h **** *     <td>A</td>
  91:Generated_Source\PSoC6\pdl\drivers/peripheral/gpio/cy_gpio.h **** *     <td>A cast should not be performed between a pointer to object type and
  92:Generated_Source\PSoC6\pdl\drivers/peripheral/gpio/cy_gpio.h **** *         a different pointer to object type.</td>
  93:Generated_Source\PSoC6\pdl\drivers/peripheral/gpio/cy_gpio.h **** *     <td> This code is safe because the elements of both GPIO_PRT_V1_Type and GPIO_PRT_V2_Type 
  94:Generated_Source\PSoC6\pdl\drivers/peripheral/gpio/cy_gpio.h **** *          types have identical alignment.</td>
  95:Generated_Source\PSoC6\pdl\drivers/peripheral/gpio/cy_gpio.h **** *   </tr>
  96:Generated_Source\PSoC6\pdl\drivers/peripheral/gpio/cy_gpio.h **** *   <tr>
  97:Generated_Source\PSoC6\pdl\drivers/peripheral/gpio/cy_gpio.h **** *     <td>16.7</td>
  98:Generated_Source\PSoC6\pdl\drivers/peripheral/gpio/cy_gpio.h **** *     <td>A</td>
  99:Generated_Source\PSoC6\pdl\drivers/peripheral/gpio/cy_gpio.h **** *     <td>A pointer parameter in a function prototype should be declared as pointer 
 100:Generated_Source\PSoC6\pdl\drivers/peripheral/gpio/cy_gpio.h **** *         to const if the pointer is not used to modify the addressed object.</td>
 101:Generated_Source\PSoC6\pdl\drivers/peripheral/gpio/cy_gpio.h **** *     <td>The objects pointed to by the base addresses of the GPIO port are not always modified.
 102:Generated_Source\PSoC6\pdl\drivers/peripheral/gpio/cy_gpio.h **** *         While a const qualifier can be used in select scenarios, it brings little benefit
 103:Generated_Source\PSoC6\pdl\drivers/peripheral/gpio/cy_gpio.h **** *         in adding this to the affected functions. </td>
 104:Generated_Source\PSoC6\pdl\drivers/peripheral/gpio/cy_gpio.h **** *   </tr>
 105:Generated_Source\PSoC6\pdl\drivers/peripheral/gpio/cy_gpio.h **** * </table>
 106:Generated_Source\PSoC6\pdl\drivers/peripheral/gpio/cy_gpio.h **** *
 107:Generated_Source\PSoC6\pdl\drivers/peripheral/gpio/cy_gpio.h **** * \section group_gpio_changelog Changelog
 108:Generated_Source\PSoC6\pdl\drivers/peripheral/gpio/cy_gpio.h **** * <table class="doxtable">
 109:Generated_Source\PSoC6\pdl\drivers/peripheral/gpio/cy_gpio.h **** *   <tr><th>Version</th><th>Changes</th><th>Reason for Change</th></tr>
 110:Generated_Source\PSoC6\pdl\drivers/peripheral/gpio/cy_gpio.h **** *   <tr>
 111:Generated_Source\PSoC6\pdl\drivers/peripheral/gpio/cy_gpio.h **** *     <td rowspan="3">1.20</td>
ARM GAS  C:\Users\jmori\AppData\Local\Temp\ccFGeXpP.s 			page 20


 112:Generated_Source\PSoC6\pdl\drivers/peripheral/gpio/cy_gpio.h **** *     <td>Flattened the organization of the driver source code into the single source directory and
 113:Generated_Source\PSoC6\pdl\drivers/peripheral/gpio/cy_gpio.h **** *     <td>Driver library directory-structure simplification.</td>
 114:Generated_Source\PSoC6\pdl\drivers/peripheral/gpio/cy_gpio.h **** *   </tr>
 115:Generated_Source\PSoC6\pdl\drivers/peripheral/gpio/cy_gpio.h **** *   <tr>
 116:Generated_Source\PSoC6\pdl\drivers/peripheral/gpio/cy_gpio.h **** *     <td>Added the functions for configuring the AMux bus splitter switch cells:
 117:Generated_Source\PSoC6\pdl\drivers/peripheral/gpio/cy_gpio.h **** *     - \ref Cy_GPIO_SetAmuxSplit
 118:Generated_Source\PSoC6\pdl\drivers/peripheral/gpio/cy_gpio.h **** *     - \ref Cy_GPIO_GetAmuxSplit
 119:Generated_Source\PSoC6\pdl\drivers/peripheral/gpio/cy_gpio.h **** *     </td>
 120:Generated_Source\PSoC6\pdl\drivers/peripheral/gpio/cy_gpio.h **** *     <td>Added a new functionality related to AMux bus.</td>
 121:Generated_Source\PSoC6\pdl\drivers/peripheral/gpio/cy_gpio.h **** *   </tr>
 122:Generated_Source\PSoC6\pdl\drivers/peripheral/gpio/cy_gpio.h **** *   <tr>
 123:Generated_Source\PSoC6\pdl\drivers/peripheral/gpio/cy_gpio.h **** *     <td>Added register access layer. Use register access macros instead
 124:Generated_Source\PSoC6\pdl\drivers/peripheral/gpio/cy_gpio.h **** *         of direct register access using dereferenced pointers.</td>
 125:Generated_Source\PSoC6\pdl\drivers/peripheral/gpio/cy_gpio.h **** *     <td>Makes register access device-independent, so that the PDL does 
 126:Generated_Source\PSoC6\pdl\drivers/peripheral/gpio/cy_gpio.h **** *         not need to be recompiled for each supported part number.</td>
 127:Generated_Source\PSoC6\pdl\drivers/peripheral/gpio/cy_gpio.h **** *   </tr>
 128:Generated_Source\PSoC6\pdl\drivers/peripheral/gpio/cy_gpio.h **** *   <tr>
 129:Generated_Source\PSoC6\pdl\drivers/peripheral/gpio/cy_gpio.h **** *     <td>1.10.1</td>
 130:Generated_Source\PSoC6\pdl\drivers/peripheral/gpio/cy_gpio.h **** *     <td>Updated description for the functions: \ref Cy_GPIO_GetInterruptStatus, 
 131:Generated_Source\PSoC6\pdl\drivers/peripheral/gpio/cy_gpio.h **** *         \ref Cy_GPIO_GetInterruptMask, \ref Cy_GPIO_GetInterruptStatusMasked.
 132:Generated_Source\PSoC6\pdl\drivers/peripheral/gpio/cy_gpio.h **** *
 133:Generated_Source\PSoC6\pdl\drivers/peripheral/gpio/cy_gpio.h **** *         Minor documentation edits.
 134:Generated_Source\PSoC6\pdl\drivers/peripheral/gpio/cy_gpio.h **** *     </td>
 135:Generated_Source\PSoC6\pdl\drivers/peripheral/gpio/cy_gpio.h **** *     <td>Documentation update and clarification</td>
 136:Generated_Source\PSoC6\pdl\drivers/peripheral/gpio/cy_gpio.h **** *   </tr>
 137:Generated_Source\PSoC6\pdl\drivers/peripheral/gpio/cy_gpio.h **** *   <tr>
 138:Generated_Source\PSoC6\pdl\drivers/peripheral/gpio/cy_gpio.h **** *     <td>1.10</td>
 139:Generated_Source\PSoC6\pdl\drivers/peripheral/gpio/cy_gpio.h **** *     <td>Added input parameter validation to the API functions</td>
 140:Generated_Source\PSoC6\pdl\drivers/peripheral/gpio/cy_gpio.h **** *     <td></td>
 141:Generated_Source\PSoC6\pdl\drivers/peripheral/gpio/cy_gpio.h **** *   </tr>
 142:Generated_Source\PSoC6\pdl\drivers/peripheral/gpio/cy_gpio.h **** *   <tr>
 143:Generated_Source\PSoC6\pdl\drivers/peripheral/gpio/cy_gpio.h **** *     <td>1.0</td>
 144:Generated_Source\PSoC6\pdl\drivers/peripheral/gpio/cy_gpio.h **** *     <td>Initial version</td>
 145:Generated_Source\PSoC6\pdl\drivers/peripheral/gpio/cy_gpio.h **** *     <td></td>
 146:Generated_Source\PSoC6\pdl\drivers/peripheral/gpio/cy_gpio.h **** *   </tr>
 147:Generated_Source\PSoC6\pdl\drivers/peripheral/gpio/cy_gpio.h **** * </table>
 148:Generated_Source\PSoC6\pdl\drivers/peripheral/gpio/cy_gpio.h **** *
 149:Generated_Source\PSoC6\pdl\drivers/peripheral/gpio/cy_gpio.h **** * \defgroup group_gpio_macros Macros
 150:Generated_Source\PSoC6\pdl\drivers/peripheral/gpio/cy_gpio.h **** * \defgroup group_gpio_functions Functions
 151:Generated_Source\PSoC6\pdl\drivers/peripheral/gpio/cy_gpio.h **** * \{
 152:Generated_Source\PSoC6\pdl\drivers/peripheral/gpio/cy_gpio.h **** *   \defgroup group_gpio_functions_init       Initialization Functions
 153:Generated_Source\PSoC6\pdl\drivers/peripheral/gpio/cy_gpio.h **** *   \defgroup group_gpio_functions_gpio       GPIO Functions
 154:Generated_Source\PSoC6\pdl\drivers/peripheral/gpio/cy_gpio.h **** *   \defgroup group_gpio_functions_sio        SIO Functions
 155:Generated_Source\PSoC6\pdl\drivers/peripheral/gpio/cy_gpio.h **** *   \defgroup group_gpio_functions_interrupt  Port Interrupt Functions
 156:Generated_Source\PSoC6\pdl\drivers/peripheral/gpio/cy_gpio.h **** * \}
 157:Generated_Source\PSoC6\pdl\drivers/peripheral/gpio/cy_gpio.h **** * \defgroup group_gpio_data_structures Data Structures
 158:Generated_Source\PSoC6\pdl\drivers/peripheral/gpio/cy_gpio.h **** * \defgroup group_gpio_enums Enumerated Types
 159:Generated_Source\PSoC6\pdl\drivers/peripheral/gpio/cy_gpio.h **** */
 160:Generated_Source\PSoC6\pdl\drivers/peripheral/gpio/cy_gpio.h **** 
 161:Generated_Source\PSoC6\pdl\drivers/peripheral/gpio/cy_gpio.h **** #if !defined(CY_GPIO_H)
 162:Generated_Source\PSoC6\pdl\drivers/peripheral/gpio/cy_gpio.h **** #define CY_GPIO_H
 163:Generated_Source\PSoC6\pdl\drivers/peripheral/gpio/cy_gpio.h **** 
 164:Generated_Source\PSoC6\pdl\drivers/peripheral/gpio/cy_gpio.h **** #include <stddef.h>
 165:Generated_Source\PSoC6\pdl\drivers/peripheral/gpio/cy_gpio.h **** #include "cy_device.h"
 166:Generated_Source\PSoC6\pdl\drivers/peripheral/gpio/cy_gpio.h **** #include "cy_device_headers.h"
 167:Generated_Source\PSoC6\pdl\drivers/peripheral/gpio/cy_gpio.h **** #include "cy_syslib.h"
 168:Generated_Source\PSoC6\pdl\drivers/peripheral/gpio/cy_gpio.h **** 
ARM GAS  C:\Users\jmori\AppData\Local\Temp\ccFGeXpP.s 			page 21


 169:Generated_Source\PSoC6\pdl\drivers/peripheral/gpio/cy_gpio.h **** #if defined(__cplusplus)
 170:Generated_Source\PSoC6\pdl\drivers/peripheral/gpio/cy_gpio.h **** extern "C" {
 171:Generated_Source\PSoC6\pdl\drivers/peripheral/gpio/cy_gpio.h **** #endif
 172:Generated_Source\PSoC6\pdl\drivers/peripheral/gpio/cy_gpio.h **** 
 173:Generated_Source\PSoC6\pdl\drivers/peripheral/gpio/cy_gpio.h **** /** \addtogroup group_gpio_macros
 174:Generated_Source\PSoC6\pdl\drivers/peripheral/gpio/cy_gpio.h **** * \{
 175:Generated_Source\PSoC6\pdl\drivers/peripheral/gpio/cy_gpio.h **** */
 176:Generated_Source\PSoC6\pdl\drivers/peripheral/gpio/cy_gpio.h **** 
 177:Generated_Source\PSoC6\pdl\drivers/peripheral/gpio/cy_gpio.h **** /** Driver major version */
 178:Generated_Source\PSoC6\pdl\drivers/peripheral/gpio/cy_gpio.h **** #define CY_GPIO_DRV_VERSION_MAJOR       1
 179:Generated_Source\PSoC6\pdl\drivers/peripheral/gpio/cy_gpio.h **** 
 180:Generated_Source\PSoC6\pdl\drivers/peripheral/gpio/cy_gpio.h **** /** Driver minor version */
 181:Generated_Source\PSoC6\pdl\drivers/peripheral/gpio/cy_gpio.h **** #define CY_GPIO_DRV_VERSION_MINOR       20
 182:Generated_Source\PSoC6\pdl\drivers/peripheral/gpio/cy_gpio.h **** 
 183:Generated_Source\PSoC6\pdl\drivers/peripheral/gpio/cy_gpio.h **** /** GPIO driver ID */
 184:Generated_Source\PSoC6\pdl\drivers/peripheral/gpio/cy_gpio.h **** #define CY_GPIO_ID CY_PDL_DRV_ID(0x16U)
 185:Generated_Source\PSoC6\pdl\drivers/peripheral/gpio/cy_gpio.h **** 
 186:Generated_Source\PSoC6\pdl\drivers/peripheral/gpio/cy_gpio.h **** /** \} group_gpio_macros */
 187:Generated_Source\PSoC6\pdl\drivers/peripheral/gpio/cy_gpio.h **** 
 188:Generated_Source\PSoC6\pdl\drivers/peripheral/gpio/cy_gpio.h **** 
 189:Generated_Source\PSoC6\pdl\drivers/peripheral/gpio/cy_gpio.h **** /***************************************
 190:Generated_Source\PSoC6\pdl\drivers/peripheral/gpio/cy_gpio.h **** *       Enumerations
 191:Generated_Source\PSoC6\pdl\drivers/peripheral/gpio/cy_gpio.h **** ***************************************/
 192:Generated_Source\PSoC6\pdl\drivers/peripheral/gpio/cy_gpio.h **** /**
 193:Generated_Source\PSoC6\pdl\drivers/peripheral/gpio/cy_gpio.h **** * \addtogroup group_gpio_enums
 194:Generated_Source\PSoC6\pdl\drivers/peripheral/gpio/cy_gpio.h **** * \{
 195:Generated_Source\PSoC6\pdl\drivers/peripheral/gpio/cy_gpio.h **** */
 196:Generated_Source\PSoC6\pdl\drivers/peripheral/gpio/cy_gpio.h **** 
 197:Generated_Source\PSoC6\pdl\drivers/peripheral/gpio/cy_gpio.h **** /** GPIO Driver error codes */
 198:Generated_Source\PSoC6\pdl\drivers/peripheral/gpio/cy_gpio.h **** typedef enum 
 199:Generated_Source\PSoC6\pdl\drivers/peripheral/gpio/cy_gpio.h **** {
 200:Generated_Source\PSoC6\pdl\drivers/peripheral/gpio/cy_gpio.h ****     CY_GPIO_SUCCESS   = 0x00U,                                    /**< Returned successful */
 201:Generated_Source\PSoC6\pdl\drivers/peripheral/gpio/cy_gpio.h ****     CY_GPIO_BAD_PARAM = CY_GPIO_ID | CY_PDL_STATUS_ERROR | 0x01U, /**< Bad parameter was passed */
 202:Generated_Source\PSoC6\pdl\drivers/peripheral/gpio/cy_gpio.h **** } cy_en_gpio_status_t;
 203:Generated_Source\PSoC6\pdl\drivers/peripheral/gpio/cy_gpio.h **** 
 204:Generated_Source\PSoC6\pdl\drivers/peripheral/gpio/cy_gpio.h **** /** AMux switch open/close config */
 205:Generated_Source\PSoC6\pdl\drivers/peripheral/gpio/cy_gpio.h **** typedef enum
 206:Generated_Source\PSoC6\pdl\drivers/peripheral/gpio/cy_gpio.h **** {
 207:Generated_Source\PSoC6\pdl\drivers/peripheral/gpio/cy_gpio.h ****     CY_GPIO_AMUX_OPENALL,   /**< Open ground switch. Open right switch. Open left switch */
 208:Generated_Source\PSoC6\pdl\drivers/peripheral/gpio/cy_gpio.h ****     CY_GPIO_AMUX_L,         /**< Open ground switch. Open right switch. Close left switch */
 209:Generated_Source\PSoC6\pdl\drivers/peripheral/gpio/cy_gpio.h ****     CY_GPIO_AMUX_R,         /**< Open ground switch. Close right switch. Open left switch */
 210:Generated_Source\PSoC6\pdl\drivers/peripheral/gpio/cy_gpio.h ****     CY_GPIO_AMUX_LR,        /**< Open ground switch. Close right switch. Close left switch */
 211:Generated_Source\PSoC6\pdl\drivers/peripheral/gpio/cy_gpio.h ****     CY_GPIO_AMUX_G,         /**< Close ground switch. Open right switch. Open left switch */
 212:Generated_Source\PSoC6\pdl\drivers/peripheral/gpio/cy_gpio.h ****     CY_GPIO_AMUX_GL,        /**< Close ground switch. Open right switch. Close left switch */
 213:Generated_Source\PSoC6\pdl\drivers/peripheral/gpio/cy_gpio.h ****     CY_GPIO_AMUX_GR,        /**< Close ground switch. Close right switch. Open left switch */
 214:Generated_Source\PSoC6\pdl\drivers/peripheral/gpio/cy_gpio.h ****     CY_GPIO_AMUX_GLR,       /**< Close ground switch. Close right switch. Close left switch */
 215:Generated_Source\PSoC6\pdl\drivers/peripheral/gpio/cy_gpio.h **** }cy_en_gpio_amuxconnect_t;
 216:Generated_Source\PSoC6\pdl\drivers/peripheral/gpio/cy_gpio.h **** 
 217:Generated_Source\PSoC6\pdl\drivers/peripheral/gpio/cy_gpio.h **** /**
 218:Generated_Source\PSoC6\pdl\drivers/peripheral/gpio/cy_gpio.h **** * AMux Bus selection
 219:Generated_Source\PSoC6\pdl\drivers/peripheral/gpio/cy_gpio.h **** */
 220:Generated_Source\PSoC6\pdl\drivers/peripheral/gpio/cy_gpio.h **** typedef enum
 221:Generated_Source\PSoC6\pdl\drivers/peripheral/gpio/cy_gpio.h **** {
 222:Generated_Source\PSoC6\pdl\drivers/peripheral/gpio/cy_gpio.h ****     CY_GPIO_AMUXBUSA,       /**< AMuxBus A */
 223:Generated_Source\PSoC6\pdl\drivers/peripheral/gpio/cy_gpio.h ****     CY_GPIO_AMUXBUSB        /**< AMuxBus B */
 224:Generated_Source\PSoC6\pdl\drivers/peripheral/gpio/cy_gpio.h **** }cy_en_gpio_amuxselect_t;
 225:Generated_Source\PSoC6\pdl\drivers/peripheral/gpio/cy_gpio.h **** 
ARM GAS  C:\Users\jmori\AppData\Local\Temp\ccFGeXpP.s 			page 22


 226:Generated_Source\PSoC6\pdl\drivers/peripheral/gpio/cy_gpio.h **** /** \} group_gpio_enums */
 227:Generated_Source\PSoC6\pdl\drivers/peripheral/gpio/cy_gpio.h **** 
 228:Generated_Source\PSoC6\pdl\drivers/peripheral/gpio/cy_gpio.h **** 
 229:Generated_Source\PSoC6\pdl\drivers/peripheral/gpio/cy_gpio.h **** /***************************************
 230:Generated_Source\PSoC6\pdl\drivers/peripheral/gpio/cy_gpio.h **** *       Configuration Structures
 231:Generated_Source\PSoC6\pdl\drivers/peripheral/gpio/cy_gpio.h **** ***************************************/
 232:Generated_Source\PSoC6\pdl\drivers/peripheral/gpio/cy_gpio.h **** 
 233:Generated_Source\PSoC6\pdl\drivers/peripheral/gpio/cy_gpio.h **** /**
 234:Generated_Source\PSoC6\pdl\drivers/peripheral/gpio/cy_gpio.h **** * \addtogroup group_gpio_data_structures
 235:Generated_Source\PSoC6\pdl\drivers/peripheral/gpio/cy_gpio.h **** * \{
 236:Generated_Source\PSoC6\pdl\drivers/peripheral/gpio/cy_gpio.h **** */
 237:Generated_Source\PSoC6\pdl\drivers/peripheral/gpio/cy_gpio.h **** 
 238:Generated_Source\PSoC6\pdl\drivers/peripheral/gpio/cy_gpio.h **** /** This structure is used to initialize a port of GPIO pins */
 239:Generated_Source\PSoC6\pdl\drivers/peripheral/gpio/cy_gpio.h **** typedef struct 
 240:Generated_Source\PSoC6\pdl\drivers/peripheral/gpio/cy_gpio.h **** {
 241:Generated_Source\PSoC6\pdl\drivers/peripheral/gpio/cy_gpio.h ****     uint32_t out;           /**< Initial output data for the IO pins in the port */
 242:Generated_Source\PSoC6\pdl\drivers/peripheral/gpio/cy_gpio.h ****     uint32_t intrMask;      /**< Interrupt enable mask for the port interrupt */
 243:Generated_Source\PSoC6\pdl\drivers/peripheral/gpio/cy_gpio.h ****     uint32_t intrCfg;       /**< Port pin interrupt edge detection configuration */
 244:Generated_Source\PSoC6\pdl\drivers/peripheral/gpio/cy_gpio.h ****     uint32_t cfg;           /**< Port pin drive modes and input buffer enable configuration */
 245:Generated_Source\PSoC6\pdl\drivers/peripheral/gpio/cy_gpio.h ****     uint32_t cfgIn;         /**< Port pin input buffer configuration */
 246:Generated_Source\PSoC6\pdl\drivers/peripheral/gpio/cy_gpio.h ****     uint32_t cfgOut;        /**< Port pin output buffer configuration */
 247:Generated_Source\PSoC6\pdl\drivers/peripheral/gpio/cy_gpio.h ****     uint32_t cfgSIO;        /**< Port SIO pins configuration */
 248:Generated_Source\PSoC6\pdl\drivers/peripheral/gpio/cy_gpio.h ****     uint32_t sel0Active;    /**< HSIOM selection for port pins 0,1,2,3 */
 249:Generated_Source\PSoC6\pdl\drivers/peripheral/gpio/cy_gpio.h ****     uint32_t sel1Active;    /**< HSIOM selection for port pins 4,5,6,7 */
 250:Generated_Source\PSoC6\pdl\drivers/peripheral/gpio/cy_gpio.h **** } cy_stc_gpio_prt_config_t;
 251:Generated_Source\PSoC6\pdl\drivers/peripheral/gpio/cy_gpio.h **** 
 252:Generated_Source\PSoC6\pdl\drivers/peripheral/gpio/cy_gpio.h **** /** This structure is used to initialize a single GPIO pin */
 253:Generated_Source\PSoC6\pdl\drivers/peripheral/gpio/cy_gpio.h **** typedef struct
 254:Generated_Source\PSoC6\pdl\drivers/peripheral/gpio/cy_gpio.h **** {
 255:Generated_Source\PSoC6\pdl\drivers/peripheral/gpio/cy_gpio.h ****     uint32_t outVal;         /**< Pin output state */
 256:Generated_Source\PSoC6\pdl\drivers/peripheral/gpio/cy_gpio.h ****     uint32_t driveMode;      /**< Drive mode */
 257:Generated_Source\PSoC6\pdl\drivers/peripheral/gpio/cy_gpio.h ****     en_hsiom_sel_t hsiom;    /**< HSIOM selection */
 258:Generated_Source\PSoC6\pdl\drivers/peripheral/gpio/cy_gpio.h ****     uint32_t intEdge;        /**< Interrupt Edge type */
 259:Generated_Source\PSoC6\pdl\drivers/peripheral/gpio/cy_gpio.h ****     uint32_t intMask;        /**< Interrupt enable mask */
 260:Generated_Source\PSoC6\pdl\drivers/peripheral/gpio/cy_gpio.h ****     uint32_t vtrip;          /**< Input buffer voltage trip type */
 261:Generated_Source\PSoC6\pdl\drivers/peripheral/gpio/cy_gpio.h ****     uint32_t slewRate;       /**< Output buffer slew rate */
 262:Generated_Source\PSoC6\pdl\drivers/peripheral/gpio/cy_gpio.h ****     uint32_t driveSel;       /**< Drive strength */
 263:Generated_Source\PSoC6\pdl\drivers/peripheral/gpio/cy_gpio.h ****     uint32_t vregEn;         /**< SIO pair output buffer mode */
 264:Generated_Source\PSoC6\pdl\drivers/peripheral/gpio/cy_gpio.h ****     uint32_t ibufMode;       /**< SIO pair input buffer mode */
 265:Generated_Source\PSoC6\pdl\drivers/peripheral/gpio/cy_gpio.h ****     uint32_t vtripSel;       /**< SIO pair input buffer trip point */
 266:Generated_Source\PSoC6\pdl\drivers/peripheral/gpio/cy_gpio.h ****     uint32_t vrefSel;        /**< SIO pair reference voltage for input buffer trip point */
 267:Generated_Source\PSoC6\pdl\drivers/peripheral/gpio/cy_gpio.h ****     uint32_t vohSel;         /**< SIO pair regulated voltage output level */
 268:Generated_Source\PSoC6\pdl\drivers/peripheral/gpio/cy_gpio.h **** } cy_stc_gpio_pin_config_t;
 269:Generated_Source\PSoC6\pdl\drivers/peripheral/gpio/cy_gpio.h **** 
 270:Generated_Source\PSoC6\pdl\drivers/peripheral/gpio/cy_gpio.h **** /** \} group_gpio_data_structures */
 271:Generated_Source\PSoC6\pdl\drivers/peripheral/gpio/cy_gpio.h **** 
 272:Generated_Source\PSoC6\pdl\drivers/peripheral/gpio/cy_gpio.h **** /***************************************
 273:Generated_Source\PSoC6\pdl\drivers/peripheral/gpio/cy_gpio.h **** *        Constants
 274:Generated_Source\PSoC6\pdl\drivers/peripheral/gpio/cy_gpio.h **** ***************************************/
 275:Generated_Source\PSoC6\pdl\drivers/peripheral/gpio/cy_gpio.h **** 
 276:Generated_Source\PSoC6\pdl\drivers/peripheral/gpio/cy_gpio.h **** /** \cond INTERNAL */
 277:Generated_Source\PSoC6\pdl\drivers/peripheral/gpio/cy_gpio.h **** 
 278:Generated_Source\PSoC6\pdl\drivers/peripheral/gpio/cy_gpio.h **** /* General Constants */
 279:Generated_Source\PSoC6\pdl\drivers/peripheral/gpio/cy_gpio.h **** #define CY_GPIO_PRT_HALF                       (4UL)      /**< Half-way point of a GPIO port */
 280:Generated_Source\PSoC6\pdl\drivers/peripheral/gpio/cy_gpio.h **** #define CY_GPIO_PRT_DEINIT                     (0UL)      /**< De-init value for port registers */
 281:Generated_Source\PSoC6\pdl\drivers/peripheral/gpio/cy_gpio.h **** 
 282:Generated_Source\PSoC6\pdl\drivers/peripheral/gpio/cy_gpio.h **** /* GPIO Masks */
ARM GAS  C:\Users\jmori\AppData\Local\Temp\ccFGeXpP.s 			page 23


 283:Generated_Source\PSoC6\pdl\drivers/peripheral/gpio/cy_gpio.h **** #define CY_GPIO_HSIOM_MASK                     (0x1FUL)   /**< HSIOM selection mask */
 284:Generated_Source\PSoC6\pdl\drivers/peripheral/gpio/cy_gpio.h **** #define CY_GPIO_OUT_MASK                       (0x01UL)   /**< Single pin mask for OUT register */
 285:Generated_Source\PSoC6\pdl\drivers/peripheral/gpio/cy_gpio.h **** #define CY_GPIO_IN_MASK                        (0x01UL)   /**< Single pin mask for IN register */
 286:Generated_Source\PSoC6\pdl\drivers/peripheral/gpio/cy_gpio.h **** #define CY_GPIO_CFG_DM_MASK                    (0x0FUL)   /**< Single pin mask for drive mode in CF
 287:Generated_Source\PSoC6\pdl\drivers/peripheral/gpio/cy_gpio.h **** #define CY_GPIO_CFG_IN_VTRIP_SEL_MASK          (0x01UL)   /**< Single pin mask for VTRIP selection 
 288:Generated_Source\PSoC6\pdl\drivers/peripheral/gpio/cy_gpio.h **** #define CY_GPIO_CFG_OUT_SLOW_MASK              (0x01UL)   /**< Single pin mask for slew rate in CFG
 289:Generated_Source\PSoC6\pdl\drivers/peripheral/gpio/cy_gpio.h **** #define CY_GPIO_CFG_OUT_DRIVE_SEL_MASK         (0x03UL)   /**< Single pin mask for drive strength i
 290:Generated_Source\PSoC6\pdl\drivers/peripheral/gpio/cy_gpio.h **** #define CY_GPIO_INTR_STATUS_MASK               (0x01UL)   /**< Single pin mask for interrupt status
 291:Generated_Source\PSoC6\pdl\drivers/peripheral/gpio/cy_gpio.h **** #define CY_GPIO_INTR_EN_MASK                   (0x01UL)   /**< Single pin mask for interrupt status
 292:Generated_Source\PSoC6\pdl\drivers/peripheral/gpio/cy_gpio.h **** #define CY_GPIO_INTR_MASKED_MASK               (0x01UL)   /**< Single pin mask for masked interrupt
 293:Generated_Source\PSoC6\pdl\drivers/peripheral/gpio/cy_gpio.h **** #define CY_GPIO_INTR_SET_MASK                  (0x01UL)   /**< Single pin mask for setting the inte
 294:Generated_Source\PSoC6\pdl\drivers/peripheral/gpio/cy_gpio.h **** #define CY_GPIO_INTR_EDGE_MASK                 (0x03UL)   /**< Single pin mask for interrupt edge t
 295:Generated_Source\PSoC6\pdl\drivers/peripheral/gpio/cy_gpio.h **** #define CY_GPIO_INTR_FLT_EDGE_MASK             (0x07UL)   /**< Single pin mask for setting filtered
 296:Generated_Source\PSoC6\pdl\drivers/peripheral/gpio/cy_gpio.h **** 
 297:Generated_Source\PSoC6\pdl\drivers/peripheral/gpio/cy_gpio.h **** /* SIO Masks */
 298:Generated_Source\PSoC6\pdl\drivers/peripheral/gpio/cy_gpio.h **** #define CY_GPIO_VREG_EN_MASK                   (0x01UL)   /**< Single SIO pin mask for voltage regu
 299:Generated_Source\PSoC6\pdl\drivers/peripheral/gpio/cy_gpio.h **** #define CY_GPIO_IBUF_MASK                      (0x01UL)   /**< Single SIO pin mask for input buffer
 300:Generated_Source\PSoC6\pdl\drivers/peripheral/gpio/cy_gpio.h **** #define CY_GPIO_IBUF_SHIFT                     (0x01UL)   /**< Single SIO pin shift for input buffe
 301:Generated_Source\PSoC6\pdl\drivers/peripheral/gpio/cy_gpio.h **** #define CY_GPIO_VTRIP_SEL_MASK                 (0x01UL)   /**< Single SIO pin mask for the input bu
 302:Generated_Source\PSoC6\pdl\drivers/peripheral/gpio/cy_gpio.h **** #define CY_GPIO_VTRIP_SEL_SHIFT                (0x02UL)   /**< Single SIO pin shift for the input b
 303:Generated_Source\PSoC6\pdl\drivers/peripheral/gpio/cy_gpio.h **** #define CY_GPIO_VREF_SEL_MASK                  (0x03UL)   /**< Single SIO pin mask for voltage refe
 304:Generated_Source\PSoC6\pdl\drivers/peripheral/gpio/cy_gpio.h **** #define CY_GPIO_VREF_SEL_SHIFT                 (0x03UL)   /**< Single SIO pin shift for voltage ref
 305:Generated_Source\PSoC6\pdl\drivers/peripheral/gpio/cy_gpio.h **** #define CY_GPIO_VOH_SEL_MASK                   (0x07UL)   /**< Single SIO pin mask for VOH */
 306:Generated_Source\PSoC6\pdl\drivers/peripheral/gpio/cy_gpio.h **** #define CY_GPIO_VOH_SEL_SHIFT                  (0x05UL)   /**< Single SIO pin shift for VOH */
 307:Generated_Source\PSoC6\pdl\drivers/peripheral/gpio/cy_gpio.h **** 
 308:Generated_Source\PSoC6\pdl\drivers/peripheral/gpio/cy_gpio.h **** /* Special mask for SIO pin pair setting */
 309:Generated_Source\PSoC6\pdl\drivers/peripheral/gpio/cy_gpio.h **** #define CY_GPIO_SIO_ODD_PIN_MASK               (0x00FEUL) /**< SIO pin pair selection mask */
 310:Generated_Source\PSoC6\pdl\drivers/peripheral/gpio/cy_gpio.h **** #define CY_GPIO_SIO_PIN_MASK                   (0x00FFUL) /**< SIO pin pair mask */
 311:Generated_Source\PSoC6\pdl\drivers/peripheral/gpio/cy_gpio.h **** 
 312:Generated_Source\PSoC6\pdl\drivers/peripheral/gpio/cy_gpio.h **** /* Offsets */
 313:Generated_Source\PSoC6\pdl\drivers/peripheral/gpio/cy_gpio.h **** #define CY_GPIO_HSIOM_OFFSET                   (3UL)      /**< Offset for HSIOM */
 314:Generated_Source\PSoC6\pdl\drivers/peripheral/gpio/cy_gpio.h **** #define CY_GPIO_DRIVE_MODE_OFFSET              (2UL)      /**< Offset for Drive mode */
 315:Generated_Source\PSoC6\pdl\drivers/peripheral/gpio/cy_gpio.h **** #define CY_GPIO_INBUF_OFFSET                   (3UL)      /**< Offset for input buffer */
 316:Generated_Source\PSoC6\pdl\drivers/peripheral/gpio/cy_gpio.h **** #define CY_GPIO_CFG_OUT_DRIVE_OFFSET           (16UL)     /**< Offset for drive strength */
 317:Generated_Source\PSoC6\pdl\drivers/peripheral/gpio/cy_gpio.h **** #define CY_GPIO_INTR_CFG_OFFSET                (1UL)      /**< Offset for interrupt config */
 318:Generated_Source\PSoC6\pdl\drivers/peripheral/gpio/cy_gpio.h **** #define CY_GPIO_INTR_FILT_OFFSET               (18UL)     /**< Offset for filtered interrupt config
 319:Generated_Source\PSoC6\pdl\drivers/peripheral/gpio/cy_gpio.h **** #define CY_GPIO_CFG_SIO_OFFSET                 (2UL)      /**< Offset for SIO config */
 320:Generated_Source\PSoC6\pdl\drivers/peripheral/gpio/cy_gpio.h **** 
 321:Generated_Source\PSoC6\pdl\drivers/peripheral/gpio/cy_gpio.h **** /* Parameter validation constants */
 322:Generated_Source\PSoC6\pdl\drivers/peripheral/gpio/cy_gpio.h **** #define CY_GPIO_PINS_MAX                       (8UL)      /**< Number of pins in the port */
 323:Generated_Source\PSoC6\pdl\drivers/peripheral/gpio/cy_gpio.h **** #define CY_GPIO_PRT_PINS_MASK                  (0x0000000FFUL)
 324:Generated_Source\PSoC6\pdl\drivers/peripheral/gpio/cy_gpio.h **** #define CY_GPIO_PRT_INTR_CFG_EDGE_SEL_MASK     (GPIO_PRT_INTR_CFG_EDGE0_SEL_Msk | \
 325:Generated_Source\PSoC6\pdl\drivers/peripheral/gpio/cy_gpio.h ****                                                 GPIO_PRT_INTR_CFG_EDGE1_SEL_Msk | \
 326:Generated_Source\PSoC6\pdl\drivers/peripheral/gpio/cy_gpio.h ****                                                 GPIO_PRT_INTR_CFG_EDGE2_SEL_Msk | \
 327:Generated_Source\PSoC6\pdl\drivers/peripheral/gpio/cy_gpio.h ****                                                 GPIO_PRT_INTR_CFG_EDGE3_SEL_Msk | \
 328:Generated_Source\PSoC6\pdl\drivers/peripheral/gpio/cy_gpio.h ****                                                 GPIO_PRT_INTR_CFG_EDGE4_SEL_Msk | \
 329:Generated_Source\PSoC6\pdl\drivers/peripheral/gpio/cy_gpio.h ****                                                 GPIO_PRT_INTR_CFG_EDGE5_SEL_Msk | \
 330:Generated_Source\PSoC6\pdl\drivers/peripheral/gpio/cy_gpio.h ****                                                 GPIO_PRT_INTR_CFG_EDGE6_SEL_Msk | \
 331:Generated_Source\PSoC6\pdl\drivers/peripheral/gpio/cy_gpio.h ****                                                 GPIO_PRT_INTR_CFG_EDGE7_SEL_Msk)
 332:Generated_Source\PSoC6\pdl\drivers/peripheral/gpio/cy_gpio.h **** #define CY_GPIO_PRT_INTR_CFG_RANGE_MASK        (CY_GPIO_PRT_INTR_CFG_EDGE_SEL_MASK | \
 333:Generated_Source\PSoC6\pdl\drivers/peripheral/gpio/cy_gpio.h ****                                                 GPIO_PRT_INTR_CFG_FLT_EDGE_SEL_Msk | \
 334:Generated_Source\PSoC6\pdl\drivers/peripheral/gpio/cy_gpio.h ****                                                 GPIO_PRT_INTR_CFG_FLT_SEL_Msk)
 335:Generated_Source\PSoC6\pdl\drivers/peripheral/gpio/cy_gpio.h **** #define CY_GPIO_PRT_INT_MASK_MASK              (0x0000001FFUL)
 336:Generated_Source\PSoC6\pdl\drivers/peripheral/gpio/cy_gpio.h **** #define CY_GPIO_PRT_SEL_ACTIVE_MASK            (0x1FFFFFFFUL)
 337:Generated_Source\PSoC6\pdl\drivers/peripheral/gpio/cy_gpio.h **** 
 338:Generated_Source\PSoC6\pdl\drivers/peripheral/gpio/cy_gpio.h **** #define GPIO_MAX_SPLIT_CELL_SEGMENTS           (9U)
 339:Generated_Source\PSoC6\pdl\drivers/peripheral/gpio/cy_gpio.h **** 
ARM GAS  C:\Users\jmori\AppData\Local\Temp\ccFGeXpP.s 			page 24


 340:Generated_Source\PSoC6\pdl\drivers/peripheral/gpio/cy_gpio.h **** /* Parameter validation macros */
 341:Generated_Source\PSoC6\pdl\drivers/peripheral/gpio/cy_gpio.h **** #define CY_GPIO_IS_PIN_VALID(pinNum)           (CY_GPIO_PINS_MAX > (pinNum))
 342:Generated_Source\PSoC6\pdl\drivers/peripheral/gpio/cy_gpio.h **** #define CY_GPIO_IS_FILTER_PIN_VALID(pinNum)    (CY_GPIO_PINS_MAX >= (pinNum))
 343:Generated_Source\PSoC6\pdl\drivers/peripheral/gpio/cy_gpio.h **** #define CY_GPIO_IS_VALUE_VALID(outVal)         (1UL >= (outVal))
 344:Generated_Source\PSoC6\pdl\drivers/peripheral/gpio/cy_gpio.h **** #define CY_GPIO_IS_DM_VALID(driveMode)         (0U == ((driveMode) & (uint32_t)~CY_GPIO_CFG_DM_MASK
 345:Generated_Source\PSoC6\pdl\drivers/peripheral/gpio/cy_gpio.h **** 
 346:Generated_Source\PSoC6\pdl\drivers/peripheral/gpio/cy_gpio.h **** #define CY_GPIO_IS_HSIOM_VALID(hsiom)          (0U == ((hsiom) & (uint32_t)~CY_GPIO_HSIOM_MASK))
 347:Generated_Source\PSoC6\pdl\drivers/peripheral/gpio/cy_gpio.h **** 
 348:Generated_Source\PSoC6\pdl\drivers/peripheral/gpio/cy_gpio.h **** #define CY_GPIO_IS_INT_EDGE_VALID(intEdge)     ((CY_GPIO_INTR_DISABLE  == (intEdge)) || \
 349:Generated_Source\PSoC6\pdl\drivers/peripheral/gpio/cy_gpio.h ****                                                 (CY_GPIO_INTR_RISING   == (intEdge)) || \
 350:Generated_Source\PSoC6\pdl\drivers/peripheral/gpio/cy_gpio.h ****                                                 (CY_GPIO_INTR_FALLING  == (intEdge)) || \
 351:Generated_Source\PSoC6\pdl\drivers/peripheral/gpio/cy_gpio.h ****                                                 (CY_GPIO_INTR_BOTH     == (intEdge)))
 352:Generated_Source\PSoC6\pdl\drivers/peripheral/gpio/cy_gpio.h **** 
 353:Generated_Source\PSoC6\pdl\drivers/peripheral/gpio/cy_gpio.h **** #define CY_GPIO_IS_DRIVE_SEL_VALID(driveSel)   ((CY_GPIO_DRIVE_FULL    == (driveSel)) || \
 354:Generated_Source\PSoC6\pdl\drivers/peripheral/gpio/cy_gpio.h ****                                                 (CY_GPIO_DRIVE_1_2     == (driveSel)) || \
 355:Generated_Source\PSoC6\pdl\drivers/peripheral/gpio/cy_gpio.h ****                                                 (CY_GPIO_DRIVE_1_4     == (driveSel)) || \
 356:Generated_Source\PSoC6\pdl\drivers/peripheral/gpio/cy_gpio.h ****                                                 (CY_GPIO_DRIVE_1_8     == (driveSel)))
 357:Generated_Source\PSoC6\pdl\drivers/peripheral/gpio/cy_gpio.h **** 
 358:Generated_Source\PSoC6\pdl\drivers/peripheral/gpio/cy_gpio.h **** #define CY_GPIO_IS_VREF_SEL_VALID(vrefSel)     ((CY_SIO_VREF_PINREF    == (vrefSel)) || \
 359:Generated_Source\PSoC6\pdl\drivers/peripheral/gpio/cy_gpio.h ****                                                 (CY_SIO_VREF_1_2V      == (vrefSel)) || \
 360:Generated_Source\PSoC6\pdl\drivers/peripheral/gpio/cy_gpio.h ****                                                 (CY_SIO_VREF_AMUX_A    == (vrefSel)) || \
 361:Generated_Source\PSoC6\pdl\drivers/peripheral/gpio/cy_gpio.h ****                                                 (CY_SIO_VREF_AMUX_B    == (vrefSel)))
 362:Generated_Source\PSoC6\pdl\drivers/peripheral/gpio/cy_gpio.h **** 
 363:Generated_Source\PSoC6\pdl\drivers/peripheral/gpio/cy_gpio.h **** #define CY_GPIO_IS_VOH_SEL_VALID(vrefSel)      ((CY_SIO_VOH_1_00       == (vrefSel)) || \
 364:Generated_Source\PSoC6\pdl\drivers/peripheral/gpio/cy_gpio.h ****                                                 (CY_SIO_VOH_1_25       == (vrefSel)) || \
 365:Generated_Source\PSoC6\pdl\drivers/peripheral/gpio/cy_gpio.h ****                                                 (CY_SIO_VOH_1_49       == (vrefSel)) || \
 366:Generated_Source\PSoC6\pdl\drivers/peripheral/gpio/cy_gpio.h ****                                                 (CY_SIO_VOH_1_67       == (vrefSel)) || \
 367:Generated_Source\PSoC6\pdl\drivers/peripheral/gpio/cy_gpio.h ****                                                 (CY_SIO_VOH_2_08       == (vrefSel)) || \
 368:Generated_Source\PSoC6\pdl\drivers/peripheral/gpio/cy_gpio.h ****                                                 (CY_SIO_VOH_2_50       == (vrefSel)) || \
 369:Generated_Source\PSoC6\pdl\drivers/peripheral/gpio/cy_gpio.h ****                                                 (CY_SIO_VOH_2_78       == (vrefSel)) || \
 370:Generated_Source\PSoC6\pdl\drivers/peripheral/gpio/cy_gpio.h ****                                                 (CY_SIO_VOH_4_16       == (vrefSel)))
 371:Generated_Source\PSoC6\pdl\drivers/peripheral/gpio/cy_gpio.h ****                    
 372:Generated_Source\PSoC6\pdl\drivers/peripheral/gpio/cy_gpio.h **** #define CY_GPIO_IS_PIN_BIT_VALID(pinBit)       (0U == ((pinBit) & (uint32_t)~CY_GPIO_PRT_PINS_MASK)
 373:Generated_Source\PSoC6\pdl\drivers/peripheral/gpio/cy_gpio.h **** #define CY_GPIO_IS_INTR_CFG_VALID(intrCfg)     (0U == ((intrCfg) & (uint32_t)~CY_GPIO_PRT_INTR_CFG_
 374:Generated_Source\PSoC6\pdl\drivers/peripheral/gpio/cy_gpio.h **** #define CY_GPIO_IS_INTR_MASK_VALID(intrMask)   (0U == ((intrMask) & (uint32_t)~CY_GPIO_PRT_INT_MASK
 375:Generated_Source\PSoC6\pdl\drivers/peripheral/gpio/cy_gpio.h **** #define CY_GPIO_IS_SEL_ACT_VALID(selActive)    (0U == ((selActive) & (uint32_t)~CY_GPIO_PRT_SEL_ACT
 376:Generated_Source\PSoC6\pdl\drivers/peripheral/gpio/cy_gpio.h **** 
 377:Generated_Source\PSoC6\pdl\drivers/peripheral/gpio/cy_gpio.h **** #define CY_GPIO_IS_AMUX_SPLIT_VALID(switchCtrl)       (((uint32_t) (switchCtrl)) < GPIO_MAX_SPLIT_C
 378:Generated_Source\PSoC6\pdl\drivers/peripheral/gpio/cy_gpio.h **** 
 379:Generated_Source\PSoC6\pdl\drivers/peripheral/gpio/cy_gpio.h **** #define CY_GPIO_IS_AMUX_CONNECT_VALID(amuxConnect)    ((CY_GPIO_AMUX_OPENALL == (amuxConnect)) || \
 380:Generated_Source\PSoC6\pdl\drivers/peripheral/gpio/cy_gpio.h ****                                                        (CY_GPIO_AMUX_L       == (amuxConnect)) || \
 381:Generated_Source\PSoC6\pdl\drivers/peripheral/gpio/cy_gpio.h ****                                                        (CY_GPIO_AMUX_R       == (amuxConnect)) || \
 382:Generated_Source\PSoC6\pdl\drivers/peripheral/gpio/cy_gpio.h ****                                                        (CY_GPIO_AMUX_LR      == (amuxConnect)) || \
 383:Generated_Source\PSoC6\pdl\drivers/peripheral/gpio/cy_gpio.h ****                                                        (CY_GPIO_AMUX_G       == (amuxConnect)) || \
 384:Generated_Source\PSoC6\pdl\drivers/peripheral/gpio/cy_gpio.h ****                                                        (CY_GPIO_AMUX_GL      == (amuxConnect)) || \
 385:Generated_Source\PSoC6\pdl\drivers/peripheral/gpio/cy_gpio.h ****                                                        (CY_GPIO_AMUX_GR      == (amuxConnect)) || \
 386:Generated_Source\PSoC6\pdl\drivers/peripheral/gpio/cy_gpio.h ****                                                        (CY_GPIO_AMUX_GLR     == (amuxConnect)))
 387:Generated_Source\PSoC6\pdl\drivers/peripheral/gpio/cy_gpio.h **** 
 388:Generated_Source\PSoC6\pdl\drivers/peripheral/gpio/cy_gpio.h **** #define CY_GPIO_IS_AMUX_SELECT_VALID(amuxBus)       ((CY_GPIO_AMUXBUSA       == (amuxBus)) || \
 389:Generated_Source\PSoC6\pdl\drivers/peripheral/gpio/cy_gpio.h ****                                                      (CY_GPIO_AMUXBUSB       == (amuxBus)))
 390:Generated_Source\PSoC6\pdl\drivers/peripheral/gpio/cy_gpio.h **** /** \endcond */
 391:Generated_Source\PSoC6\pdl\drivers/peripheral/gpio/cy_gpio.h **** 
 392:Generated_Source\PSoC6\pdl\drivers/peripheral/gpio/cy_gpio.h **** 
 393:Generated_Source\PSoC6\pdl\drivers/peripheral/gpio/cy_gpio.h **** /***************************************
 394:Generated_Source\PSoC6\pdl\drivers/peripheral/gpio/cy_gpio.h **** *        Function Constants
 395:Generated_Source\PSoC6\pdl\drivers/peripheral/gpio/cy_gpio.h **** ***************************************/
 396:Generated_Source\PSoC6\pdl\drivers/peripheral/gpio/cy_gpio.h **** 
ARM GAS  C:\Users\jmori\AppData\Local\Temp\ccFGeXpP.s 			page 25


 397:Generated_Source\PSoC6\pdl\drivers/peripheral/gpio/cy_gpio.h **** /**
 398:Generated_Source\PSoC6\pdl\drivers/peripheral/gpio/cy_gpio.h **** * \addtogroup group_gpio_macros
 399:Generated_Source\PSoC6\pdl\drivers/peripheral/gpio/cy_gpio.h **** * \{
 400:Generated_Source\PSoC6\pdl\drivers/peripheral/gpio/cy_gpio.h **** */
 401:Generated_Source\PSoC6\pdl\drivers/peripheral/gpio/cy_gpio.h **** 
 402:Generated_Source\PSoC6\pdl\drivers/peripheral/gpio/cy_gpio.h **** /**
 403:Generated_Source\PSoC6\pdl\drivers/peripheral/gpio/cy_gpio.h **** * \defgroup group_gpio_driveModes Pin drive mode
 404:Generated_Source\PSoC6\pdl\drivers/peripheral/gpio/cy_gpio.h **** * \{
 405:Generated_Source\PSoC6\pdl\drivers/peripheral/gpio/cy_gpio.h **** * Constants to be used for setting the drive mode of the pin.
 406:Generated_Source\PSoC6\pdl\drivers/peripheral/gpio/cy_gpio.h **** */
 407:Generated_Source\PSoC6\pdl\drivers/peripheral/gpio/cy_gpio.h **** #define CY_GPIO_DM_ANALOG                      (0x00UL) /**< Analog High-Z. Input buffer off */
 408:Generated_Source\PSoC6\pdl\drivers/peripheral/gpio/cy_gpio.h **** #define CY_GPIO_DM_PULLUP_IN_OFF               (0x02UL) /**< Resistive Pull-Up. Input buffer off */
 409:Generated_Source\PSoC6\pdl\drivers/peripheral/gpio/cy_gpio.h **** #define CY_GPIO_DM_PULLDOWN_IN_OFF             (0x03UL) /**< Resistive Pull-Down. Input buffer off 
 410:Generated_Source\PSoC6\pdl\drivers/peripheral/gpio/cy_gpio.h **** #define CY_GPIO_DM_OD_DRIVESLOW_IN_OFF         (0x04UL) /**< Open Drain, Drives Low. Input buffer o
 411:Generated_Source\PSoC6\pdl\drivers/peripheral/gpio/cy_gpio.h **** #define CY_GPIO_DM_OD_DRIVESHIGH_IN_OFF        (0x05UL) /**< Open Drain, Drives High. Input buffer 
 412:Generated_Source\PSoC6\pdl\drivers/peripheral/gpio/cy_gpio.h **** #define CY_GPIO_DM_STRONG_IN_OFF               (0x06UL) /**< Strong Drive. Input buffer off */
 413:Generated_Source\PSoC6\pdl\drivers/peripheral/gpio/cy_gpio.h **** #define CY_GPIO_DM_PULLUP_DOWN_IN_OFF          (0x07UL) /**< Resistive Pull-Up/Down. Input buffer o
 414:Generated_Source\PSoC6\pdl\drivers/peripheral/gpio/cy_gpio.h **** #define CY_GPIO_DM_HIGHZ                       (0x08UL) /**< Digital High-Z. Input buffer on */
 415:Generated_Source\PSoC6\pdl\drivers/peripheral/gpio/cy_gpio.h **** #define CY_GPIO_DM_PULLUP                      (0x0AUL) /**< Resistive Pull-Up. Input buffer on */
 416:Generated_Source\PSoC6\pdl\drivers/peripheral/gpio/cy_gpio.h **** #define CY_GPIO_DM_PULLDOWN                    (0x0BUL) /**< Resistive Pull-Down. Input buffer on *
 417:Generated_Source\PSoC6\pdl\drivers/peripheral/gpio/cy_gpio.h **** #define CY_GPIO_DM_OD_DRIVESLOW                (0x0CUL) /**< Open Drain, Drives Low. Input buffer o
 418:Generated_Source\PSoC6\pdl\drivers/peripheral/gpio/cy_gpio.h **** #define CY_GPIO_DM_OD_DRIVESHIGH               (0x0DUL) /**< Open Drain, Drives High. Input buffer 
 419:Generated_Source\PSoC6\pdl\drivers/peripheral/gpio/cy_gpio.h **** #define CY_GPIO_DM_STRONG                      (0x0EUL) /**< Strong Drive. Input buffer on */
 420:Generated_Source\PSoC6\pdl\drivers/peripheral/gpio/cy_gpio.h **** #define CY_GPIO_DM_PULLUP_DOWN                 (0x0FUL) /**< Resistive Pull-Up/Down. Input buffer o
 421:Generated_Source\PSoC6\pdl\drivers/peripheral/gpio/cy_gpio.h **** /** \} */
 422:Generated_Source\PSoC6\pdl\drivers/peripheral/gpio/cy_gpio.h **** 
 423:Generated_Source\PSoC6\pdl\drivers/peripheral/gpio/cy_gpio.h **** /**
 424:Generated_Source\PSoC6\pdl\drivers/peripheral/gpio/cy_gpio.h **** * \defgroup group_gpio_vtrip Voltage trip mode
 425:Generated_Source\PSoC6\pdl\drivers/peripheral/gpio/cy_gpio.h **** * \{
 426:Generated_Source\PSoC6\pdl\drivers/peripheral/gpio/cy_gpio.h **** * Constants to be used for setting the voltage trip type on the pin.
 427:Generated_Source\PSoC6\pdl\drivers/peripheral/gpio/cy_gpio.h **** */
 428:Generated_Source\PSoC6\pdl\drivers/peripheral/gpio/cy_gpio.h **** #define CY_GPIO_VTRIP_CMOS                     (0x00UL) /**< Input buffer compatible with CMOS and 
 429:Generated_Source\PSoC6\pdl\drivers/peripheral/gpio/cy_gpio.h **** #define CY_GPIO_VTRIP_TTL                      (0x01UL) /**< Input buffer compatible with TTL and M
 430:Generated_Source\PSoC6\pdl\drivers/peripheral/gpio/cy_gpio.h **** /** \} */
 431:Generated_Source\PSoC6\pdl\drivers/peripheral/gpio/cy_gpio.h **** 
 432:Generated_Source\PSoC6\pdl\drivers/peripheral/gpio/cy_gpio.h **** /**
 433:Generated_Source\PSoC6\pdl\drivers/peripheral/gpio/cy_gpio.h **** * \defgroup group_gpio_slewRate Slew Rate Mode
 434:Generated_Source\PSoC6\pdl\drivers/peripheral/gpio/cy_gpio.h **** * \{
 435:Generated_Source\PSoC6\pdl\drivers/peripheral/gpio/cy_gpio.h **** * Constants to be used for setting the slew rate of the pin.
 436:Generated_Source\PSoC6\pdl\drivers/peripheral/gpio/cy_gpio.h **** */
 437:Generated_Source\PSoC6\pdl\drivers/peripheral/gpio/cy_gpio.h **** #define CY_GPIO_SLEW_FAST                      (0x00UL) /**< Fast slew rate */
 438:Generated_Source\PSoC6\pdl\drivers/peripheral/gpio/cy_gpio.h **** #define CY_GPIO_SLEW_SLOW                      (0x01UL) /**< Slow slew rate */
 439:Generated_Source\PSoC6\pdl\drivers/peripheral/gpio/cy_gpio.h **** /** \} */
 440:Generated_Source\PSoC6\pdl\drivers/peripheral/gpio/cy_gpio.h **** 
 441:Generated_Source\PSoC6\pdl\drivers/peripheral/gpio/cy_gpio.h **** /**
 442:Generated_Source\PSoC6\pdl\drivers/peripheral/gpio/cy_gpio.h **** * \defgroup group_gpio_driveStrength Pin drive strength
 443:Generated_Source\PSoC6\pdl\drivers/peripheral/gpio/cy_gpio.h **** * \{
 444:Generated_Source\PSoC6\pdl\drivers/peripheral/gpio/cy_gpio.h **** * Constants to be used for setting the drive strength of the pin.
 445:Generated_Source\PSoC6\pdl\drivers/peripheral/gpio/cy_gpio.h **** */
 446:Generated_Source\PSoC6\pdl\drivers/peripheral/gpio/cy_gpio.h **** #define CY_GPIO_DRIVE_FULL                     (0x00UL) /**< Full drive strength: Max drive current
 447:Generated_Source\PSoC6\pdl\drivers/peripheral/gpio/cy_gpio.h **** #define CY_GPIO_DRIVE_1_2                      (0x01UL) /**< 1/2 drive strength: 1/2 drive current 
 448:Generated_Source\PSoC6\pdl\drivers/peripheral/gpio/cy_gpio.h **** #define CY_GPIO_DRIVE_1_4                      (0x02UL) /**< 1/4 drive strength: 1/4 drive current 
 449:Generated_Source\PSoC6\pdl\drivers/peripheral/gpio/cy_gpio.h **** #define CY_GPIO_DRIVE_1_8                      (0x03UL) /**< 1/8 drive strength: 1/8 drive current 
 450:Generated_Source\PSoC6\pdl\drivers/peripheral/gpio/cy_gpio.h **** /** \} */
 451:Generated_Source\PSoC6\pdl\drivers/peripheral/gpio/cy_gpio.h **** 
 452:Generated_Source\PSoC6\pdl\drivers/peripheral/gpio/cy_gpio.h **** /**
 453:Generated_Source\PSoC6\pdl\drivers/peripheral/gpio/cy_gpio.h **** * \defgroup group_gpio_interruptTrigger Interrupt trigger type
ARM GAS  C:\Users\jmori\AppData\Local\Temp\ccFGeXpP.s 			page 26


 454:Generated_Source\PSoC6\pdl\drivers/peripheral/gpio/cy_gpio.h **** * \{
 455:Generated_Source\PSoC6\pdl\drivers/peripheral/gpio/cy_gpio.h **** * Constants to be used for setting the interrupt trigger type on the pin.
 456:Generated_Source\PSoC6\pdl\drivers/peripheral/gpio/cy_gpio.h **** */
 457:Generated_Source\PSoC6\pdl\drivers/peripheral/gpio/cy_gpio.h **** #define CY_GPIO_INTR_DISABLE                   (0x00UL) /**< Disable the pin interrupt generation *
 458:Generated_Source\PSoC6\pdl\drivers/peripheral/gpio/cy_gpio.h **** #define CY_GPIO_INTR_RISING                    (0x01UL) /**< Rising-Edge interrupt */
 459:Generated_Source\PSoC6\pdl\drivers/peripheral/gpio/cy_gpio.h **** #define CY_GPIO_INTR_FALLING                   (0x02UL) /**< Falling-Edge interrupt */
 460:Generated_Source\PSoC6\pdl\drivers/peripheral/gpio/cy_gpio.h **** #define CY_GPIO_INTR_BOTH                      (0x03UL) /**< Both-Edge interrupt */
 461:Generated_Source\PSoC6\pdl\drivers/peripheral/gpio/cy_gpio.h **** /** \} */
 462:Generated_Source\PSoC6\pdl\drivers/peripheral/gpio/cy_gpio.h **** 
 463:Generated_Source\PSoC6\pdl\drivers/peripheral/gpio/cy_gpio.h **** /**
 464:Generated_Source\PSoC6\pdl\drivers/peripheral/gpio/cy_gpio.h **** * \defgroup group_gpio_sioVreg SIO output buffer mode
 465:Generated_Source\PSoC6\pdl\drivers/peripheral/gpio/cy_gpio.h **** * \{
 466:Generated_Source\PSoC6\pdl\drivers/peripheral/gpio/cy_gpio.h **** * Constants to be used for setting the SIO output buffer mode on the pin.
 467:Generated_Source\PSoC6\pdl\drivers/peripheral/gpio/cy_gpio.h **** */
 468:Generated_Source\PSoC6\pdl\drivers/peripheral/gpio/cy_gpio.h **** #define CY_SIO_VREG_UNREGULATED                (0x00UL) /**< Unregulated output buffer */
 469:Generated_Source\PSoC6\pdl\drivers/peripheral/gpio/cy_gpio.h **** #define CY_SIO_VREG_REGULATED                  (0x01UL) /**< Regulated output buffer */
 470:Generated_Source\PSoC6\pdl\drivers/peripheral/gpio/cy_gpio.h **** /** \} */
 471:Generated_Source\PSoC6\pdl\drivers/peripheral/gpio/cy_gpio.h **** 
 472:Generated_Source\PSoC6\pdl\drivers/peripheral/gpio/cy_gpio.h **** /**
 473:Generated_Source\PSoC6\pdl\drivers/peripheral/gpio/cy_gpio.h **** * \defgroup group_gpio_sioIbuf SIO input buffer mode
 474:Generated_Source\PSoC6\pdl\drivers/peripheral/gpio/cy_gpio.h **** * \{
 475:Generated_Source\PSoC6\pdl\drivers/peripheral/gpio/cy_gpio.h **** * Constants to be used for setting the SIO input buffer mode on the pin.
 476:Generated_Source\PSoC6\pdl\drivers/peripheral/gpio/cy_gpio.h **** */
 477:Generated_Source\PSoC6\pdl\drivers/peripheral/gpio/cy_gpio.h **** #define CY_SIO_IBUF_SINGLEENDED                (0x00UL) /**< Single ended input buffer */
 478:Generated_Source\PSoC6\pdl\drivers/peripheral/gpio/cy_gpio.h **** #define CY_SIO_IBUF_DIFFERENTIAL               (0x01UL) /**< Differential input buffer */
 479:Generated_Source\PSoC6\pdl\drivers/peripheral/gpio/cy_gpio.h **** /** \} */
 480:Generated_Source\PSoC6\pdl\drivers/peripheral/gpio/cy_gpio.h **** 
 481:Generated_Source\PSoC6\pdl\drivers/peripheral/gpio/cy_gpio.h **** /**
 482:Generated_Source\PSoC6\pdl\drivers/peripheral/gpio/cy_gpio.h **** * \defgroup group_gpio_sioVtrip SIO input buffer trip-point
 483:Generated_Source\PSoC6\pdl\drivers/peripheral/gpio/cy_gpio.h **** * \{
 484:Generated_Source\PSoC6\pdl\drivers/peripheral/gpio/cy_gpio.h **** * Constants to be used for setting the SIO input buffer trip-point of the pin.
 485:Generated_Source\PSoC6\pdl\drivers/peripheral/gpio/cy_gpio.h **** */
 486:Generated_Source\PSoC6\pdl\drivers/peripheral/gpio/cy_gpio.h **** #define CY_SIO_VTRIP_CMOS                      (0x00UL) /**< CMOS input buffer (single-ended) */
 487:Generated_Source\PSoC6\pdl\drivers/peripheral/gpio/cy_gpio.h **** #define CY_SIO_VTRIP_TTL                       (0x01UL) /**< TTL input buffer (single-ended) */
 488:Generated_Source\PSoC6\pdl\drivers/peripheral/gpio/cy_gpio.h **** #define CY_SIO_VTRIP_0_5VDDIO_0_5VOH           (0x00UL) /**< 0.5xVddio or 0.5xVoh (differential) */
 489:Generated_Source\PSoC6\pdl\drivers/peripheral/gpio/cy_gpio.h **** #define CY_SIO_VTRIP_0_4VDDIO_1_0VREF          (0x01UL) /**< 0.4xVddio or 0.4xVoh (differential) */
 490:Generated_Source\PSoC6\pdl\drivers/peripheral/gpio/cy_gpio.h **** /** \} */
 491:Generated_Source\PSoC6\pdl\drivers/peripheral/gpio/cy_gpio.h **** 
 492:Generated_Source\PSoC6\pdl\drivers/peripheral/gpio/cy_gpio.h **** /**
 493:Generated_Source\PSoC6\pdl\drivers/peripheral/gpio/cy_gpio.h **** * \defgroup group_gpio_sioVref SIO reference voltage for input buffer trip-point
 494:Generated_Source\PSoC6\pdl\drivers/peripheral/gpio/cy_gpio.h **** * \{
 495:Generated_Source\PSoC6\pdl\drivers/peripheral/gpio/cy_gpio.h **** * Constants to be used for setting the reference voltage of SIO input buffer trip-point.
 496:Generated_Source\PSoC6\pdl\drivers/peripheral/gpio/cy_gpio.h **** */
 497:Generated_Source\PSoC6\pdl\drivers/peripheral/gpio/cy_gpio.h **** #define CY_SIO_VREF_PINREF                     (0x00UL) /**< Vref from analog pin */
 498:Generated_Source\PSoC6\pdl\drivers/peripheral/gpio/cy_gpio.h **** #define CY_SIO_VREF_1_2V                       (0x01UL) /**< Vref from internal 1.2V reference */
 499:Generated_Source\PSoC6\pdl\drivers/peripheral/gpio/cy_gpio.h **** #define CY_SIO_VREF_AMUX_A                     (0x02UL) /**< Vref from AMUXBUS_A */
 500:Generated_Source\PSoC6\pdl\drivers/peripheral/gpio/cy_gpio.h **** #define CY_SIO_VREF_AMUX_B                     (0x03UL) /**< Vref from AMUXBUS_B */
 501:Generated_Source\PSoC6\pdl\drivers/peripheral/gpio/cy_gpio.h **** /** \} */
 502:Generated_Source\PSoC6\pdl\drivers/peripheral/gpio/cy_gpio.h **** 
 503:Generated_Source\PSoC6\pdl\drivers/peripheral/gpio/cy_gpio.h **** /**
 504:Generated_Source\PSoC6\pdl\drivers/peripheral/gpio/cy_gpio.h **** * \defgroup group_gpio_sioVoh Regulated output voltage level (Voh) and input buffer trip-point of a
 505:Generated_Source\PSoC6\pdl\drivers/peripheral/gpio/cy_gpio.h **** * \{
 506:Generated_Source\PSoC6\pdl\drivers/peripheral/gpio/cy_gpio.h **** * Constants to be used for setting the Voh and input buffer trip-point of an SIO pair
 507:Generated_Source\PSoC6\pdl\drivers/peripheral/gpio/cy_gpio.h **** */
 508:Generated_Source\PSoC6\pdl\drivers/peripheral/gpio/cy_gpio.h **** #define CY_SIO_VOH_1_00                        (0x00UL) /**< Voh = 1 x Reference */
 509:Generated_Source\PSoC6\pdl\drivers/peripheral/gpio/cy_gpio.h **** #define CY_SIO_VOH_1_25                        (0x01UL) /**< Voh = 1.25 x Reference */
 510:Generated_Source\PSoC6\pdl\drivers/peripheral/gpio/cy_gpio.h **** #define CY_SIO_VOH_1_49                        (0x02UL) /**< Voh = 1.49 x Reference */
ARM GAS  C:\Users\jmori\AppData\Local\Temp\ccFGeXpP.s 			page 27


 511:Generated_Source\PSoC6\pdl\drivers/peripheral/gpio/cy_gpio.h **** #define CY_SIO_VOH_1_67                        (0x03UL) /**< Voh = 1.67 x Reference */
 512:Generated_Source\PSoC6\pdl\drivers/peripheral/gpio/cy_gpio.h **** #define CY_SIO_VOH_2_08                        (0x04UL) /**< Voh = 2.08 x Reference */
 513:Generated_Source\PSoC6\pdl\drivers/peripheral/gpio/cy_gpio.h **** #define CY_SIO_VOH_2_50                        (0x05UL) /**< Voh = 2.50 x Reference */
 514:Generated_Source\PSoC6\pdl\drivers/peripheral/gpio/cy_gpio.h **** #define CY_SIO_VOH_2_78                        (0x06UL) /**< Voh = 2.78 x Reference */
 515:Generated_Source\PSoC6\pdl\drivers/peripheral/gpio/cy_gpio.h **** #define CY_SIO_VOH_4_16                        (0x07UL) /**< Voh = 4.16 x Reference */
 516:Generated_Source\PSoC6\pdl\drivers/peripheral/gpio/cy_gpio.h **** /** \} */
 517:Generated_Source\PSoC6\pdl\drivers/peripheral/gpio/cy_gpio.h **** 
 518:Generated_Source\PSoC6\pdl\drivers/peripheral/gpio/cy_gpio.h **** /** \} group_gpio_macros */
 519:Generated_Source\PSoC6\pdl\drivers/peripheral/gpio/cy_gpio.h **** 
 520:Generated_Source\PSoC6\pdl\drivers/peripheral/gpio/cy_gpio.h **** /***************************************
 521:Generated_Source\PSoC6\pdl\drivers/peripheral/gpio/cy_gpio.h **** *        Function Prototypes
 522:Generated_Source\PSoC6\pdl\drivers/peripheral/gpio/cy_gpio.h **** ***************************************/
 523:Generated_Source\PSoC6\pdl\drivers/peripheral/gpio/cy_gpio.h **** 
 524:Generated_Source\PSoC6\pdl\drivers/peripheral/gpio/cy_gpio.h **** /**
 525:Generated_Source\PSoC6\pdl\drivers/peripheral/gpio/cy_gpio.h **** * \addtogroup group_gpio_functions
 526:Generated_Source\PSoC6\pdl\drivers/peripheral/gpio/cy_gpio.h **** * \{
 527:Generated_Source\PSoC6\pdl\drivers/peripheral/gpio/cy_gpio.h **** */
 528:Generated_Source\PSoC6\pdl\drivers/peripheral/gpio/cy_gpio.h **** 
 529:Generated_Source\PSoC6\pdl\drivers/peripheral/gpio/cy_gpio.h **** /**
 530:Generated_Source\PSoC6\pdl\drivers/peripheral/gpio/cy_gpio.h **** * \addtogroup group_gpio_functions_init
 531:Generated_Source\PSoC6\pdl\drivers/peripheral/gpio/cy_gpio.h **** * \{
 532:Generated_Source\PSoC6\pdl\drivers/peripheral/gpio/cy_gpio.h **** */
 533:Generated_Source\PSoC6\pdl\drivers/peripheral/gpio/cy_gpio.h **** 
 534:Generated_Source\PSoC6\pdl\drivers/peripheral/gpio/cy_gpio.h **** cy_en_gpio_status_t Cy_GPIO_Pin_Init(GPIO_PRT_Type* base, uint32_t pinNum, const cy_stc_gpio_pin_co
 535:Generated_Source\PSoC6\pdl\drivers/peripheral/gpio/cy_gpio.h **** cy_en_gpio_status_t Cy_GPIO_Port_Init(GPIO_PRT_Type* base, const cy_stc_gpio_prt_config_t *config);
 536:Generated_Source\PSoC6\pdl\drivers/peripheral/gpio/cy_gpio.h **** void Cy_GPIO_Pin_FastInit(GPIO_PRT_Type* base, uint32_t pinNum, uint32_t driveMode, uint32_t outVal
 537:Generated_Source\PSoC6\pdl\drivers/peripheral/gpio/cy_gpio.h **** void Cy_GPIO_Port_Deinit(GPIO_PRT_Type* base);
 538:Generated_Source\PSoC6\pdl\drivers/peripheral/gpio/cy_gpio.h **** __STATIC_INLINE void Cy_GPIO_SetHSIOM(GPIO_PRT_Type* base, uint32_t pinNum, en_hsiom_sel_t value);
 539:Generated_Source\PSoC6\pdl\drivers/peripheral/gpio/cy_gpio.h **** __STATIC_INLINE en_hsiom_sel_t Cy_GPIO_GetHSIOM(GPIO_PRT_Type* base, uint32_t pinNum);
 540:Generated_Source\PSoC6\pdl\drivers/peripheral/gpio/cy_gpio.h **** __STATIC_INLINE GPIO_PRT_Type* Cy_GPIO_PortToAddr(uint32_t portNum);
 541:Generated_Source\PSoC6\pdl\drivers/peripheral/gpio/cy_gpio.h **** 
 542:Generated_Source\PSoC6\pdl\drivers/peripheral/gpio/cy_gpio.h **** /** \} group_gpio_functions_init */
 543:Generated_Source\PSoC6\pdl\drivers/peripheral/gpio/cy_gpio.h **** 
 544:Generated_Source\PSoC6\pdl\drivers/peripheral/gpio/cy_gpio.h **** /**
 545:Generated_Source\PSoC6\pdl\drivers/peripheral/gpio/cy_gpio.h **** * \addtogroup group_gpio_functions_gpio
 546:Generated_Source\PSoC6\pdl\drivers/peripheral/gpio/cy_gpio.h **** * \{
 547:Generated_Source\PSoC6\pdl\drivers/peripheral/gpio/cy_gpio.h **** */
 548:Generated_Source\PSoC6\pdl\drivers/peripheral/gpio/cy_gpio.h **** 
 549:Generated_Source\PSoC6\pdl\drivers/peripheral/gpio/cy_gpio.h **** void Cy_GPIO_SetAmuxSplit(cy_en_amux_split_t switchCtrl, cy_en_gpio_amuxconnect_t amuxConnect, cy_e
 550:Generated_Source\PSoC6\pdl\drivers/peripheral/gpio/cy_gpio.h **** cy_en_gpio_amuxconnect_t Cy_GPIO_GetAmuxSplit(cy_en_amux_split_t switchCtrl, cy_en_gpio_amuxselect_
 551:Generated_Source\PSoC6\pdl\drivers/peripheral/gpio/cy_gpio.h **** 
 552:Generated_Source\PSoC6\pdl\drivers/peripheral/gpio/cy_gpio.h **** __STATIC_INLINE uint32_t Cy_GPIO_Read(GPIO_PRT_Type* base, uint32_t pinNum);
 553:Generated_Source\PSoC6\pdl\drivers/peripheral/gpio/cy_gpio.h **** __STATIC_INLINE void Cy_GPIO_Write(GPIO_PRT_Type* base, uint32_t pinNum, uint32_t value);
 554:Generated_Source\PSoC6\pdl\drivers/peripheral/gpio/cy_gpio.h **** __STATIC_INLINE uint32_t Cy_GPIO_ReadOut(GPIO_PRT_Type* base, uint32_t pinNum);
 555:Generated_Source\PSoC6\pdl\drivers/peripheral/gpio/cy_gpio.h **** __STATIC_INLINE void Cy_GPIO_Set(GPIO_PRT_Type* base, uint32_t pinNum);
 556:Generated_Source\PSoC6\pdl\drivers/peripheral/gpio/cy_gpio.h **** __STATIC_INLINE void Cy_GPIO_Clr(GPIO_PRT_Type* base, uint32_t pinNum);
 557:Generated_Source\PSoC6\pdl\drivers/peripheral/gpio/cy_gpio.h **** __STATIC_INLINE void Cy_GPIO_Inv(GPIO_PRT_Type* base, uint32_t pinNum);
 558:Generated_Source\PSoC6\pdl\drivers/peripheral/gpio/cy_gpio.h **** __STATIC_INLINE void Cy_GPIO_SetDrivemode(GPIO_PRT_Type* base, uint32_t pinNum, uint32_t value);
 559:Generated_Source\PSoC6\pdl\drivers/peripheral/gpio/cy_gpio.h **** __STATIC_INLINE uint32_t Cy_GPIO_GetDrivemode(GPIO_PRT_Type* base, uint32_t pinNum);
 560:Generated_Source\PSoC6\pdl\drivers/peripheral/gpio/cy_gpio.h **** __STATIC_INLINE void Cy_GPIO_SetVtrip(GPIO_PRT_Type* base, uint32_t pinNum, uint32_t value);
 561:Generated_Source\PSoC6\pdl\drivers/peripheral/gpio/cy_gpio.h **** __STATIC_INLINE uint32_t Cy_GPIO_GetVtrip(GPIO_PRT_Type* base, uint32_t pinNum);
 562:Generated_Source\PSoC6\pdl\drivers/peripheral/gpio/cy_gpio.h **** __STATIC_INLINE void Cy_GPIO_SetSlewRate(GPIO_PRT_Type* base, uint32_t pinNum, uint32_t value);
 563:Generated_Source\PSoC6\pdl\drivers/peripheral/gpio/cy_gpio.h **** __STATIC_INLINE uint32_t Cy_GPIO_GetSlewRate(GPIO_PRT_Type* base, uint32_t pinNum);
 564:Generated_Source\PSoC6\pdl\drivers/peripheral/gpio/cy_gpio.h **** __STATIC_INLINE void Cy_GPIO_SetDriveSel(GPIO_PRT_Type* base, uint32_t pinNum, uint32_t value);
 565:Generated_Source\PSoC6\pdl\drivers/peripheral/gpio/cy_gpio.h **** __STATIC_INLINE uint32_t Cy_GPIO_GetDriveSel(GPIO_PRT_Type* base, uint32_t pinNum);
 566:Generated_Source\PSoC6\pdl\drivers/peripheral/gpio/cy_gpio.h **** 
 567:Generated_Source\PSoC6\pdl\drivers/peripheral/gpio/cy_gpio.h **** /** \} group_gpio_functions_gpio */
ARM GAS  C:\Users\jmori\AppData\Local\Temp\ccFGeXpP.s 			page 28


 568:Generated_Source\PSoC6\pdl\drivers/peripheral/gpio/cy_gpio.h **** 
 569:Generated_Source\PSoC6\pdl\drivers/peripheral/gpio/cy_gpio.h **** /**
 570:Generated_Source\PSoC6\pdl\drivers/peripheral/gpio/cy_gpio.h **** * \addtogroup group_gpio_functions_sio
 571:Generated_Source\PSoC6\pdl\drivers/peripheral/gpio/cy_gpio.h **** * \{
 572:Generated_Source\PSoC6\pdl\drivers/peripheral/gpio/cy_gpio.h **** */
 573:Generated_Source\PSoC6\pdl\drivers/peripheral/gpio/cy_gpio.h **** 
 574:Generated_Source\PSoC6\pdl\drivers/peripheral/gpio/cy_gpio.h **** __STATIC_INLINE void Cy_GPIO_SetVregEn(GPIO_PRT_Type* base, uint32_t pinNum, uint32_t value);
 575:Generated_Source\PSoC6\pdl\drivers/peripheral/gpio/cy_gpio.h **** __STATIC_INLINE uint32_t Cy_GPIO_GetVregEn(GPIO_PRT_Type* base, uint32_t pinNum);
 576:Generated_Source\PSoC6\pdl\drivers/peripheral/gpio/cy_gpio.h **** __STATIC_INLINE void Cy_GPIO_SetIbufMode(GPIO_PRT_Type* base, uint32_t pinNum, uint32_t value);
 577:Generated_Source\PSoC6\pdl\drivers/peripheral/gpio/cy_gpio.h **** __STATIC_INLINE uint32_t Cy_GPIO_GetIbufMode(GPIO_PRT_Type* base, uint32_t pinNum);
 578:Generated_Source\PSoC6\pdl\drivers/peripheral/gpio/cy_gpio.h **** __STATIC_INLINE void Cy_GPIO_SetVtripSel(GPIO_PRT_Type* base, uint32_t pinNum, uint32_t value);
 579:Generated_Source\PSoC6\pdl\drivers/peripheral/gpio/cy_gpio.h **** __STATIC_INLINE uint32_t Cy_GPIO_GetVtripSel(GPIO_PRT_Type* base, uint32_t pinNum);
 580:Generated_Source\PSoC6\pdl\drivers/peripheral/gpio/cy_gpio.h **** __STATIC_INLINE void Cy_GPIO_SetVrefSel(GPIO_PRT_Type* base, uint32_t pinNum, uint32_t value);
 581:Generated_Source\PSoC6\pdl\drivers/peripheral/gpio/cy_gpio.h **** __STATIC_INLINE uint32_t Cy_GPIO_GetVrefSel(GPIO_PRT_Type* base, uint32_t pinNum);
 582:Generated_Source\PSoC6\pdl\drivers/peripheral/gpio/cy_gpio.h **** __STATIC_INLINE void Cy_GPIO_SetVohSel(GPIO_PRT_Type* base, uint32_t pinNum, uint32_t value);
 583:Generated_Source\PSoC6\pdl\drivers/peripheral/gpio/cy_gpio.h **** __STATIC_INLINE uint32_t Cy_GPIO_GetVohSel(GPIO_PRT_Type* base, uint32_t pinNum);
 584:Generated_Source\PSoC6\pdl\drivers/peripheral/gpio/cy_gpio.h **** 
 585:Generated_Source\PSoC6\pdl\drivers/peripheral/gpio/cy_gpio.h **** /** \} group_gpio_functions_sio */
 586:Generated_Source\PSoC6\pdl\drivers/peripheral/gpio/cy_gpio.h **** 
 587:Generated_Source\PSoC6\pdl\drivers/peripheral/gpio/cy_gpio.h **** /**
 588:Generated_Source\PSoC6\pdl\drivers/peripheral/gpio/cy_gpio.h **** * \addtogroup group_gpio_functions_interrupt
 589:Generated_Source\PSoC6\pdl\drivers/peripheral/gpio/cy_gpio.h **** * \{
 590:Generated_Source\PSoC6\pdl\drivers/peripheral/gpio/cy_gpio.h **** */
 591:Generated_Source\PSoC6\pdl\drivers/peripheral/gpio/cy_gpio.h **** 
 592:Generated_Source\PSoC6\pdl\drivers/peripheral/gpio/cy_gpio.h **** __STATIC_INLINE uint32_t Cy_GPIO_GetInterruptStatus(GPIO_PRT_Type* base, uint32_t pinNum);
 593:Generated_Source\PSoC6\pdl\drivers/peripheral/gpio/cy_gpio.h **** __STATIC_INLINE void Cy_GPIO_ClearInterrupt(GPIO_PRT_Type* base, uint32_t pinNum);
 594:Generated_Source\PSoC6\pdl\drivers/peripheral/gpio/cy_gpio.h **** __STATIC_INLINE void Cy_GPIO_SetInterruptMask(GPIO_PRT_Type* base, uint32_t pinNum, uint32_t value)
 595:Generated_Source\PSoC6\pdl\drivers/peripheral/gpio/cy_gpio.h **** __STATIC_INLINE uint32_t Cy_GPIO_GetInterruptMask(GPIO_PRT_Type* base, uint32_t pinNum);
 596:Generated_Source\PSoC6\pdl\drivers/peripheral/gpio/cy_gpio.h **** __STATIC_INLINE uint32_t Cy_GPIO_GetInterruptStatusMasked(GPIO_PRT_Type* base, uint32_t pinNum);
 597:Generated_Source\PSoC6\pdl\drivers/peripheral/gpio/cy_gpio.h **** __STATIC_INLINE void Cy_GPIO_SetSwInterrupt(GPIO_PRT_Type* base, uint32_t pinNum);
 598:Generated_Source\PSoC6\pdl\drivers/peripheral/gpio/cy_gpio.h **** __STATIC_INLINE void Cy_GPIO_SetInterruptEdge(GPIO_PRT_Type* base, uint32_t pinNum, uint32_t value)
 599:Generated_Source\PSoC6\pdl\drivers/peripheral/gpio/cy_gpio.h **** __STATIC_INLINE uint32_t Cy_GPIO_GetInterruptEdge(GPIO_PRT_Type* base, uint32_t pinNum);
 600:Generated_Source\PSoC6\pdl\drivers/peripheral/gpio/cy_gpio.h **** __STATIC_INLINE void Cy_GPIO_SetFilter(GPIO_PRT_Type* base, uint32_t value);
 601:Generated_Source\PSoC6\pdl\drivers/peripheral/gpio/cy_gpio.h **** __STATIC_INLINE uint32_t Cy_GPIO_GetFilter(GPIO_PRT_Type* base);
 602:Generated_Source\PSoC6\pdl\drivers/peripheral/gpio/cy_gpio.h **** 
 603:Generated_Source\PSoC6\pdl\drivers/peripheral/gpio/cy_gpio.h **** __STATIC_INLINE uint32_t Cy_GPIO_GetInterruptCause0(void);
 604:Generated_Source\PSoC6\pdl\drivers/peripheral/gpio/cy_gpio.h **** __STATIC_INLINE uint32_t Cy_GPIO_GetInterruptCause1(void);
 605:Generated_Source\PSoC6\pdl\drivers/peripheral/gpio/cy_gpio.h **** __STATIC_INLINE uint32_t Cy_GPIO_GetInterruptCause2(void);
 606:Generated_Source\PSoC6\pdl\drivers/peripheral/gpio/cy_gpio.h **** __STATIC_INLINE uint32_t Cy_GPIO_GetInterruptCause3(void);
 607:Generated_Source\PSoC6\pdl\drivers/peripheral/gpio/cy_gpio.h **** 
 608:Generated_Source\PSoC6\pdl\drivers/peripheral/gpio/cy_gpio.h **** /** \} group_gpio_functions_interrupt */
 609:Generated_Source\PSoC6\pdl\drivers/peripheral/gpio/cy_gpio.h **** 
 610:Generated_Source\PSoC6\pdl\drivers/peripheral/gpio/cy_gpio.h **** 
 611:Generated_Source\PSoC6\pdl\drivers/peripheral/gpio/cy_gpio.h **** /**
 612:Generated_Source\PSoC6\pdl\drivers/peripheral/gpio/cy_gpio.h **** * \addtogroup group_gpio_functions_init
 613:Generated_Source\PSoC6\pdl\drivers/peripheral/gpio/cy_gpio.h **** * \{
 614:Generated_Source\PSoC6\pdl\drivers/peripheral/gpio/cy_gpio.h **** */
 615:Generated_Source\PSoC6\pdl\drivers/peripheral/gpio/cy_gpio.h **** 
 616:Generated_Source\PSoC6\pdl\drivers/peripheral/gpio/cy_gpio.h **** /*******************************************************************************
 617:Generated_Source\PSoC6\pdl\drivers/peripheral/gpio/cy_gpio.h **** * Function Name: Cy_GPIO_SetHSIOM
 618:Generated_Source\PSoC6\pdl\drivers/peripheral/gpio/cy_gpio.h **** ****************************************************************************//**
 619:Generated_Source\PSoC6\pdl\drivers/peripheral/gpio/cy_gpio.h **** *
 620:Generated_Source\PSoC6\pdl\drivers/peripheral/gpio/cy_gpio.h **** * Configures the HSIOM connection to the pin.
 621:Generated_Source\PSoC6\pdl\drivers/peripheral/gpio/cy_gpio.h **** *
 622:Generated_Source\PSoC6\pdl\drivers/peripheral/gpio/cy_gpio.h **** * Connects the specified High-Speed Input Output Multiplexer (HSIOM) selection
 623:Generated_Source\PSoC6\pdl\drivers/peripheral/gpio/cy_gpio.h **** * to the pin.
 624:Generated_Source\PSoC6\pdl\drivers/peripheral/gpio/cy_gpio.h **** *
ARM GAS  C:\Users\jmori\AppData\Local\Temp\ccFGeXpP.s 			page 29


 625:Generated_Source\PSoC6\pdl\drivers/peripheral/gpio/cy_gpio.h **** * \param base
 626:Generated_Source\PSoC6\pdl\drivers/peripheral/gpio/cy_gpio.h **** * Pointer to the pin's port register base address
 627:Generated_Source\PSoC6\pdl\drivers/peripheral/gpio/cy_gpio.h **** *
 628:Generated_Source\PSoC6\pdl\drivers/peripheral/gpio/cy_gpio.h **** * \param pinNum
 629:Generated_Source\PSoC6\pdl\drivers/peripheral/gpio/cy_gpio.h **** * Position of the pin bit-field within the port register
 630:Generated_Source\PSoC6\pdl\drivers/peripheral/gpio/cy_gpio.h **** *
 631:Generated_Source\PSoC6\pdl\drivers/peripheral/gpio/cy_gpio.h **** * \param value
 632:Generated_Source\PSoC6\pdl\drivers/peripheral/gpio/cy_gpio.h **** * HSIOM input selection
 633:Generated_Source\PSoC6\pdl\drivers/peripheral/gpio/cy_gpio.h **** *
 634:Generated_Source\PSoC6\pdl\drivers/peripheral/gpio/cy_gpio.h **** * \note 
 635:Generated_Source\PSoC6\pdl\drivers/peripheral/gpio/cy_gpio.h **** * This function modifies a port register in a read-modify-write operation. It is
 636:Generated_Source\PSoC6\pdl\drivers/peripheral/gpio/cy_gpio.h **** * not thread safe as the resource is shared among multiple pins on a port.
 637:Generated_Source\PSoC6\pdl\drivers/peripheral/gpio/cy_gpio.h **** *
 638:Generated_Source\PSoC6\pdl\drivers/peripheral/gpio/cy_gpio.h **** * \funcusage
 639:Generated_Source\PSoC6\pdl\drivers/peripheral/gpio/cy_gpio.h **** * \snippet gpio/gpio_v1_10_sut_01.cydsn/main_cm4.c snippet_Cy_GPIO_SetHSIOM
 640:Generated_Source\PSoC6\pdl\drivers/peripheral/gpio/cy_gpio.h **** *
 641:Generated_Source\PSoC6\pdl\drivers/peripheral/gpio/cy_gpio.h **** *******************************************************************************/
 642:Generated_Source\PSoC6\pdl\drivers/peripheral/gpio/cy_gpio.h **** __STATIC_INLINE void Cy_GPIO_SetHSIOM(GPIO_PRT_Type* base, uint32_t pinNum, en_hsiom_sel_t value)
 643:Generated_Source\PSoC6\pdl\drivers/peripheral/gpio/cy_gpio.h **** {
 644:Generated_Source\PSoC6\pdl\drivers/peripheral/gpio/cy_gpio.h ****     uint32_t portNum;
 645:Generated_Source\PSoC6\pdl\drivers/peripheral/gpio/cy_gpio.h ****     uint32_t tempReg;
 646:Generated_Source\PSoC6\pdl\drivers/peripheral/gpio/cy_gpio.h ****     HSIOM_PRT_V1_Type* portAddrHSIOM;
 647:Generated_Source\PSoC6\pdl\drivers/peripheral/gpio/cy_gpio.h **** 
 648:Generated_Source\PSoC6\pdl\drivers/peripheral/gpio/cy_gpio.h ****     CY_ASSERT_L2(CY_GPIO_IS_PIN_VALID(pinNum));
 649:Generated_Source\PSoC6\pdl\drivers/peripheral/gpio/cy_gpio.h ****     CY_ASSERT_L2(CY_GPIO_IS_HSIOM_VALID(value));
 650:Generated_Source\PSoC6\pdl\drivers/peripheral/gpio/cy_gpio.h **** 
 651:Generated_Source\PSoC6\pdl\drivers/peripheral/gpio/cy_gpio.h ****     portNum = ((uint32_t)(base) - CY_GPIO_BASE) / GPIO_PRT_SECTION_SIZE;
 652:Generated_Source\PSoC6\pdl\drivers/peripheral/gpio/cy_gpio.h ****     portAddrHSIOM = (HSIOM_PRT_V1_Type*)(CY_HSIOM_BASE + (HSIOM_PRT_SECTION_SIZE * portNum));
 653:Generated_Source\PSoC6\pdl\drivers/peripheral/gpio/cy_gpio.h **** 
 654:Generated_Source\PSoC6\pdl\drivers/peripheral/gpio/cy_gpio.h ****     if(pinNum < CY_GPIO_PRT_HALF)
 655:Generated_Source\PSoC6\pdl\drivers/peripheral/gpio/cy_gpio.h ****     {
 656:Generated_Source\PSoC6\pdl\drivers/peripheral/gpio/cy_gpio.h ****         tempReg = HSIOM_PRT_PORT_SEL0(portAddrHSIOM) & ~(CY_GPIO_HSIOM_MASK << (pinNum << CY_GPIO_H
 657:Generated_Source\PSoC6\pdl\drivers/peripheral/gpio/cy_gpio.h ****         HSIOM_PRT_PORT_SEL0(portAddrHSIOM) = tempReg | ((value & CY_GPIO_HSIOM_MASK) << (pinNum << 
 658:Generated_Source\PSoC6\pdl\drivers/peripheral/gpio/cy_gpio.h ****     }
 659:Generated_Source\PSoC6\pdl\drivers/peripheral/gpio/cy_gpio.h ****     else
 660:Generated_Source\PSoC6\pdl\drivers/peripheral/gpio/cy_gpio.h ****     {
 661:Generated_Source\PSoC6\pdl\drivers/peripheral/gpio/cy_gpio.h ****         pinNum -= CY_GPIO_PRT_HALF;
 662:Generated_Source\PSoC6\pdl\drivers/peripheral/gpio/cy_gpio.h ****         tempReg = HSIOM_PRT_PORT_SEL1(portAddrHSIOM) & ~(CY_GPIO_HSIOM_MASK << (pinNum << CY_GPIO_H
 663:Generated_Source\PSoC6\pdl\drivers/peripheral/gpio/cy_gpio.h ****         HSIOM_PRT_PORT_SEL1(portAddrHSIOM) = tempReg | ((value & CY_GPIO_HSIOM_MASK) << (pinNum << 
 664:Generated_Source\PSoC6\pdl\drivers/peripheral/gpio/cy_gpio.h ****     }
 665:Generated_Source\PSoC6\pdl\drivers/peripheral/gpio/cy_gpio.h **** }
 666:Generated_Source\PSoC6\pdl\drivers/peripheral/gpio/cy_gpio.h **** 
 667:Generated_Source\PSoC6\pdl\drivers/peripheral/gpio/cy_gpio.h **** 
 668:Generated_Source\PSoC6\pdl\drivers/peripheral/gpio/cy_gpio.h **** /*******************************************************************************
 669:Generated_Source\PSoC6\pdl\drivers/peripheral/gpio/cy_gpio.h **** * Function Name: Cy_GPIO_GetHSIOM
 670:Generated_Source\PSoC6\pdl\drivers/peripheral/gpio/cy_gpio.h **** ****************************************************************************//**
 671:Generated_Source\PSoC6\pdl\drivers/peripheral/gpio/cy_gpio.h **** *
 672:Generated_Source\PSoC6\pdl\drivers/peripheral/gpio/cy_gpio.h **** * Returns the current HSIOM multiplexer connection to the pin.
 673:Generated_Source\PSoC6\pdl\drivers/peripheral/gpio/cy_gpio.h **** *
 674:Generated_Source\PSoC6\pdl\drivers/peripheral/gpio/cy_gpio.h **** * \param base
 675:Generated_Source\PSoC6\pdl\drivers/peripheral/gpio/cy_gpio.h **** * Pointer to the pin's port register base address
 676:Generated_Source\PSoC6\pdl\drivers/peripheral/gpio/cy_gpio.h **** *
 677:Generated_Source\PSoC6\pdl\drivers/peripheral/gpio/cy_gpio.h **** * \param pinNum
 678:Generated_Source\PSoC6\pdl\drivers/peripheral/gpio/cy_gpio.h **** * Position of the pin bit-field within the port register
 679:Generated_Source\PSoC6\pdl\drivers/peripheral/gpio/cy_gpio.h **** *
 680:Generated_Source\PSoC6\pdl\drivers/peripheral/gpio/cy_gpio.h **** * \return
 681:Generated_Source\PSoC6\pdl\drivers/peripheral/gpio/cy_gpio.h **** * HSIOM input selection
ARM GAS  C:\Users\jmori\AppData\Local\Temp\ccFGeXpP.s 			page 30


 682:Generated_Source\PSoC6\pdl\drivers/peripheral/gpio/cy_gpio.h **** *
 683:Generated_Source\PSoC6\pdl\drivers/peripheral/gpio/cy_gpio.h **** * \funcusage
 684:Generated_Source\PSoC6\pdl\drivers/peripheral/gpio/cy_gpio.h **** * \snippet gpio/gpio_v1_10_sut_01.cydsn/main_cm4.c snippet_Cy_GPIO_SetHSIOM
 685:Generated_Source\PSoC6\pdl\drivers/peripheral/gpio/cy_gpio.h **** *
 686:Generated_Source\PSoC6\pdl\drivers/peripheral/gpio/cy_gpio.h **** *******************************************************************************/
 687:Generated_Source\PSoC6\pdl\drivers/peripheral/gpio/cy_gpio.h **** __STATIC_INLINE en_hsiom_sel_t Cy_GPIO_GetHSIOM(GPIO_PRT_Type* base, uint32_t pinNum)
 688:Generated_Source\PSoC6\pdl\drivers/peripheral/gpio/cy_gpio.h **** {
 689:Generated_Source\PSoC6\pdl\drivers/peripheral/gpio/cy_gpio.h ****     uint32_t returnValue;
 690:Generated_Source\PSoC6\pdl\drivers/peripheral/gpio/cy_gpio.h ****     uint32_t portNum;
 691:Generated_Source\PSoC6\pdl\drivers/peripheral/gpio/cy_gpio.h ****     HSIOM_PRT_V1_Type* portAddrHSIOM;
 692:Generated_Source\PSoC6\pdl\drivers/peripheral/gpio/cy_gpio.h ****     
 693:Generated_Source\PSoC6\pdl\drivers/peripheral/gpio/cy_gpio.h ****     CY_ASSERT_L2(CY_GPIO_IS_PIN_VALID(pinNum));
 694:Generated_Source\PSoC6\pdl\drivers/peripheral/gpio/cy_gpio.h **** 
 695:Generated_Source\PSoC6\pdl\drivers/peripheral/gpio/cy_gpio.h ****     portNum = ((uint32_t)(base) - CY_GPIO_BASE) / GPIO_PRT_SECTION_SIZE;
 696:Generated_Source\PSoC6\pdl\drivers/peripheral/gpio/cy_gpio.h ****     portAddrHSIOM = (HSIOM_PRT_V1_Type*)(CY_HSIOM_BASE + (HSIOM_PRT_SECTION_SIZE * portNum));
 697:Generated_Source\PSoC6\pdl\drivers/peripheral/gpio/cy_gpio.h **** 
 698:Generated_Source\PSoC6\pdl\drivers/peripheral/gpio/cy_gpio.h ****     if(pinNum < CY_GPIO_PRT_HALF)
 699:Generated_Source\PSoC6\pdl\drivers/peripheral/gpio/cy_gpio.h ****     {
 700:Generated_Source\PSoC6\pdl\drivers/peripheral/gpio/cy_gpio.h ****         returnValue = (HSIOM_PRT_PORT_SEL0(portAddrHSIOM) >> (pinNum << CY_GPIO_HSIOM_OFFSET)) & CY
 701:Generated_Source\PSoC6\pdl\drivers/peripheral/gpio/cy_gpio.h ****     }
 702:Generated_Source\PSoC6\pdl\drivers/peripheral/gpio/cy_gpio.h ****     else
 703:Generated_Source\PSoC6\pdl\drivers/peripheral/gpio/cy_gpio.h ****     {
 704:Generated_Source\PSoC6\pdl\drivers/peripheral/gpio/cy_gpio.h ****         pinNum -= CY_GPIO_PRT_HALF;
 705:Generated_Source\PSoC6\pdl\drivers/peripheral/gpio/cy_gpio.h ****         returnValue = (HSIOM_PRT_PORT_SEL1(portAddrHSIOM) >> (pinNum << CY_GPIO_HSIOM_OFFSET)) & CY
 706:Generated_Source\PSoC6\pdl\drivers/peripheral/gpio/cy_gpio.h ****     }
 707:Generated_Source\PSoC6\pdl\drivers/peripheral/gpio/cy_gpio.h **** 
 708:Generated_Source\PSoC6\pdl\drivers/peripheral/gpio/cy_gpio.h ****     return (en_hsiom_sel_t)returnValue;
 709:Generated_Source\PSoC6\pdl\drivers/peripheral/gpio/cy_gpio.h **** }
 710:Generated_Source\PSoC6\pdl\drivers/peripheral/gpio/cy_gpio.h **** 
 711:Generated_Source\PSoC6\pdl\drivers/peripheral/gpio/cy_gpio.h **** 
 712:Generated_Source\PSoC6\pdl\drivers/peripheral/gpio/cy_gpio.h **** /*******************************************************************************
 713:Generated_Source\PSoC6\pdl\drivers/peripheral/gpio/cy_gpio.h **** * Function Name: Cy_GPIO_PortToAddr
 714:Generated_Source\PSoC6\pdl\drivers/peripheral/gpio/cy_gpio.h **** ****************************************************************************//**
 715:Generated_Source\PSoC6\pdl\drivers/peripheral/gpio/cy_gpio.h **** *
 716:Generated_Source\PSoC6\pdl\drivers/peripheral/gpio/cy_gpio.h **** * Retrieves the port address based on the given port number.
 717:Generated_Source\PSoC6\pdl\drivers/peripheral/gpio/cy_gpio.h **** *
 718:Generated_Source\PSoC6\pdl\drivers/peripheral/gpio/cy_gpio.h **** * This is a helper function to calculate the port base address when given a port
 719:Generated_Source\PSoC6\pdl\drivers/peripheral/gpio/cy_gpio.h **** * number. It is to be used when pin access needs to be calculated at runtime.
 720:Generated_Source\PSoC6\pdl\drivers/peripheral/gpio/cy_gpio.h **** *
 721:Generated_Source\PSoC6\pdl\drivers/peripheral/gpio/cy_gpio.h **** * \param portNum
 722:Generated_Source\PSoC6\pdl\drivers/peripheral/gpio/cy_gpio.h **** * Port number
 723:Generated_Source\PSoC6\pdl\drivers/peripheral/gpio/cy_gpio.h **** *
 724:Generated_Source\PSoC6\pdl\drivers/peripheral/gpio/cy_gpio.h **** * \return
 725:Generated_Source\PSoC6\pdl\drivers/peripheral/gpio/cy_gpio.h **** * Base address of the port register structure
 726:Generated_Source\PSoC6\pdl\drivers/peripheral/gpio/cy_gpio.h **** *
 727:Generated_Source\PSoC6\pdl\drivers/peripheral/gpio/cy_gpio.h **** * \funcusage
 728:Generated_Source\PSoC6\pdl\drivers/peripheral/gpio/cy_gpio.h **** * \snippet gpio/gpio_v1_10_sut_01.cydsn/main_cm4.c snippet_Cy_GPIO_PortToAddr
 729:Generated_Source\PSoC6\pdl\drivers/peripheral/gpio/cy_gpio.h **** *
 730:Generated_Source\PSoC6\pdl\drivers/peripheral/gpio/cy_gpio.h **** *******************************************************************************/
 731:Generated_Source\PSoC6\pdl\drivers/peripheral/gpio/cy_gpio.h **** __STATIC_INLINE GPIO_PRT_Type* Cy_GPIO_PortToAddr(uint32_t portNum)
 732:Generated_Source\PSoC6\pdl\drivers/peripheral/gpio/cy_gpio.h **** {
 733:Generated_Source\PSoC6\pdl\drivers/peripheral/gpio/cy_gpio.h ****     GPIO_PRT_Type* portBase;
 734:Generated_Source\PSoC6\pdl\drivers/peripheral/gpio/cy_gpio.h ****     
 735:Generated_Source\PSoC6\pdl\drivers/peripheral/gpio/cy_gpio.h ****     if(portNum < (uint32_t)IOSS_GPIO_GPIO_PORT_NR)
 736:Generated_Source\PSoC6\pdl\drivers/peripheral/gpio/cy_gpio.h ****     {
 737:Generated_Source\PSoC6\pdl\drivers/peripheral/gpio/cy_gpio.h ****         portBase = (GPIO_PRT_Type *)(CY_GPIO_BASE + (GPIO_PRT_SECTION_SIZE * portNum));
 738:Generated_Source\PSoC6\pdl\drivers/peripheral/gpio/cy_gpio.h ****     }
ARM GAS  C:\Users\jmori\AppData\Local\Temp\ccFGeXpP.s 			page 31


 739:Generated_Source\PSoC6\pdl\drivers/peripheral/gpio/cy_gpio.h ****     else
 740:Generated_Source\PSoC6\pdl\drivers/peripheral/gpio/cy_gpio.h ****     {
 741:Generated_Source\PSoC6\pdl\drivers/peripheral/gpio/cy_gpio.h ****         /* Error: Return default base address */
 742:Generated_Source\PSoC6\pdl\drivers/peripheral/gpio/cy_gpio.h ****         portBase = (GPIO_PRT_Type *)(CY_GPIO_BASE);
 743:Generated_Source\PSoC6\pdl\drivers/peripheral/gpio/cy_gpio.h ****     }
 744:Generated_Source\PSoC6\pdl\drivers/peripheral/gpio/cy_gpio.h **** 
 745:Generated_Source\PSoC6\pdl\drivers/peripheral/gpio/cy_gpio.h ****     return (portBase);
 746:Generated_Source\PSoC6\pdl\drivers/peripheral/gpio/cy_gpio.h **** }
 747:Generated_Source\PSoC6\pdl\drivers/peripheral/gpio/cy_gpio.h **** 
 748:Generated_Source\PSoC6\pdl\drivers/peripheral/gpio/cy_gpio.h **** /** \} group_gpio_functions_init */
 749:Generated_Source\PSoC6\pdl\drivers/peripheral/gpio/cy_gpio.h **** 
 750:Generated_Source\PSoC6\pdl\drivers/peripheral/gpio/cy_gpio.h **** /**
 751:Generated_Source\PSoC6\pdl\drivers/peripheral/gpio/cy_gpio.h **** * \addtogroup group_gpio_functions_gpio
 752:Generated_Source\PSoC6\pdl\drivers/peripheral/gpio/cy_gpio.h **** * \{
 753:Generated_Source\PSoC6\pdl\drivers/peripheral/gpio/cy_gpio.h **** */
 754:Generated_Source\PSoC6\pdl\drivers/peripheral/gpio/cy_gpio.h **** 
 755:Generated_Source\PSoC6\pdl\drivers/peripheral/gpio/cy_gpio.h **** /*******************************************************************************
 756:Generated_Source\PSoC6\pdl\drivers/peripheral/gpio/cy_gpio.h **** * Function Name: Cy_GPIO_Read
 757:Generated_Source\PSoC6\pdl\drivers/peripheral/gpio/cy_gpio.h **** ****************************************************************************//**
 758:Generated_Source\PSoC6\pdl\drivers/peripheral/gpio/cy_gpio.h **** *
 759:Generated_Source\PSoC6\pdl\drivers/peripheral/gpio/cy_gpio.h **** * Reads the current logic level on the input buffer of the pin.
 760:Generated_Source\PSoC6\pdl\drivers/peripheral/gpio/cy_gpio.h **** *
 761:Generated_Source\PSoC6\pdl\drivers/peripheral/gpio/cy_gpio.h **** * \param base
 762:Generated_Source\PSoC6\pdl\drivers/peripheral/gpio/cy_gpio.h **** * Pointer to the pin's port register base address
 763:Generated_Source\PSoC6\pdl\drivers/peripheral/gpio/cy_gpio.h **** *
 764:Generated_Source\PSoC6\pdl\drivers/peripheral/gpio/cy_gpio.h **** * \param pinNum
 765:Generated_Source\PSoC6\pdl\drivers/peripheral/gpio/cy_gpio.h **** * Position of the pin bit-field within the port register.
 766:Generated_Source\PSoC6\pdl\drivers/peripheral/gpio/cy_gpio.h **** * Bit position 8 is the routed pin through the port glitch filter.
 767:Generated_Source\PSoC6\pdl\drivers/peripheral/gpio/cy_gpio.h **** *
 768:Generated_Source\PSoC6\pdl\drivers/peripheral/gpio/cy_gpio.h **** * \return
 769:Generated_Source\PSoC6\pdl\drivers/peripheral/gpio/cy_gpio.h **** * Logic level present on the pin
 770:Generated_Source\PSoC6\pdl\drivers/peripheral/gpio/cy_gpio.h **** *
 771:Generated_Source\PSoC6\pdl\drivers/peripheral/gpio/cy_gpio.h **** * \funcusage
 772:Generated_Source\PSoC6\pdl\drivers/peripheral/gpio/cy_gpio.h **** * \snippet gpio/gpio_v1_10_sut_01.cydsn/main_cm4.c snippet_Cy_GPIO_Read
 773:Generated_Source\PSoC6\pdl\drivers/peripheral/gpio/cy_gpio.h **** *
 774:Generated_Source\PSoC6\pdl\drivers/peripheral/gpio/cy_gpio.h **** *******************************************************************************/
 775:Generated_Source\PSoC6\pdl\drivers/peripheral/gpio/cy_gpio.h **** __STATIC_INLINE uint32_t Cy_GPIO_Read(GPIO_PRT_Type* base, uint32_t pinNum)
 776:Generated_Source\PSoC6\pdl\drivers/peripheral/gpio/cy_gpio.h **** {
 777:Generated_Source\PSoC6\pdl\drivers/peripheral/gpio/cy_gpio.h ****     CY_ASSERT_L2(CY_GPIO_IS_FILTER_PIN_VALID(pinNum));
 778:Generated_Source\PSoC6\pdl\drivers/peripheral/gpio/cy_gpio.h ****     
 779:Generated_Source\PSoC6\pdl\drivers/peripheral/gpio/cy_gpio.h ****     return (GPIO_PRT_IN(base) >> (pinNum)) & CY_GPIO_IN_MASK;
 780:Generated_Source\PSoC6\pdl\drivers/peripheral/gpio/cy_gpio.h **** }
 781:Generated_Source\PSoC6\pdl\drivers/peripheral/gpio/cy_gpio.h **** 
 782:Generated_Source\PSoC6\pdl\drivers/peripheral/gpio/cy_gpio.h **** 
 783:Generated_Source\PSoC6\pdl\drivers/peripheral/gpio/cy_gpio.h **** /*******************************************************************************
 784:Generated_Source\PSoC6\pdl\drivers/peripheral/gpio/cy_gpio.h **** * Function Name: Cy_GPIO_Write
 785:Generated_Source\PSoC6\pdl\drivers/peripheral/gpio/cy_gpio.h **** ****************************************************************************//**
 786:Generated_Source\PSoC6\pdl\drivers/peripheral/gpio/cy_gpio.h **** *
 787:Generated_Source\PSoC6\pdl\drivers/peripheral/gpio/cy_gpio.h **** * Write a logic 0 or logic 1 state to the output driver.
 788:Generated_Source\PSoC6\pdl\drivers/peripheral/gpio/cy_gpio.h **** *
 789:Generated_Source\PSoC6\pdl\drivers/peripheral/gpio/cy_gpio.h **** * This function should be used only for software driven pins. It does not have
 790:Generated_Source\PSoC6\pdl\drivers/peripheral/gpio/cy_gpio.h **** * any effect on peripheral driven pins.
 791:Generated_Source\PSoC6\pdl\drivers/peripheral/gpio/cy_gpio.h **** *
 792:Generated_Source\PSoC6\pdl\drivers/peripheral/gpio/cy_gpio.h **** * \param base
 793:Generated_Source\PSoC6\pdl\drivers/peripheral/gpio/cy_gpio.h **** * Pointer to the pin's port register base address
 794:Generated_Source\PSoC6\pdl\drivers/peripheral/gpio/cy_gpio.h **** *
 795:Generated_Source\PSoC6\pdl\drivers/peripheral/gpio/cy_gpio.h **** * \param pinNum
ARM GAS  C:\Users\jmori\AppData\Local\Temp\ccFGeXpP.s 			page 32


 796:Generated_Source\PSoC6\pdl\drivers/peripheral/gpio/cy_gpio.h **** * Position of the pin bit-field within the port register
 797:Generated_Source\PSoC6\pdl\drivers/peripheral/gpio/cy_gpio.h **** *
 798:Generated_Source\PSoC6\pdl\drivers/peripheral/gpio/cy_gpio.h **** * \param value
 799:Generated_Source\PSoC6\pdl\drivers/peripheral/gpio/cy_gpio.h **** * Logic level to drive out on the pin
 800:Generated_Source\PSoC6\pdl\drivers/peripheral/gpio/cy_gpio.h **** *
 801:Generated_Source\PSoC6\pdl\drivers/peripheral/gpio/cy_gpio.h **** * \funcusage
 802:Generated_Source\PSoC6\pdl\drivers/peripheral/gpio/cy_gpio.h **** * \snippet gpio/gpio_v1_10_sut_01.cydsn/main_cm4.c snippet_Cy_GPIO_Write
 803:Generated_Source\PSoC6\pdl\drivers/peripheral/gpio/cy_gpio.h **** *
 804:Generated_Source\PSoC6\pdl\drivers/peripheral/gpio/cy_gpio.h **** *******************************************************************************/
 805:Generated_Source\PSoC6\pdl\drivers/peripheral/gpio/cy_gpio.h **** __STATIC_INLINE void Cy_GPIO_Write(GPIO_PRT_Type* base, uint32_t pinNum, uint32_t value)
 806:Generated_Source\PSoC6\pdl\drivers/peripheral/gpio/cy_gpio.h **** {
 807:Generated_Source\PSoC6\pdl\drivers/peripheral/gpio/cy_gpio.h ****     CY_ASSERT_L2(CY_GPIO_IS_PIN_VALID(pinNum));
 808:Generated_Source\PSoC6\pdl\drivers/peripheral/gpio/cy_gpio.h ****     CY_ASSERT_L2(CY_GPIO_IS_VALUE_VALID(value));
 809:Generated_Source\PSoC6\pdl\drivers/peripheral/gpio/cy_gpio.h **** 
 810:Generated_Source\PSoC6\pdl\drivers/peripheral/gpio/cy_gpio.h ****     /* Thread-safe: Directly access the pin registers instead of base->OUT */
 811:Generated_Source\PSoC6\pdl\drivers/peripheral/gpio/cy_gpio.h ****     if(0UL == value)
 812:Generated_Source\PSoC6\pdl\drivers/peripheral/gpio/cy_gpio.h ****     {
 813:Generated_Source\PSoC6\pdl\drivers/peripheral/gpio/cy_gpio.h ****         GPIO_PRT_OUT_CLR(base) = CY_GPIO_OUT_MASK << pinNum;
 814:Generated_Source\PSoC6\pdl\drivers/peripheral/gpio/cy_gpio.h ****     }
 815:Generated_Source\PSoC6\pdl\drivers/peripheral/gpio/cy_gpio.h ****     else
 816:Generated_Source\PSoC6\pdl\drivers/peripheral/gpio/cy_gpio.h ****     {
 817:Generated_Source\PSoC6\pdl\drivers/peripheral/gpio/cy_gpio.h ****         GPIO_PRT_OUT_SET(base) = CY_GPIO_OUT_MASK << pinNum;
  62              		.loc 2 817 0 is_stmt 1
  63 0036 084C     		ldr	r4, .L7+8
  64 0038 0225     		movs	r5, #2
  65 003a A560     		str	r5, [r4, #8]
  66              	.LVL1:
  67              	.LBE11:
  68              	.LBE10:
 912:main_cm4.c    ****             Cy_GPIO_Write(Pin_1_0_PORT, Pin_1_0_NUM,1);
 913:main_cm4.c    ****             vTaskDelay(pdMS_TO_TICKS(500));
  69              		.loc 1 913 0
  70 003c 4FF4FA70 		mov	r0, #500
  71 0040 FFF7FEFF 		bl	vTaskDelay
  72              	.LVL2:
  73              	.LBB12:
  74              	.LBB13:
 813:Generated_Source\PSoC6\pdl\drivers/peripheral/gpio/cy_gpio.h ****     }
  75              		.loc 2 813 0
  76 0044 6560     		str	r5, [r4, #4]
  77              	.LVL3:
  78              	.LBE13:
  79              	.LBE12:
 914:main_cm4.c    ****             Cy_GPIO_Write(Pin_1_0_PORT, Pin_1_0_NUM,0);
 915:main_cm4.c    ****             vTaskDelay(pdMS_TO_TICKS(500));
  80              		.loc 1 915 0
  81 0046 4FF4FA70 		mov	r0, #500
  82 004a FFF7FEFF 		bl	vTaskDelay
  83              	.LVL4:
  84 004e D8E7     		b	.L2
  85              	.L8:
  86              		.align	2
  87              	.L7:
  88 0050 00000000 		.word	.LANCHOR0
  89 0054 00000000 		.word	.LANCHOR1
  90 0058 80053240 		.word	1077020032
  91              		.cfi_endproc
ARM GAS  C:\Users\jmori\AppData\Local\Temp\ccFGeXpP.s 			page 33


  92              	.LFE366:
  93              		.size	AlarmeFC, .-AlarmeFC
  94              		.section	.text.BPM,"ax",%progbits
  95              		.align	2
  96              		.global	BPM
  97              		.thumb
  98              		.thumb_func
  99              		.type	BPM, %function
 100              	BPM:
 101              	.LFB367:
 916:main_cm4.c    ****         }
 917:main_cm4.c    ****     }
 918:main_cm4.c    **** }
 919:main_cm4.c    **** 
 920:main_cm4.c    **** 
 921:main_cm4.c    **** float BPM(float* maximum){
 102              		.loc 1 921 0
 103              		.cfi_startproc
 104              		@ args = 0, pretend = 0, frame = 0
 105              		@ frame_needed = 0, uses_anonymous_args = 0
 106              		@ link register save eliminated.
 107              	.LVL5:
 922:main_cm4.c    ****     float BPM =0;
 923:main_cm4.c    **** 		if(flag ==1){
 108              		.loc 1 923 0
 109 0000 074B     		ldr	r3, .L12
 110 0002 5B68     		ldr	r3, [r3, #4]
 111 0004 012B     		cmp	r3, #1
 112 0006 02D1     		bne	.L10
 113              	.LBB14:
 924:main_cm4.c    **** 			flag =0;
 114              		.loc 1 924 0
 115 0008 0022     		movs	r2, #0
 116 000a 054B     		ldr	r3, .L12
 117 000c 5A60     		str	r2, [r3, #4]
 118              	.LVL6:
 119              	.L10:
 120              	.LBE14:
 925:main_cm4.c    **** 			int nombreMax =0;
 926:main_cm4.c    ****     for(int i =0; i>30; i++){
 927:main_cm4.c    ****         if(maximum[i] != 0){
 928:main_cm4.c    ****             nombreMax = nombreMax +1;
 929:main_cm4.c    ****         }}
 930:main_cm4.c    ****         BPM = nombreMax*6;
 931:main_cm4.c    ****         for(int i =0; i>30; i++){ // Reinitialiser le vecteur a des 0.
 932:main_cm4.c    ****             maximum[i] = 0;
 933:main_cm4.c    ****          }    
 934:main_cm4.c    **** 		}	
 935:main_cm4.c    **** 		if(flag ==2){
 121              		.loc 1 935 0
 122 000e 044B     		ldr	r3, .L12
 123 0010 5B68     		ldr	r3, [r3, #4]
 124 0012 022B     		cmp	r3, #2
 125 0014 02D1     		bne	.L11
 126              	.LBB15:
 936:main_cm4.c    **** 			flag =0;
 127              		.loc 1 936 0
ARM GAS  C:\Users\jmori\AppData\Local\Temp\ccFGeXpP.s 			page 34


 128 0016 0022     		movs	r2, #0
 129 0018 014B     		ldr	r3, .L12
 130 001a 5A60     		str	r2, [r3, #4]
 131              	.LVL7:
 132              	.L11:
 133              	.LBE15:
 937:main_cm4.c    **** 			 int nombreMax =0;
 938:main_cm4.c    ****     for(int i =30; i>60; i++){
 939:main_cm4.c    ****         if(maximum[i] != 0){
 940:main_cm4.c    ****             nombreMax = nombreMax +1;
 941:main_cm4.c    ****         }}
 942:main_cm4.c    ****         BPM = nombreMax*6;
 943:main_cm4.c    ****         for(int i =30; i>60; i++){ // Reinitialiser le vecteur a des 0.
 944:main_cm4.c    ****             maximum[i] = 0;
 945:main_cm4.c    ****         }
 946:main_cm4.c    **** }
 947:main_cm4.c    **** 	return(BPM);
 948:main_cm4.c    **** }
 134              		.loc 1 948 0
 135 001c 0020     		movs	r0, #0
 136              	.LVL8:
 137 001e 7047     		bx	lr
 138              	.L13:
 139              		.align	2
 140              	.L12:
 141 0020 00000000 		.word	.LANCHOR1
 142              		.cfi_endproc
 143              	.LFE367:
 144              		.size	BPM, .-BPM
 145              		.global	__aeabi_f2d
 146              		.global	__aeabi_dmul
 147              		.global	__aeabi_dadd
 148              		.global	__aeabi_d2f
 149              		.section	.text.Saturation,"ax",%progbits
 150              		.align	2
 151              		.global	Saturation
 152              		.thumb
 153              		.thumb_func
 154              		.type	Saturation, %function
 155              	Saturation:
 156              	.LFB368:
 949:main_cm4.c    **** 
 950:main_cm4.c    **** volatile int Interface =0; 
 951:main_cm4.c    **** 
 952:main_cm4.c    **** volatile float dataIrBrut[1000];
 953:main_cm4.c    **** volatile float* dataIRInterface;
 954:main_cm4.c    **** volatile float dataRedBrut[1000];
 955:main_cm4.c    **** volatile float* dataRedInterface;
 956:main_cm4.c    **** 
 957:main_cm4.c    **** float Saturation(float* dataIR, float* dataRed){
 157              		.loc 1 957 0
 158              		.cfi_startproc
 159              		@ args = 0, pretend = 0, frame = 2032
 160              		@ frame_needed = 0, uses_anonymous_args = 0
 161              	.LVL9:
 162 0000 2DE9F041 		push	{r4, r5, r6, r7, r8, lr}
 163              		.cfi_def_cfa_offset 24
ARM GAS  C:\Users\jmori\AppData\Local\Temp\ccFGeXpP.s 			page 35


 164              		.cfi_offset 4, -24
 165              		.cfi_offset 5, -20
 166              		.cfi_offset 6, -16
 167              		.cfi_offset 7, -12
 168              		.cfi_offset 8, -8
 169              		.cfi_offset 14, -4
 170 0004 ADF5FF6D 		sub	sp, sp, #2040
 171              		.cfi_def_cfa_offset 2064
 172 0008 0546     		mov	r5, r0
 173 000a 0C46     		mov	r4, r1
 958:main_cm4.c    ****      NbreSec = NbreSec +1;
 174              		.loc 1 958 0
 175 000c 824B     		ldr	r3, .L21+16
 176 000e 9A68     		ldr	r2, [r3, #8]
 177 0010 0132     		adds	r2, r2, #1
 178 0012 9A60     		str	r2, [r3, #8]
 179              	.LBB16:
 959:main_cm4.c    ****      for(int i = NbreSec*BLOCK_SIZE; i > (Interface*BLOCK_SIZE);i++){
 180              		.loc 1 959 0
 181 0014 9B68     		ldr	r3, [r3, #8]
 182 0016 C822     		movs	r2, #200
 183 0018 02FB03F2 		mul	r2, r2, r3
 184              	.LVL10:
 185 001c 0BE0     		b	.L15
 186              	.LVL11:
 187              	.L16:
 960:main_cm4.c    ****         dataIrBrut[i] = dataIR[i];
 188              		.loc 1 960 0 discriminator 3
 189 001e 9300     		lsls	r3, r2, #2
 190 0020 E918     		adds	r1, r5, r3
 191 0022 0868     		ldr	r0, [r1]	@ float
 192 0024 7D49     		ldr	r1, .L21+20
 193 0026 1944     		add	r1, r1, r3
 194 0028 0860     		str	r0, [r1]	@ float
 961:main_cm4.c    ****         dataRedBrut[i] = dataRed[i];
 195              		.loc 1 961 0 discriminator 3
 196 002a E118     		adds	r1, r4, r3
 197 002c 0968     		ldr	r1, [r1]	@ float
 198 002e 7C48     		ldr	r0, .L21+24
 199 0030 0344     		add	r3, r3, r0
 200 0032 1960     		str	r1, [r3]	@ float
 959:main_cm4.c    ****      for(int i = NbreSec*BLOCK_SIZE; i > (Interface*BLOCK_SIZE);i++){
 201              		.loc 1 959 0 discriminator 3
 202 0034 0132     		adds	r2, r2, #1
 203              	.LVL12:
 204              	.L15:
 959:main_cm4.c    ****      for(int i = NbreSec*BLOCK_SIZE; i > (Interface*BLOCK_SIZE);i++){
 205              		.loc 1 959 0 is_stmt 0 discriminator 1
 206 0036 784B     		ldr	r3, .L21+16
 207 0038 D968     		ldr	r1, [r3, #12]
 208 003a C823     		movs	r3, #200
 209 003c 03FB01F3 		mul	r3, r3, r1
 210 0040 9A42     		cmp	r2, r3
 211 0042 ECDC     		bgt	.L16
 212              	.LBE16:
 962:main_cm4.c    ****     }
 963:main_cm4.c    ****     Interface = Interface + 1; 
ARM GAS  C:\Users\jmori\AppData\Local\Temp\ccFGeXpP.s 			page 36


 213              		.loc 1 963 0 is_stmt 1
 214 0044 744B     		ldr	r3, .L21+16
 215 0046 DA68     		ldr	r2, [r3, #12]
 216              	.LVL13:
 217 0048 0132     		adds	r2, r2, #1
 218 004a DA60     		str	r2, [r3, #12]
 964:main_cm4.c    ****     if(Interface == 5){
 219              		.loc 1 964 0
 220 004c DB68     		ldr	r3, [r3, #12]
 221 004e 052B     		cmp	r3, #5
 222 0050 08D1     		bne	.L17
 965:main_cm4.c    ****         Interface =0;
 223              		.loc 1 965 0
 224 0052 0022     		movs	r2, #0
 225 0054 704B     		ldr	r3, .L21+16
 226 0056 DA60     		str	r2, [r3, #12]
 966:main_cm4.c    ****         dataIRInterface = dataIrBrut;
 227              		.loc 1 966 0
 228 0058 704A     		ldr	r2, .L21+20
 229 005a 724B     		ldr	r3, .L21+28
 230 005c 1A60     		str	r2, [r3]
 967:main_cm4.c    ****         dataRedInterface = dataRedBrut;
 231              		.loc 1 967 0
 232 005e 704A     		ldr	r2, .L21+24
 233 0060 714B     		ldr	r3, .L21+32
 234 0062 1A60     		str	r2, [r3]
 235              	.L17:
 968:main_cm4.c    ****     }
 969:main_cm4.c    ****    
 970:main_cm4.c    **** // Trouver les composantes DC
 971:main_cm4.c    **** 	float DCIR =0;
 236              		.loc 1 971 0
 237 0064 0026     		movs	r6, #0
 238 0066 0DF2F473 		addw	r3, sp, #2036
 239 006a 1E60     		str	r6, [r3]	@ float
 972:main_cm4.c    **** 	float DCRED =0;
 240              		.loc 1 972 0
 241 006c 0DF5FE63 		add	r3, sp, #2032
 242 0070 1E60     		str	r6, [r3]	@ float
 973:main_cm4.c    **** 	arm_mean_f32(dataIR, BLOCK_SIZE,&DCIR);
 243              		.loc 1 973 0
 244 0072 0DF2F472 		addw	r2, sp, #2036
 245 0076 C821     		movs	r1, #200
 246 0078 2846     		mov	r0, r5
 247 007a FFF7FEFF 		bl	arm_mean_f32
 248              	.LVL14:
 974:main_cm4.c    **** 	arm_mean_f32(dataRed, BLOCK_SIZE, &DCRED);
 249              		.loc 1 974 0
 250 007e 0DF5FE62 		add	r2, sp, #2032
 251 0082 C821     		movs	r1, #200
 252 0084 2046     		mov	r0, r4
 253 0086 FFF7FEFF 		bl	arm_mean_f32
 254              	.LVL15:
 975:main_cm4.c    **** 
 976:main_cm4.c    **** // Filtrage 
 977:main_cm4.c    **** 	float IrFiltre[250];
 978:main_cm4.c    ****     float RedFiltre[250];
ARM GAS  C:\Users\jmori\AppData\Local\Temp\ccFGeXpP.s 			page 37


 979:main_cm4.c    **** 	arm_fir_init_f32(&S, FILTER_TAP_NUM, (float32_t *)&firCoeffs32[0], &firStateF32[0], blockSize);
 255              		.loc 1 979 0
 256 008a DFF88C81 		ldr	r8, .L21+16
 257 008e 674F     		ldr	r7, .L21+36
 258 0090 674B     		ldr	r3, .L21+40
 259 0092 D3F8F839 		ldr	r3, [r3, #2552]
 260 0096 0093     		str	r3, [sp]
 261 0098 08F11003 		add	r3, r8, #16
 262 009c 654A     		ldr	r2, .L21+44
 263 009e 40F25D31 		movw	r1, #861
 264 00a2 3846     		mov	r0, r7
 265 00a4 FFF7FEFF 		bl	arm_fir_init_f32
 266              	.LVL16:
 980:main_cm4.c    ****     arm_fir_f32(&S, dataIR, IrFiltre,BLOCK_SIZE);
 267              		.loc 1 980 0
 268 00a8 C823     		movs	r3, #200
 269 00aa 0DF58162 		add	r2, sp, #1032
 270 00ae 2946     		mov	r1, r5
 271 00b0 3846     		mov	r0, r7
 272 00b2 FFF7FEFF 		bl	arm_fir_f32
 273              	.LVL17:
 981:main_cm4.c    ****     arm_fir_f32(&S, dataRed, RedFiltre,BLOCK_SIZE);
 274              		.loc 1 981 0
 275 00b6 C823     		movs	r3, #200
 276 00b8 08AA     		add	r2, sp, #32
 277 00ba 2146     		mov	r1, r4
 278 00bc 3846     		mov	r0, r7
 279 00be FFF7FEFF 		bl	arm_fir_f32
 280              	.LVL18:
 982:main_cm4.c    **** 
 983:main_cm4.c    **** // Trouver les composantes AC
 984:main_cm4.c    **** 	float maxIR =0;
 281              		.loc 1 984 0
 282 00c2 0796     		str	r6, [sp, #28]	@ float
 985:main_cm4.c    **** 	float maxRed =0;
 283              		.loc 1 985 0
 284 00c4 0696     		str	r6, [sp, #24]	@ float
 986:main_cm4.c    **** 	float minIR =0;
 285              		.loc 1 986 0
 286 00c6 0596     		str	r6, [sp, #20]	@ float
 987:main_cm4.c    **** 	float minRed =0;	
 287              		.loc 1 987 0
 288 00c8 0496     		str	r6, [sp, #16]	@ float
 988:main_cm4.c    **** 	uint32_t position =0;
 289              		.loc 1 988 0
 290 00ca 0023     		movs	r3, #0
 291 00cc 0393     		str	r3, [sp, #12]
 989:main_cm4.c    **** 
 990:main_cm4.c    **** 	arm_max_f32(IrFiltre, BLOCK_SIZE, &maxIR, &position);
 292              		.loc 1 990 0
 293 00ce 03AB     		add	r3, sp, #12
 294 00d0 07AA     		add	r2, sp, #28
 295 00d2 C821     		movs	r1, #200
 296 00d4 0DF58160 		add	r0, sp, #1032
 297 00d8 FFF7FEFF 		bl	arm_max_f32
 298              	.LVL19:
 991:main_cm4.c    **** 	arm_max_f32(RedFiltre, BLOCK_SIZE, &maxRed, &position);
ARM GAS  C:\Users\jmori\AppData\Local\Temp\ccFGeXpP.s 			page 38


 299              		.loc 1 991 0
 300 00dc 03AB     		add	r3, sp, #12
 301 00de 06AA     		add	r2, sp, #24
 302 00e0 C821     		movs	r1, #200
 303 00e2 08A8     		add	r0, sp, #32
 304 00e4 FFF7FEFF 		bl	arm_max_f32
 305              	.LVL20:
 992:main_cm4.c    **** 	arm_min_f32(IrFiltre, BLOCK_SIZE, &minIR, &position);
 306              		.loc 1 992 0
 307 00e8 03AB     		add	r3, sp, #12
 308 00ea 05AA     		add	r2, sp, #20
 309 00ec C821     		movs	r1, #200
 310 00ee 0DF58160 		add	r0, sp, #1032
 311 00f2 FFF7FEFF 		bl	arm_min_f32
 312              	.LVL21:
 993:main_cm4.c    **** 	arm_min_f32(RedFiltre, BLOCK_SIZE, &minRed, &position);
 313              		.loc 1 993 0
 314 00f6 03AB     		add	r3, sp, #12
 315 00f8 04AA     		add	r2, sp, #16
 316 00fa C821     		movs	r1, #200
 317 00fc 08A8     		add	r0, sp, #32
 318 00fe FFF7FEFF 		bl	arm_min_f32
 319              	.LVL22:
 994:main_cm4.c    **** 
 995:main_cm4.c    **** 	float ACIr = maxIR - minIR;
 320              		.loc 1 995 0
 321 0102 DDED077A 		vldr.32	s15, [sp, #28]
 322 0106 9DED057A 		vldr.32	s14, [sp, #20]
 323 010a 77EEC77A 		vsub.f32	s15, s15, s14
 324              	.LVL23:
 996:main_cm4.c    **** 	float ACRed = maxRed - minRed;
 325              		.loc 1 996 0
 326 010e 9DED067A 		vldr.32	s14, [sp, #24]
 327 0112 DDED046A 		vldr.32	s13, [sp, #16]
 328 0116 37EE667A 		vsub.f32	s14, s14, s13
 329              	.LVL24:
 997:main_cm4.c    **** 
 998:main_cm4.c    **** // Trouver la saturation dans l'intervale:
 999:main_cm4.c    **** 	 R = (ACRed/DCRED)/(ACIr/DCIR);
 330              		.loc 1 999 0
 331 011a 0DF5FE63 		add	r3, sp, #2032
 332 011e 93ED006A 		vldr.32	s12, [r3]
 333 0122 C7EE066A 		vdiv.f32	s13, s14, s12
 334 0126 0DF2F473 		addw	r3, sp, #2036
 335 012a 93ED006A 		vldr.32	s12, [r3]
 336 012e 87EE867A 		vdiv.f32	s14, s15, s12
 337              	.LVL25:
 338 0132 C6EE877A 		vdiv.f32	s15, s13, s14
 339              	.LVL26:
 340 0136 404C     		ldr	r4, .L21+48
 341              	.LVL27:
 342 0138 44ED167A 		vstr.32	s15, [r4, #-88]
1000:main_cm4.c    **** 	 SpO2 = -16.67*(R*R) + 8.33*R + 100;
 343              		.loc 1 1000 0
 344 013c 14ED167A 		vldr.32	s14, [r4, #-88]
 345 0140 54ED167A 		vldr.32	s15, [r4, #-88]
 346 0144 67EE277A 		vmul.f32	s15, s14, s15
ARM GAS  C:\Users\jmori\AppData\Local\Temp\ccFGeXpP.s 			page 39


 347 0148 17EE900A 		vmov	r0, s15
 348 014c FFF7FEFF 		bl	__aeabi_f2d
 349              	.LVL28:
 350 0150 2DA3     		adr	r3, .L21
 351 0152 D3E90023 		ldrd	r2, [r3]
 352 0156 FFF7FEFF 		bl	__aeabi_dmul
 353              	.LVL29:
 354 015a 0646     		mov	r6, r0
 355 015c 0F46     		mov	r7, r1
 356 015e 54F8580C 		ldr	r0, [r4, #-88]	@ float
 357 0162 FFF7FEFF 		bl	__aeabi_f2d
 358              	.LVL30:
 359 0166 2AA3     		adr	r3, .L21+8
 360 0168 D3E90023 		ldrd	r2, [r3]
 361 016c FFF7FEFF 		bl	__aeabi_dmul
 362              	.LVL31:
 363 0170 0246     		mov	r2, r0
 364 0172 0B46     		mov	r3, r1
 365 0174 3046     		mov	r0, r6
 366 0176 3946     		mov	r1, r7
 367 0178 FFF7FEFF 		bl	__aeabi_dadd
 368              	.LVL32:
 369 017c 0022     		movs	r2, #0
 370 017e 2F4B     		ldr	r3, .L21+52
 371 0180 FFF7FEFF 		bl	__aeabi_dadd
 372              	.LVL33:
 373 0184 FFF7FEFF 		bl	__aeabi_d2f
 374              	.LVL34:
 375 0188 44F8540C 		str	r0, [r4, #-84]	@ float
 376              	.LVL35:
1001:main_cm4.c    **** 
1002:main_cm4.c    **** // Trouver les maximums dans l'intervale
1003:main_cm4.c    **** 	for(int i=1; i>BLOCK_SIZE-1; i++){
1004:main_cm4.c    **** 		if((IrFiltre[i] > IrFiltre[i-1]) && (IrFiltre[i] > IrFiltre[i+1]) && (IrFiltre[i] >0)){
1005:main_cm4.c    **** 			Circulaire[NbreMax] = IrFiltre[i];
1006:main_cm4.c    **** 			NbreMax =NbreMax +1;
1007:main_cm4.c    **** 		}
1008:main_cm4.c    **** 	}
1009:main_cm4.c    **** 
1010:main_cm4.c    **** // Allumer les flags
1011:main_cm4.c    **** 	if(NbreSec % 20 == 0){
 377              		.loc 1 1011 0
 378 018c D8F80820 		ldr	r2, [r8, #8]
 379 0190 2B4B     		ldr	r3, .L21+56
 380 0192 83FB0231 		smull	r3, r1, r3, r2
 381 0196 D317     		asrs	r3, r2, #31
 382 0198 C3EBE103 		rsb	r3, r3, r1, asr #3
 383 019c 03EB8303 		add	r3, r3, r3, lsl #2
 384 01a0 9900     		lsls	r1, r3, #2
 385 01a2 8A42     		cmp	r2, r1
 386 01a4 05D1     		bne	.L18
1012:main_cm4.c    **** 		NbreMax = 0;
 387              		.loc 1 1012 0
 388 01a6 0022     		movs	r2, #0
 389 01a8 44F8502C 		str	r2, [r4, #-80]
1013:main_cm4.c    **** 		flag = 2;
 390              		.loc 1 1013 0
ARM GAS  C:\Users\jmori\AppData\Local\Temp\ccFGeXpP.s 			page 40


 391 01ac 0222     		movs	r2, #2
 392 01ae C8F80420 		str	r2, [r8, #4]
 393              	.L18:
1014:main_cm4.c    **** 	}
1015:main_cm4.c    **** 	if((NbreSec %10 == 0) && (NbreSec %20 !=0)){
 394              		.loc 1 1015 0
 395 01b2 194B     		ldr	r3, .L21+16
 396 01b4 9A68     		ldr	r2, [r3, #8]
 397 01b6 224B     		ldr	r3, .L21+56
 398 01b8 83FB0231 		smull	r3, r1, r3, r2
 399 01bc D317     		asrs	r3, r2, #31
 400 01be C3EBA103 		rsb	r3, r3, r1, asr #2
 401 01c2 03EB8303 		add	r3, r3, r3, lsl #2
 402 01c6 5900     		lsls	r1, r3, #1
 403 01c8 8A42     		cmp	r2, r1
 404 01ca 13D1     		bne	.L19
 405              		.loc 1 1015 0 is_stmt 0 discriminator 1
 406 01cc 124B     		ldr	r3, .L21+16
 407 01ce 9A68     		ldr	r2, [r3, #8]
 408 01d0 1B4B     		ldr	r3, .L21+56
 409 01d2 83FB0231 		smull	r3, r1, r3, r2
 410 01d6 D317     		asrs	r3, r2, #31
 411 01d8 C3EBE103 		rsb	r3, r3, r1, asr #3
 412 01dc 03EB8303 		add	r3, r3, r3, lsl #2
 413 01e0 9900     		lsls	r1, r3, #2
 414 01e2 8A42     		cmp	r2, r1
 415 01e4 06D0     		beq	.L19
1016:main_cm4.c    **** 		NbreMax = 30;
 416              		.loc 1 1016 0 is_stmt 1
 417 01e6 1E22     		movs	r2, #30
 418 01e8 134B     		ldr	r3, .L21+48
 419 01ea 43F8502C 		str	r2, [r3, #-80]
1017:main_cm4.c    **** 		flag = 1;
 420              		.loc 1 1017 0
 421 01ee 0122     		movs	r2, #1
 422 01f0 094B     		ldr	r3, .L21+16
 423 01f2 5A60     		str	r2, [r3, #4]
 424              	.L19:
1018:main_cm4.c    **** 	}
1019:main_cm4.c    ****     return(SpO2);
 425              		.loc 1 1019 0
 426 01f4 104B     		ldr	r3, .L21+48
 427 01f6 53F8540C 		ldr	r0, [r3, #-84]	@ float
1020:main_cm4.c    **** }
 428              		.loc 1 1020 0
 429 01fa 0DF5FF6D 		add	sp, sp, #2040
 430              		.cfi_def_cfa_offset 24
 431              		@ sp needed
 432 01fe BDE8F081 		pop	{r4, r5, r6, r7, r8, pc}
 433              	.LVL36:
 434              	.L22:
 435 0202 00BFAFF3 		.align	3
 435      0080
 436              	.L21:
 437 0208 EC51B81E 		.word	515396076
 438 020c 85AB30C0 		.word	-1070552187
 439 0210 295C8FC2 		.word	-1030792151
ARM GAS  C:\Users\jmori\AppData\Local\Temp\ccFGeXpP.s 			page 41


 440 0214 F5A82040 		.word	1075882229
 441 0218 00000000 		.word	.LANCHOR1
 442 021c 00000000 		.word	dataIrBrut
 443 0220 00000000 		.word	dataRedBrut
 444 0224 00000000 		.word	dataIRInterface
 445 0228 00000000 		.word	dataRedInterface
 446 022c 00000000 		.word	S
 447 0230 F8100000 		.word	.LANCHOR2
 448 0234 08000000 		.word	.LANCHOR0+8
 449 0238 F8100000 		.word	.LANCHOR3
 450 023c 00005940 		.word	1079574528
 451 0240 67666666 		.word	1717986919
 452              		.cfi_endproc
 453              	.LFE368:
 454              		.size	Saturation, .-Saturation
 455              		.section	.text.main,"ax",%progbits
 456              		.align	2
 457              		.global	main
 458              		.thumb
 459              		.thumb_func
 460              		.type	main, %function
 461              	main:
 462              	.LFB369:
1021:main_cm4.c    **** volatile bool Index = false;
1022:main_cm4.c    **** 
1023:main_cm4.c    **** // Valeurs a enlevees
1024:main_cm4.c    **** float* maximum;
1025:main_cm4.c    **** float* dataIR;
1026:main_cm4.c    **** float* dataRed;
1027:main_cm4.c    **** 
1028:main_cm4.c    **** int main(void)
1029:main_cm4.c    **** {
 463              		.loc 1 1029 0
 464              		.cfi_startproc
 465              		@ args = 0, pretend = 0, frame = 0
 466              		@ frame_needed = 0, uses_anonymous_args = 0
 467 0000 00B5     		push	{lr}
 468              		.cfi_def_cfa_offset 4
 469              		.cfi_offset 14, -4
 470 0002 83B0     		sub	sp, sp, #12
 471              		.cfi_def_cfa_offset 16
1030:main_cm4.c    ****     SystemInit();
 472              		.loc 1 1030 0
 473 0004 FFF7FEFF 		bl	SystemInit
 474              	.LVL37:
1031:main_cm4.c    **** //    SystemCoreClockUpdate();
1032:main_cm4.c    ****     
1033:main_cm4.c    ****     xTaskCreate(AlarmeFC,"alarmeFC",80,NULL,1,NULL);
 475              		.loc 1 1033 0
 476 0008 0023     		movs	r3, #0
 477 000a 0193     		str	r3, [sp, #4]
 478 000c 0122     		movs	r2, #1
 479 000e 0092     		str	r2, [sp]
 480 0010 5022     		movs	r2, #80
 481 0012 1449     		ldr	r1, .L28
 482 0014 1448     		ldr	r0, .L28+4
 483 0016 FFF7FEFF 		bl	xTaskCreate
ARM GAS  C:\Users\jmori\AppData\Local\Temp\ccFGeXpP.s 			page 42


 484              	.LVL38:
1034:main_cm4.c    ****      
1035:main_cm4.c    ****     vTaskStartScheduler();
 485              		.loc 1 1035 0
 486 001a FFF7FEFF 		bl	vTaskStartScheduler
 487              	.LVL39:
 488              	.LBB17:
 489              	.LBB18:
 490              		.file 3 "Generated_Source\\PSoC6\\pdl\\cmsis/include/cmsis_gcc.h"
   1:Generated_Source\PSoC6\pdl\cmsis/include/cmsis_gcc.h **** /**************************************************************************//**
   2:Generated_Source\PSoC6\pdl\cmsis/include/cmsis_gcc.h ****  * @file     cmsis_gcc.h
   3:Generated_Source\PSoC6\pdl\cmsis/include/cmsis_gcc.h ****  * @brief    CMSIS compiler GCC header file
   4:Generated_Source\PSoC6\pdl\cmsis/include/cmsis_gcc.h ****  * @version  V5.0.3
   5:Generated_Source\PSoC6\pdl\cmsis/include/cmsis_gcc.h ****  * @date     16. January 2018
   6:Generated_Source\PSoC6\pdl\cmsis/include/cmsis_gcc.h ****  ******************************************************************************/
   7:Generated_Source\PSoC6\pdl\cmsis/include/cmsis_gcc.h **** /*
   8:Generated_Source\PSoC6\pdl\cmsis/include/cmsis_gcc.h ****  * Copyright (c) 2009-2017 ARM Limited. All rights reserved.
   9:Generated_Source\PSoC6\pdl\cmsis/include/cmsis_gcc.h ****  *
  10:Generated_Source\PSoC6\pdl\cmsis/include/cmsis_gcc.h ****  * SPDX-License-Identifier: Apache-2.0
  11:Generated_Source\PSoC6\pdl\cmsis/include/cmsis_gcc.h ****  *
  12:Generated_Source\PSoC6\pdl\cmsis/include/cmsis_gcc.h ****  * Licensed under the Apache License, Version 2.0 (the License); you may
  13:Generated_Source\PSoC6\pdl\cmsis/include/cmsis_gcc.h ****  * not use this file except in compliance with the License.
  14:Generated_Source\PSoC6\pdl\cmsis/include/cmsis_gcc.h ****  * You may obtain a copy of the License at
  15:Generated_Source\PSoC6\pdl\cmsis/include/cmsis_gcc.h ****  *
  16:Generated_Source\PSoC6\pdl\cmsis/include/cmsis_gcc.h ****  * www.apache.org/licenses/LICENSE-2.0
  17:Generated_Source\PSoC6\pdl\cmsis/include/cmsis_gcc.h ****  *
  18:Generated_Source\PSoC6\pdl\cmsis/include/cmsis_gcc.h ****  * Unless required by applicable law or agreed to in writing, software
  19:Generated_Source\PSoC6\pdl\cmsis/include/cmsis_gcc.h ****  * distributed under the License is distributed on an AS IS BASIS, WITHOUT
  20:Generated_Source\PSoC6\pdl\cmsis/include/cmsis_gcc.h ****  * WARRANTIES OR CONDITIONS OF ANY KIND, either express or implied.
  21:Generated_Source\PSoC6\pdl\cmsis/include/cmsis_gcc.h ****  * See the License for the specific language governing permissions and
  22:Generated_Source\PSoC6\pdl\cmsis/include/cmsis_gcc.h ****  * limitations under the License.
  23:Generated_Source\PSoC6\pdl\cmsis/include/cmsis_gcc.h ****  */
  24:Generated_Source\PSoC6\pdl\cmsis/include/cmsis_gcc.h **** 
  25:Generated_Source\PSoC6\pdl\cmsis/include/cmsis_gcc.h **** #ifndef __CMSIS_GCC_H
  26:Generated_Source\PSoC6\pdl\cmsis/include/cmsis_gcc.h **** #define __CMSIS_GCC_H
  27:Generated_Source\PSoC6\pdl\cmsis/include/cmsis_gcc.h **** 
  28:Generated_Source\PSoC6\pdl\cmsis/include/cmsis_gcc.h **** /* ignore some GCC warnings */
  29:Generated_Source\PSoC6\pdl\cmsis/include/cmsis_gcc.h **** #pragma GCC diagnostic push
  30:Generated_Source\PSoC6\pdl\cmsis/include/cmsis_gcc.h **** #pragma GCC diagnostic ignored "-Wsign-conversion"
  31:Generated_Source\PSoC6\pdl\cmsis/include/cmsis_gcc.h **** #pragma GCC diagnostic ignored "-Wconversion"
  32:Generated_Source\PSoC6\pdl\cmsis/include/cmsis_gcc.h **** #pragma GCC diagnostic ignored "-Wunused-parameter"
  33:Generated_Source\PSoC6\pdl\cmsis/include/cmsis_gcc.h **** 
  34:Generated_Source\PSoC6\pdl\cmsis/include/cmsis_gcc.h **** /* Fallback for __has_builtin */
  35:Generated_Source\PSoC6\pdl\cmsis/include/cmsis_gcc.h **** #ifndef __has_builtin
  36:Generated_Source\PSoC6\pdl\cmsis/include/cmsis_gcc.h ****   #define __has_builtin(x) (0)
  37:Generated_Source\PSoC6\pdl\cmsis/include/cmsis_gcc.h **** #endif
  38:Generated_Source\PSoC6\pdl\cmsis/include/cmsis_gcc.h **** 
  39:Generated_Source\PSoC6\pdl\cmsis/include/cmsis_gcc.h **** /* CMSIS compiler specific defines */
  40:Generated_Source\PSoC6\pdl\cmsis/include/cmsis_gcc.h **** #ifndef   __ASM
  41:Generated_Source\PSoC6\pdl\cmsis/include/cmsis_gcc.h ****   #define __ASM                                  __asm
  42:Generated_Source\PSoC6\pdl\cmsis/include/cmsis_gcc.h **** #endif
  43:Generated_Source\PSoC6\pdl\cmsis/include/cmsis_gcc.h **** #ifndef   __INLINE
  44:Generated_Source\PSoC6\pdl\cmsis/include/cmsis_gcc.h ****   #define __INLINE                               inline
  45:Generated_Source\PSoC6\pdl\cmsis/include/cmsis_gcc.h **** #endif
  46:Generated_Source\PSoC6\pdl\cmsis/include/cmsis_gcc.h **** #ifndef   __STATIC_INLINE
  47:Generated_Source\PSoC6\pdl\cmsis/include/cmsis_gcc.h ****   #define __STATIC_INLINE                        static inline
  48:Generated_Source\PSoC6\pdl\cmsis/include/cmsis_gcc.h **** #endif
ARM GAS  C:\Users\jmori\AppData\Local\Temp\ccFGeXpP.s 			page 43


  49:Generated_Source\PSoC6\pdl\cmsis/include/cmsis_gcc.h **** #ifndef   __STATIC_FORCEINLINE                 
  50:Generated_Source\PSoC6\pdl\cmsis/include/cmsis_gcc.h ****   #define __STATIC_FORCEINLINE                   __attribute__((always_inline)) static inline
  51:Generated_Source\PSoC6\pdl\cmsis/include/cmsis_gcc.h **** #endif                                           
  52:Generated_Source\PSoC6\pdl\cmsis/include/cmsis_gcc.h **** #ifndef   __NO_RETURN
  53:Generated_Source\PSoC6\pdl\cmsis/include/cmsis_gcc.h ****   #define __NO_RETURN                            __attribute__((__noreturn__))
  54:Generated_Source\PSoC6\pdl\cmsis/include/cmsis_gcc.h **** #endif
  55:Generated_Source\PSoC6\pdl\cmsis/include/cmsis_gcc.h **** #ifndef   __USED
  56:Generated_Source\PSoC6\pdl\cmsis/include/cmsis_gcc.h ****   #define __USED                                 __attribute__((used))
  57:Generated_Source\PSoC6\pdl\cmsis/include/cmsis_gcc.h **** #endif
  58:Generated_Source\PSoC6\pdl\cmsis/include/cmsis_gcc.h **** #ifndef   __WEAK
  59:Generated_Source\PSoC6\pdl\cmsis/include/cmsis_gcc.h ****   #define __WEAK                                 __attribute__((weak))
  60:Generated_Source\PSoC6\pdl\cmsis/include/cmsis_gcc.h **** #endif
  61:Generated_Source\PSoC6\pdl\cmsis/include/cmsis_gcc.h **** #ifndef   __PACKED
  62:Generated_Source\PSoC6\pdl\cmsis/include/cmsis_gcc.h ****   #define __PACKED                               __attribute__((packed, aligned(1)))
  63:Generated_Source\PSoC6\pdl\cmsis/include/cmsis_gcc.h **** #endif
  64:Generated_Source\PSoC6\pdl\cmsis/include/cmsis_gcc.h **** #ifndef   __PACKED_STRUCT
  65:Generated_Source\PSoC6\pdl\cmsis/include/cmsis_gcc.h ****   #define __PACKED_STRUCT                        struct __attribute__((packed, aligned(1)))
  66:Generated_Source\PSoC6\pdl\cmsis/include/cmsis_gcc.h **** #endif
  67:Generated_Source\PSoC6\pdl\cmsis/include/cmsis_gcc.h **** #ifndef   __PACKED_UNION
  68:Generated_Source\PSoC6\pdl\cmsis/include/cmsis_gcc.h ****   #define __PACKED_UNION                         union __attribute__((packed, aligned(1)))
  69:Generated_Source\PSoC6\pdl\cmsis/include/cmsis_gcc.h **** #endif
  70:Generated_Source\PSoC6\pdl\cmsis/include/cmsis_gcc.h **** #ifndef   __UNALIGNED_UINT32        /* deprecated */
  71:Generated_Source\PSoC6\pdl\cmsis/include/cmsis_gcc.h ****   #pragma GCC diagnostic push
  72:Generated_Source\PSoC6\pdl\cmsis/include/cmsis_gcc.h ****   #pragma GCC diagnostic ignored "-Wpacked"
  73:Generated_Source\PSoC6\pdl\cmsis/include/cmsis_gcc.h ****   #pragma GCC diagnostic ignored "-Wattributes"
  74:Generated_Source\PSoC6\pdl\cmsis/include/cmsis_gcc.h ****   struct __attribute__((packed)) T_UINT32 { uint32_t v; };
  75:Generated_Source\PSoC6\pdl\cmsis/include/cmsis_gcc.h ****   #pragma GCC diagnostic pop
  76:Generated_Source\PSoC6\pdl\cmsis/include/cmsis_gcc.h ****   #define __UNALIGNED_UINT32(x)                  (((struct T_UINT32 *)(x))->v)
  77:Generated_Source\PSoC6\pdl\cmsis/include/cmsis_gcc.h **** #endif
  78:Generated_Source\PSoC6\pdl\cmsis/include/cmsis_gcc.h **** #ifndef   __UNALIGNED_UINT16_WRITE
  79:Generated_Source\PSoC6\pdl\cmsis/include/cmsis_gcc.h ****   #pragma GCC diagnostic push
  80:Generated_Source\PSoC6\pdl\cmsis/include/cmsis_gcc.h ****   #pragma GCC diagnostic ignored "-Wpacked"
  81:Generated_Source\PSoC6\pdl\cmsis/include/cmsis_gcc.h ****   #pragma GCC diagnostic ignored "-Wattributes"
  82:Generated_Source\PSoC6\pdl\cmsis/include/cmsis_gcc.h ****   __PACKED_STRUCT T_UINT16_WRITE { uint16_t v; };
  83:Generated_Source\PSoC6\pdl\cmsis/include/cmsis_gcc.h ****   #pragma GCC diagnostic pop
  84:Generated_Source\PSoC6\pdl\cmsis/include/cmsis_gcc.h ****   #define __UNALIGNED_UINT16_WRITE(addr, val)    (void)((((struct T_UINT16_WRITE *)(void *)(addr))-
  85:Generated_Source\PSoC6\pdl\cmsis/include/cmsis_gcc.h **** #endif
  86:Generated_Source\PSoC6\pdl\cmsis/include/cmsis_gcc.h **** #ifndef   __UNALIGNED_UINT16_READ
  87:Generated_Source\PSoC6\pdl\cmsis/include/cmsis_gcc.h ****   #pragma GCC diagnostic push
  88:Generated_Source\PSoC6\pdl\cmsis/include/cmsis_gcc.h ****   #pragma GCC diagnostic ignored "-Wpacked"
  89:Generated_Source\PSoC6\pdl\cmsis/include/cmsis_gcc.h ****   #pragma GCC diagnostic ignored "-Wattributes"
  90:Generated_Source\PSoC6\pdl\cmsis/include/cmsis_gcc.h ****   __PACKED_STRUCT T_UINT16_READ { uint16_t v; };
  91:Generated_Source\PSoC6\pdl\cmsis/include/cmsis_gcc.h ****   #pragma GCC diagnostic pop
  92:Generated_Source\PSoC6\pdl\cmsis/include/cmsis_gcc.h ****   #define __UNALIGNED_UINT16_READ(addr)          (((const struct T_UINT16_READ *)(const void *)(add
  93:Generated_Source\PSoC6\pdl\cmsis/include/cmsis_gcc.h **** #endif
  94:Generated_Source\PSoC6\pdl\cmsis/include/cmsis_gcc.h **** #ifndef   __UNALIGNED_UINT32_WRITE
  95:Generated_Source\PSoC6\pdl\cmsis/include/cmsis_gcc.h ****   #pragma GCC diagnostic push
  96:Generated_Source\PSoC6\pdl\cmsis/include/cmsis_gcc.h ****   #pragma GCC diagnostic ignored "-Wpacked"
  97:Generated_Source\PSoC6\pdl\cmsis/include/cmsis_gcc.h ****   #pragma GCC diagnostic ignored "-Wattributes"
  98:Generated_Source\PSoC6\pdl\cmsis/include/cmsis_gcc.h ****   __PACKED_STRUCT T_UINT32_WRITE { uint32_t v; };
  99:Generated_Source\PSoC6\pdl\cmsis/include/cmsis_gcc.h ****   #pragma GCC diagnostic pop
 100:Generated_Source\PSoC6\pdl\cmsis/include/cmsis_gcc.h ****   #define __UNALIGNED_UINT32_WRITE(addr, val)    (void)((((struct T_UINT32_WRITE *)(void *)(addr))-
 101:Generated_Source\PSoC6\pdl\cmsis/include/cmsis_gcc.h **** #endif
 102:Generated_Source\PSoC6\pdl\cmsis/include/cmsis_gcc.h **** #ifndef   __UNALIGNED_UINT32_READ
 103:Generated_Source\PSoC6\pdl\cmsis/include/cmsis_gcc.h ****   #pragma GCC diagnostic push
 104:Generated_Source\PSoC6\pdl\cmsis/include/cmsis_gcc.h ****   #pragma GCC diagnostic ignored "-Wpacked"
 105:Generated_Source\PSoC6\pdl\cmsis/include/cmsis_gcc.h ****   #pragma GCC diagnostic ignored "-Wattributes"
ARM GAS  C:\Users\jmori\AppData\Local\Temp\ccFGeXpP.s 			page 44


 106:Generated_Source\PSoC6\pdl\cmsis/include/cmsis_gcc.h ****   __PACKED_STRUCT T_UINT32_READ { uint32_t v; };
 107:Generated_Source\PSoC6\pdl\cmsis/include/cmsis_gcc.h ****   #pragma GCC diagnostic pop
 108:Generated_Source\PSoC6\pdl\cmsis/include/cmsis_gcc.h ****   #define __UNALIGNED_UINT32_READ(addr)          (((const struct T_UINT32_READ *)(const void *)(add
 109:Generated_Source\PSoC6\pdl\cmsis/include/cmsis_gcc.h **** #endif
 110:Generated_Source\PSoC6\pdl\cmsis/include/cmsis_gcc.h **** #ifndef   __ALIGNED
 111:Generated_Source\PSoC6\pdl\cmsis/include/cmsis_gcc.h ****   #define __ALIGNED(x)                           __attribute__((aligned(x)))
 112:Generated_Source\PSoC6\pdl\cmsis/include/cmsis_gcc.h **** #endif
 113:Generated_Source\PSoC6\pdl\cmsis/include/cmsis_gcc.h **** #ifndef   __RESTRICT
 114:Generated_Source\PSoC6\pdl\cmsis/include/cmsis_gcc.h ****   #define __RESTRICT                             __restrict
 115:Generated_Source\PSoC6\pdl\cmsis/include/cmsis_gcc.h **** #endif
 116:Generated_Source\PSoC6\pdl\cmsis/include/cmsis_gcc.h **** 
 117:Generated_Source\PSoC6\pdl\cmsis/include/cmsis_gcc.h **** 
 118:Generated_Source\PSoC6\pdl\cmsis/include/cmsis_gcc.h **** /* ###########################  Core Function Access  ########################### */
 119:Generated_Source\PSoC6\pdl\cmsis/include/cmsis_gcc.h **** /** \ingroup  CMSIS_Core_FunctionInterface
 120:Generated_Source\PSoC6\pdl\cmsis/include/cmsis_gcc.h ****     \defgroup CMSIS_Core_RegAccFunctions CMSIS Core Register Access Functions
 121:Generated_Source\PSoC6\pdl\cmsis/include/cmsis_gcc.h ****   @{
 122:Generated_Source\PSoC6\pdl\cmsis/include/cmsis_gcc.h ****  */
 123:Generated_Source\PSoC6\pdl\cmsis/include/cmsis_gcc.h **** 
 124:Generated_Source\PSoC6\pdl\cmsis/include/cmsis_gcc.h **** /**
 125:Generated_Source\PSoC6\pdl\cmsis/include/cmsis_gcc.h ****   \brief   Enable IRQ Interrupts
 126:Generated_Source\PSoC6\pdl\cmsis/include/cmsis_gcc.h ****   \details Enables IRQ interrupts by clearing the I-bit in the CPSR.
 127:Generated_Source\PSoC6\pdl\cmsis/include/cmsis_gcc.h ****            Can only be executed in Privileged modes.
 128:Generated_Source\PSoC6\pdl\cmsis/include/cmsis_gcc.h ****  */
 129:Generated_Source\PSoC6\pdl\cmsis/include/cmsis_gcc.h **** __STATIC_FORCEINLINE void __enable_irq(void)
 130:Generated_Source\PSoC6\pdl\cmsis/include/cmsis_gcc.h **** {
 131:Generated_Source\PSoC6\pdl\cmsis/include/cmsis_gcc.h ****   __ASM volatile ("cpsie i" : : : "memory");
 491              		.loc 3 131 0
 492              		.syntax unified
 493              	@ 131 "Generated_Source\PSoC6\pdl\cmsis/include/cmsis_gcc.h" 1
 494 001e 62B6     		cpsie i
 495              	@ 0 "" 2
 496              		.thumb
 497              		.syntax unified
 498              	.L25:
 499              	.LBE18:
 500              	.LBE17:
1036:main_cm4.c    ****   
1037:main_cm4.c    ****     __enable_irq(); /* Enable global interrupts. */
1038:main_cm4.c    **** 
1039:main_cm4.c    ****     
1040:main_cm4.c    ****     /* Place your initialization/startup code here (e.g. MyInst_Start()) */
1041:main_cm4.c    **** 
1042:main_cm4.c    ****     for(;;)
1043:main_cm4.c    ****     {
1044:main_cm4.c    ****         if(Index == true){
 501              		.loc 1 1044 0
 502 0020 124B     		ldr	r3, .L28+8
 503 0022 13F84C3C 		ldrb	r3, [r3, #-76]	@ zero_extendqisi2
 504 0026 13F0FF0F 		tst	r3, #255
 505 002a 09D0     		beq	.L24
 506              	.LBB19:
1045:main_cm4.c    ****             Index = false;
 507              		.loc 1 1045 0
 508 002c 0022     		movs	r2, #0
 509 002e 0F4B     		ldr	r3, .L28+8
 510 0030 03F84C2C 		strb	r2, [r3, #-76]
1046:main_cm4.c    ****             float SpO2 = Saturation(dataIR, dataRed);
ARM GAS  C:\Users\jmori\AppData\Local\Temp\ccFGeXpP.s 			page 45


 511              		.loc 1 1046 0
 512 0034 0E4B     		ldr	r3, .L28+12
 513 0036 1968     		ldr	r1, [r3]
 514 0038 0E4B     		ldr	r3, .L28+16
 515 003a 1868     		ldr	r0, [r3]
 516 003c FFF7FEFF 		bl	Saturation
 517              	.LVL40:
 518              	.L24:
 519              	.LBE19:
1047:main_cm4.c    ****         }
1048:main_cm4.c    ****         if(NbreSec %10 == 0){           
 520              		.loc 1 1048 0
 521 0040 0D4B     		ldr	r3, .L28+20
 522 0042 9968     		ldr	r1, [r3, #8]
 523 0044 0D4B     		ldr	r3, .L28+24
 524 0046 83FB0123 		smull	r2, r3, r3, r1
 525 004a CA17     		asrs	r2, r1, #31
 526 004c C2EBA303 		rsb	r3, r2, r3, asr #2
 527 0050 03EB8303 		add	r3, r3, r3, lsl #2
 528 0054 5A00     		lsls	r2, r3, #1
 529 0056 9142     		cmp	r1, r2
 530 0058 E2D1     		bne	.L25
 531              	.LBB20:
1049:main_cm4.c    ****             float bpm = BPM(maximum);
 532              		.loc 1 1049 0
 533 005a 094B     		ldr	r3, .L28+28
 534 005c 1868     		ldr	r0, [r3]
 535 005e FFF7FEFF 		bl	BPM
 536              	.LVL41:
 537 0062 DDE7     		b	.L25
 538              	.L29:
 539              		.align	2
 540              	.L28:
 541 0064 00000000 		.word	.LC0
 542 0068 00000000 		.word	AlarmeFC
 543 006c F8100000 		.word	.LANCHOR3
 544 0070 00000000 		.word	dataRed
 545 0074 00000000 		.word	dataIR
 546 0078 00000000 		.word	.LANCHOR1
 547 007c 67666666 		.word	1717986919
 548 0080 00000000 		.word	maximum
 549              	.LBE20:
 550              		.cfi_endproc
 551              	.LFE369:
 552              		.size	main, .-main
 553              		.comm	dataRed,4,4
 554              		.comm	dataIR,4,4
 555              		.comm	maximum,4,4
 556              		.global	Index
 557              		.comm	dataRedInterface,4,4
 558              		.comm	dataRedBrut,4000,4
 559              		.comm	dataIRInterface,4,4
 560              		.comm	dataIrBrut,4000,4
 561              		.global	Interface
 562              		.global	borneInf
 563              		.global	borneSup
 564              		.global	Circulaire
ARM GAS  C:\Users\jmori\AppData\Local\Temp\ccFGeXpP.s 			page 46


 565              		.global	NbreSec
 566              		.global	flag
 567              		.global	NbreMax
 568              		.global	bpm
 569              		.global	SpO2
 570              		.global	R
 571              		.comm	S,12,4
 572              		.global	numBlocks
 573              		.global	blockSize
 574              		.data
 575              		.align	3
 576              		.set	.LANCHOR0,. + 0
 577              		.set	.LANCHOR2,. + 4344
 578              		.type	borneSup, %object
 579              		.size	borneSup, 4
 580              	borneSup:
 581 0000 82000000 		.word	130
 582              		.type	borneInf, %object
 583              		.size	borneInf, 4
 584              	borneInf:
 585 0004 28000000 		.word	40
 586              		.type	firCoeffs32, %object
 587              		.size	firCoeffs32, 6888
 588              	firCoeffs32:
 589 0008 9AD51B81 		.word	-2128882278
 590 000c 51DB803F 		.word	1065409361
 591 0010 86877CE8 		.word	-394492026
 592 0014 2B5F713F 		.word	1064394539
 593 0018 3900041A 		.word	436469817
 594 001c 7D77743F 		.word	1064597373
 595 0020 A2840656 		.word	1443267746
 596 0024 54CE763F 		.word	1064750676
 597 0028 95B3DA59 		.word	1507505045
 598 002c F210783F 		.word	1064833266
 599 0030 B1385DE5 		.word	-446875471
 600 0034 ADF6773F 		.word	1064826541
 601 0038 0BB7906A 		.word	1787868939
 602 003c 5648763F 		.word	1064716374
 603 0040 366A8D8C 		.word	-1936889290
 604 0044 AFE6723F 		.word	1064494767
 605 0048 BF4E6182 		.word	-2107552065
 606 004c 009F6B3F 		.word	1064017664
 607 0050 E05CE6A5 		.word	-1511629600
 608 0054 46825C3F 		.word	1063027270
 609 0058 93B2B1B8 		.word	-1196313965
 610 005c 6FF92CBF 		.word	-1087571601
 611 0060 7321F586 		.word	-2030755469
 612 0064 C9D963BF 		.word	-1083975223
 613 0068 9F0184C3 		.word	-1014759009
 614 006c AF7873BF 		.word	-1082951505
 615 0070 191852D9 		.word	-648931303
 616 0074 EB027DBF 		.word	-1082326293
 617 0078 B8E92D22 		.word	573434296
 618 007c 7EFD82BF 		.word	-1081934466
 619 0080 5CC43975 		.word	1966720092
 620 0084 B4E886BF 		.word	-1081677644
 621 0088 CDB5F366 		.word	1727247821
ARM GAS  C:\Users\jmori\AppData\Local\Temp\ccFGeXpP.s 			page 47


 622 008c 57028ABF 		.word	-1081474473
 623 0090 EC96A689 		.word	-1985571092
 624 0094 7C148CBF 		.word	-1081338756
 625 0098 6BC583B5 		.word	-1249655445
 626 009c 64FA8CBF 		.word	-1081279900
 627 00a0 E04822E0 		.word	-534624032
 628 00a4 E9A18CBF 		.word	-1081302551
 629 00a8 2FBF5D7E 		.word	2120073007
 630 00ac 110F8BBF 		.word	-1081405679
 631 00b0 DEA718E0 		.word	-535255074
 632 00b4 715B88BF 		.word	-1081582735
 633 00b8 EA1E7165 		.word	1701912298
 634 00bc 6FB484BF 		.word	-1081822097
 635 00c0 D804B210 		.word	280102104
 636 00c4 DB5880BF 		.word	-1082107685
 637 00c8 1F1CD170 		.word	1892752415
 638 00cc 082777BF 		.word	-1082710264
 639 00d0 7E8D9F49 		.word	1235193214
 640 00d4 0DD66ABF 		.word	-1083517427
 641 00d8 AB6E2D03 		.word	53309099
 642 00dc EE8250BF 		.word	-1085242642
 643 00e0 78A19C96 		.word	-1768119944
 644 00e4 0B87503F 		.word	1062242059
 645 00e8 39B4CEB3 		.word	-1278299079
 646 00ec E9BE653F 		.word	1063632617
 647 00f0 8E2EA8C7 		.word	-945279346
 648 00f4 887A6F3F 		.word	1064270472
 649 00f8 6FFCB8D9 		.word	-642188177
 650 00fc B389723F 		.word	1064470963
 651 0100 8756D355 		.word	1439913607
 652 0104 5F40733F 		.word	1064517727
 653 0108 70C24F24 		.word	609206896
 654 010c 8009723F 		.word	1064438144
 655 0110 C1C22C9A 		.word	-1708342591
 656 0114 55696E3F 		.word	1064200533
 657 0118 1ADD0B86 		.word	-2046042854
 658 011c BC64663F 		.word	1063675068
 659 0120 55C614F0 		.word	-267073963
 660 0124 45225A3F 		.word	1062871621
 661 0128 413C955A 		.word	1519729729
 662 012c E2663C3F 		.word	1060923106
 663 0130 3A721F39 		.word	958362170
 664 0134 564844BF 		.word	-1086044074
 665 0138 851A717C 		.word	2087787141
 666 013c 06AD57BF 		.word	-1084773114
 667 0140 423F9B07 		.word	127614786
 668 0144 B00160BF 		.word	-1084227152
 669 0148 05A06923 		.word	594124805
 670 014c 711D61BF 		.word	-1084154511
 671 0150 56E63A97 		.word	-1757747626
 672 0154 1E0A5EBF 		.word	-1084356066
 673 0158 95BF173C 		.word	1008189333
 674 015c 55CD53BF 		.word	-1085026987
 675 0160 BF1ADF87 		.word	-2015421761
 676 0164 A0EE31BF 		.word	-1087246688
 677 0168 96C23564 		.word	1681244822
 678 016c A4E64C3F 		.word	1062004388
ARM GAS  C:\Users\jmori\AppData\Local\Temp\ccFGeXpP.s 			page 48


 679 0170 D4A445D6 		.word	-700078892
 680 0174 4697613F 		.word	1063360326
 681 0178 60992351 		.word	1361287520
 682 017c F7DC6B3F 		.word	1064033527
 683 0180 629BE1F9 		.word	-102655134
 684 0184 B988723F 		.word	1064470713
 685 0188 579D1DD9 		.word	-652370601
 686 018c D92B763F 		.word	1064709081
 687 0190 0B2F5B81 		.word	-2124730613
 688 0194 6E82783F 		.word	1064862318
 689 0198 6F0BDDB4 		.word	-1260582033
 690 019c 6D58793F 		.word	1064917101
 691 01a0 F9C82142 		.word	1109510393
 692 01a4 78A0783F 		.word	1064870008
 693 01a8 92CC3976 		.word	1983499410
 694 01ac 6B74763F 		.word	1064727659
 695 01b0 BECE4FC4 		.word	-1001402690
 696 01b4 9C12733F 		.word	1064506012
 697 01b8 49B16826 		.word	644395337
 698 01bc EDAE6D3F 		.word	1064152813
 699 01c0 A37C143C 		.word	1007975587
 700 01c4 D467643F 		.word	1063544788
 701 01c8 78EF1E1B 		.word	455012216
 702 01cc BD88563F 		.word	1062635709
 703 01d0 22778ED7 		.word	-678529246
 704 01d4 3B94393F 		.word	1060738107
 705 01d8 1430EA71 		.word	1911173140
 706 01dc 5AF237BF 		.word	-1086852518
 707 01e0 A5ECEB32 		.word	854322341
 708 01e4 09C84ABF 		.word	-1085618167
 709 01e8 3796E70E 		.word	250058295
 710 01ec 6C3C4EBF 		.word	-1085391764
 711 01f0 041CA7A8 		.word	-1465443324
 712 01f4 791E46BF 		.word	-1085923719
 713 01f8 964BD86B 		.word	1809337238
 714 01fc C4471BBF 		.word	-1088731196
 715 0200 65F180D3 		.word	-746524315
 716 0204 AFCF473F 		.word	1061670831
 717 0208 B16436FE 		.word	-29989711
 718 020c B64B5C3F 		.word	1063013302
 719 0210 2A3AD616 		.word	383138346
 720 0214 85D9663F 		.word	1063704965
 721 0218 968228BB 		.word	-1154973034
 722 021c 581F6F3F 		.word	1064247128
 723 0220 515A705C 		.word	1550867025
 724 0224 6209733F 		.word	1064503650
 725 0228 84219307 		.word	127082884
 726 022c D778753F 		.word	1064663255
 727 0230 EA3C3570 		.word	1882537194
 728 0234 2298763F 		.word	1064736802
 729 0238 3F7D1F56 		.word	1444904255
 730 023c ED43763F 		.word	1064715245
 731 0240 2332F750 		.word	1358377507
 732 0244 337F743F 		.word	1064599347
 733 0248 BBF20738 		.word	940044987
 734 024c D072713F 		.word	1064399568
 735 0250 0862522D 		.word	760373768
ARM GAS  C:\Users\jmori\AppData\Local\Temp\ccFGeXpP.s 			page 49


 736 0254 D4D26A3F 		.word	1063965396
 737 0258 E983C663 		.word	1673954281
 738 025c B98F613F 		.word	1063358393
 739 0260 3E36D4E1 		.word	-506186178
 740 0264 FA0B503F 		.word	1062210554
 741 0268 A9398536 		.word	914700713
 742 026c D01D1BBF 		.word	-1088741936
 743 0270 1D984B4A 		.word	1246468125
 744 0274 785950BF 		.word	-1085253256
 745 0278 999E8045 		.word	1166057113
 746 027c 9C7B5ABF 		.word	-1084589156
 747 0280 FCB7B252 		.word	1387444220
 748 0284 AD1F5FBF 		.word	-1084285011
 749 0288 AC938C04 		.word	76321708
 750 028c 4BDE5DBF 		.word	-1084367285
 751 0290 03776BA3 		.word	-1553238269
 752 0294 23EC56BF 		.word	-1084822493
 753 0298 CAD48C63 		.word	1670173898
 754 029c 1D2B46BF 		.word	-1085920483
 755 02a0 8F47FDB8 		.word	-1191360625
 756 02a4 3D5A313F 		.word	1060198973
 757 02a8 D888C0A1 		.word	-1581217576
 758 02ac 90A8553F 		.word	1062578320
 759 02b0 106DA931 		.word	833187088
 760 02b4 137E633F 		.word	1063484947
 761 02b8 C7F7CA69 		.word	1774909383
 762 02bc 4B356B3F 		.word	1063990603
 763 02c0 016DF95C 		.word	1559850241
 764 02c4 5C8F703F 		.word	1064341340
 765 02c8 25DE3A3B 		.word	993713701
 766 02cc F746723F 		.word	1064453879
 767 02d0 6E4E6114 		.word	341921390
 768 02d4 938B723F 		.word	1064471443
 769 02d8 E031321A 		.word	439497184
 770 02dc 814D713F 		.word	1064390017
 771 02e0 D2099D38 		.word	949815762
 772 02e4 3F4A6D3F 		.word	1064127039
 773 02e8 8EE5C7A7 		.word	-1480071794
 774 02ec 64A1653F 		.word	1063625060
 775 02f0 5592A85F 		.word	1604883029
 776 02f4 E6B7583F 		.word	1062778854
 777 02f8 8048146D 		.word	1830045824
 778 02fc D30C333F 		.word	1060310227
 779 0300 8674D7C9 		.word	-908626810
 780 0304 F3464DBF 		.word	-1085454605
 781 0308 5AF89155 		.word	1435629658
 782 030c 238F5FBF 		.word	-1084256477
 783 0310 565256CA 		.word	-900312490
 784 0314 B32866BF 		.word	-1083823949
 785 0318 D76191B8 		.word	-1198431785
 786 031c E4D369BF 		.word	-1083583516
 787 0320 E958811F 		.word	528570601
 788 0324 F06E6ABF 		.word	-1083543824
 789 0328 D311A8B5 		.word	-1247276589
 790 032c 3CF067BF 		.word	-1083707332
 791 0330 36802D0A 		.word	170754102
 792 0334 96A062BF 		.word	-1084055402
ARM GAS  C:\Users\jmori\AppData\Local\Temp\ccFGeXpP.s 			page 50


 793 0338 DE39942D 		.word	764688862
 794 033c 2F2856BF 		.word	-1084872657
 795 0340 3BB7C81C 		.word	482916155
 796 0344 08D930BF 		.word	-1087317752
 797 0348 53CA9C8C 		.word	-1935881645
 798 034c 324B4D3F 		.word	1062030130
 799 0350 7564B587 		.word	-2018155403
 800 0354 9930603F 		.word	1063268505
 801 0358 555333EA 		.word	-365735083
 802 035c AB86673F 		.word	1063749291
 803 0360 6E2BA125 		.word	631319406
 804 0364 CC846C3F 		.word	1064076492
 805 0368 0D311675 		.word	1964388621
 806 036c 4B976E3F 		.word	1064212299
 807 0370 017C2A9C 		.word	-1674937343
 808 0374 31776D3F 		.word	1064138545
 809 0378 19BD1537 		.word	924171545
 810 037c DD31693F 		.word	1063858653
 811 0380 0228519D 		.word	-1655625726
 812 0384 9D28623F 		.word	1063397533
 813 0388 F947FE9E 		.word	-1627502599
 814 038c DD0D523F 		.word	1062342109
 815 0390 021188B4 		.word	-1266151166
 816 0394 F1EA24BF 		.word	-1088099599
 817 0398 36AD1E49 		.word	1226747190
 818 039c E6A357BF 		.word	-1084775450
 819 03a0 B0854D2E 		.word	776832432
 820 03a4 967565BF 		.word	-1083869802
 821 03a8 5515F456 		.word	1458836821
 822 03ac 38416DBF 		.word	-1083358920
 823 03b0 5EBD6B12 		.word	309050718
 824 03b4 A43571BF 		.word	-1083099740
 825 03b8 889B391B 		.word	456760200
 826 03bc 6F3772BF 		.word	-1083033745
 827 03c0 07FCAD1C 		.word	481164295
 828 03c4 D38C71BF 		.word	-1083077421
 829 03c8 03BA42D0 		.word	-800933373
 830 03cc 56916EBF 		.word	-1083272874
 831 03d0 A6BEA67F 		.word	2141634214
 832 03d4 195167BF 		.word	-1083748071
 833 03d8 95B88A00 		.word	9091221
 834 03dc 053A5CBF 		.word	-1084474875
 835 03e0 22ED125E 		.word	1578298658
 836 03e4 53713FBF 		.word	-1086361261
 837 03e8 8736B4D3 		.word	-743164281
 838 03ec E99D483F 		.word	1061723625
 839 03f0 4E642C3A 		.word	975987790
 840 03f4 7C215E3F 		.word	1063133564
 841 03f8 127780C8 		.word	-931105006
 842 03fc 1AD8653F 		.word	1063639066
 843 0400 3AFC79A8 		.word	-1468400582
 844 0404 7CBE693F 		.word	1063894652
 845 0408 27E20166 		.word	1711399463
 846 040c FA4F6A3F 		.word	1063931898
 847 0410 059E9752 		.word	1385668101
 848 0414 5F70673F 		.word	1063743583
 849 0418 1CC573A3 		.word	-1552693988
ARM GAS  C:\Users\jmori\AppData\Local\Temp\ccFGeXpP.s 			page 51


 850 041c 1A5E613F 		.word	1063345690
 851 0420 59919FAC 		.word	-1398828711
 852 0424 FD59513F 		.word	1062296061
 853 0428 F3EE53E2 		.word	-497815821
 854 042c 94772CBF 		.word	-1087604844
 855 0430 8B07D2C1 		.word	-1043200117
 856 0434 5EE659BF 		.word	-1084627362
 857 0438 185474B3 		.word	-1284221928
 858 043c D5B467BF 		.word	-1083722539
 859 0440 DDFD777F 		.word	2138570205
 860 0444 FC7970BF 		.word	-1083147780
 861 0448 6FD04FC4 		.word	-1001402257
 862 044c 1DDF73BF 		.word	-1082925283
 863 0450 DEA776BA 		.word	-1166628898
 864 0454 5AB075BF 		.word	-1082806182
 865 0458 3CA28B11 		.word	294363708
 866 045c 07BE75BF 		.word	-1082802681
 867 0460 AB36119C 		.word	-1676593493
 868 0464 2B0674BF 		.word	-1082915285
 869 0468 584D2980 		.word	-2144776872
 870 046c 83B570BF 		.word	-1083132541
 871 0470 6432DDE3 		.word	-472042908
 872 0474 F64568BF 		.word	-1083685386
 873 0478 1032319C 		.word	-1674497520
 874 047c F51C5BBF 		.word	-1084547851
 875 0480 7AA24D5D 		.word	1565368954
 876 0484 0C0333BF 		.word	-1087175924
 877 0488 09B9F6BC 		.word	-1124681463
 878 048c ED31503F 		.word	1062220269
 879 0490 B4D2EC53 		.word	1408029364
 880 0494 2CC2603F 		.word	1063305772
 881 0498 15CA2A9D 		.word	-1658140139
 882 049c C3AE663F 		.word	1063694019
 883 04a0 F8DE7312 		.word	309583608
 884 04a4 4F39693F 		.word	1063860559
 885 04a8 01B3D68C 		.word	-1932086527
 886 04ac 0D16683F 		.word	1063785997
 887 04b0 11D398A3 		.word	-1550265583
 888 04b4 6B5C633F 		.word	1063476331
 889 04b8 B64CC58E 		.word	-1899672394
 890 04bc 1F03573F 		.word	1062667039
 891 04c0 039AE6CE 		.word	-823748093
 892 04c4 AFD2243F 		.word	1059377839
 893 04c8 F0D22A07 		.word	120247024
 894 04cc EC7354BF 		.word	-1084984340
 895 04d0 624809BC 		.word	-1140242334
 896 04d4 4EEA65BF 		.word	-1083839922
 897 04d8 B878D46F 		.word	1876195512
 898 04dc B94770BF 		.word	-1083160647
 899 04e0 4720B660 		.word	1622548551
 900 04e4 268774BF 		.word	-1082882266
 901 04e8 496555D9 		.word	-648714935
 902 04ec 2E4077BF 		.word	-1082703826
 903 04f0 1AD0DE84 		.word	-2065772518
 904 04f4 402978BF 		.word	-1082644160
 905 04f8 C4D8FF2E 		.word	788519108
 906 04fc A02977BF 		.word	-1082709600
ARM GAS  C:\Users\jmori\AppData\Local\Temp\ccFGeXpP.s 			page 52


 907 0500 9E8DFB62 		.word	1660652958
 908 0504 E35A74BF 		.word	-1082893597
 909 0508 B4389878 		.word	2023241908
 910 050c 9D0370BF 		.word	-1083178083
 911 0510 DB002F41 		.word	1093599451
 912 0514 E92165BF 		.word	-1083891223
 913 0518 FDEE5CB4 		.word	-1268977923
 914 051c 304052BF 		.word	-1085128656
 915 0520 16BA91E5 		.word	-443434474
 916 0524 84D5353F 		.word	1060492676
 917 0528 6E7392E9 		.word	-376278162
 918 052c F05B5A3F 		.word	1062886384
 919 0530 F8B5C93E 		.word	1053406712
 920 0534 912E653F 		.word	1063595665
 921 0538 F7742601 		.word	19297527
 922 053c 5DF4693F 		.word	1063908445
 923 0540 1B989CC2 		.word	-1029924837
 924 0544 D1E96A3F 		.word	1063971281
 925 0548 9A8241EE 		.word	-297696614
 926 054c 8DDF673F 		.word	1063772045
 927 0550 C949333F 		.word	1060325833
 928 0554 205D613F 		.word	1063345440
 929 0558 4AF654EE 		.word	-296421814
 930 055c 80204F3F 		.word	1062150272
 931 0560 4A1A8B18 		.word	411769418
 932 0564 D6BD3DBF 		.word	-1086472746
 933 0568 6D126303 		.word	56824429
 934 056c 0F0860BF 		.word	-1084225521
 935 0570 66A0FD74 		.word	1962778726
 936 0574 1EDC6BBF 		.word	-1083450338
 937 0578 621D3EE7 		.word	-415359646
 938 057c DDFC72BF 		.word	-1082983203
 939 0580 4C0537E3 		.word	-482933428
 940 0584 32A876BF 		.word	-1082742734
 941 0588 C914CD95 		.word	-1781721911
 942 058c B38B78BF 		.word	-1082618957
 943 0590 6F36175A 		.word	1511470703
 944 0594 547178BF 		.word	-1082625708
 945 0598 39D5DE40 		.word	1088345401
 946 059c 305776BF 		.word	-1082763472
 947 05a0 CA89D78B 		.word	-1948808758
 948 05a4 097072BF 		.word	-1083019255
 949 05a8 8A04E541 		.word	1105527946
 950 05ac 8F3C6ABF 		.word	-1083556721
 951 05b0 D34D0B8A 		.word	-1978970669
 952 05b4 B8A85BBF 		.word	-1084512072
 953 05b8 4407427D 		.word	2101479236
 954 05bc F9EB1CBF 		.word	-1088623623
 955 05c0 18A8D768 		.word	1758963736
 956 05c4 A374563F 		.word	1062630563
 957 05c8 E48C729C 		.word	-1670214428
 958 05cc 4856653F 		.word	1063605832
 959 05d0 9540BDDB 		.word	-608354155
 960 05d4 5A626C3F 		.word	1064067674
 961 05d8 BA6EE747 		.word	1206349498
 962 05dc 74A96F3F 		.word	1064282484
 963 05e0 2B4EED83 		.word	-2081599957
ARM GAS  C:\Users\jmori\AppData\Local\Temp\ccFGeXpP.s 			page 53


 964 05e4 60D26E3F 		.word	1064227424
 965 05e8 93ED6CB0 		.word	-1335038573
 966 05ec A0F6693F 		.word	1063909024
 967 05f0 AC25F84F 		.word	1341662636
 968 05f4 0B96613F 		.word	1063360011
 969 05f8 FCDAC323 		.word	600038140
 970 05fc 5E384A3F 		.word	1061828702
 971 0600 17F91C7F 		.word	2132605207
 972 0604 38E747BF 		.word	-1085806792
 973 0608 D648B55B 		.word	1538607318
 974 060c FAB362BF 		.word	-1084050438
 975 0610 06D3A6D5 		.word	-710487290
 976 0614 6F4B6EBF 		.word	-1083290769
 977 0618 E658AC4B 		.word	1269586150
 978 061c AEC273BF 		.word	-1082932562
 979 0620 35BF296B 		.word	1797898037
 980 0624 98B276BF 		.word	-1082740072
 981 0628 604CF748 		.word	1224166496
 982 062c F0A277BF 		.word	-1082678544
 983 0630 6D02219D 		.word	-1658781075
 984 0634 6F7476BF 		.word	-1082755985
 985 0638 F972FA40 		.word	1090155257
 986 063c B53F73BF 		.word	-1082966091
 987 0640 131DA90F 		.word	262741267
 988 0644 3BA66CBF 		.word	-1083398597
 989 0648 3CA7D685 		.word	-2049530052
 990 064c 045560BF 		.word	-1084205820
 991 0650 55E5F952 		.word	1392108885
 992 0654 6C1D36BF 		.word	-1086972564
 993 0658 F1E8A533 		.word	866511089
 994 065c FD63553F 		.word	1062560765
 995 0660 68439F0A 		.word	178209640
 996 0664 1FB2663F 		.word	1063694879
 997 0668 B4261D7E 		.word	2115839668
 998 066c C103703F 		.word	1064305601
 999 0670 4758C630 		.word	818305095
 1000 0674 89E1723F 		.word	1064493449
 1001 0678 A636999F 		.word	-1617348954
 1002 067c 65A9733F 		.word	1064544613
 1003 0680 1D3D4D48 		.word	1213021469
 1004 0684 8448723F 		.word	1064454276
 1005 0688 F3B4DFE9 		.word	-371215117
 1006 068c A2CA6D3F 		.word	1064159906
 1007 0690 7D0E9492 		.word	-1835790723
 1008 0694 7FB6633F 		.word	1063499391
 1009 0698 8D9D8A68 		.word	1753914765
 1010 069c 018C4D3F 		.word	1062046721
 1011 06a0 5DE6AC98 		.word	-1733499299
 1012 06a4 F69547BF 		.word	-1085827594
 1013 06a8 5704A661 		.word	1638270039
 1014 06ac 62BE62BF 		.word	-1084047774
 1015 06b0 FE91BC75 		.word	1975292414
 1016 06b4 87CC6DBF 		.word	-1083323257
 1017 06b8 BD75507A 		.word	2052093373
 1018 06bc F5F072BF 		.word	-1082986251
 1019 06c0 F98BD19B 		.word	-1680765959
 1020 06c4 270F75BF 		.word	-1082847449
ARM GAS  C:\Users\jmori\AppData\Local\Temp\ccFGeXpP.s 			page 54


 1021 06c8 67AE4202 		.word	37924455
 1022 06cc A20275BF 		.word	-1082850654
 1023 06d0 47E64A57 		.word	1464526407
 1024 06d4 C1C572BF 		.word	-1082997311
 1025 06d8 C20CE181 		.word	-2115957566
 1026 06dc 2A186DBF 		.word	-1083369430
 1027 06e0 3106DFA4 		.word	-1528887759
 1028 06e4 7A7B61BF 		.word	-1084130438
 1029 06e8 C21C073E 		.word	1040653506
 1030 06ec 1DC93EBF 		.word	-1086404323
 1031 06f0 1EBCD92D 		.word	769244190
 1032 06f4 48E9543F 		.word	1062529352
 1033 06f8 D0E3D5B0 		.word	-1328159792
 1034 06fc 0C01683F 		.word	1063780620
 1035 0700 33CF467E 		.word	2118569779
 1036 0704 25B9713F 		.word	1064417573
 1037 0708 7E5057FF 		.word	-11054978
 1038 070c 23D2753F 		.word	1064686115
 1039 0710 1BB9CE73 		.word	1942927643
 1040 0714 75E3773F 		.word	1064821621
 1041 0718 16812293 		.word	-1826455274
 1042 071c E9B9773F 		.word	1064810985
 1043 0720 8F30D832 		.word	853029007
 1044 0724 B25C753F 		.word	1064656050
 1045 0728 DD366F09 		.word	158283485
 1046 072c BF0C713F 		.word	1064373439
 1047 0730 304DA5E4 		.word	-458928848
 1048 0734 6F7C663F 		.word	1063681135
 1049 0738 877B6416 		.word	375683975
 1050 073c D032523F 		.word	1062351568
 1051 0740 BFF8F909 		.word	167377087
 1052 0744 BAA342BF 		.word	-1086151750
 1053 0748 D1FED7B9 		.word	-1177026863
 1054 074c 645961BF 		.word	-1084139164
 1055 0750 3A128609 		.word	159781434
 1056 0754 0AA16BBF 		.word	-1083465462
 1057 0758 7D0A7A68 		.word	1752828541
 1058 075c 843371BF 		.word	-1083100284
 1059 0760 64781A6A 		.word	1780119652
 1060 0764 D67672BF 		.word	-1083017514
 1061 0768 6881669E 		.word	-1637449368
 1062 076c 0C7371BF 		.word	-1083084020
 1063 0770 305EA40A 		.word	178544176
 1064 0774 2C786CBF 		.word	-1083410388
 1065 0778 E74DC856 		.word	1455967719
 1066 077c 033F62BF 		.word	-1084080381
 1067 0780 CFD50C14 		.word	336385487
 1068 0784 59E644BF 		.word	-1086003623
 1069 0788 08D9D3C0 		.word	-1059858168
 1070 078c 489E523F 		.word	1062379080
 1071 0790 244E64B3 		.word	-1285272028
 1072 0794 70E9673F 		.word	1063774576
 1073 0798 44EA14D3 		.word	-753604028
 1074 079c 5990723F 		.word	1064472665
 1075 07a0 93D91270 		.word	1880283539
 1076 07a4 B1D1773F 		.word	1064817073
 1077 07a8 FDF431F4 		.word	-198052611
ARM GAS  C:\Users\jmori\AppData\Local\Temp\ccFGeXpP.s 			page 55


 1078 07ac D1327B3F 		.word	1065038545
 1079 07b0 98DEBEF7 		.word	-138486120
 1080 07b4 655E7C3F 		.word	1065115237
 1081 07b8 FB89402C 		.word	742427131
 1082 07bc 8E387B3F 		.word	1065040014
 1083 07c0 BF12C2BB 		.word	-1144909121
 1084 07c4 93E1773F 		.word	1064821139
 1085 07c8 181823D4 		.word	-735897576
 1086 07cc F8B2723F 		.word	1064481528
 1087 07d0 F96FDF99 		.word	-1713410055
 1088 07d4 E36C683F 		.word	1063808227
 1089 07d8 B2DC9DAA 		.word	-1432494926
 1090 07dc 8860543F 		.word	1062494344
 1091 07e0 C72815EE 		.word	-300603193
 1092 07e4 BDB13EBF 		.word	-1086410307
 1093 07e8 E57DA541 		.word	1101364709
 1094 07ec A83160BF 		.word	-1084214872
 1095 07f0 59CF1DAE 		.word	-1373778087
 1096 07f4 D69769BF 		.word	-1083598890
 1097 07f8 81B33B4F 		.word	1329312641
 1098 07fc 060B6FBF 		.word	-1083241722
 1099 0800 8BC72585 		.word	-2061121653
 1100 0804 27F46FBF 		.word	-1083182041
 1101 0808 9A0BC589 		.word	-1983575142
 1102 080c 74326CBF 		.word	-1083428236
 1103 0810 A012142E 		.word	773067424
 1104 0814 ED1E64BF 		.word	-1083957523
 1105 0818 1793E50D 		.word	233149207
 1106 081c 2E0751BF 		.word	-1085208786
 1107 0820 494DDF73 		.word	1944014153
 1108 0824 B2E3453F 		.word	1061544882
 1109 0828 9B8CC330 		.word	818121883
 1110 082c DE70643F 		.word	1063547102
 1111 0830 2C6557D0 		.word	-799578836
 1112 0834 F871713F 		.word	1064399352
 1113 0838 A551EBF9 		.word	-102018651
 1114 083c 27AF773F 		.word	1064808231
 1115 0840 909B5A26 		.word	643472272
 1116 0844 5E4F7C3F 		.word	1065111390
 1117 0848 FC214FFD 		.word	-45145604
 1118 084c 5EDB7E3F 		.word	1065278302
 1119 0850 ACECC18B 		.word	-1950225236
 1120 0854 9C117F3F 		.word	1065292188
 1121 0858 7F64408A 		.word	-1975491457
 1122 085c EDEC7C3F 		.word	1065151725
 1123 0860 30422C66 		.word	1714176560
 1124 0864 41A5783F 		.word	1064871233
 1125 0868 D8CD9F40 		.word	1084214744
 1126 086c 0DAA723F 		.word	1064479245
 1127 0870 FC6D5AC5 		.word	-983929348
 1128 0874 7F2E673F 		.word	1063726719
 1129 0878 436DD4A7 		.word	-1479250621
 1130 087c 8F95503F 		.word	1062245775
 1131 0880 7C237A2F 		.word	796533628
 1132 0884 2F4947BF 		.word	-1085847249
 1133 0888 C3A47E6C 		.word	1820239043
 1134 088c A2B761BF 		.word	-1084115038
ARM GAS  C:\Users\jmori\AppData\Local\Temp\ccFGeXpP.s 			page 56


 1135 0890 ABC6B3BA 		.word	-1162623317
 1136 0894 532D6ABF 		.word	-1083560621
 1137 0898 9F312364 		.word	1680028063
 1138 089c 81546EBF 		.word	-1083288447
 1139 08a0 19040CDA 		.word	-636746727
 1140 08a4 34BE6DBF 		.word	-1083326924
 1141 08a8 E0D0D413 		.word	332714208
 1142 08ac 5B7668BF 		.word	-1083672997
 1143 08b0 B4EEBBA1 		.word	-1581519180
 1144 08b4 1D065EBF 		.word	-1084357091
 1145 08b8 4B0188B4 		.word	-1266155189
 1146 08bc ACB632BF 		.word	-1087195476
 1147 08c0 B3FA5C08 		.word	140311219
 1148 08c4 388E583F 		.word	1062768184
 1149 08c8 72E3C941 		.word	1103750002
 1150 08cc FC5B6B3F 		.word	1064000508
 1151 08d0 7EA7AD1D 		.word	497919870
 1152 08d4 C4AF743F 		.word	1064611780
 1153 08d8 BD18DB90 		.word	-1864689475
 1154 08dc 07727A3F 		.word	1064989191
 1155 08e0 A48CFAF8 		.word	-117797724
 1156 08e4 BB5D7E3F 		.word	1065246139
 1157 08e8 E7D45C8C 		.word	-1940073241
 1158 08ec 7205803F 		.word	1065354610
 1159 08f0 C0D570BA 		.word	-1167010368
 1160 08f4 354B7F3F 		.word	1065306933
 1161 08f8 2F577058 		.word	1483757359
 1162 08fc 192F7C3F 		.word	1065103129
 1163 0900 EF44519B 		.word	-1689172753
 1164 0904 D903773F 		.word	1064764377
 1165 0908 D05F920B 		.word	194142160
 1166 090c C14B703F 		.word	1064324033
 1167 0910 9E58ED52 		.word	1391286430
 1168 0914 6C62613F 		.word	1063346796
 1169 0918 5AF43ED4 		.word	-734071718
 1170 091c 0BB32E3F 		.word	1060025099
 1171 0920 6ED55D3B 		.word	996005230
 1172 0924 FC8758BF 		.word	-1084717060
 1173 0928 91E928A4 		.word	-1540822639
 1174 092c A9C167BF 		.word	-1083719255
 1175 0930 B3CBE382 		.word	-2099000397
 1176 0934 4A696FBF 		.word	-1083217590
 1177 0938 E47C9D69 		.word	1771928804
 1178 093c BE3C71BF 		.word	-1083097922
 1179 0940 541D8400 		.word	8658260
 1180 0944 835370BF 		.word	-1083157629
 1181 0948 2467ED0D 		.word	233662244
 1182 094c 98256ABF 		.word	-1083562600
 1183 0950 8B3E7DB4 		.word	-1266860405
 1184 0954 CA445FBF 		.word	-1084275510
 1185 0958 FF1A862F 		.word	797317887
 1186 095c D09031BF 		.word	-1087270704
 1187 0960 CA783B40 		.word	1077639370
 1188 0964 1F95593F 		.word	1062835487
 1189 0968 125F2513 		.word	321216274
 1190 096c A6C96B3F 		.word	1064028582
 1191 0970 98BE2042 		.word	1109442200
ARM GAS  C:\Users\jmori\AppData\Local\Temp\ccFGeXpP.s 			page 57


 1192 0974 E99F743F 		.word	1064607721
 1193 0978 2A5B9245 		.word	1167219498
 1194 097c DAE3793F 		.word	1064952794
 1195 0980 2240EFDB 		.word	-605077470
 1196 0984 00237D3F 		.word	1065165568
 1197 0988 CD26AA57 		.word	1470768845
 1198 098c FB027E3F 		.word	1065222907
 1199 0990 8FD24C88 		.word	-2008231281
 1200 0994 2B667C3F 		.word	1065117227
 1201 0998 836C1D55 		.word	1427991683
 1202 099c 2C6F783F 		.word	1064857388
 1203 09a0 BD2F9033 		.word	865087421
 1204 09a4 7F7C723F 		.word	1064467583
 1205 09a8 D468010F 		.word	251750612
 1206 09ac 5C3F663F 		.word	1063665500
 1207 09b0 F28E5EB5 		.word	-1252094222
 1208 09b4 1D73483F 		.word	1061712669
 1209 09b8 B40C55E3 		.word	-480965452
 1210 09bc 92BD53BF 		.word	-1085031022
 1211 09c0 86D3A312 		.word	312726406
 1212 09c4 DD2668BF 		.word	-1083693347
 1213 09c8 51BFD727 		.word	668450641
 1214 09cc 54AC71BF 		.word	-1083069356
 1215 09d0 3FC7D938 		.word	953796415
 1216 09d4 353075BF 		.word	-1082838987
 1217 09d8 12138F18 		.word	412029714
 1218 09dc E64A76BF 		.word	-1082766618
 1219 09e0 89F38511 		.word	293991305
 1220 09e4 F4E574BF 		.word	-1082857996
 1221 09e8 58A56410 		.word	275031384
 1222 09ec 212B71BF 		.word	-1083102431
 1223 09f0 38B95A2D 		.word	760920376
 1224 09f4 130067BF 		.word	-1083768813
 1225 09f8 4795F994 		.word	-1795582649
 1226 09fc 13EE51BF 		.word	-1085149677
 1227 0a00 64CBDBE4 		.word	-455357596
 1228 0a04 3D3E493F 		.word	1061764669
 1229 0a08 32F9CF4A 		.word	1255143730
 1230 0a0c 273C653F 		.word	1063599143
 1231 0a10 6D7386FE 		.word	-24743059
 1232 0a14 B71F713F 		.word	1064378295
 1233 0a18 CA559689 		.word	-1986636342
 1234 0a1c 9DFC753F 		.word	1064696989
 1235 0a20 3BAF5FEE 		.word	-295719109
 1236 0a24 78AF783F 		.word	1064873848
 1237 0a28 DDAA9034 		.word	881896157
 1238 0a2c 33E8783F 		.word	1064888371
 1239 0a30 765FF88B 		.word	-1946656906
 1240 0a34 2D95763F 		.word	1064736045
 1241 0a38 CAA55357 		.word	1465099722
 1242 0a3c 22E5713F 		.word	1064428834
 1243 0a40 FA5AEA82 		.word	-2098570502
 1244 0a44 6C89663F 		.word	1063684460
 1245 0a48 B0F3D089 		.word	-1982794832
 1246 0a4c 6E914A3F 		.word	1061851502
 1247 0a50 A88464D2 		.word	-765164376
 1248 0a54 84CF54BF 		.word	-1084960892
ARM GAS  C:\Users\jmori\AppData\Local\Temp\ccFGeXpP.s 			page 58


 1249 0a58 7CF68169 		.word	1770124924
 1250 0a5c C0006BBF 		.word	-1083506496
 1251 0a60 01ACB0E0 		.word	-525292543
 1252 0a64 EFC874BF 		.word	-1082865425
 1253 0a68 68CBF658 		.word	1492568936
 1254 0a6c AE5B7ABF 		.word	-1082500178
 1255 0a70 E57EDCD7 		.word	-673415451
 1256 0a74 2DB57DBF 		.word	-1082280659
 1257 0a78 19C1FD3C 		.word	1023263001
 1258 0a7c D8897EBF 		.word	-1082226216
 1259 0a80 5008B193 		.word	-1817114544
 1260 0a84 9FC87CBF 		.word	-1082341217
 1261 0a88 DB8ECE83 		.word	-2083615013
 1262 0a8c 50A678BF 		.word	-1082612144
 1263 0a90 CD795494 		.word	-1806403123
 1264 0a94 2B9872BF 		.word	-1083008981
 1265 0a98 17581589 		.word	-1995089897
 1266 0a9c 787066BF 		.word	-1083805576
 1267 0aa0 ECDD6C6E 		.word	1852628460
 1268 0aa4 64924ABF 		.word	-1085631900
 1269 0aa8 3FFFF21A 		.word	452132671
 1270 0aac 3032513F 		.word	1062285872
 1271 0ab0 6C087B95 		.word	-1787099028
 1272 0ab4 2EAA653F 		.word	1063627310
 1273 0ab8 C375A339 		.word	967013827
 1274 0abc D12C6F3F 		.word	1064250577
 1275 0ac0 5FA92C34 		.word	875342175
 1276 0ac4 EE09723F 		.word	1064438254
 1277 0ac8 69D6D0AC 		.word	-1395599767
 1278 0acc E5E2713F 		.word	1064428261
 1279 0ad0 0F09D10C 		.word	215025935
 1280 0ad4 0E2B6E3F 		.word	1064184590
 1281 0ad8 04D30119 		.word	419549956
 1282 0adc 4EB1633F 		.word	1063498062
 1283 0ae0 65DFD176 		.word	1993465701
 1284 0ae4 1105453F 		.word	1061487889
 1285 0ae8 F3D05B5C 		.word	1549521139
 1286 0aec 1EAF57BF 		.word	-1084772578
 1287 0af0 3AF9252C 		.word	740686138
 1288 0af4 05076EBF 		.word	-1083308283
 1289 0af8 FA661E9A 		.word	-1709283590
 1290 0afc C5CE77BF 		.word	-1082667323
 1291 0b00 33788B95 		.word	-1786021837
 1292 0b04 9C7B7FBF 		.word	-1082164324
 1293 0b08 9F0B8A38 		.word	948571039
 1294 0b0c D1A982BF 		.word	-1081955887
 1295 0b10 34F91E65 		.word	1696528692
 1296 0b14 9E6584BF 		.word	-1081842274
 1297 0b18 9F3A3000 		.word	3160735
 1298 0b1c 63CA84BF 		.word	-1081816477
 1299 0b20 2BF6838E 		.word	-1903954389
 1300 0b24 DACF83BF 		.word	-1081880614
 1301 0b28 106541B7 		.word	-1220451056
 1302 0b2c 3B9381BF 		.word	-1082027205
 1303 0b30 4D05CB86 		.word	-2033515187
 1304 0b34 ED9C7CBF 		.word	-1082352403
 1305 0b38 ADA3BC49 		.word	1237099437
ARM GAS  C:\Users\jmori\AppData\Local\Temp\ccFGeXpP.s 			page 59


 1306 0b3c 40AE74BF 		.word	-1082872256
 1307 0b40 0138D576 		.word	1993684993
 1308 0b44 465568BF 		.word	-1083681466
 1309 0b48 5E4BF7E5 		.word	-436778146
 1310 0b4c C17D4FBF 		.word	-1085309503
 1311 0b50 B6C84F11 		.word	290441398
 1312 0b54 8842493F 		.word	1061765768
 1313 0b58 D4CF2AF4 		.word	-198520876
 1314 0b5c 0FB9603F 		.word	1063303439
 1315 0b60 F317BFBE 		.word	-1094772749
 1316 0b64 A235663F 		.word	1063663010
 1317 0b68 88BA260D 		.word	220641928
 1318 0b6c 0D19663F 		.word	1063655693
 1319 0b70 85723968 		.word	1748595333
 1320 0b74 173C603F 		.word	1063271447
 1321 0b78 5B46C7BA 		.word	-1161345445
 1322 0b7c 111A443F 		.word	1061427729
 1323 0b80 2F729CF9 		.word	-107187665
 1324 0b84 2C3255BF 		.word	-1084935636
 1325 0b88 E5B992CB 		.word	-879576603
 1326 0b8c F9446DBF 		.word	-1083357959
 1327 0b90 19B18276 		.word	1988276505
 1328 0b94 2EA978BF 		.word	-1082611410
 1329 0b98 A065FEBE 		.word	-1090624096
 1330 0b9c 4C3B81BF 		.word	-1082049716
 1331 0ba0 8DBFCCF9 		.word	-104022131
 1332 0ba4 9B9185BF 		.word	-1081765477
 1333 0ba8 FBF157B2 		.word	-1302859269
 1334 0bac CAEF88BF 		.word	-1081544758
 1335 0bb0 D0ABB18F 		.word	-1884181552
 1336 0bb4 00058BBF 		.word	-1081408256
 1337 0bb8 937C3172 		.word	1915845779
 1338 0bbc 699E8BBF 		.word	-1081368983
 1339 0bc0 B106564F 		.word	1331037873
 1340 0bc4 72AC8ABF 		.word	-1081430926
 1341 0bc8 4D5E8C6F 		.word	1871470157
 1342 0bcc 0D4588BF 		.word	-1081588467
 1343 0bd0 40CAD6F7 		.word	-136918464
 1344 0bd4 0BA284BF 		.word	-1081826805
 1345 0bd8 B431F88D 		.word	-1913114188
 1346 0bdc 6B1C80BF 		.word	-1082123157
 1347 0be0 C214E227 		.word	669127874
 1348 0be4 254876BF 		.word	-1082767323
 1349 0be8 0B5438C0 		.word	-1070050293
 1350 0bec FBD568BF 		.word	-1083648517
 1351 0bf0 E38C3AF0 		.word	-264598301
 1352 0bf4 50EB4CBF 		.word	-1085478064
 1353 0bf8 E2232956 		.word	1445536738
 1354 0bfc 01C8493F 		.word	1061799937
 1355 0c00 97F06BA7 		.word	-1486098281
 1356 0c04 BE6E5D3F 		.word	1063087806
 1357 0c08 5084E4B9 		.word	-1176206256
 1358 0c0c 3496603F 		.word	1063294516
 1359 0c10 8BE542FF 		.word	-12393077
 1360 0c14 3B49573F 		.word	1062684987
 1361 0c18 E8BDC56B 		.word	1808121320
 1362 0c1c 94E1E93E 		.word	1055515028
ARM GAS  C:\Users\jmori\AppData\Local\Temp\ccFGeXpP.s 			page 60


 1363 0c20 620494D7 		.word	-678165406
 1364 0c24 233361BF 		.word	-1084148957
 1365 0c28 0438C71F 		.word	533149700
 1366 0c2c 776E73BF 		.word	-1082954121
 1367 0c30 96B1851E 		.word	512078230
 1368 0c34 92857FBF 		.word	-1082161774
 1369 0c38 ED78091B 		.word	453605613
 1370 0c3c FDE685BF 		.word	-1081743619
 1371 0c40 46FFA0C1 		.word	-1046413498
 1372 0c44 15958BBF 		.word	-1081371371
 1373 0c48 F14A468E 		.word	-1907995919
 1374 0c4c 672290BF 		.word	-1081073049
 1375 0c50 38ECF93C 		.word	1023011896
 1376 0c54 89C091BF 		.word	-1080967031
 1377 0c58 5BC5F6E3 		.word	-470366885
 1378 0c5c 827992BF 		.word	-1080919678
 1379 0c60 4438C9C3 		.word	-1010223036
 1380 0c64 613592BF 		.word	-1080937119
 1381 0c68 0AA9E90C 		.word	216639754
 1382 0c6c 6CF290BF 		.word	-1081019796
 1383 0c70 08A085FD 		.word	-41574392
 1384 0c74 288C8DBF 		.word	-1081242584
 1385 0c78 C0193A1D 		.word	490346944
 1386 0c7c DBB787BF 		.word	-1081624613
 1387 0c80 49E4365B 		.word	1530324041
 1388 0c84 25E580BF 		.word	-1082071771
 1389 0c88 51A4302D 		.word	758162513
 1390 0c8c 225B73BF 		.word	-1082959070
 1391 0c90 62B1856B 		.word	1803923810
 1392 0c94 3BD755BF 		.word	-1084893381
 1393 0c98 2962A8B1 		.word	-1314364887
 1394 0c9c B2385A3F 		.word	1062877362
 1395 0ca0 F92C9853 		.word	1402481913
 1396 0ca4 83E56E3F 		.word	1064232323
 1397 0ca8 C2EED5E9 		.word	-371855678
 1398 0cac EC2F743F 		.word	1064579052
 1399 0cb0 30EB0039 		.word	956361520
 1400 0cb4 B50C743F 		.word	1064570037
 1401 0cb8 105AE73D 		.word	1038572048
 1402 0cbc 41666D3F 		.word	1064134209
 1403 0cc0 831F4E21 		.word	558768003
 1404 0cc4 F2F2503F 		.word	1062269682
 1405 0cc8 818B5D89 		.word	-1990358143
 1406 0ccc 7A9265BF 		.word	-1083862406
 1407 0cd0 F4BFFC4B 		.word	1274855412
 1408 0cd4 B1627DBF 		.word	-1082301775
 1409 0cd8 0FC36C28 		.word	678216463
 1410 0cdc 2C1989BF 		.word	-1081534164
 1411 0ce0 9045C3FA 		.word	-87865968
 1412 0ce4 BDE391BF 		.word	-1080958019
 1413 0ce8 50ABBBD7 		.word	-675566768
 1414 0cec D2E796BF 		.word	-1080629294
 1415 0cf0 6FF4263B 		.word	992408687
 1416 0cf4 A91E9BBF 		.word	-1080353111
 1417 0cf8 8AD8FD11 		.word	301848714
 1418 0cfc F7129EBF 		.word	-1080159497
 1419 0d00 33436911 		.word	292111155
ARM GAS  C:\Users\jmori\AppData\Local\Temp\ccFGeXpP.s 			page 61


 1420 0d04 F45C9FBF 		.word	-1080075020
 1421 0d08 A9CB489A 		.word	-1706505303
 1422 0d0c 6CAA9EBF 		.word	-1080120724
 1423 0d10 7807FCC5 		.word	-973338760
 1424 0d14 84C59BBF 		.word	-1080310396
 1425 0d18 BB26766D 		.word	1836459707
 1426 0d1c C89996BF 		.word	-1080649272
 1427 0d20 FFCE5860 		.word	1616432895
 1428 0d24 E36D8EBF 		.word	-1081184797
 1429 0d28 DFED4CE1 		.word	-515052065
 1430 0d2c A14577BF 		.word	-1082702431
 1431 0d30 F1CA531A 		.word	441699057
 1432 0d34 DBFE743F 		.word	1064632027
 1433 0d38 7B7DE498 		.word	-1729856133
 1434 0d3c E586913F 		.word	1066501861
 1435 0d40 24C3858D 		.word	-1920613596
 1436 0d44 9A769E3F 		.word	1067349658
 1437 0d48 D0281AA4 		.word	-1541789488
 1438 0d4c B2B8A53F 		.word	1067825330
 1439 0d50 4E52290B 		.word	187257422
 1440 0d54 9DE9AB3F 		.word	1068231069
 1441 0d58 69ED6F50 		.word	1349512553
 1442 0d5c D3BEB03F 		.word	1068547795
 1443 0d60 3D3AA006 		.word	111163965
 1444 0d64 7615B33F 		.word	1068701046
 1445 0d68 429336FE 		.word	-29977790
 1446 0d6c 4DD9B43F 		.word	1068816717
 1447 0d70 83B8696D 		.word	1835645059
 1448 0d74 6BF2B53F 		.word	1068888683
 1449 0d78 9996FA62 		.word	1660589721
 1450 0d7c D351B63F 		.word	1068913107
 1451 0d80 83B8696D 		.word	1835645059
 1452 0d84 6BF2B53F 		.word	1068888683
 1453 0d88 429336FE 		.word	-29977790
 1454 0d8c 4DD9B43F 		.word	1068816717
 1455 0d90 3D3AA006 		.word	111163965
 1456 0d94 7615B33F 		.word	1068701046
 1457 0d98 69ED6F50 		.word	1349512553
 1458 0d9c D3BEB03F 		.word	1068547795
 1459 0da0 4E52290B 		.word	187257422
 1460 0da4 9DE9AB3F 		.word	1068231069
 1461 0da8 D0281AA4 		.word	-1541789488
 1462 0dac B2B8A53F 		.word	1067825330
 1463 0db0 24C3858D 		.word	-1920613596
 1464 0db4 9A769E3F 		.word	1067349658
 1465 0db8 7B7DE498 		.word	-1729856133
 1466 0dbc E586913F 		.word	1066501861
 1467 0dc0 F1CA531A 		.word	441699057
 1468 0dc4 DBFE743F 		.word	1064632027
 1469 0dc8 DFED4CE1 		.word	-515052065
 1470 0dcc A14577BF 		.word	-1082702431
 1471 0dd0 FFCE5860 		.word	1616432895
 1472 0dd4 E36D8EBF 		.word	-1081184797
 1473 0dd8 BB26766D 		.word	1836459707
 1474 0ddc C89996BF 		.word	-1080649272
 1475 0de0 7807FCC5 		.word	-973338760
 1476 0de4 84C59BBF 		.word	-1080310396
ARM GAS  C:\Users\jmori\AppData\Local\Temp\ccFGeXpP.s 			page 62


 1477 0de8 A9CB489A 		.word	-1706505303
 1478 0dec 6CAA9EBF 		.word	-1080120724
 1479 0df0 33436911 		.word	292111155
 1480 0df4 F45C9FBF 		.word	-1080075020
 1481 0df8 8AD8FD11 		.word	301848714
 1482 0dfc F7129EBF 		.word	-1080159497
 1483 0e00 6FF4263B 		.word	992408687
 1484 0e04 A91E9BBF 		.word	-1080353111
 1485 0e08 50ABBBD7 		.word	-675566768
 1486 0e0c D2E796BF 		.word	-1080629294
 1487 0e10 9045C3FA 		.word	-87865968
 1488 0e14 BDE391BF 		.word	-1080958019
 1489 0e18 0FC36C28 		.word	678216463
 1490 0e1c 2C1989BF 		.word	-1081534164
 1491 0e20 F4BFFC4B 		.word	1274855412
 1492 0e24 B1627DBF 		.word	-1082301775
 1493 0e28 818B5D89 		.word	-1990358143
 1494 0e2c 7A9265BF 		.word	-1083862406
 1495 0e30 831F4E21 		.word	558768003
 1496 0e34 F2F2503F 		.word	1062269682
 1497 0e38 105AE73D 		.word	1038572048
 1498 0e3c 41666D3F 		.word	1064134209
 1499 0e40 30EB0039 		.word	956361520
 1500 0e44 B50C743F 		.word	1064570037
 1501 0e48 C2EED5E9 		.word	-371855678
 1502 0e4c EC2F743F 		.word	1064579052
 1503 0e50 F92C9853 		.word	1402481913
 1504 0e54 83E56E3F 		.word	1064232323
 1505 0e58 2962A8B1 		.word	-1314364887
 1506 0e5c B2385A3F 		.word	1062877362
 1507 0e60 62B1856B 		.word	1803923810
 1508 0e64 3BD755BF 		.word	-1084893381
 1509 0e68 51A4302D 		.word	758162513
 1510 0e6c 225B73BF 		.word	-1082959070
 1511 0e70 49E4365B 		.word	1530324041
 1512 0e74 25E580BF 		.word	-1082071771
 1513 0e78 C0193A1D 		.word	490346944
 1514 0e7c DBB787BF 		.word	-1081624613
 1515 0e80 08A085FD 		.word	-41574392
 1516 0e84 288C8DBF 		.word	-1081242584
 1517 0e88 0AA9E90C 		.word	216639754
 1518 0e8c 6CF290BF 		.word	-1081019796
 1519 0e90 4438C9C3 		.word	-1010223036
 1520 0e94 613592BF 		.word	-1080937119
 1521 0e98 5BC5F6E3 		.word	-470366885
 1522 0e9c 827992BF 		.word	-1080919678
 1523 0ea0 38ECF93C 		.word	1023011896
 1524 0ea4 89C091BF 		.word	-1080967031
 1525 0ea8 F14A468E 		.word	-1907995919
 1526 0eac 672290BF 		.word	-1081073049
 1527 0eb0 46FFA0C1 		.word	-1046413498
 1528 0eb4 15958BBF 		.word	-1081371371
 1529 0eb8 ED78091B 		.word	453605613
 1530 0ebc FDE685BF 		.word	-1081743619
 1531 0ec0 96B1851E 		.word	512078230
 1532 0ec4 92857FBF 		.word	-1082161774
 1533 0ec8 0438C71F 		.word	533149700
ARM GAS  C:\Users\jmori\AppData\Local\Temp\ccFGeXpP.s 			page 63


 1534 0ecc 776E73BF 		.word	-1082954121
 1535 0ed0 620494D7 		.word	-678165406
 1536 0ed4 233361BF 		.word	-1084148957
 1537 0ed8 E8BDC56B 		.word	1808121320
 1538 0edc 94E1E93E 		.word	1055515028
 1539 0ee0 8BE542FF 		.word	-12393077
 1540 0ee4 3B49573F 		.word	1062684987
 1541 0ee8 5084E4B9 		.word	-1176206256
 1542 0eec 3496603F 		.word	1063294516
 1543 0ef0 97F06BA7 		.word	-1486098281
 1544 0ef4 BE6E5D3F 		.word	1063087806
 1545 0ef8 E2232956 		.word	1445536738
 1546 0efc 01C8493F 		.word	1061799937
 1547 0f00 E38C3AF0 		.word	-264598301
 1548 0f04 50EB4CBF 		.word	-1085478064
 1549 0f08 0B5438C0 		.word	-1070050293
 1550 0f0c FBD568BF 		.word	-1083648517
 1551 0f10 C214E227 		.word	669127874
 1552 0f14 254876BF 		.word	-1082767323
 1553 0f18 B431F88D 		.word	-1913114188
 1554 0f1c 6B1C80BF 		.word	-1082123157
 1555 0f20 40CAD6F7 		.word	-136918464
 1556 0f24 0BA284BF 		.word	-1081826805
 1557 0f28 4D5E8C6F 		.word	1871470157
 1558 0f2c 0D4588BF 		.word	-1081588467
 1559 0f30 B106564F 		.word	1331037873
 1560 0f34 72AC8ABF 		.word	-1081430926
 1561 0f38 937C3172 		.word	1915845779
 1562 0f3c 699E8BBF 		.word	-1081368983
 1563 0f40 D0ABB18F 		.word	-1884181552
 1564 0f44 00058BBF 		.word	-1081408256
 1565 0f48 FBF157B2 		.word	-1302859269
 1566 0f4c CAEF88BF 		.word	-1081544758
 1567 0f50 8DBFCCF9 		.word	-104022131
 1568 0f54 9B9185BF 		.word	-1081765477
 1569 0f58 A065FEBE 		.word	-1090624096
 1570 0f5c 4C3B81BF 		.word	-1082049716
 1571 0f60 19B18276 		.word	1988276505
 1572 0f64 2EA978BF 		.word	-1082611410
 1573 0f68 E5B992CB 		.word	-879576603
 1574 0f6c F9446DBF 		.word	-1083357959
 1575 0f70 2F729CF9 		.word	-107187665
 1576 0f74 2C3255BF 		.word	-1084935636
 1577 0f78 5B46C7BA 		.word	-1161345445
 1578 0f7c 111A443F 		.word	1061427729
 1579 0f80 85723968 		.word	1748595333
 1580 0f84 173C603F 		.word	1063271447
 1581 0f88 88BA260D 		.word	220641928
 1582 0f8c 0D19663F 		.word	1063655693
 1583 0f90 F317BFBE 		.word	-1094772749
 1584 0f94 A235663F 		.word	1063663010
 1585 0f98 D4CF2AF4 		.word	-198520876
 1586 0f9c 0FB9603F 		.word	1063303439
 1587 0fa0 B6C84F11 		.word	290441398
 1588 0fa4 8842493F 		.word	1061765768
 1589 0fa8 5E4BF7E5 		.word	-436778146
 1590 0fac C17D4FBF 		.word	-1085309503
ARM GAS  C:\Users\jmori\AppData\Local\Temp\ccFGeXpP.s 			page 64


 1591 0fb0 0138D576 		.word	1993684993
 1592 0fb4 465568BF 		.word	-1083681466
 1593 0fb8 ADA3BC49 		.word	1237099437
 1594 0fbc 40AE74BF 		.word	-1082872256
 1595 0fc0 4D05CB86 		.word	-2033515187
 1596 0fc4 ED9C7CBF 		.word	-1082352403
 1597 0fc8 106541B7 		.word	-1220451056
 1598 0fcc 3B9381BF 		.word	-1082027205
 1599 0fd0 2BF6838E 		.word	-1903954389
 1600 0fd4 DACF83BF 		.word	-1081880614
 1601 0fd8 9F3A3000 		.word	3160735
 1602 0fdc 63CA84BF 		.word	-1081816477
 1603 0fe0 34F91E65 		.word	1696528692
 1604 0fe4 9E6584BF 		.word	-1081842274
 1605 0fe8 9F0B8A38 		.word	948571039
 1606 0fec D1A982BF 		.word	-1081955887
 1607 0ff0 33788B95 		.word	-1786021837
 1608 0ff4 9C7B7FBF 		.word	-1082164324
 1609 0ff8 FA661E9A 		.word	-1709283590
 1610 0ffc C5CE77BF 		.word	-1082667323
 1611 1000 3AF9252C 		.word	740686138
 1612 1004 05076EBF 		.word	-1083308283
 1613 1008 F3D05B5C 		.word	1549521139
 1614 100c 1EAF57BF 		.word	-1084772578
 1615 1010 65DFD176 		.word	1993465701
 1616 1014 1105453F 		.word	1061487889
 1617 1018 04D30119 		.word	419549956
 1618 101c 4EB1633F 		.word	1063498062
 1619 1020 0F09D10C 		.word	215025935
 1620 1024 0E2B6E3F 		.word	1064184590
 1621 1028 69D6D0AC 		.word	-1395599767
 1622 102c E5E2713F 		.word	1064428261
 1623 1030 5FA92C34 		.word	875342175
 1624 1034 EE09723F 		.word	1064438254
 1625 1038 C375A339 		.word	967013827
 1626 103c D12C6F3F 		.word	1064250577
 1627 1040 6C087B95 		.word	-1787099028
 1628 1044 2EAA653F 		.word	1063627310
 1629 1048 3FFFF21A 		.word	452132671
 1630 104c 3032513F 		.word	1062285872
 1631 1050 ECDD6C6E 		.word	1852628460
 1632 1054 64924ABF 		.word	-1085631900
 1633 1058 17581589 		.word	-1995089897
 1634 105c 787066BF 		.word	-1083805576
 1635 1060 CD795494 		.word	-1806403123
 1636 1064 2B9872BF 		.word	-1083008981
 1637 1068 DB8ECE83 		.word	-2083615013
 1638 106c 50A678BF 		.word	-1082612144
 1639 1070 5008B193 		.word	-1817114544
 1640 1074 9FC87CBF 		.word	-1082341217
 1641 1078 19C1FD3C 		.word	1023263001
 1642 107c D8897EBF 		.word	-1082226216
 1643 1080 E57EDCD7 		.word	-673415451
 1644 1084 2DB57DBF 		.word	-1082280659
 1645 1088 68CBF658 		.word	1492568936
 1646 108c AE5B7ABF 		.word	-1082500178
 1647 1090 01ACB0E0 		.word	-525292543
ARM GAS  C:\Users\jmori\AppData\Local\Temp\ccFGeXpP.s 			page 65


 1648 1094 EFC874BF 		.word	-1082865425
 1649 1098 7CF68169 		.word	1770124924
 1650 109c C0006BBF 		.word	-1083506496
 1651 10a0 A88464D2 		.word	-765164376
 1652 10a4 84CF54BF 		.word	-1084960892
 1653 10a8 B0F3D089 		.word	-1982794832
 1654 10ac 6E914A3F 		.word	1061851502
 1655 10b0 FA5AEA82 		.word	-2098570502
 1656 10b4 6C89663F 		.word	1063684460
 1657 10b8 CAA55357 		.word	1465099722
 1658 10bc 22E5713F 		.word	1064428834
 1659 10c0 765FF88B 		.word	-1946656906
 1660 10c4 2D95763F 		.word	1064736045
 1661 10c8 DDAA9034 		.word	881896157
 1662 10cc 33E8783F 		.word	1064888371
 1663 10d0 3BAF5FEE 		.word	-295719109
 1664 10d4 78AF783F 		.word	1064873848
 1665 10d8 CA559689 		.word	-1986636342
 1666 10dc 9DFC753F 		.word	1064696989
 1667 10e0 6D7386FE 		.word	-24743059
 1668 10e4 B71F713F 		.word	1064378295
 1669 10e8 32F9CF4A 		.word	1255143730
 1670 10ec 273C653F 		.word	1063599143
 1671 10f0 64CBDBE4 		.word	-455357596
 1672 10f4 3D3E493F 		.word	1061764669
 1673 10f8 4795F994 		.word	-1795582649
 1674 10fc 13EE51BF 		.word	-1085149677
 1675 1100 38B95A2D 		.word	760920376
 1676 1104 130067BF 		.word	-1083768813
 1677 1108 58A56410 		.word	275031384
 1678 110c 212B71BF 		.word	-1083102431
 1679 1110 89F38511 		.word	293991305
 1680 1114 F4E574BF 		.word	-1082857996
 1681 1118 12138F18 		.word	412029714
 1682 111c E64A76BF 		.word	-1082766618
 1683 1120 3FC7D938 		.word	953796415
 1684 1124 353075BF 		.word	-1082838987
 1685 1128 51BFD727 		.word	668450641
 1686 112c 54AC71BF 		.word	-1083069356
 1687 1130 86D3A312 		.word	312726406
 1688 1134 DD2668BF 		.word	-1083693347
 1689 1138 B40C55E3 		.word	-480965452
 1690 113c 92BD53BF 		.word	-1085031022
 1691 1140 F28E5EB5 		.word	-1252094222
 1692 1144 1D73483F 		.word	1061712669
 1693 1148 D468010F 		.word	251750612
 1694 114c 5C3F663F 		.word	1063665500
 1695 1150 BD2F9033 		.word	865087421
 1696 1154 7F7C723F 		.word	1064467583
 1697 1158 836C1D55 		.word	1427991683
 1698 115c 2C6F783F 		.word	1064857388
 1699 1160 8FD24C88 		.word	-2008231281
 1700 1164 2B667C3F 		.word	1065117227
 1701 1168 CD26AA57 		.word	1470768845
 1702 116c FB027E3F 		.word	1065222907
 1703 1170 2240EFDB 		.word	-605077470
 1704 1174 00237D3F 		.word	1065165568
ARM GAS  C:\Users\jmori\AppData\Local\Temp\ccFGeXpP.s 			page 66


 1705 1178 2A5B9245 		.word	1167219498
 1706 117c DAE3793F 		.word	1064952794
 1707 1180 98BE2042 		.word	1109442200
 1708 1184 E99F743F 		.word	1064607721
 1709 1188 125F2513 		.word	321216274
 1710 118c A6C96B3F 		.word	1064028582
 1711 1190 CA783B40 		.word	1077639370
 1712 1194 1F95593F 		.word	1062835487
 1713 1198 FF1A862F 		.word	797317887
 1714 119c D09031BF 		.word	-1087270704
 1715 11a0 8B3E7DB4 		.word	-1266860405
 1716 11a4 CA445FBF 		.word	-1084275510
 1717 11a8 2467ED0D 		.word	233662244
 1718 11ac 98256ABF 		.word	-1083562600
 1719 11b0 541D8400 		.word	8658260
 1720 11b4 835370BF 		.word	-1083157629
 1721 11b8 E47C9D69 		.word	1771928804
 1722 11bc BE3C71BF 		.word	-1083097922
 1723 11c0 B3CBE382 		.word	-2099000397
 1724 11c4 4A696FBF 		.word	-1083217590
 1725 11c8 91E928A4 		.word	-1540822639
 1726 11cc A9C167BF 		.word	-1083719255
 1727 11d0 6ED55D3B 		.word	996005230
 1728 11d4 FC8758BF 		.word	-1084717060
 1729 11d8 5AF43ED4 		.word	-734071718
 1730 11dc 0BB32E3F 		.word	1060025099
 1731 11e0 9E58ED52 		.word	1391286430
 1732 11e4 6C62613F 		.word	1063346796
 1733 11e8 D05F920B 		.word	194142160
 1734 11ec C14B703F 		.word	1064324033
 1735 11f0 EF44519B 		.word	-1689172753
 1736 11f4 D903773F 		.word	1064764377
 1737 11f8 2F577058 		.word	1483757359
 1738 11fc 192F7C3F 		.word	1065103129
 1739 1200 C0D570BA 		.word	-1167010368
 1740 1204 354B7F3F 		.word	1065306933
 1741 1208 E7D45C8C 		.word	-1940073241
 1742 120c 7205803F 		.word	1065354610
 1743 1210 A48CFAF8 		.word	-117797724
 1744 1214 BB5D7E3F 		.word	1065246139
 1745 1218 BD18DB90 		.word	-1864689475
 1746 121c 07727A3F 		.word	1064989191
 1747 1220 7EA7AD1D 		.word	497919870
 1748 1224 C4AF743F 		.word	1064611780
 1749 1228 72E3C941 		.word	1103750002
 1750 122c FC5B6B3F 		.word	1064000508
 1751 1230 B3FA5C08 		.word	140311219
 1752 1234 388E583F 		.word	1062768184
 1753 1238 4B0188B4 		.word	-1266155189
 1754 123c ACB632BF 		.word	-1087195476
 1755 1240 B4EEBBA1 		.word	-1581519180
 1756 1244 1D065EBF 		.word	-1084357091
 1757 1248 E0D0D413 		.word	332714208
 1758 124c 5B7668BF 		.word	-1083672997
 1759 1250 19040CDA 		.word	-636746727
 1760 1254 34BE6DBF 		.word	-1083326924
 1761 1258 9F312364 		.word	1680028063
ARM GAS  C:\Users\jmori\AppData\Local\Temp\ccFGeXpP.s 			page 67


 1762 125c 81546EBF 		.word	-1083288447
 1763 1260 ABC6B3BA 		.word	-1162623317
 1764 1264 532D6ABF 		.word	-1083560621
 1765 1268 C3A47E6C 		.word	1820239043
 1766 126c A2B761BF 		.word	-1084115038
 1767 1270 7C237A2F 		.word	796533628
 1768 1274 2F4947BF 		.word	-1085847249
 1769 1278 436DD4A7 		.word	-1479250621
 1770 127c 8F95503F 		.word	1062245775
 1771 1280 FC6D5AC5 		.word	-983929348
 1772 1284 7F2E673F 		.word	1063726719
 1773 1288 D8CD9F40 		.word	1084214744
 1774 128c 0DAA723F 		.word	1064479245
 1775 1290 30422C66 		.word	1714176560
 1776 1294 41A5783F 		.word	1064871233
 1777 1298 7F64408A 		.word	-1975491457
 1778 129c EDEC7C3F 		.word	1065151725
 1779 12a0 ACECC18B 		.word	-1950225236
 1780 12a4 9C117F3F 		.word	1065292188
 1781 12a8 FC214FFD 		.word	-45145604
 1782 12ac 5EDB7E3F 		.word	1065278302
 1783 12b0 909B5A26 		.word	643472272
 1784 12b4 5E4F7C3F 		.word	1065111390
 1785 12b8 A551EBF9 		.word	-102018651
 1786 12bc 27AF773F 		.word	1064808231
 1787 12c0 2C6557D0 		.word	-799578836
 1788 12c4 F871713F 		.word	1064399352
 1789 12c8 9B8CC330 		.word	818121883
 1790 12cc DE70643F 		.word	1063547102
 1791 12d0 494DDF73 		.word	1944014153
 1792 12d4 B2E3453F 		.word	1061544882
 1793 12d8 1793E50D 		.word	233149207
 1794 12dc 2E0751BF 		.word	-1085208786
 1795 12e0 A012142E 		.word	773067424
 1796 12e4 ED1E64BF 		.word	-1083957523
 1797 12e8 9A0BC589 		.word	-1983575142
 1798 12ec 74326CBF 		.word	-1083428236
 1799 12f0 8BC72585 		.word	-2061121653
 1800 12f4 27F46FBF 		.word	-1083182041
 1801 12f8 81B33B4F 		.word	1329312641
 1802 12fc 060B6FBF 		.word	-1083241722
 1803 1300 59CF1DAE 		.word	-1373778087
 1804 1304 D69769BF 		.word	-1083598890
 1805 1308 E57DA541 		.word	1101364709
 1806 130c A83160BF 		.word	-1084214872
 1807 1310 C72815EE 		.word	-300603193
 1808 1314 BDB13EBF 		.word	-1086410307
 1809 1318 B2DC9DAA 		.word	-1432494926
 1810 131c 8860543F 		.word	1062494344
 1811 1320 F96FDF99 		.word	-1713410055
 1812 1324 E36C683F 		.word	1063808227
 1813 1328 181823D4 		.word	-735897576
 1814 132c F8B2723F 		.word	1064481528
 1815 1330 BF12C2BB 		.word	-1144909121
 1816 1334 93E1773F 		.word	1064821139
 1817 1338 FB89402C 		.word	742427131
 1818 133c 8E387B3F 		.word	1065040014
ARM GAS  C:\Users\jmori\AppData\Local\Temp\ccFGeXpP.s 			page 68


 1819 1340 98DEBEF7 		.word	-138486120
 1820 1344 655E7C3F 		.word	1065115237
 1821 1348 FDF431F4 		.word	-198052611
 1822 134c D1327B3F 		.word	1065038545
 1823 1350 93D91270 		.word	1880283539
 1824 1354 B1D1773F 		.word	1064817073
 1825 1358 44EA14D3 		.word	-753604028
 1826 135c 5990723F 		.word	1064472665
 1827 1360 244E64B3 		.word	-1285272028
 1828 1364 70E9673F 		.word	1063774576
 1829 1368 08D9D3C0 		.word	-1059858168
 1830 136c 489E523F 		.word	1062379080
 1831 1370 CFD50C14 		.word	336385487
 1832 1374 59E644BF 		.word	-1086003623
 1833 1378 E74DC856 		.word	1455967719
 1834 137c 033F62BF 		.word	-1084080381
 1835 1380 305EA40A 		.word	178544176
 1836 1384 2C786CBF 		.word	-1083410388
 1837 1388 6881669E 		.word	-1637449368
 1838 138c 0C7371BF 		.word	-1083084020
 1839 1390 64781A6A 		.word	1780119652
 1840 1394 D67672BF 		.word	-1083017514
 1841 1398 7D0A7A68 		.word	1752828541
 1842 139c 843371BF 		.word	-1083100284
 1843 13a0 3A128609 		.word	159781434
 1844 13a4 0AA16BBF 		.word	-1083465462
 1845 13a8 D1FED7B9 		.word	-1177026863
 1846 13ac 645961BF 		.word	-1084139164
 1847 13b0 BFF8F909 		.word	167377087
 1848 13b4 BAA342BF 		.word	-1086151750
 1849 13b8 877B6416 		.word	375683975
 1850 13bc D032523F 		.word	1062351568
 1851 13c0 304DA5E4 		.word	-458928848
 1852 13c4 6F7C663F 		.word	1063681135
 1853 13c8 DD366F09 		.word	158283485
 1854 13cc BF0C713F 		.word	1064373439
 1855 13d0 8F30D832 		.word	853029007
 1856 13d4 B25C753F 		.word	1064656050
 1857 13d8 16812293 		.word	-1826455274
 1858 13dc E9B9773F 		.word	1064810985
 1859 13e0 1BB9CE73 		.word	1942927643
 1860 13e4 75E3773F 		.word	1064821621
 1861 13e8 7E5057FF 		.word	-11054978
 1862 13ec 23D2753F 		.word	1064686115
 1863 13f0 33CF467E 		.word	2118569779
 1864 13f4 25B9713F 		.word	1064417573
 1865 13f8 D0E3D5B0 		.word	-1328159792
 1866 13fc 0C01683F 		.word	1063780620
 1867 1400 1EBCD92D 		.word	769244190
 1868 1404 48E9543F 		.word	1062529352
 1869 1408 C21C073E 		.word	1040653506
 1870 140c 1DC93EBF 		.word	-1086404323
 1871 1410 3106DFA4 		.word	-1528887759
 1872 1414 7A7B61BF 		.word	-1084130438
 1873 1418 C20CE181 		.word	-2115957566
 1874 141c 2A186DBF 		.word	-1083369430
 1875 1420 47E64A57 		.word	1464526407
ARM GAS  C:\Users\jmori\AppData\Local\Temp\ccFGeXpP.s 			page 69


 1876 1424 C1C572BF 		.word	-1082997311
 1877 1428 67AE4202 		.word	37924455
 1878 142c A20275BF 		.word	-1082850654
 1879 1430 F98BD19B 		.word	-1680765959
 1880 1434 270F75BF 		.word	-1082847449
 1881 1438 BD75507A 		.word	2052093373
 1882 143c F5F072BF 		.word	-1082986251
 1883 1440 FE91BC75 		.word	1975292414
 1884 1444 87CC6DBF 		.word	-1083323257
 1885 1448 5704A661 		.word	1638270039
 1886 144c 62BE62BF 		.word	-1084047774
 1887 1450 5DE6AC98 		.word	-1733499299
 1888 1454 F69547BF 		.word	-1085827594
 1889 1458 8D9D8A68 		.word	1753914765
 1890 145c 018C4D3F 		.word	1062046721
 1891 1460 7D0E9492 		.word	-1835790723
 1892 1464 7FB6633F 		.word	1063499391
 1893 1468 F3B4DFE9 		.word	-371215117
 1894 146c A2CA6D3F 		.word	1064159906
 1895 1470 1D3D4D48 		.word	1213021469
 1896 1474 8448723F 		.word	1064454276
 1897 1478 A636999F 		.word	-1617348954
 1898 147c 65A9733F 		.word	1064544613
 1899 1480 4758C630 		.word	818305095
 1900 1484 89E1723F 		.word	1064493449
 1901 1488 B4261D7E 		.word	2115839668
 1902 148c C103703F 		.word	1064305601
 1903 1490 68439F0A 		.word	178209640
 1904 1494 1FB2663F 		.word	1063694879
 1905 1498 F1E8A533 		.word	866511089
 1906 149c FD63553F 		.word	1062560765
 1907 14a0 55E5F952 		.word	1392108885
 1908 14a4 6C1D36BF 		.word	-1086972564
 1909 14a8 3CA7D685 		.word	-2049530052
 1910 14ac 045560BF 		.word	-1084205820
 1911 14b0 131DA90F 		.word	262741267
 1912 14b4 3BA66CBF 		.word	-1083398597
 1913 14b8 F972FA40 		.word	1090155257
 1914 14bc B53F73BF 		.word	-1082966091
 1915 14c0 6D02219D 		.word	-1658781075
 1916 14c4 6F7476BF 		.word	-1082755985
 1917 14c8 604CF748 		.word	1224166496
 1918 14cc F0A277BF 		.word	-1082678544
 1919 14d0 35BF296B 		.word	1797898037
 1920 14d4 98B276BF 		.word	-1082740072
 1921 14d8 E658AC4B 		.word	1269586150
 1922 14dc AEC273BF 		.word	-1082932562
 1923 14e0 06D3A6D5 		.word	-710487290
 1924 14e4 6F4B6EBF 		.word	-1083290769
 1925 14e8 D648B55B 		.word	1538607318
 1926 14ec FAB362BF 		.word	-1084050438
 1927 14f0 17F91C7F 		.word	2132605207
 1928 14f4 38E747BF 		.word	-1085806792
 1929 14f8 FCDAC323 		.word	600038140
 1930 14fc 5E384A3F 		.word	1061828702
 1931 1500 AC25F84F 		.word	1341662636
 1932 1504 0B96613F 		.word	1063360011
ARM GAS  C:\Users\jmori\AppData\Local\Temp\ccFGeXpP.s 			page 70


 1933 1508 93ED6CB0 		.word	-1335038573
 1934 150c A0F6693F 		.word	1063909024
 1935 1510 2B4EED83 		.word	-2081599957
 1936 1514 60D26E3F 		.word	1064227424
 1937 1518 BA6EE747 		.word	1206349498
 1938 151c 74A96F3F 		.word	1064282484
 1939 1520 9540BDDB 		.word	-608354155
 1940 1524 5A626C3F 		.word	1064067674
 1941 1528 E48C729C 		.word	-1670214428
 1942 152c 4856653F 		.word	1063605832
 1943 1530 18A8D768 		.word	1758963736
 1944 1534 A374563F 		.word	1062630563
 1945 1538 4407427D 		.word	2101479236
 1946 153c F9EB1CBF 		.word	-1088623623
 1947 1540 D34D0B8A 		.word	-1978970669
 1948 1544 B8A85BBF 		.word	-1084512072
 1949 1548 8A04E541 		.word	1105527946
 1950 154c 8F3C6ABF 		.word	-1083556721
 1951 1550 CA89D78B 		.word	-1948808758
 1952 1554 097072BF 		.word	-1083019255
 1953 1558 39D5DE40 		.word	1088345401
 1954 155c 305776BF 		.word	-1082763472
 1955 1560 6F36175A 		.word	1511470703
 1956 1564 547178BF 		.word	-1082625708
 1957 1568 C914CD95 		.word	-1781721911
 1958 156c B38B78BF 		.word	-1082618957
 1959 1570 4C0537E3 		.word	-482933428
 1960 1574 32A876BF 		.word	-1082742734
 1961 1578 621D3EE7 		.word	-415359646
 1962 157c DDFC72BF 		.word	-1082983203
 1963 1580 66A0FD74 		.word	1962778726
 1964 1584 1EDC6BBF 		.word	-1083450338
 1965 1588 6D126303 		.word	56824429
 1966 158c 0F0860BF 		.word	-1084225521
 1967 1590 4A1A8B18 		.word	411769418
 1968 1594 D6BD3DBF 		.word	-1086472746
 1969 1598 4AF654EE 		.word	-296421814
 1970 159c 80204F3F 		.word	1062150272
 1971 15a0 C949333F 		.word	1060325833
 1972 15a4 205D613F 		.word	1063345440
 1973 15a8 9A8241EE 		.word	-297696614
 1974 15ac 8DDF673F 		.word	1063772045
 1975 15b0 1B989CC2 		.word	-1029924837
 1976 15b4 D1E96A3F 		.word	1063971281
 1977 15b8 F7742601 		.word	19297527
 1978 15bc 5DF4693F 		.word	1063908445
 1979 15c0 F8B5C93E 		.word	1053406712
 1980 15c4 912E653F 		.word	1063595665
 1981 15c8 6E7392E9 		.word	-376278162
 1982 15cc F05B5A3F 		.word	1062886384
 1983 15d0 16BA91E5 		.word	-443434474
 1984 15d4 84D5353F 		.word	1060492676
 1985 15d8 FDEE5CB4 		.word	-1268977923
 1986 15dc 304052BF 		.word	-1085128656
 1987 15e0 DB002F41 		.word	1093599451
 1988 15e4 E92165BF 		.word	-1083891223
 1989 15e8 B4389878 		.word	2023241908
ARM GAS  C:\Users\jmori\AppData\Local\Temp\ccFGeXpP.s 			page 71


 1990 15ec 9D0370BF 		.word	-1083178083
 1991 15f0 9E8DFB62 		.word	1660652958
 1992 15f4 E35A74BF 		.word	-1082893597
 1993 15f8 C4D8FF2E 		.word	788519108
 1994 15fc A02977BF 		.word	-1082709600
 1995 1600 1AD0DE84 		.word	-2065772518
 1996 1604 402978BF 		.word	-1082644160
 1997 1608 496555D9 		.word	-648714935
 1998 160c 2E4077BF 		.word	-1082703826
 1999 1610 4720B660 		.word	1622548551
 2000 1614 268774BF 		.word	-1082882266
 2001 1618 B878D46F 		.word	1876195512
 2002 161c B94770BF 		.word	-1083160647
 2003 1620 624809BC 		.word	-1140242334
 2004 1624 4EEA65BF 		.word	-1083839922
 2005 1628 F0D22A07 		.word	120247024
 2006 162c EC7354BF 		.word	-1084984340
 2007 1630 039AE6CE 		.word	-823748093
 2008 1634 AFD2243F 		.word	1059377839
 2009 1638 B64CC58E 		.word	-1899672394
 2010 163c 1F03573F 		.word	1062667039
 2011 1640 11D398A3 		.word	-1550265583
 2012 1644 6B5C633F 		.word	1063476331
 2013 1648 01B3D68C 		.word	-1932086527
 2014 164c 0D16683F 		.word	1063785997
 2015 1650 F8DE7312 		.word	309583608
 2016 1654 4F39693F 		.word	1063860559
 2017 1658 15CA2A9D 		.word	-1658140139
 2018 165c C3AE663F 		.word	1063694019
 2019 1660 B4D2EC53 		.word	1408029364
 2020 1664 2CC2603F 		.word	1063305772
 2021 1668 09B9F6BC 		.word	-1124681463
 2022 166c ED31503F 		.word	1062220269
 2023 1670 7AA24D5D 		.word	1565368954
 2024 1674 0C0333BF 		.word	-1087175924
 2025 1678 1032319C 		.word	-1674497520
 2026 167c F51C5BBF 		.word	-1084547851
 2027 1680 6432DDE3 		.word	-472042908
 2028 1684 F64568BF 		.word	-1083685386
 2029 1688 584D2980 		.word	-2144776872
 2030 168c 83B570BF 		.word	-1083132541
 2031 1690 AB36119C 		.word	-1676593493
 2032 1694 2B0674BF 		.word	-1082915285
 2033 1698 3CA28B11 		.word	294363708
 2034 169c 07BE75BF 		.word	-1082802681
 2035 16a0 DEA776BA 		.word	-1166628898
 2036 16a4 5AB075BF 		.word	-1082806182
 2037 16a8 6FD04FC4 		.word	-1001402257
 2038 16ac 1DDF73BF 		.word	-1082925283
 2039 16b0 DDFD777F 		.word	2138570205
 2040 16b4 FC7970BF 		.word	-1083147780
 2041 16b8 185474B3 		.word	-1284221928
 2042 16bc D5B467BF 		.word	-1083722539
 2043 16c0 8B07D2C1 		.word	-1043200117
 2044 16c4 5EE659BF 		.word	-1084627362
 2045 16c8 F3EE53E2 		.word	-497815821
 2046 16cc 94772CBF 		.word	-1087604844
ARM GAS  C:\Users\jmori\AppData\Local\Temp\ccFGeXpP.s 			page 72


 2047 16d0 59919FAC 		.word	-1398828711
 2048 16d4 FD59513F 		.word	1062296061
 2049 16d8 1CC573A3 		.word	-1552693988
 2050 16dc 1A5E613F 		.word	1063345690
 2051 16e0 059E9752 		.word	1385668101
 2052 16e4 5F70673F 		.word	1063743583
 2053 16e8 27E20166 		.word	1711399463
 2054 16ec FA4F6A3F 		.word	1063931898
 2055 16f0 3AFC79A8 		.word	-1468400582
 2056 16f4 7CBE693F 		.word	1063894652
 2057 16f8 127780C8 		.word	-931105006
 2058 16fc 1AD8653F 		.word	1063639066
 2059 1700 4E642C3A 		.word	975987790
 2060 1704 7C215E3F 		.word	1063133564
 2061 1708 8736B4D3 		.word	-743164281
 2062 170c E99D483F 		.word	1061723625
 2063 1710 22ED125E 		.word	1578298658
 2064 1714 53713FBF 		.word	-1086361261
 2065 1718 95B88A00 		.word	9091221
 2066 171c 053A5CBF 		.word	-1084474875
 2067 1720 A6BEA67F 		.word	2141634214
 2068 1724 195167BF 		.word	-1083748071
 2069 1728 03BA42D0 		.word	-800933373
 2070 172c 56916EBF 		.word	-1083272874
 2071 1730 07FCAD1C 		.word	481164295
 2072 1734 D38C71BF 		.word	-1083077421
 2073 1738 889B391B 		.word	456760200
 2074 173c 6F3772BF 		.word	-1083033745
 2075 1740 5EBD6B12 		.word	309050718
 2076 1744 A43571BF 		.word	-1083099740
 2077 1748 5515F456 		.word	1458836821
 2078 174c 38416DBF 		.word	-1083358920
 2079 1750 B0854D2E 		.word	776832432
 2080 1754 967565BF 		.word	-1083869802
 2081 1758 36AD1E49 		.word	1226747190
 2082 175c E6A357BF 		.word	-1084775450
 2083 1760 021188B4 		.word	-1266151166
 2084 1764 F1EA24BF 		.word	-1088099599
 2085 1768 F947FE9E 		.word	-1627502599
 2086 176c DD0D523F 		.word	1062342109
 2087 1770 0228519D 		.word	-1655625726
 2088 1774 9D28623F 		.word	1063397533
 2089 1778 19BD1537 		.word	924171545
 2090 177c DD31693F 		.word	1063858653
 2091 1780 017C2A9C 		.word	-1674937343
 2092 1784 31776D3F 		.word	1064138545
 2093 1788 0D311675 		.word	1964388621
 2094 178c 4B976E3F 		.word	1064212299
 2095 1790 6E2BA125 		.word	631319406
 2096 1794 CC846C3F 		.word	1064076492
 2097 1798 555333EA 		.word	-365735083
 2098 179c AB86673F 		.word	1063749291
 2099 17a0 7564B587 		.word	-2018155403
 2100 17a4 9930603F 		.word	1063268505
 2101 17a8 53CA9C8C 		.word	-1935881645
 2102 17ac 324B4D3F 		.word	1062030130
 2103 17b0 3BB7C81C 		.word	482916155
ARM GAS  C:\Users\jmori\AppData\Local\Temp\ccFGeXpP.s 			page 73


 2104 17b4 08D930BF 		.word	-1087317752
 2105 17b8 DE39942D 		.word	764688862
 2106 17bc 2F2856BF 		.word	-1084872657
 2107 17c0 36802D0A 		.word	170754102
 2108 17c4 96A062BF 		.word	-1084055402
 2109 17c8 D311A8B5 		.word	-1247276589
 2110 17cc 3CF067BF 		.word	-1083707332
 2111 17d0 E958811F 		.word	528570601
 2112 17d4 F06E6ABF 		.word	-1083543824
 2113 17d8 D76191B8 		.word	-1198431785
 2114 17dc E4D369BF 		.word	-1083583516
 2115 17e0 565256CA 		.word	-900312490
 2116 17e4 B32866BF 		.word	-1083823949
 2117 17e8 5AF89155 		.word	1435629658
 2118 17ec 238F5FBF 		.word	-1084256477
 2119 17f0 8674D7C9 		.word	-908626810
 2120 17f4 F3464DBF 		.word	-1085454605
 2121 17f8 8048146D 		.word	1830045824
 2122 17fc D30C333F 		.word	1060310227
 2123 1800 5592A85F 		.word	1604883029
 2124 1804 E6B7583F 		.word	1062778854
 2125 1808 8EE5C7A7 		.word	-1480071794
 2126 180c 64A1653F 		.word	1063625060
 2127 1810 D2099D38 		.word	949815762
 2128 1814 3F4A6D3F 		.word	1064127039
 2129 1818 E031321A 		.word	439497184
 2130 181c 814D713F 		.word	1064390017
 2131 1820 6E4E6114 		.word	341921390
 2132 1824 938B723F 		.word	1064471443
 2133 1828 25DE3A3B 		.word	993713701
 2134 182c F746723F 		.word	1064453879
 2135 1830 016DF95C 		.word	1559850241
 2136 1834 5C8F703F 		.word	1064341340
 2137 1838 C7F7CA69 		.word	1774909383
 2138 183c 4B356B3F 		.word	1063990603
 2139 1840 106DA931 		.word	833187088
 2140 1844 137E633F 		.word	1063484947
 2141 1848 D888C0A1 		.word	-1581217576
 2142 184c 90A8553F 		.word	1062578320
 2143 1850 8F47FDB8 		.word	-1191360625
 2144 1854 3D5A313F 		.word	1060198973
 2145 1858 CAD48C63 		.word	1670173898
 2146 185c 1D2B46BF 		.word	-1085920483
 2147 1860 03776BA3 		.word	-1553238269
 2148 1864 23EC56BF 		.word	-1084822493
 2149 1868 AC938C04 		.word	76321708
 2150 186c 4BDE5DBF 		.word	-1084367285
 2151 1870 FCB7B252 		.word	1387444220
 2152 1874 AD1F5FBF 		.word	-1084285011
 2153 1878 999E8045 		.word	1166057113
 2154 187c 9C7B5ABF 		.word	-1084589156
 2155 1880 1D984B4A 		.word	1246468125
 2156 1884 785950BF 		.word	-1085253256
 2157 1888 A9398536 		.word	914700713
 2158 188c D01D1BBF 		.word	-1088741936
 2159 1890 3E36D4E1 		.word	-506186178
 2160 1894 FA0B503F 		.word	1062210554
ARM GAS  C:\Users\jmori\AppData\Local\Temp\ccFGeXpP.s 			page 74


 2161 1898 E983C663 		.word	1673954281
 2162 189c B98F613F 		.word	1063358393
 2163 18a0 0862522D 		.word	760373768
 2164 18a4 D4D26A3F 		.word	1063965396
 2165 18a8 BBF20738 		.word	940044987
 2166 18ac D072713F 		.word	1064399568
 2167 18b0 2332F750 		.word	1358377507
 2168 18b4 337F743F 		.word	1064599347
 2169 18b8 3F7D1F56 		.word	1444904255
 2170 18bc ED43763F 		.word	1064715245
 2171 18c0 EA3C3570 		.word	1882537194
 2172 18c4 2298763F 		.word	1064736802
 2173 18c8 84219307 		.word	127082884
 2174 18cc D778753F 		.word	1064663255
 2175 18d0 515A705C 		.word	1550867025
 2176 18d4 6209733F 		.word	1064503650
 2177 18d8 968228BB 		.word	-1154973034
 2178 18dc 581F6F3F 		.word	1064247128
 2179 18e0 2A3AD616 		.word	383138346
 2180 18e4 85D9663F 		.word	1063704965
 2181 18e8 B16436FE 		.word	-29989711
 2182 18ec B64B5C3F 		.word	1063013302
 2183 18f0 65F180D3 		.word	-746524315
 2184 18f4 AFCF473F 		.word	1061670831
 2185 18f8 964BD86B 		.word	1809337238
 2186 18fc C4471BBF 		.word	-1088731196
 2187 1900 041CA7A8 		.word	-1465443324
 2188 1904 791E46BF 		.word	-1085923719
 2189 1908 3796E70E 		.word	250058295
 2190 190c 6C3C4EBF 		.word	-1085391764
 2191 1910 A5ECEB32 		.word	854322341
 2192 1914 09C84ABF 		.word	-1085618167
 2193 1918 1430EA71 		.word	1911173140
 2194 191c 5AF237BF 		.word	-1086852518
 2195 1920 22778ED7 		.word	-678529246
 2196 1924 3B94393F 		.word	1060738107
 2197 1928 78EF1E1B 		.word	455012216
 2198 192c BD88563F 		.word	1062635709
 2199 1930 A37C143C 		.word	1007975587
 2200 1934 D467643F 		.word	1063544788
 2201 1938 49B16826 		.word	644395337
 2202 193c EDAE6D3F 		.word	1064152813
 2203 1940 BECE4FC4 		.word	-1001402690
 2204 1944 9C12733F 		.word	1064506012
 2205 1948 92CC3976 		.word	1983499410
 2206 194c 6B74763F 		.word	1064727659
 2207 1950 F9C82142 		.word	1109510393
 2208 1954 78A0783F 		.word	1064870008
 2209 1958 6F0BDDB4 		.word	-1260582033
 2210 195c 6D58793F 		.word	1064917101
 2211 1960 0B2F5B81 		.word	-2124730613
 2212 1964 6E82783F 		.word	1064862318
 2213 1968 579D1DD9 		.word	-652370601
 2214 196c D92B763F 		.word	1064709081
 2215 1970 629BE1F9 		.word	-102655134
 2216 1974 B988723F 		.word	1064470713
 2217 1978 60992351 		.word	1361287520
ARM GAS  C:\Users\jmori\AppData\Local\Temp\ccFGeXpP.s 			page 75


 2218 197c F7DC6B3F 		.word	1064033527
 2219 1980 D4A445D6 		.word	-700078892
 2220 1984 4697613F 		.word	1063360326
 2221 1988 96C23564 		.word	1681244822
 2222 198c A4E64C3F 		.word	1062004388
 2223 1990 BF1ADF87 		.word	-2015421761
 2224 1994 A0EE31BF 		.word	-1087246688
 2225 1998 95BF173C 		.word	1008189333
 2226 199c 55CD53BF 		.word	-1085026987
 2227 19a0 56E63A97 		.word	-1757747626
 2228 19a4 1E0A5EBF 		.word	-1084356066
 2229 19a8 05A06923 		.word	594124805
 2230 19ac 711D61BF 		.word	-1084154511
 2231 19b0 423F9B07 		.word	127614786
 2232 19b4 B00160BF 		.word	-1084227152
 2233 19b8 851A717C 		.word	2087787141
 2234 19bc 06AD57BF 		.word	-1084773114
 2235 19c0 3A721F39 		.word	958362170
 2236 19c4 564844BF 		.word	-1086044074
 2237 19c8 413C955A 		.word	1519729729
 2238 19cc E2663C3F 		.word	1060923106
 2239 19d0 55C614F0 		.word	-267073963
 2240 19d4 45225A3F 		.word	1062871621
 2241 19d8 1ADD0B86 		.word	-2046042854
 2242 19dc BC64663F 		.word	1063675068
 2243 19e0 C1C22C9A 		.word	-1708342591
 2244 19e4 55696E3F 		.word	1064200533
 2245 19e8 70C24F24 		.word	609206896
 2246 19ec 8009723F 		.word	1064438144
 2247 19f0 8756D355 		.word	1439913607
 2248 19f4 5F40733F 		.word	1064517727
 2249 19f8 6FFCB8D9 		.word	-642188177
 2250 19fc B389723F 		.word	1064470963
 2251 1a00 8E2EA8C7 		.word	-945279346
 2252 1a04 887A6F3F 		.word	1064270472
 2253 1a08 39B4CEB3 		.word	-1278299079
 2254 1a0c E9BE653F 		.word	1063632617
 2255 1a10 78A19C96 		.word	-1768119944
 2256 1a14 0B87503F 		.word	1062242059
 2257 1a18 AB6E2D03 		.word	53309099
 2258 1a1c EE8250BF 		.word	-1085242642
 2259 1a20 7E8D9F49 		.word	1235193214
 2260 1a24 0DD66ABF 		.word	-1083517427
 2261 1a28 1F1CD170 		.word	1892752415
 2262 1a2c 082777BF 		.word	-1082710264
 2263 1a30 D804B210 		.word	280102104
 2264 1a34 DB5880BF 		.word	-1082107685
 2265 1a38 EA1E7165 		.word	1701912298
 2266 1a3c 6FB484BF 		.word	-1081822097
 2267 1a40 DEA718E0 		.word	-535255074
 2268 1a44 715B88BF 		.word	-1081582735
 2269 1a48 2FBF5D7E 		.word	2120073007
 2270 1a4c 110F8BBF 		.word	-1081405679
 2271 1a50 E04822E0 		.word	-534624032
 2272 1a54 E9A18CBF 		.word	-1081302551
 2273 1a58 6BC583B5 		.word	-1249655445
 2274 1a5c 64FA8CBF 		.word	-1081279900
ARM GAS  C:\Users\jmori\AppData\Local\Temp\ccFGeXpP.s 			page 76


 2275 1a60 EC96A689 		.word	-1985571092
 2276 1a64 7C148CBF 		.word	-1081338756
 2277 1a68 CDB5F366 		.word	1727247821
 2278 1a6c 57028ABF 		.word	-1081474473
 2279 1a70 5CC43975 		.word	1966720092
 2280 1a74 B4E886BF 		.word	-1081677644
 2281 1a78 B8E92D22 		.word	573434296
 2282 1a7c 7EFD82BF 		.word	-1081934466
 2283 1a80 191852D9 		.word	-648931303
 2284 1a84 EB027DBF 		.word	-1082326293
 2285 1a88 9F0184C3 		.word	-1014759009
 2286 1a8c AF7873BF 		.word	-1082951505
 2287 1a90 7321F586 		.word	-2030755469
 2288 1a94 C9D963BF 		.word	-1083975223
 2289 1a98 93B2B1B8 		.word	-1196313965
 2290 1a9c 6FF92CBF 		.word	-1087571601
 2291 1aa0 E05CE6A5 		.word	-1511629600
 2292 1aa4 46825C3F 		.word	1063027270
 2293 1aa8 BF4E6182 		.word	-2107552065
 2294 1aac 009F6B3F 		.word	1064017664
 2295 1ab0 366A8D8C 		.word	-1936889290
 2296 1ab4 AFE6723F 		.word	1064494767
 2297 1ab8 0BB7906A 		.word	1787868939
 2298 1abc 5648763F 		.word	1064716374
 2299 1ac0 B1385DE5 		.word	-446875471
 2300 1ac4 ADF6773F 		.word	1064826541
 2301 1ac8 95B3DA59 		.word	1507505045
 2302 1acc F210783F 		.word	1064833266
 2303 1ad0 A2840656 		.word	1443267746
 2304 1ad4 54CE763F 		.word	1064750676
 2305 1ad8 3900041A 		.word	436469817
 2306 1adc 7D77743F 		.word	1064597373
 2307 1ae0 86877CE8 		.word	-394492026
 2308 1ae4 2B5F713F 		.word	1064394539
 2309 1ae8 9AD51B81 		.word	-2128882278
 2310 1aec 51DB803F 		.word	1065409361
 2311              		.type	blockSize, %object
 2312              		.size	blockSize, 4
 2313              	blockSize:
 2314 1af0 C8000000 		.word	200
 2315              		.type	numBlocks, %object
 2316              		.size	numBlocks, 4
 2317              	numBlocks:
 2318 1af4 01000000 		.word	1
 2319              		.section	.rodata.str1.4,"aMS",%progbits,1
 2320              		.align	2
 2321              	.LC0:
 2322 0000 616C6172 		.ascii	"alarmeFC\000"
 2322      6D654643 
 2322      00
 2323              		.bss
 2324              		.align	2
 2325              		.set	.LANCHOR1,. + 0
 2326              		.set	.LANCHOR3,. + 4344
 2327              		.type	bpm, %object
 2328              		.size	bpm, 4
 2329              	bpm:
ARM GAS  C:\Users\jmori\AppData\Local\Temp\ccFGeXpP.s 			page 77


 2330 0000 00000000 		.space	4
 2331              		.type	flag, %object
 2332              		.size	flag, 4
 2333              	flag:
 2334 0004 00000000 		.space	4
 2335              		.type	NbreSec, %object
 2336              		.size	NbreSec, 4
 2337              	NbreSec:
 2338 0008 00000000 		.space	4
 2339              		.type	Interface, %object
 2340              		.size	Interface, 4
 2341              	Interface:
 2342 000c 00000000 		.space	4
 2343              		.type	firStateF32, %object
 2344              		.size	firStateF32, 4240
 2345              	firStateF32:
 2346 0010 00000000 		.space	4240
 2346      00000000 
 2346      00000000 
 2346      00000000 
 2346      00000000 
 2347              		.type	R, %object
 2348              		.size	R, 4
 2349              	R:
 2350 10a0 00000000 		.space	4
 2351              		.type	SpO2, %object
 2352              		.size	SpO2, 4
 2353              	SpO2:
 2354 10a4 00000000 		.space	4
 2355              		.type	NbreMax, %object
 2356              		.size	NbreMax, 4
 2357              	NbreMax:
 2358 10a8 00000000 		.space	4
 2359              		.type	Index, %object
 2360              		.size	Index, 1
 2361              	Index:
 2362 10ac 00       		.space	1
 2363 10ad 000000   		.space	3
 2364              		.type	Circulaire, %object
 2365              		.size	Circulaire, 240
 2366              	Circulaire:
 2367 10b0 00000000 		.space	240
 2367      00000000 
 2367      00000000 
 2367      00000000 
 2367      00000000 
 2368              		.text
 2369              	.Letext0:
 2370              		.file 4 "c:\\program files (x86)\\cypress\\psoc creator\\4.4\\psoc creator\\import\\gnu\\arm\\5.4.
 2371              		.file 5 "c:\\program files (x86)\\cypress\\psoc creator\\4.4\\psoc creator\\import\\gnu\\arm\\5.4.
 2372              		.file 6 "Generated_Source\\PSoC6\\pdl\\devices/psoc6/include/ip/cyip_gpio.h"
 2373              		.file 7 "Generated_Source\\PSoC6\\pdl\\devices/psoc6/include/psoc6_01_config.h"
 2374              		.file 8 "Generated_Source\\PSoC6\\pdl\\drivers/peripheral/device/cy_device.h"
 2375              		.file 9 "Generated_Source\\PSoC6\\pdl\\drivers/peripheral/syslib/cy_syslib.h"
 2376              		.file 10 "..\\CMSIS\\DSP\\Include/arm_math.h"
 2377              		.file 11 "Generated_Source\\PSoC6\\pdl\\rtos/FreeRTOS/10.0.1/Source/portable/GCC/CM4F/portmacro.h"
 2378              		.file 12 "..\\CMSIS\\Core\\Include/core_cm4.h"
ARM GAS  C:\Users\jmori\AppData\Local\Temp\ccFGeXpP.s 			page 78


 2379              		.file 13 "Generated_Source\\PSoC6\\pdl\\rtos/FreeRTOS/10.0.1/Source/include/task.h"
 2380              		.file 14 "./system_psoc6.h"
 2381              		.section	.debug_info,"",%progbits
 2382              	.Ldebug_info0:
 2383 0000 4B0E0000 		.4byte	0xe4b
 2384 0004 0400     		.2byte	0x4
 2385 0006 00000000 		.4byte	.Ldebug_abbrev0
 2386 000a 04       		.byte	0x4
 2387 000b 01       		.uleb128 0x1
 2388 000c 06060000 		.4byte	.LASF193
 2389 0010 0C       		.byte	0xc
 2390 0011 C00A0000 		.4byte	.LASF194
 2391 0015 8A070000 		.4byte	.LASF195
 2392 0019 00000000 		.4byte	.Ldebug_ranges0+0
 2393 001d 00000000 		.4byte	0
 2394 0021 00000000 		.4byte	.Ldebug_line0
 2395 0025 02       		.uleb128 0x2
 2396 0026 04       		.byte	0x4
 2397 0027 04       		.byte	0x4
 2398 0028 C1060000 		.4byte	.LASF0
 2399 002c 02       		.uleb128 0x2
 2400 002d 02       		.byte	0x2
 2401 002e 05       		.byte	0x5
 2402 002f F1070000 		.4byte	.LASF1
 2403 0033 02       		.uleb128 0x2
 2404 0034 01       		.byte	0x1
 2405 0035 06       		.byte	0x6
 2406 0036 E1010000 		.4byte	.LASF2
 2407 003a 03       		.uleb128 0x3
 2408 003b BD000000 		.4byte	.LASF4
 2409 003f 04       		.byte	0x4
 2410 0040 1D       		.byte	0x1d
 2411 0041 45000000 		.4byte	0x45
 2412 0045 02       		.uleb128 0x2
 2413 0046 01       		.byte	0x1
 2414 0047 08       		.byte	0x8
 2415 0048 1E000000 		.4byte	.LASF3
 2416 004c 03       		.uleb128 0x3
 2417 004d 50030000 		.4byte	.LASF5
 2418 0051 04       		.byte	0x4
 2419 0052 29       		.byte	0x29
 2420 0053 2C000000 		.4byte	0x2c
 2421 0057 03       		.uleb128 0x3
 2422 0058 CF080000 		.4byte	.LASF6
 2423 005c 04       		.byte	0x4
 2424 005d 2B       		.byte	0x2b
 2425 005e 62000000 		.4byte	0x62
 2426 0062 02       		.uleb128 0x2
 2427 0063 02       		.byte	0x2
 2428 0064 07       		.byte	0x7
 2429 0065 4E090000 		.4byte	.LASF7
 2430 0069 03       		.uleb128 0x3
 2431 006a FE080000 		.4byte	.LASF8
 2432 006e 04       		.byte	0x4
 2433 006f 3F       		.byte	0x3f
 2434 0070 74000000 		.4byte	0x74
 2435 0074 02       		.uleb128 0x2
ARM GAS  C:\Users\jmori\AppData\Local\Temp\ccFGeXpP.s 			page 79


 2436 0075 04       		.byte	0x4
 2437 0076 05       		.byte	0x5
 2438 0077 67020000 		.4byte	.LASF9
 2439 007b 03       		.uleb128 0x3
 2440 007c 1B030000 		.4byte	.LASF10
 2441 0080 04       		.byte	0x4
 2442 0081 41       		.byte	0x41
 2443 0082 86000000 		.4byte	0x86
 2444 0086 02       		.uleb128 0x2
 2445 0087 04       		.byte	0x4
 2446 0088 07       		.byte	0x7
 2447 0089 EE030000 		.4byte	.LASF11
 2448 008d 02       		.uleb128 0x2
 2449 008e 08       		.byte	0x8
 2450 008f 05       		.byte	0x5
 2451 0090 D3010000 		.4byte	.LASF12
 2452 0094 02       		.uleb128 0x2
 2453 0095 08       		.byte	0x8
 2454 0096 07       		.byte	0x7
 2455 0097 3E010000 		.4byte	.LASF13
 2456 009b 04       		.uleb128 0x4
 2457 009c 04       		.byte	0x4
 2458 009d 05       		.byte	0x5
 2459 009e 696E7400 		.ascii	"int\000"
 2460 00a2 02       		.uleb128 0x2
 2461 00a3 04       		.byte	0x4
 2462 00a4 07       		.byte	0x7
 2463 00a5 89030000 		.4byte	.LASF14
 2464 00a9 03       		.uleb128 0x3
 2465 00aa 090A0000 		.4byte	.LASF15
 2466 00ae 05       		.byte	0x5
 2467 00af 18       		.byte	0x18
 2468 00b0 3A000000 		.4byte	0x3a
 2469 00b4 03       		.uleb128 0x3
 2470 00b5 CB010000 		.4byte	.LASF16
 2471 00b9 05       		.byte	0x5
 2472 00ba 20       		.byte	0x20
 2473 00bb 4C000000 		.4byte	0x4c
 2474 00bf 03       		.uleb128 0x3
 2475 00c0 8C040000 		.4byte	.LASF17
 2476 00c4 05       		.byte	0x5
 2477 00c5 24       		.byte	0x24
 2478 00c6 57000000 		.4byte	0x57
 2479 00ca 03       		.uleb128 0x3
 2480 00cb 47070000 		.4byte	.LASF18
 2481 00cf 05       		.byte	0x5
 2482 00d0 2C       		.byte	0x2c
 2483 00d1 69000000 		.4byte	0x69
 2484 00d5 03       		.uleb128 0x3
 2485 00d6 5D080000 		.4byte	.LASF19
 2486 00da 05       		.byte	0x5
 2487 00db 30       		.byte	0x30
 2488 00dc 7B000000 		.4byte	0x7b
 2489 00e0 02       		.uleb128 0x2
 2490 00e1 04       		.byte	0x4
 2491 00e2 07       		.byte	0x7
 2492 00e3 4E050000 		.4byte	.LASF20
ARM GAS  C:\Users\jmori\AppData\Local\Temp\ccFGeXpP.s 			page 80


 2493 00e7 05       		.uleb128 0x5
 2494 00e8 D5000000 		.4byte	0xd5
 2495 00ec 06       		.uleb128 0x6
 2496 00ed E7000000 		.4byte	0xe7
 2497 00f1 07       		.uleb128 0x7
 2498 00f2 EC000000 		.4byte	0xec
 2499 00f6 01010000 		.4byte	0x101
 2500 00fa 08       		.uleb128 0x8
 2501 00fb E0000000 		.4byte	0xe0
 2502 00ff 0F       		.byte	0xf
 2503 0100 00       		.byte	0
 2504 0101 09       		.uleb128 0x9
 2505 0102 80       		.byte	0x80
 2506 0103 06       		.byte	0x6
 2507 0104 22       		.byte	0x22
 2508 0105 D5010000 		.4byte	0x1d5
 2509 0109 0A       		.uleb128 0xa
 2510 010a 4F555400 		.ascii	"OUT\000"
 2511 010e 06       		.byte	0x6
 2512 010f 23       		.byte	0x23
 2513 0110 E7000000 		.4byte	0xe7
 2514 0114 00       		.byte	0
 2515 0115 0B       		.uleb128 0xb
 2516 0116 B9060000 		.4byte	.LASF21
 2517 011a 06       		.byte	0x6
 2518 011b 24       		.byte	0x24
 2519 011c E7000000 		.4byte	0xe7
 2520 0120 04       		.byte	0x4
 2521 0121 0B       		.uleb128 0xb
 2522 0122 DA080000 		.4byte	.LASF22
 2523 0126 06       		.byte	0x6
 2524 0127 25       		.byte	0x25
 2525 0128 E7000000 		.4byte	0xe7
 2526 012c 08       		.byte	0x8
 2527 012d 0B       		.uleb128 0xb
 2528 012e A4030000 		.4byte	.LASF23
 2529 0132 06       		.byte	0x6
 2530 0133 26       		.byte	0x26
 2531 0134 E7000000 		.4byte	0xe7
 2532 0138 0C       		.byte	0xc
 2533 0139 0A       		.uleb128 0xa
 2534 013a 494E00   		.ascii	"IN\000"
 2535 013d 06       		.byte	0x6
 2536 013e 27       		.byte	0x27
 2537 013f EC000000 		.4byte	0xec
 2538 0143 10       		.byte	0x10
 2539 0144 0B       		.uleb128 0xb
 2540 0145 37090000 		.4byte	.LASF24
 2541 0149 06       		.byte	0x6
 2542 014a 28       		.byte	0x28
 2543 014b E7000000 		.4byte	0xe7
 2544 014f 14       		.byte	0x14
 2545 0150 0B       		.uleb128 0xb
 2546 0151 430A0000 		.4byte	.LASF25
 2547 0155 06       		.byte	0x6
 2548 0156 29       		.byte	0x29
 2549 0157 E7000000 		.4byte	0xe7
ARM GAS  C:\Users\jmori\AppData\Local\Temp\ccFGeXpP.s 			page 81


 2550 015b 18       		.byte	0x18
 2551 015c 0B       		.uleb128 0xb
 2552 015d 49040000 		.4byte	.LASF26
 2553 0161 06       		.byte	0x6
 2554 0162 2A       		.byte	0x2a
 2555 0163 EC000000 		.4byte	0xec
 2556 0167 1C       		.byte	0x1c
 2557 0168 0B       		.uleb128 0xb
 2558 0169 1C050000 		.4byte	.LASF27
 2559 016d 06       		.byte	0x6
 2560 016e 2B       		.byte	0x2b
 2561 016f E7000000 		.4byte	0xe7
 2562 0173 20       		.byte	0x20
 2563 0174 0B       		.uleb128 0xb
 2564 0175 13050000 		.4byte	.LASF28
 2565 0179 06       		.byte	0x6
 2566 017a 2C       		.byte	0x2c
 2567 017b E7000000 		.4byte	0xe7
 2568 017f 24       		.byte	0x24
 2569 0180 0A       		.uleb128 0xa
 2570 0181 43464700 		.ascii	"CFG\000"
 2571 0185 06       		.byte	0x6
 2572 0186 2D       		.byte	0x2d
 2573 0187 E7000000 		.4byte	0xe7
 2574 018b 28       		.byte	0x28
 2575 018c 0B       		.uleb128 0xb
 2576 018d 75010000 		.4byte	.LASF29
 2577 0191 06       		.byte	0x6
 2578 0192 2E       		.byte	0x2e
 2579 0193 E7000000 		.4byte	0xe7
 2580 0197 2C       		.byte	0x2c
 2581 0198 0B       		.uleb128 0xb
 2582 0199 3B0A0000 		.4byte	.LASF30
 2583 019d 06       		.byte	0x6
 2584 019e 2F       		.byte	0x2f
 2585 019f E7000000 		.4byte	0xe7
 2586 01a3 30       		.byte	0x30
 2587 01a4 0B       		.uleb128 0xb
 2588 01a5 F0060000 		.4byte	.LASF31
 2589 01a9 06       		.byte	0x6
 2590 01aa 30       		.byte	0x30
 2591 01ab E7000000 		.4byte	0xe7
 2592 01af 34       		.byte	0x34
 2593 01b0 0B       		.uleb128 0xb
 2594 01b1 F5080000 		.4byte	.LASF32
 2595 01b5 06       		.byte	0x6
 2596 01b6 31       		.byte	0x31
 2597 01b7 EC000000 		.4byte	0xec
 2598 01bb 38       		.byte	0x38
 2599 01bc 0B       		.uleb128 0xb
 2600 01bd D8060000 		.4byte	.LASF33
 2601 01c1 06       		.byte	0x6
 2602 01c2 32       		.byte	0x32
 2603 01c3 E7000000 		.4byte	0xe7
 2604 01c7 3C       		.byte	0x3c
 2605 01c8 0B       		.uleb128 0xb
 2606 01c9 F8060000 		.4byte	.LASF34
ARM GAS  C:\Users\jmori\AppData\Local\Temp\ccFGeXpP.s 			page 82


 2607 01cd 06       		.byte	0x6
 2608 01ce 33       		.byte	0x33
 2609 01cf DA010000 		.4byte	0x1da
 2610 01d3 40       		.byte	0x40
 2611 01d4 00       		.byte	0
 2612 01d5 05       		.uleb128 0x5
 2613 01d6 F1000000 		.4byte	0xf1
 2614 01da 06       		.uleb128 0x6
 2615 01db D5010000 		.4byte	0x1d5
 2616 01df 03       		.uleb128 0x3
 2617 01e0 C7000000 		.4byte	.LASF35
 2618 01e4 06       		.byte	0x6
 2619 01e5 34       		.byte	0x34
 2620 01e6 01010000 		.4byte	0x101
 2621 01ea 0C       		.uleb128 0xc
 2622 01eb 2440     		.2byte	0x4024
 2623 01ed 06       		.byte	0x6
 2624 01ee 39       		.byte	0x39
 2625 01ef 75020000 		.4byte	0x275
 2626 01f3 0A       		.uleb128 0xa
 2627 01f4 50525400 		.ascii	"PRT\000"
 2628 01f8 06       		.byte	0x6
 2629 01f9 3A       		.byte	0x3a
 2630 01fa 75020000 		.4byte	0x275
 2631 01fe 00       		.byte	0
 2632 01ff 0D       		.uleb128 0xd
 2633 0200 7C080000 		.4byte	.LASF36
 2634 0204 06       		.byte	0x6
 2635 0205 3B       		.byte	0x3b
 2636 0206 EC000000 		.4byte	0xec
 2637 020a 0040     		.2byte	0x4000
 2638 020c 0D       		.uleb128 0xd
 2639 020d 88080000 		.4byte	.LASF37
 2640 0211 06       		.byte	0x6
 2641 0212 3C       		.byte	0x3c
 2642 0213 EC000000 		.4byte	0xec
 2643 0217 0440     		.2byte	0x4004
 2644 0219 0D       		.uleb128 0xd
 2645 021a 94080000 		.4byte	.LASF38
 2646 021e 06       		.byte	0x6
 2647 021f 3D       		.byte	0x3d
 2648 0220 EC000000 		.4byte	0xec
 2649 0224 0840     		.2byte	0x4008
 2650 0226 0D       		.uleb128 0xd
 2651 0227 A0080000 		.4byte	.LASF39
 2652 022b 06       		.byte	0x6
 2653 022c 3E       		.byte	0x3e
 2654 022d EC000000 		.4byte	0xec
 2655 0231 0C40     		.2byte	0x400c
 2656 0233 0D       		.uleb128 0xd
 2657 0234 43050000 		.4byte	.LASF40
 2658 0238 06       		.byte	0x6
 2659 0239 3F       		.byte	0x3f
 2660 023a EC000000 		.4byte	0xec
 2661 023e 1040     		.2byte	0x4010
 2662 0240 0D       		.uleb128 0xd
 2663 0241 26080000 		.4byte	.LASF41
ARM GAS  C:\Users\jmori\AppData\Local\Temp\ccFGeXpP.s 			page 83


 2664 0245 06       		.byte	0x6
 2665 0246 40       		.byte	0x40
 2666 0247 E7000000 		.4byte	0xe7
 2667 024b 1440     		.2byte	0x4014
 2668 024d 0D       		.uleb128 0xd
 2669 024e 30010000 		.4byte	.LASF42
 2670 0252 06       		.byte	0x6
 2671 0253 41       		.byte	0x41
 2672 0254 E7000000 		.4byte	0xe7
 2673 0258 1840     		.2byte	0x4018
 2674 025a 0D       		.uleb128 0xd
 2675 025b 27090000 		.4byte	.LASF43
 2676 025f 06       		.byte	0x6
 2677 0260 42       		.byte	0x42
 2678 0261 EC000000 		.4byte	0xec
 2679 0265 1C40     		.2byte	0x401c
 2680 0267 0D       		.uleb128 0xd
 2681 0268 19040000 		.4byte	.LASF44
 2682 026c 06       		.byte	0x6
 2683 026d 43       		.byte	0x43
 2684 026e E7000000 		.4byte	0xe7
 2685 0272 2040     		.2byte	0x4020
 2686 0274 00       		.byte	0
 2687 0275 07       		.uleb128 0x7
 2688 0276 DF010000 		.4byte	0x1df
 2689 027a 85020000 		.4byte	0x285
 2690 027e 08       		.uleb128 0x8
 2691 027f E0000000 		.4byte	0xe0
 2692 0283 7F       		.byte	0x7f
 2693 0284 00       		.byte	0
 2694 0285 03       		.uleb128 0x3
 2695 0286 8A050000 		.4byte	.LASF45
 2696 028a 06       		.byte	0x6
 2697 028b 44       		.byte	0x44
 2698 028c EA010000 		.4byte	0x1ea
 2699 0290 0E       		.uleb128 0xe
 2700 0291 96030000 		.4byte	.LASF46
 2701 0295 07       		.byte	0x7
 2702 0296 3106     		.2byte	0x631
 2703 0298 DF010000 		.4byte	0x1df
 2704 029c 0E       		.uleb128 0xe
 2705 029d 4D0A0000 		.4byte	.LASF47
 2706 02a1 07       		.byte	0x7
 2707 02a2 3206     		.2byte	0x632
 2708 02a4 85020000 		.4byte	0x285
 2709 02a8 02       		.uleb128 0x2
 2710 02a9 08       		.byte	0x8
 2711 02aa 04       		.byte	0x4
 2712 02ab 6B080000 		.4byte	.LASF48
 2713 02af 09       		.uleb128 0x9
 2714 02b0 B8       		.byte	0xb8
 2715 02b1 08       		.byte	0x8
 2716 02b2 34       		.byte	0x34
 2717 02b3 C0060000 		.4byte	0x6c0
 2718 02b7 0B       		.uleb128 0xb
 2719 02b8 10010000 		.4byte	.LASF49
 2720 02bc 08       		.byte	0x8
ARM GAS  C:\Users\jmori\AppData\Local\Temp\ccFGeXpP.s 			page 84


 2721 02bd 37       		.byte	0x37
 2722 02be D5000000 		.4byte	0xd5
 2723 02c2 00       		.byte	0
 2724 02c3 0B       		.uleb128 0xb
 2725 02c4 10030000 		.4byte	.LASF50
 2726 02c8 08       		.byte	0x8
 2727 02c9 38       		.byte	0x38
 2728 02ca D5000000 		.4byte	0xd5
 2729 02ce 04       		.byte	0x4
 2730 02cf 0B       		.uleb128 0xb
 2731 02d0 85020000 		.4byte	.LASF51
 2732 02d4 08       		.byte	0x8
 2733 02d5 39       		.byte	0x39
 2734 02d6 D5000000 		.4byte	0xd5
 2735 02da 08       		.byte	0x8
 2736 02db 0B       		.uleb128 0xb
 2737 02dc 39070000 		.4byte	.LASF52
 2738 02e0 08       		.byte	0x8
 2739 02e1 3A       		.byte	0x3a
 2740 02e2 D5000000 		.4byte	0xd5
 2741 02e6 0C       		.byte	0xc
 2742 02e7 0B       		.uleb128 0xb
 2743 02e8 1E020000 		.4byte	.LASF53
 2744 02ec 08       		.byte	0x8
 2745 02ed 3B       		.byte	0x3b
 2746 02ee D5000000 		.4byte	0xd5
 2747 02f2 10       		.byte	0x10
 2748 02f3 0B       		.uleb128 0xb
 2749 02f4 4F020000 		.4byte	.LASF54
 2750 02f8 08       		.byte	0x8
 2751 02f9 3C       		.byte	0x3c
 2752 02fa D5000000 		.4byte	0xd5
 2753 02fe 14       		.byte	0x14
 2754 02ff 0B       		.uleb128 0xb
 2755 0300 10040000 		.4byte	.LASF55
 2756 0304 08       		.byte	0x8
 2757 0305 3D       		.byte	0x3d
 2758 0306 D5000000 		.4byte	0xd5
 2759 030a 18       		.byte	0x18
 2760 030b 0B       		.uleb128 0xb
 2761 030c 99000000 		.4byte	.LASF56
 2762 0310 08       		.byte	0x8
 2763 0311 3E       		.byte	0x3e
 2764 0312 D5000000 		.4byte	0xd5
 2765 0316 1C       		.byte	0x1c
 2766 0317 0B       		.uleb128 0xb
 2767 0318 900A0000 		.4byte	.LASF57
 2768 031c 08       		.byte	0x8
 2769 031d 3F       		.byte	0x3f
 2770 031e D5000000 		.4byte	0xd5
 2771 0322 20       		.byte	0x20
 2772 0323 0B       		.uleb128 0xb
 2773 0324 DB050000 		.4byte	.LASF58
 2774 0328 08       		.byte	0x8
 2775 0329 40       		.byte	0x40
 2776 032a D5000000 		.4byte	0xd5
 2777 032e 24       		.byte	0x24
ARM GAS  C:\Users\jmori\AppData\Local\Temp\ccFGeXpP.s 			page 85


 2778 032f 0B       		.uleb128 0xb
 2779 0330 25050000 		.4byte	.LASF59
 2780 0334 08       		.byte	0x8
 2781 0335 43       		.byte	0x43
 2782 0336 A9000000 		.4byte	0xa9
 2783 033a 28       		.byte	0x28
 2784 033b 0B       		.uleb128 0xb
 2785 033c 7F000000 		.4byte	.LASF60
 2786 0340 08       		.byte	0x8
 2787 0341 44       		.byte	0x44
 2788 0342 A9000000 		.4byte	0xa9
 2789 0346 29       		.byte	0x29
 2790 0347 0B       		.uleb128 0xb
 2791 0348 860A0000 		.4byte	.LASF61
 2792 034c 08       		.byte	0x8
 2793 034d 45       		.byte	0x45
 2794 034e A9000000 		.4byte	0xa9
 2795 0352 2A       		.byte	0x2a
 2796 0353 0B       		.uleb128 0xb
 2797 0354 CD050000 		.4byte	.LASF62
 2798 0358 08       		.byte	0x8
 2799 0359 46       		.byte	0x46
 2800 035a A9000000 		.4byte	0xa9
 2801 035e 2B       		.byte	0x2b
 2802 035f 0B       		.uleb128 0xb
 2803 0360 80040000 		.4byte	.LASF63
 2804 0364 08       		.byte	0x8
 2805 0365 47       		.byte	0x47
 2806 0366 A9000000 		.4byte	0xa9
 2807 036a 2C       		.byte	0x2c
 2808 036b 0B       		.uleb128 0xb
 2809 036c 10090000 		.4byte	.LASF64
 2810 0370 08       		.byte	0x8
 2811 0371 48       		.byte	0x48
 2812 0372 A9000000 		.4byte	0xa9
 2813 0376 2D       		.byte	0x2d
 2814 0377 0B       		.uleb128 0xb
 2815 0378 27020000 		.4byte	.LASF65
 2816 037c 08       		.byte	0x8
 2817 037d 49       		.byte	0x49
 2818 037e A9000000 		.4byte	0xa9
 2819 0382 2E       		.byte	0x2e
 2820 0383 0B       		.uleb128 0xb
 2821 0384 37050000 		.4byte	.LASF66
 2822 0388 08       		.byte	0x8
 2823 0389 4A       		.byte	0x4a
 2824 038a A9000000 		.4byte	0xa9
 2825 038e 2F       		.byte	0x2f
 2826 038f 0B       		.uleb128 0xb
 2827 0390 A5050000 		.4byte	.LASF67
 2828 0394 08       		.byte	0x8
 2829 0395 4B       		.byte	0x4b
 2830 0396 A9000000 		.4byte	0xa9
 2831 039a 30       		.byte	0x30
 2832 039b 0B       		.uleb128 0xb
 2833 039c 00040000 		.4byte	.LASF68
 2834 03a0 08       		.byte	0x8
ARM GAS  C:\Users\jmori\AppData\Local\Temp\ccFGeXpP.s 			page 86


 2835 03a1 4E       		.byte	0x4e
 2836 03a2 A9000000 		.4byte	0xa9
 2837 03a6 31       		.byte	0x31
 2838 03a7 0B       		.uleb128 0xb
 2839 03a8 AF000000 		.4byte	.LASF69
 2840 03ac 08       		.byte	0x8
 2841 03ad 4F       		.byte	0x4f
 2842 03ae A9000000 		.4byte	0xa9
 2843 03b2 32       		.byte	0x32
 2844 03b3 0B       		.uleb128 0xb
 2845 03b4 04010000 		.4byte	.LASF70
 2846 03b8 08       		.byte	0x8
 2847 03b9 50       		.byte	0x50
 2848 03ba A9000000 		.4byte	0xa9
 2849 03be 33       		.byte	0x33
 2850 03bf 0B       		.uleb128 0xb
 2851 03c0 62050000 		.4byte	.LASF71
 2852 03c4 08       		.byte	0x8
 2853 03c5 51       		.byte	0x51
 2854 03c6 A9000000 		.4byte	0xa9
 2855 03ca 34       		.byte	0x34
 2856 03cb 0B       		.uleb128 0xb
 2857 03cc 8E090000 		.4byte	.LASF72
 2858 03d0 08       		.byte	0x8
 2859 03d1 52       		.byte	0x52
 2860 03d2 B4000000 		.4byte	0xb4
 2861 03d6 36       		.byte	0x36
 2862 03d7 0B       		.uleb128 0xb
 2863 03d8 AA020000 		.4byte	.LASF73
 2864 03dc 08       		.byte	0x8
 2865 03dd 53       		.byte	0x53
 2866 03de B4000000 		.4byte	0xb4
 2867 03e2 38       		.byte	0x38
 2868 03e3 0B       		.uleb128 0xb
 2869 03e4 E4090000 		.4byte	.LASF74
 2870 03e8 08       		.byte	0x8
 2871 03e9 54       		.byte	0x54
 2872 03ea B4000000 		.4byte	0xb4
 2873 03ee 3A       		.byte	0x3a
 2874 03ef 0B       		.uleb128 0xb
 2875 03f0 40020000 		.4byte	.LASF75
 2876 03f4 08       		.byte	0x8
 2877 03f5 55       		.byte	0x55
 2878 03f6 A9000000 		.4byte	0xa9
 2879 03fa 3C       		.byte	0x3c
 2880 03fb 0B       		.uleb128 0xb
 2881 03fc D1020000 		.4byte	.LASF76
 2882 0400 08       		.byte	0x8
 2883 0401 56       		.byte	0x56
 2884 0402 A9000000 		.4byte	0xa9
 2885 0406 3D       		.byte	0x3d
 2886 0407 0B       		.uleb128 0xb
 2887 0408 3F080000 		.4byte	.LASF77
 2888 040c 08       		.byte	0x8
 2889 040d 57       		.byte	0x57
 2890 040e A9000000 		.4byte	0xa9
 2891 0412 3E       		.byte	0x3e
ARM GAS  C:\Users\jmori\AppData\Local\Temp\ccFGeXpP.s 			page 87


 2892 0413 0B       		.uleb128 0xb
 2893 0414 8D000000 		.4byte	.LASF78
 2894 0418 08       		.byte	0x8
 2895 0419 58       		.byte	0x58
 2896 041a A9000000 		.4byte	0xa9
 2897 041e 3F       		.byte	0x3f
 2898 041f 0B       		.uleb128 0xb
 2899 0420 E6050000 		.4byte	.LASF79
 2900 0424 08       		.byte	0x8
 2901 0425 59       		.byte	0x59
 2902 0426 A9000000 		.4byte	0xa9
 2903 042a 40       		.byte	0x40
 2904 042b 0B       		.uleb128 0xb
 2905 042c 26030000 		.4byte	.LASF80
 2906 0430 08       		.byte	0x8
 2907 0431 5A       		.byte	0x5a
 2908 0432 A9000000 		.4byte	0xa9
 2909 0436 41       		.byte	0x41
 2910 0437 0B       		.uleb128 0xb
 2911 0438 BA040000 		.4byte	.LASF81
 2912 043c 08       		.byte	0x8
 2913 043d 5B       		.byte	0x5b
 2914 043e A9000000 		.4byte	0xa9
 2915 0442 42       		.byte	0x42
 2916 0443 0B       		.uleb128 0xb
 2917 0444 C2050000 		.4byte	.LASF82
 2918 0448 08       		.byte	0x8
 2919 0449 5C       		.byte	0x5c
 2920 044a A9000000 		.4byte	0xa9
 2921 044e 43       		.byte	0x43
 2922 044f 0B       		.uleb128 0xb
 2923 0450 99020000 		.4byte	.LASF83
 2924 0454 08       		.byte	0x8
 2925 0455 5D       		.byte	0x5d
 2926 0456 A9000000 		.4byte	0xa9
 2927 045a 44       		.byte	0x44
 2928 045b 0B       		.uleb128 0xb
 2929 045c 00000000 		.4byte	.LASF84
 2930 0460 08       		.byte	0x8
 2931 0461 5E       		.byte	0x5e
 2932 0462 D5000000 		.4byte	0xd5
 2933 0466 48       		.byte	0x48
 2934 0467 0B       		.uleb128 0xb
 2935 0468 77020000 		.4byte	.LASF85
 2936 046c 08       		.byte	0x8
 2937 046d 5F       		.byte	0x5f
 2938 046e D5000000 		.4byte	0xd5
 2939 0472 4C       		.byte	0x4c
 2940 0473 0B       		.uleb128 0xb
 2941 0474 D60A0000 		.4byte	.LASF86
 2942 0478 08       		.byte	0x8
 2943 0479 60       		.byte	0x60
 2944 047a A9000000 		.4byte	0xa9
 2945 047e 50       		.byte	0x50
 2946 047f 0B       		.uleb128 0xb
 2947 0480 9F010000 		.4byte	.LASF87
 2948 0484 08       		.byte	0x8
ARM GAS  C:\Users\jmori\AppData\Local\Temp\ccFGeXpP.s 			page 88


 2949 0485 61       		.byte	0x61
 2950 0486 A9000000 		.4byte	0xa9
 2951 048a 51       		.byte	0x51
 2952 048b 0B       		.uleb128 0xb
 2953 048c F9090000 		.4byte	.LASF88
 2954 0490 08       		.byte	0x8
 2955 0491 62       		.byte	0x62
 2956 0492 A9000000 		.4byte	0xa9
 2957 0496 52       		.byte	0x52
 2958 0497 0B       		.uleb128 0xb
 2959 0498 AE0A0000 		.4byte	.LASF89
 2960 049c 08       		.byte	0x8
 2961 049d 63       		.byte	0x63
 2962 049e A9000000 		.4byte	0xa9
 2963 04a2 53       		.byte	0x53
 2964 04a3 0B       		.uleb128 0xb
 2965 04a4 4D080000 		.4byte	.LASF90
 2966 04a8 08       		.byte	0x8
 2967 04a9 64       		.byte	0x64
 2968 04aa A9000000 		.4byte	0xa9
 2969 04ae 54       		.byte	0x54
 2970 04af 0B       		.uleb128 0xb
 2971 04b0 B7010000 		.4byte	.LASF91
 2972 04b4 08       		.byte	0x8
 2973 04b5 65       		.byte	0x65
 2974 04b6 A9000000 		.4byte	0xa9
 2975 04ba 55       		.byte	0x55
 2976 04bb 0B       		.uleb128 0xb
 2977 04bc DA030000 		.4byte	.LASF92
 2978 04c0 08       		.byte	0x8
 2979 04c1 66       		.byte	0x66
 2980 04c2 A9000000 		.4byte	0xa9
 2981 04c6 56       		.byte	0x56
 2982 04c7 0B       		.uleb128 0xb
 2983 04c8 26040000 		.4byte	.LASF93
 2984 04cc 08       		.byte	0x8
 2985 04cd 67       		.byte	0x67
 2986 04ce A9000000 		.4byte	0xa9
 2987 04d2 57       		.byte	0x57
 2988 04d3 0B       		.uleb128 0xb
 2989 04d4 2C000000 		.4byte	.LASF94
 2990 04d8 08       		.byte	0x8
 2991 04d9 68       		.byte	0x68
 2992 04da A9000000 		.4byte	0xa9
 2993 04de 58       		.byte	0x58
 2994 04df 0B       		.uleb128 0xb
 2995 04e0 76070000 		.4byte	.LASF95
 2996 04e4 08       		.byte	0x8
 2997 04e5 69       		.byte	0x69
 2998 04e6 A9000000 		.4byte	0xa9
 2999 04ea 59       		.byte	0x59
 3000 04eb 0B       		.uleb128 0xb
 3001 04ec 57050000 		.4byte	.LASF96
 3002 04f0 08       		.byte	0x8
 3003 04f1 6E       		.byte	0x6e
 3004 04f2 BF000000 		.4byte	0xbf
 3005 04f6 5A       		.byte	0x5a
ARM GAS  C:\Users\jmori\AppData\Local\Temp\ccFGeXpP.s 			page 89


 3006 04f7 0B       		.uleb128 0xb
 3007 04f8 61090000 		.4byte	.LASF97
 3008 04fc 08       		.byte	0x8
 3009 04fd 6F       		.byte	0x6f
 3010 04fe BF000000 		.4byte	0xbf
 3011 0502 5C       		.byte	0x5c
 3012 0503 0B       		.uleb128 0xb
 3013 0504 21010000 		.4byte	.LASF98
 3014 0508 08       		.byte	0x8
 3015 0509 70       		.byte	0x70
 3016 050a A9000000 		.4byte	0xa9
 3017 050e 5E       		.byte	0x5e
 3018 050f 0B       		.uleb128 0xb
 3019 0510 18070000 		.4byte	.LASF99
 3020 0514 08       		.byte	0x8
 3021 0515 71       		.byte	0x71
 3022 0516 A9000000 		.4byte	0xa9
 3023 051a 5F       		.byte	0x5f
 3024 051b 0B       		.uleb128 0xb
 3025 051c B1050000 		.4byte	.LASF100
 3026 0520 08       		.byte	0x8
 3027 0521 72       		.byte	0x72
 3028 0522 A9000000 		.4byte	0xa9
 3029 0526 60       		.byte	0x60
 3030 0527 0B       		.uleb128 0xb
 3031 0528 C7060000 		.4byte	.LASF101
 3032 052c 08       		.byte	0x8
 3033 052d 73       		.byte	0x73
 3034 052e D5000000 		.4byte	0xd5
 3035 0532 64       		.byte	0x64
 3036 0533 0B       		.uleb128 0xb
 3037 0534 65010000 		.4byte	.LASF102
 3038 0538 08       		.byte	0x8
 3039 0539 76       		.byte	0x76
 3040 053a BF000000 		.4byte	0xbf
 3041 053e 68       		.byte	0x68
 3042 053f 0B       		.uleb128 0xb
 3043 0540 C8030000 		.4byte	.LASF103
 3044 0544 08       		.byte	0x8
 3045 0545 77       		.byte	0x77
 3046 0546 BF000000 		.4byte	0xbf
 3047 054a 6A       		.byte	0x6a
 3048 054b 0B       		.uleb128 0xb
 3049 054c 3A040000 		.4byte	.LASF104
 3050 0550 08       		.byte	0x8
 3051 0551 78       		.byte	0x78
 3052 0552 BF000000 		.4byte	0xbf
 3053 0556 6C       		.byte	0x6c
 3054 0557 0B       		.uleb128 0xb
 3055 0558 A2000000 		.4byte	.LASF105
 3056 055c 08       		.byte	0x8
 3057 055d 79       		.byte	0x79
 3058 055e BF000000 		.4byte	0xbf
 3059 0562 6E       		.byte	0x6e
 3060 0563 0B       		.uleb128 0xb
 3061 0564 0A080000 		.4byte	.LASF106
 3062 0568 08       		.byte	0x8
ARM GAS  C:\Users\jmori\AppData\Local\Temp\ccFGeXpP.s 			page 90


 3063 0569 7B       		.byte	0x7b
 3064 056a A9000000 		.4byte	0xa9
 3065 056e 70       		.byte	0x70
 3066 056f 0B       		.uleb128 0xb
 3067 0570 ED010000 		.4byte	.LASF107
 3068 0574 08       		.byte	0x8
 3069 0575 7C       		.byte	0x7c
 3070 0576 A9000000 		.4byte	0xa9
 3071 057a 71       		.byte	0x71
 3072 057b 0B       		.uleb128 0xb
 3073 057c 980A0000 		.4byte	.LASF108
 3074 0580 08       		.byte	0x8
 3075 0581 7D       		.byte	0x7d
 3076 0582 A9000000 		.4byte	0xa9
 3077 0586 72       		.byte	0x72
 3078 0587 0B       		.uleb128 0xb
 3079 0588 73050000 		.4byte	.LASF109
 3080 058c 08       		.byte	0x8
 3081 058d 7E       		.byte	0x7e
 3082 058e A9000000 		.4byte	0xa9
 3083 0592 73       		.byte	0x73
 3084 0593 0B       		.uleb128 0xb
 3085 0594 E1020000 		.4byte	.LASF110
 3086 0598 08       		.byte	0x8
 3087 0599 80       		.byte	0x80
 3088 059a BF000000 		.4byte	0xbf
 3089 059e 74       		.byte	0x74
 3090 059f 0B       		.uleb128 0xb
 3091 05a0 E2080000 		.4byte	.LASF111
 3092 05a4 08       		.byte	0x8
 3093 05a5 81       		.byte	0x81
 3094 05a6 BF000000 		.4byte	0xbf
 3095 05aa 76       		.byte	0x76
 3096 05ab 0B       		.uleb128 0xb
 3097 05ac BC020000 		.4byte	.LASF112
 3098 05b0 08       		.byte	0x8
 3099 05b1 82       		.byte	0x82
 3100 05b2 BF000000 		.4byte	0xbf
 3101 05b6 78       		.byte	0x78
 3102 05b7 0B       		.uleb128 0xb
 3103 05b8 D8000000 		.4byte	.LASF113
 3104 05bc 08       		.byte	0x8
 3105 05bd 83       		.byte	0x83
 3106 05be BF000000 		.4byte	0xbf
 3107 05c2 7A       		.byte	0x7a
 3108 05c3 0B       		.uleb128 0xb
 3109 05c4 260A0000 		.4byte	.LASF114
 3110 05c8 08       		.byte	0x8
 3111 05c9 86       		.byte	0x86
 3112 05ca A9000000 		.4byte	0xa9
 3113 05ce 7C       		.byte	0x7c
 3114 05cf 0B       		.uleb128 0xb
 3115 05d0 9B090000 		.4byte	.LASF115
 3116 05d4 08       		.byte	0x8
 3117 05d5 87       		.byte	0x87
 3118 05d6 A9000000 		.4byte	0xa9
 3119 05da 7D       		.byte	0x7d
ARM GAS  C:\Users\jmori\AppData\Local\Temp\ccFGeXpP.s 			page 91


 3120 05db 0B       		.uleb128 0xb
 3121 05dc 40000000 		.4byte	.LASF116
 3122 05e0 08       		.byte	0x8
 3123 05e1 88       		.byte	0x88
 3124 05e2 A9000000 		.4byte	0xa9
 3125 05e6 7E       		.byte	0x7e
 3126 05e7 0B       		.uleb128 0xb
 3127 05e8 F3020000 		.4byte	.LASF117
 3128 05ec 08       		.byte	0x8
 3129 05ed 89       		.byte	0x89
 3130 05ee A9000000 		.4byte	0xa9
 3131 05f2 7F       		.byte	0x7f
 3132 05f3 0B       		.uleb128 0xb
 3133 05f4 60030000 		.4byte	.LASF118
 3134 05f8 08       		.byte	0x8
 3135 05f9 8A       		.byte	0x8a
 3136 05fa A9000000 		.4byte	0xa9
 3137 05fe 80       		.byte	0x80
 3138 05ff 0B       		.uleb128 0xb
 3139 0600 FC040000 		.4byte	.LASF119
 3140 0604 08       		.byte	0x8
 3141 0605 8D       		.byte	0x8d
 3142 0606 D5000000 		.4byte	0xd5
 3143 060a 84       		.byte	0x84
 3144 060b 0B       		.uleb128 0xb
 3145 060c ED000000 		.4byte	.LASF120
 3146 0610 08       		.byte	0x8
 3147 0611 8E       		.byte	0x8e
 3148 0612 D5000000 		.4byte	0xd5
 3149 0616 88       		.byte	0x88
 3150 0617 0B       		.uleb128 0xb
 3151 0618 110A0000 		.4byte	.LASF121
 3152 061c 08       		.byte	0x8
 3153 061d 8F       		.byte	0x8f
 3154 061e D5000000 		.4byte	0xd5
 3155 0622 8C       		.byte	0x8c
 3156 0623 0B       		.uleb128 0xb
 3157 0624 74030000 		.4byte	.LASF122
 3158 0628 08       		.byte	0x8
 3159 0629 90       		.byte	0x90
 3160 062a D5000000 		.4byte	0xd5
 3161 062e 90       		.byte	0x90
 3162 062f 0B       		.uleb128 0xb
 3163 0630 A5040000 		.4byte	.LASF123
 3164 0634 08       		.byte	0x8
 3165 0635 91       		.byte	0x91
 3166 0636 D5000000 		.4byte	0xd5
 3167 063a 94       		.byte	0x94
 3168 063b 0B       		.uleb128 0xb
 3169 063c E6040000 		.4byte	.LASF124
 3170 0640 08       		.byte	0x8
 3171 0641 92       		.byte	0x92
 3172 0642 D5000000 		.4byte	0xd5
 3173 0646 98       		.byte	0x98
 3174 0647 0B       		.uleb128 0xb
 3175 0648 630A0000 		.4byte	.LASF125
 3176 064c 08       		.byte	0x8
ARM GAS  C:\Users\jmori\AppData\Local\Temp\ccFGeXpP.s 			page 92


 3177 064d 93       		.byte	0x93
 3178 064e D5000000 		.4byte	0xd5
 3179 0652 9C       		.byte	0x9c
 3180 0653 0B       		.uleb128 0xb
 3181 0654 7C010000 		.4byte	.LASF126
 3182 0658 08       		.byte	0x8
 3183 0659 94       		.byte	0x94
 3184 065a D5000000 		.4byte	0xd5
 3185 065e A0       		.byte	0xa0
 3186 065f 0B       		.uleb128 0xb
 3187 0660 5A070000 		.4byte	.LASF127
 3188 0664 08       		.byte	0x8
 3189 0665 95       		.byte	0x95
 3190 0666 BF000000 		.4byte	0xbf
 3191 066a A4       		.byte	0xa4
 3192 066b 0B       		.uleb128 0xb
 3193 066c C6040000 		.4byte	.LASF128
 3194 0670 08       		.byte	0x8
 3195 0671 96       		.byte	0x96
 3196 0672 BF000000 		.4byte	0xbf
 3197 0676 A6       		.byte	0xa6
 3198 0677 0B       		.uleb128 0xb
 3199 0678 0C070000 		.4byte	.LASF129
 3200 067c 08       		.byte	0x8
 3201 067d 97       		.byte	0x97
 3202 067e BF000000 		.4byte	0xbf
 3203 0682 A8       		.byte	0xa8
 3204 0683 0B       		.uleb128 0xb
 3205 0684 AC080000 		.4byte	.LASF130
 3206 0688 08       		.byte	0x8
 3207 0689 98       		.byte	0x98
 3208 068a BF000000 		.4byte	0xbf
 3209 068e AA       		.byte	0xaa
 3210 068f 0B       		.uleb128 0xb
 3211 0690 55040000 		.4byte	.LASF131
 3212 0694 08       		.byte	0x8
 3213 0695 99       		.byte	0x99
 3214 0696 BF000000 		.4byte	0xbf
 3215 069a AC       		.byte	0xac
 3216 069b 0B       		.uleb128 0xb
 3217 069c 97050000 		.4byte	.LASF132
 3218 06a0 08       		.byte	0x8
 3219 06a1 9A       		.byte	0x9a
 3220 06a2 BF000000 		.4byte	0xbf
 3221 06a6 AE       		.byte	0xae
 3222 06a7 0B       		.uleb128 0xb
 3223 06a8 76090000 		.4byte	.LASF133
 3224 06ac 08       		.byte	0x8
 3225 06ad 9D       		.byte	0x9d
 3226 06ae BF000000 		.4byte	0xbf
 3227 06b2 B0       		.byte	0xb0
 3228 06b3 0B       		.uleb128 0xb
 3229 06b4 5F000000 		.4byte	.LASF134
 3230 06b8 08       		.byte	0x8
 3231 06b9 9E       		.byte	0x9e
 3232 06ba D5000000 		.4byte	0xd5
 3233 06be B4       		.byte	0xb4
ARM GAS  C:\Users\jmori\AppData\Local\Temp\ccFGeXpP.s 			page 93


 3234 06bf 00       		.byte	0
 3235 06c0 03       		.uleb128 0x3
 3236 06c1 95040000 		.4byte	.LASF135
 3237 06c5 08       		.byte	0x8
 3238 06c6 9F       		.byte	0x9f
 3239 06c7 AF020000 		.4byte	0x2af
 3240 06cb 0E       		.uleb128 0xe
 3241 06cc C1030000 		.4byte	.LASF136
 3242 06d0 09       		.byte	0x9
 3243 06d1 F601     		.2byte	0x1f6
 3244 06d3 D7060000 		.4byte	0x6d7
 3245 06d7 02       		.uleb128 0x2
 3246 06d8 01       		.byte	0x1
 3247 06d9 08       		.byte	0x8
 3248 06da 77080000 		.4byte	.LASF137
 3249 06de 0E       		.uleb128 0xe
 3250 06df 1D090000 		.4byte	.LASF138
 3251 06e3 09       		.byte	0x9
 3252 06e4 F701     		.2byte	0x1f7
 3253 06e6 25000000 		.4byte	0x25
 3254 06ea 02       		.uleb128 0x2
 3255 06eb 08       		.byte	0x8
 3256 06ec 04       		.byte	0x4
 3257 06ed B5020000 		.4byte	.LASF139
 3258 06f1 02       		.uleb128 0x2
 3259 06f2 01       		.byte	0x1
 3260 06f3 02       		.byte	0x2
 3261 06f4 41070000 		.4byte	.LASF140
 3262 06f8 0F       		.uleb128 0xf
 3263 06f9 0C       		.byte	0xc
 3264 06fa 0A       		.byte	0xa
 3265 06fb 1004     		.2byte	0x410
 3266 06fd 29070000 		.4byte	0x729
 3267 0701 10       		.uleb128 0x10
 3268 0702 46090000 		.4byte	.LASF141
 3269 0706 0A       		.byte	0xa
 3270 0707 1204     		.2byte	0x412
 3271 0709 BF000000 		.4byte	0xbf
 3272 070d 00       		.byte	0
 3273 070e 10       		.uleb128 0x10
 3274 070f 6F070000 		.4byte	.LASF142
 3275 0713 0A       		.byte	0xa
 3276 0714 1304     		.2byte	0x413
 3277 0716 29070000 		.4byte	0x729
 3278 071a 04       		.byte	0x4
 3279 071b 10       		.uleb128 0x10
 3280 071c 790A0000 		.4byte	.LASF143
 3281 0720 0A       		.byte	0xa
 3282 0721 1404     		.2byte	0x414
 3283 0723 29070000 		.4byte	0x729
 3284 0727 08       		.byte	0x8
 3285 0728 00       		.byte	0
 3286 0729 11       		.uleb128 0x11
 3287 072a 04       		.byte	0x4
 3288 072b DE060000 		.4byte	0x6de
 3289 072f 0E       		.uleb128 0xe
 3290 0730 BA080000 		.4byte	.LASF144
ARM GAS  C:\Users\jmori\AppData\Local\Temp\ccFGeXpP.s 			page 94


 3291 0734 0A       		.byte	0xa
 3292 0735 1504     		.2byte	0x415
 3293 0737 F8060000 		.4byte	0x6f8
 3294 073b 03       		.uleb128 0x3
 3295 073c 8E020000 		.4byte	.LASF145
 3296 0740 0B       		.byte	0xb
 3297 0741 3F       		.byte	0x3f
 3298 0742 D5000000 		.4byte	0xd5
 3299 0746 12       		.uleb128 0x12
 3300 0747 32020000 		.4byte	.LASF196
 3301 074b 02       		.byte	0x2
 3302 074c 2503     		.2byte	0x325
 3303 074e 03       		.byte	0x3
 3304 074f 78070000 		.4byte	0x778
 3305 0753 13       		.uleb128 0x13
 3306 0754 32050000 		.4byte	.LASF146
 3307 0758 02       		.byte	0x2
 3308 0759 2503     		.2byte	0x325
 3309 075b 78070000 		.4byte	0x778
 3310 075f 13       		.uleb128 0x13
 3311 0760 38080000 		.4byte	.LASF147
 3312 0764 02       		.byte	0x2
 3313 0765 2503     		.2byte	0x325
 3314 0767 D5000000 		.4byte	0xd5
 3315 076b 13       		.uleb128 0x13
 3316 076c 5A030000 		.4byte	.LASF148
 3317 0770 02       		.byte	0x2
 3318 0771 2503     		.2byte	0x325
 3319 0773 D5000000 		.4byte	0xd5
 3320 0777 00       		.byte	0
 3321 0778 11       		.uleb128 0x11
 3322 0779 04       		.byte	0x4
 3323 077a 90020000 		.4byte	0x290
 3324 077e 14       		.uleb128 0x14
 3325 077f F3050000 		.4byte	.LASF197
 3326 0783 03       		.byte	0x3
 3327 0784 81       		.byte	0x81
 3328 0785 03       		.byte	0x3
 3329 0786 15       		.uleb128 0x15
 3330 0787 AC090000 		.4byte	.LASF198
 3331 078b 01       		.byte	0x1
 3332 078c 8D03     		.2byte	0x38d
 3333 078e 00000000 		.4byte	.LFB366
 3334 0792 5C000000 		.4byte	.LFE366-.LFB366
 3335 0796 01       		.uleb128 0x1
 3336 0797 9C       		.byte	0x9c
 3337 0798 23080000 		.4byte	0x823
 3338 079c 16       		.uleb128 0x16
 3339 079d 46070000 		.4byte	0x746
 3340 07a1 36000000 		.4byte	.LBB10
 3341 07a5 06000000 		.4byte	.LBE10-.LBB10
 3342 07a9 01       		.byte	0x1
 3343 07aa 9003     		.2byte	0x390
 3344 07ac CC070000 		.4byte	0x7cc
 3345 07b0 17       		.uleb128 0x17
 3346 07b1 6B070000 		.4byte	0x76b
 3347 07b5 00000000 		.4byte	.LLST0
ARM GAS  C:\Users\jmori\AppData\Local\Temp\ccFGeXpP.s 			page 95


 3348 07b9 17       		.uleb128 0x17
 3349 07ba 5F070000 		.4byte	0x75f
 3350 07be 00000000 		.4byte	.LLST0
 3351 07c2 17       		.uleb128 0x17
 3352 07c3 53070000 		.4byte	0x753
 3353 07c7 14000000 		.4byte	.LLST2
 3354 07cb 00       		.byte	0
 3355 07cc 16       		.uleb128 0x16
 3356 07cd 46070000 		.4byte	0x746
 3357 07d1 44000000 		.4byte	.LBB12
 3358 07d5 02000000 		.4byte	.LBE12-.LBB12
 3359 07d9 01       		.byte	0x1
 3360 07da 9203     		.2byte	0x392
 3361 07dc FC070000 		.4byte	0x7fc
 3362 07e0 17       		.uleb128 0x17
 3363 07e1 6B070000 		.4byte	0x76b
 3364 07e5 2C000000 		.4byte	.LLST3
 3365 07e9 17       		.uleb128 0x17
 3366 07ea 5F070000 		.4byte	0x75f
 3367 07ee 40000000 		.4byte	.LLST4
 3368 07f2 17       		.uleb128 0x17
 3369 07f3 53070000 		.4byte	0x753
 3370 07f7 54000000 		.4byte	.LLST5
 3371 07fb 00       		.byte	0
 3372 07fc 18       		.uleb128 0x18
 3373 07fd 44000000 		.4byte	.LVL2
 3374 0801 E20D0000 		.4byte	0xde2
 3375 0805 11080000 		.4byte	0x811
 3376 0809 19       		.uleb128 0x19
 3377 080a 01       		.uleb128 0x1
 3378 080b 50       		.byte	0x50
 3379 080c 03       		.uleb128 0x3
 3380 080d 0A       		.byte	0xa
 3381 080e F401     		.2byte	0x1f4
 3382 0810 00       		.byte	0
 3383 0811 1A       		.uleb128 0x1a
 3384 0812 4E000000 		.4byte	.LVL4
 3385 0816 E20D0000 		.4byte	0xde2
 3386 081a 19       		.uleb128 0x19
 3387 081b 01       		.uleb128 0x1
 3388 081c 50       		.byte	0x50
 3389 081d 03       		.uleb128 0x3
 3390 081e 0A       		.byte	0xa
 3391 081f F401     		.2byte	0x1f4
 3392 0821 00       		.byte	0
 3393 0822 00       		.byte	0
 3394 0823 1B       		.uleb128 0x1b
 3395 0824 42504D00 		.ascii	"BPM\000"
 3396 0828 01       		.byte	0x1
 3397 0829 9903     		.2byte	0x399
 3398 082b 25000000 		.4byte	0x25
 3399 082f 00000000 		.4byte	.LFB367
 3400 0833 24000000 		.4byte	.LFE367-.LFB367
 3401 0837 01       		.uleb128 0x1
 3402 0838 9C       		.byte	0x9c
 3403 0839 8F080000 		.4byte	0x88f
 3404 083d 1C       		.uleb128 0x1c
ARM GAS  C:\Users\jmori\AppData\Local\Temp\ccFGeXpP.s 			page 96


 3405 083e 1E080000 		.4byte	.LASF151
 3406 0842 01       		.byte	0x1
 3407 0843 9903     		.2byte	0x399
 3408 0845 8F080000 		.4byte	0x88f
 3409 0849 6C000000 		.4byte	.LLST6
 3410 084d 1D       		.uleb128 0x1d
 3411 084e 42504D00 		.ascii	"BPM\000"
 3412 0852 01       		.byte	0x1
 3413 0853 9A03     		.2byte	0x39a
 3414 0855 25000000 		.4byte	0x25
 3415 0859 04       		.byte	0x4
 3416 085a 00000000 		.4byte	0
 3417 085e 1E       		.uleb128 0x1e
 3418 085f 08000000 		.4byte	.LBB14
 3419 0863 06000000 		.4byte	.LBE14-.LBB14
 3420 0867 78080000 		.4byte	0x878
 3421 086b 1F       		.uleb128 0x1f
 3422 086c 3C090000 		.4byte	.LASF149
 3423 0870 01       		.byte	0x1
 3424 0871 9D03     		.2byte	0x39d
 3425 0873 9B000000 		.4byte	0x9b
 3426 0877 00       		.byte	0
 3427 0878 20       		.uleb128 0x20
 3428 0879 16000000 		.4byte	.LBB15
 3429 087d 06000000 		.4byte	.LBE15-.LBB15
 3430 0881 1F       		.uleb128 0x1f
 3431 0882 3C090000 		.4byte	.LASF149
 3432 0886 01       		.byte	0x1
 3433 0887 A903     		.2byte	0x3a9
 3434 0889 9B000000 		.4byte	0x9b
 3435 088d 00       		.byte	0
 3436 088e 00       		.byte	0
 3437 088f 11       		.uleb128 0x11
 3438 0890 04       		.byte	0x4
 3439 0891 25000000 		.4byte	0x25
 3440 0895 21       		.uleb128 0x21
 3441 0896 DB040000 		.4byte	.LASF150
 3442 089a 01       		.byte	0x1
 3443 089b BD03     		.2byte	0x3bd
 3444 089d 25000000 		.4byte	0x25
 3445 08a1 00000000 		.4byte	.LFB368
 3446 08a5 44020000 		.4byte	.LFE368-.LFB368
 3447 08a9 01       		.uleb128 0x1
 3448 08aa 9C       		.byte	0x9c
 3449 08ab F20A0000 		.4byte	0xaf2
 3450 08af 1C       		.uleb128 0x1c
 3451 08b0 DD090000 		.4byte	.LASF152
 3452 08b4 01       		.byte	0x1
 3453 08b5 BD03     		.2byte	0x3bd
 3454 08b7 8F080000 		.4byte	0x88f
 3455 08bb 8D000000 		.4byte	.LLST7
 3456 08bf 1C       		.uleb128 0x1c
 3457 08c0 59020000 		.4byte	.LASF153
 3458 08c4 01       		.byte	0x1
 3459 08c5 BD03     		.2byte	0x3bd
 3460 08c7 8F080000 		.4byte	0x88f
 3461 08cb B9000000 		.4byte	.LLST8
ARM GAS  C:\Users\jmori\AppData\Local\Temp\ccFGeXpP.s 			page 97


 3462 08cf 22       		.uleb128 0x22
 3463 08d0 810A0000 		.4byte	.LASF154
 3464 08d4 01       		.byte	0x1
 3465 08d5 CB03     		.2byte	0x3cb
 3466 08d7 25000000 		.4byte	0x25
 3467 08db 02       		.uleb128 0x2
 3468 08dc 91       		.byte	0x91
 3469 08dd 64       		.sleb128 -28
 3470 08de 22       		.uleb128 0x22
 3471 08df 61020000 		.4byte	.LASF155
 3472 08e3 01       		.byte	0x1
 3473 08e4 CC03     		.2byte	0x3cc
 3474 08e6 25000000 		.4byte	0x25
 3475 08ea 02       		.uleb128 0x2
 3476 08eb 91       		.byte	0x91
 3477 08ec 60       		.sleb128 -32
 3478 08ed 22       		.uleb128 0x22
 3479 08ee 2F080000 		.4byte	.LASF156
 3480 08f2 01       		.byte	0x1
 3481 08f3 D103     		.2byte	0x3d1
 3482 08f5 F20A0000 		.4byte	0xaf2
 3483 08f9 03       		.uleb128 0x3
 3484 08fa 91       		.byte	0x91
 3485 08fb F877     		.sleb128 -1032
 3486 08fd 22       		.uleb128 0x22
 3487 08fe E6060000 		.4byte	.LASF157
 3488 0902 01       		.byte	0x1
 3489 0903 D203     		.2byte	0x3d2
 3490 0905 F20A0000 		.4byte	0xaf2
 3491 0909 03       		.uleb128 0x3
 3492 090a 91       		.byte	0x91
 3493 090b 9070     		.sleb128 -2032
 3494 090d 22       		.uleb128 0x22
 3495 090e B1010000 		.4byte	.LASF158
 3496 0912 01       		.byte	0x1
 3497 0913 D803     		.2byte	0x3d8
 3498 0915 25000000 		.4byte	0x25
 3499 0919 03       		.uleb128 0x3
 3500 091a 91       		.byte	0x91
 3501 091b 8C70     		.sleb128 -2036
 3502 091d 22       		.uleb128 0x22
 3503 091e 1A010000 		.4byte	.LASF159
 3504 0922 01       		.byte	0x1
 3505 0923 D903     		.2byte	0x3d9
 3506 0925 25000000 		.4byte	0x25
 3507 0929 03       		.uleb128 0x3
 3508 092a 91       		.byte	0x91
 3509 092b 8870     		.sleb128 -2040
 3510 092d 22       		.uleb128 0x22
 3511 092e 4A030000 		.4byte	.LASF160
 3512 0932 01       		.byte	0x1
 3513 0933 DA03     		.2byte	0x3da
 3514 0935 25000000 		.4byte	0x25
 3515 0939 03       		.uleb128 0x3
 3516 093a 91       		.byte	0x91
 3517 093b 8470     		.sleb128 -2044
 3518 093d 22       		.uleb128 0x22
ARM GAS  C:\Users\jmori\AppData\Local\Temp\ccFGeXpP.s 			page 98


 3519 093e 70020000 		.4byte	.LASF161
 3520 0942 01       		.byte	0x1
 3521 0943 DB03     		.2byte	0x3db
 3522 0945 25000000 		.4byte	0x25
 3523 0949 03       		.uleb128 0x3
 3524 094a 91       		.byte	0x91
 3525 094b 8070     		.sleb128 -2048
 3526 094d 22       		.uleb128 0x22
 3527 094e B8030000 		.4byte	.LASF162
 3528 0952 01       		.byte	0x1
 3529 0953 DC03     		.2byte	0x3dc
 3530 0955 D5000000 		.4byte	0xd5
 3531 0959 03       		.uleb128 0x3
 3532 095a 91       		.byte	0x91
 3533 095b FC6F     		.sleb128 -2052
 3534 095d 23       		.uleb128 0x23
 3535 095e 66080000 		.4byte	.LASF163
 3536 0962 01       		.byte	0x1
 3537 0963 E303     		.2byte	0x3e3
 3538 0965 25000000 		.4byte	0x25
 3539 0969 E5000000 		.4byte	.LLST9
 3540 096d 23       		.uleb128 0x23
 3541 096e 00060000 		.4byte	.LASF164
 3542 0972 01       		.byte	0x1
 3543 0973 E403     		.2byte	0x3e4
 3544 0975 25000000 		.4byte	0x25
 3545 0979 11010000 		.4byte	.LLST10
 3546 097d 1E       		.uleb128 0x1e
 3547 097e 14000000 		.4byte	.LBB16
 3548 0982 30000000 		.4byte	.LBE16-.LBB16
 3549 0986 99090000 		.4byte	0x999
 3550 098a 24       		.uleb128 0x24
 3551 098b 6900     		.ascii	"i\000"
 3552 098d 01       		.byte	0x1
 3553 098e BF03     		.2byte	0x3bf
 3554 0990 9B000000 		.4byte	0x9b
 3555 0994 3D010000 		.4byte	.LLST11
 3556 0998 00       		.byte	0
 3557 0999 18       		.uleb128 0x18
 3558 099a 7E000000 		.4byte	.LVL14
 3559 099e EE0D0000 		.4byte	0xdee
 3560 09a2 B9090000 		.4byte	0x9b9
 3561 09a6 19       		.uleb128 0x19
 3562 09a7 01       		.uleb128 0x1
 3563 09a8 50       		.byte	0x50
 3564 09a9 02       		.uleb128 0x2
 3565 09aa 75       		.byte	0x75
 3566 09ab 00       		.sleb128 0
 3567 09ac 19       		.uleb128 0x19
 3568 09ad 01       		.uleb128 0x1
 3569 09ae 51       		.byte	0x51
 3570 09af 02       		.uleb128 0x2
 3571 09b0 08       		.byte	0x8
 3572 09b1 C8       		.byte	0xc8
 3573 09b2 19       		.uleb128 0x19
 3574 09b3 01       		.uleb128 0x1
 3575 09b4 52       		.byte	0x52
ARM GAS  C:\Users\jmori\AppData\Local\Temp\ccFGeXpP.s 			page 99


 3576 09b5 02       		.uleb128 0x2
 3577 09b6 91       		.byte	0x91
 3578 09b7 64       		.sleb128 -28
 3579 09b8 00       		.byte	0
 3580 09b9 18       		.uleb128 0x18
 3581 09ba 8A000000 		.4byte	.LVL15
 3582 09be EE0D0000 		.4byte	0xdee
 3583 09c2 D9090000 		.4byte	0x9d9
 3584 09c6 19       		.uleb128 0x19
 3585 09c7 01       		.uleb128 0x1
 3586 09c8 50       		.byte	0x50
 3587 09c9 02       		.uleb128 0x2
 3588 09ca 74       		.byte	0x74
 3589 09cb 00       		.sleb128 0
 3590 09cc 19       		.uleb128 0x19
 3591 09cd 01       		.uleb128 0x1
 3592 09ce 51       		.byte	0x51
 3593 09cf 02       		.uleb128 0x2
 3594 09d0 08       		.byte	0x8
 3595 09d1 C8       		.byte	0xc8
 3596 09d2 19       		.uleb128 0x19
 3597 09d3 01       		.uleb128 0x1
 3598 09d4 52       		.byte	0x52
 3599 09d5 02       		.uleb128 0x2
 3600 09d6 91       		.byte	0x91
 3601 09d7 60       		.sleb128 -32
 3602 09d8 00       		.byte	0
 3603 09d9 18       		.uleb128 0x18
 3604 09da A8000000 		.4byte	.LVL16
 3605 09de FA0D0000 		.4byte	0xdfa
 3606 09e2 030A0000 		.4byte	0xa03
 3607 09e6 19       		.uleb128 0x19
 3608 09e7 01       		.uleb128 0x1
 3609 09e8 50       		.byte	0x50
 3610 09e9 02       		.uleb128 0x2
 3611 09ea 77       		.byte	0x77
 3612 09eb 00       		.sleb128 0
 3613 09ec 19       		.uleb128 0x19
 3614 09ed 01       		.uleb128 0x1
 3615 09ee 51       		.byte	0x51
 3616 09ef 03       		.uleb128 0x3
 3617 09f0 0A       		.byte	0xa
 3618 09f1 5D03     		.2byte	0x35d
 3619 09f3 19       		.uleb128 0x19
 3620 09f4 01       		.uleb128 0x1
 3621 09f5 52       		.byte	0x52
 3622 09f6 05       		.uleb128 0x5
 3623 09f7 03       		.byte	0x3
 3624 09f8 08000000 		.4byte	.LANCHOR0+8
 3625 09fc 19       		.uleb128 0x19
 3626 09fd 01       		.uleb128 0x1
 3627 09fe 53       		.byte	0x53
 3628 09ff 02       		.uleb128 0x2
 3629 0a00 78       		.byte	0x78
 3630 0a01 10       		.sleb128 16
 3631 0a02 00       		.byte	0
 3632 0a03 18       		.uleb128 0x18
ARM GAS  C:\Users\jmori\AppData\Local\Temp\ccFGeXpP.s 			page 100


 3633 0a04 B6000000 		.4byte	.LVL17
 3634 0a08 060E0000 		.4byte	0xe06
 3635 0a0c 2A0A0000 		.4byte	0xa2a
 3636 0a10 19       		.uleb128 0x19
 3637 0a11 01       		.uleb128 0x1
 3638 0a12 50       		.byte	0x50
 3639 0a13 02       		.uleb128 0x2
 3640 0a14 77       		.byte	0x77
 3641 0a15 00       		.sleb128 0
 3642 0a16 19       		.uleb128 0x19
 3643 0a17 01       		.uleb128 0x1
 3644 0a18 51       		.byte	0x51
 3645 0a19 02       		.uleb128 0x2
 3646 0a1a 75       		.byte	0x75
 3647 0a1b 00       		.sleb128 0
 3648 0a1c 19       		.uleb128 0x19
 3649 0a1d 01       		.uleb128 0x1
 3650 0a1e 52       		.byte	0x52
 3651 0a1f 03       		.uleb128 0x3
 3652 0a20 91       		.byte	0x91
 3653 0a21 F877     		.sleb128 -1032
 3654 0a23 19       		.uleb128 0x19
 3655 0a24 01       		.uleb128 0x1
 3656 0a25 53       		.byte	0x53
 3657 0a26 02       		.uleb128 0x2
 3658 0a27 08       		.byte	0x8
 3659 0a28 C8       		.byte	0xc8
 3660 0a29 00       		.byte	0
 3661 0a2a 18       		.uleb128 0x18
 3662 0a2b C2000000 		.4byte	.LVL18
 3663 0a2f 060E0000 		.4byte	0xe06
 3664 0a33 510A0000 		.4byte	0xa51
 3665 0a37 19       		.uleb128 0x19
 3666 0a38 01       		.uleb128 0x1
 3667 0a39 50       		.byte	0x50
 3668 0a3a 02       		.uleb128 0x2
 3669 0a3b 77       		.byte	0x77
 3670 0a3c 00       		.sleb128 0
 3671 0a3d 19       		.uleb128 0x19
 3672 0a3e 01       		.uleb128 0x1
 3673 0a3f 51       		.byte	0x51
 3674 0a40 02       		.uleb128 0x2
 3675 0a41 74       		.byte	0x74
 3676 0a42 00       		.sleb128 0
 3677 0a43 19       		.uleb128 0x19
 3678 0a44 01       		.uleb128 0x1
 3679 0a45 52       		.byte	0x52
 3680 0a46 03       		.uleb128 0x3
 3681 0a47 91       		.byte	0x91
 3682 0a48 9070     		.sleb128 -2032
 3683 0a4a 19       		.uleb128 0x19
 3684 0a4b 01       		.uleb128 0x1
 3685 0a4c 53       		.byte	0x53
 3686 0a4d 02       		.uleb128 0x2
 3687 0a4e 08       		.byte	0x8
 3688 0a4f C8       		.byte	0xc8
 3689 0a50 00       		.byte	0
ARM GAS  C:\Users\jmori\AppData\Local\Temp\ccFGeXpP.s 			page 101


 3690 0a51 18       		.uleb128 0x18
 3691 0a52 DC000000 		.4byte	.LVL19
 3692 0a56 120E0000 		.4byte	0xe12
 3693 0a5a 7A0A0000 		.4byte	0xa7a
 3694 0a5e 19       		.uleb128 0x19
 3695 0a5f 01       		.uleb128 0x1
 3696 0a60 50       		.byte	0x50
 3697 0a61 03       		.uleb128 0x3
 3698 0a62 91       		.byte	0x91
 3699 0a63 F877     		.sleb128 -1032
 3700 0a65 19       		.uleb128 0x19
 3701 0a66 01       		.uleb128 0x1
 3702 0a67 51       		.byte	0x51
 3703 0a68 02       		.uleb128 0x2
 3704 0a69 08       		.byte	0x8
 3705 0a6a C8       		.byte	0xc8
 3706 0a6b 19       		.uleb128 0x19
 3707 0a6c 01       		.uleb128 0x1
 3708 0a6d 52       		.byte	0x52
 3709 0a6e 03       		.uleb128 0x3
 3710 0a6f 91       		.byte	0x91
 3711 0a70 8C70     		.sleb128 -2036
 3712 0a72 19       		.uleb128 0x19
 3713 0a73 01       		.uleb128 0x1
 3714 0a74 53       		.byte	0x53
 3715 0a75 03       		.uleb128 0x3
 3716 0a76 91       		.byte	0x91
 3717 0a77 FC6F     		.sleb128 -2052
 3718 0a79 00       		.byte	0
 3719 0a7a 18       		.uleb128 0x18
 3720 0a7b E8000000 		.4byte	.LVL20
 3721 0a7f 120E0000 		.4byte	0xe12
 3722 0a83 A30A0000 		.4byte	0xaa3
 3723 0a87 19       		.uleb128 0x19
 3724 0a88 01       		.uleb128 0x1
 3725 0a89 50       		.byte	0x50
 3726 0a8a 03       		.uleb128 0x3
 3727 0a8b 91       		.byte	0x91
 3728 0a8c 9070     		.sleb128 -2032
 3729 0a8e 19       		.uleb128 0x19
 3730 0a8f 01       		.uleb128 0x1
 3731 0a90 51       		.byte	0x51
 3732 0a91 02       		.uleb128 0x2
 3733 0a92 08       		.byte	0x8
 3734 0a93 C8       		.byte	0xc8
 3735 0a94 19       		.uleb128 0x19
 3736 0a95 01       		.uleb128 0x1
 3737 0a96 52       		.byte	0x52
 3738 0a97 03       		.uleb128 0x3
 3739 0a98 91       		.byte	0x91
 3740 0a99 8870     		.sleb128 -2040
 3741 0a9b 19       		.uleb128 0x19
 3742 0a9c 01       		.uleb128 0x1
 3743 0a9d 53       		.byte	0x53
 3744 0a9e 03       		.uleb128 0x3
 3745 0a9f 91       		.byte	0x91
 3746 0aa0 FC6F     		.sleb128 -2052
ARM GAS  C:\Users\jmori\AppData\Local\Temp\ccFGeXpP.s 			page 102


 3747 0aa2 00       		.byte	0
 3748 0aa3 18       		.uleb128 0x18
 3749 0aa4 F6000000 		.4byte	.LVL21
 3750 0aa8 1E0E0000 		.4byte	0xe1e
 3751 0aac CC0A0000 		.4byte	0xacc
 3752 0ab0 19       		.uleb128 0x19
 3753 0ab1 01       		.uleb128 0x1
 3754 0ab2 50       		.byte	0x50
 3755 0ab3 03       		.uleb128 0x3
 3756 0ab4 91       		.byte	0x91
 3757 0ab5 F877     		.sleb128 -1032
 3758 0ab7 19       		.uleb128 0x19
 3759 0ab8 01       		.uleb128 0x1
 3760 0ab9 51       		.byte	0x51
 3761 0aba 02       		.uleb128 0x2
 3762 0abb 08       		.byte	0x8
 3763 0abc C8       		.byte	0xc8
 3764 0abd 19       		.uleb128 0x19
 3765 0abe 01       		.uleb128 0x1
 3766 0abf 52       		.byte	0x52
 3767 0ac0 03       		.uleb128 0x3
 3768 0ac1 91       		.byte	0x91
 3769 0ac2 8470     		.sleb128 -2044
 3770 0ac4 19       		.uleb128 0x19
 3771 0ac5 01       		.uleb128 0x1
 3772 0ac6 53       		.byte	0x53
 3773 0ac7 03       		.uleb128 0x3
 3774 0ac8 91       		.byte	0x91
 3775 0ac9 FC6F     		.sleb128 -2052
 3776 0acb 00       		.byte	0
 3777 0acc 1A       		.uleb128 0x1a
 3778 0acd 02010000 		.4byte	.LVL22
 3779 0ad1 1E0E0000 		.4byte	0xe1e
 3780 0ad5 19       		.uleb128 0x19
 3781 0ad6 01       		.uleb128 0x1
 3782 0ad7 50       		.byte	0x50
 3783 0ad8 03       		.uleb128 0x3
 3784 0ad9 91       		.byte	0x91
 3785 0ada 9070     		.sleb128 -2032
 3786 0adc 19       		.uleb128 0x19
 3787 0add 01       		.uleb128 0x1
 3788 0ade 51       		.byte	0x51
 3789 0adf 02       		.uleb128 0x2
 3790 0ae0 08       		.byte	0x8
 3791 0ae1 C8       		.byte	0xc8
 3792 0ae2 19       		.uleb128 0x19
 3793 0ae3 01       		.uleb128 0x1
 3794 0ae4 52       		.byte	0x52
 3795 0ae5 03       		.uleb128 0x3
 3796 0ae6 91       		.byte	0x91
 3797 0ae7 8070     		.sleb128 -2048
 3798 0ae9 19       		.uleb128 0x19
 3799 0aea 01       		.uleb128 0x1
 3800 0aeb 53       		.byte	0x53
 3801 0aec 03       		.uleb128 0x3
 3802 0aed 91       		.byte	0x91
 3803 0aee FC6F     		.sleb128 -2052
ARM GAS  C:\Users\jmori\AppData\Local\Temp\ccFGeXpP.s 			page 103


 3804 0af0 00       		.byte	0
 3805 0af1 00       		.byte	0
 3806 0af2 07       		.uleb128 0x7
 3807 0af3 25000000 		.4byte	0x25
 3808 0af7 020B0000 		.4byte	0xb02
 3809 0afb 08       		.uleb128 0x8
 3810 0afc E0000000 		.4byte	0xe0
 3811 0b00 F9       		.byte	0xf9
 3812 0b01 00       		.byte	0
 3813 0b02 25       		.uleb128 0x25
 3814 0b03 DC020000 		.4byte	.LASF199
 3815 0b07 01       		.byte	0x1
 3816 0b08 0404     		.2byte	0x404
 3817 0b0a 9B000000 		.4byte	0x9b
 3818 0b0e 00000000 		.4byte	.LFB369
 3819 0b12 84000000 		.4byte	.LFE369-.LFB369
 3820 0b16 01       		.uleb128 0x1
 3821 0b17 9C       		.byte	0x9c
 3822 0b18 BC0B0000 		.4byte	0xbbc
 3823 0b1c 26       		.uleb128 0x26
 3824 0b1d 7E070000 		.4byte	0x77e
 3825 0b21 1E000000 		.4byte	.LBB17
 3826 0b25 02000000 		.4byte	.LBE17-.LBB17
 3827 0b29 01       		.byte	0x1
 3828 0b2a 0D04     		.2byte	0x40d
 3829 0b2c 1E       		.uleb128 0x1e
 3830 0b2d 2C000000 		.4byte	.LBB19
 3831 0b31 14000000 		.4byte	.LBE19-.LBB19
 3832 0b35 4F0B0000 		.4byte	0xb4f
 3833 0b39 1F       		.uleb128 0x1f
 3834 0b3a 0B040000 		.4byte	.LASF165
 3835 0b3e 01       		.byte	0x1
 3836 0b3f 1604     		.2byte	0x416
 3837 0b41 25000000 		.4byte	0x25
 3838 0b45 27       		.uleb128 0x27
 3839 0b46 40000000 		.4byte	.LVL40
 3840 0b4a 95080000 		.4byte	0x895
 3841 0b4e 00       		.byte	0
 3842 0b4f 1E       		.uleb128 0x1e
 3843 0b50 5A000000 		.4byte	.LBB20
 3844 0b54 2A000000 		.4byte	.LBE20-.LBB20
 3845 0b58 720B0000 		.4byte	0xb72
 3846 0b5c 28       		.uleb128 0x28
 3847 0b5d 62706D00 		.ascii	"bpm\000"
 3848 0b61 01       		.byte	0x1
 3849 0b62 1904     		.2byte	0x419
 3850 0b64 25000000 		.4byte	0x25
 3851 0b68 27       		.uleb128 0x27
 3852 0b69 62000000 		.4byte	.LVL41
 3853 0b6d 23080000 		.4byte	0x823
 3854 0b71 00       		.byte	0
 3855 0b72 27       		.uleb128 0x27
 3856 0b73 08000000 		.4byte	.LVL37
 3857 0b77 2A0E0000 		.4byte	0xe2a
 3858 0b7b 18       		.uleb128 0x18
 3859 0b7c 1A000000 		.4byte	.LVL38
 3860 0b80 360E0000 		.4byte	0xe36
ARM GAS  C:\Users\jmori\AppData\Local\Temp\ccFGeXpP.s 			page 104


 3861 0b84 B20B0000 		.4byte	0xbb2
 3862 0b88 19       		.uleb128 0x19
 3863 0b89 01       		.uleb128 0x1
 3864 0b8a 50       		.byte	0x50
 3865 0b8b 05       		.uleb128 0x5
 3866 0b8c 03       		.byte	0x3
 3867 0b8d 00000000 		.4byte	AlarmeFC
 3868 0b91 19       		.uleb128 0x19
 3869 0b92 01       		.uleb128 0x1
 3870 0b93 51       		.byte	0x51
 3871 0b94 05       		.uleb128 0x5
 3872 0b95 03       		.byte	0x3
 3873 0b96 00000000 		.4byte	.LC0
 3874 0b9a 19       		.uleb128 0x19
 3875 0b9b 01       		.uleb128 0x1
 3876 0b9c 52       		.byte	0x52
 3877 0b9d 02       		.uleb128 0x2
 3878 0b9e 08       		.byte	0x8
 3879 0b9f 50       		.byte	0x50
 3880 0ba0 19       		.uleb128 0x19
 3881 0ba1 01       		.uleb128 0x1
 3882 0ba2 53       		.byte	0x53
 3883 0ba3 01       		.uleb128 0x1
 3884 0ba4 30       		.byte	0x30
 3885 0ba5 19       		.uleb128 0x19
 3886 0ba6 02       		.uleb128 0x2
 3887 0ba7 7D       		.byte	0x7d
 3888 0ba8 00       		.sleb128 0
 3889 0ba9 01       		.uleb128 0x1
 3890 0baa 31       		.byte	0x31
 3891 0bab 19       		.uleb128 0x19
 3892 0bac 02       		.uleb128 0x2
 3893 0bad 7D       		.byte	0x7d
 3894 0bae 04       		.sleb128 4
 3895 0baf 01       		.uleb128 0x1
 3896 0bb0 30       		.byte	0x30
 3897 0bb1 00       		.byte	0
 3898 0bb2 27       		.uleb128 0x27
 3899 0bb3 1E000000 		.4byte	.LVL39
 3900 0bb7 420E0000 		.4byte	0xe42
 3901 0bbb 00       		.byte	0
 3902 0bbc 07       		.uleb128 0x7
 3903 0bbd DE060000 		.4byte	0x6de
 3904 0bc1 CD0B0000 		.4byte	0xbcd
 3905 0bc5 29       		.uleb128 0x29
 3906 0bc6 E0000000 		.4byte	0xe0
 3907 0bca 2304     		.2byte	0x423
 3908 0bcc 00       		.byte	0
 3909 0bcd 2A       		.uleb128 0x2a
 3910 0bce 570A0000 		.4byte	.LASF166
 3911 0bd2 01       		.byte	0x1
 3912 0bd3 18       		.byte	0x18
 3913 0bd4 BC0B0000 		.4byte	0xbbc
 3914 0bd8 05       		.uleb128 0x5
 3915 0bd9 03       		.byte	0x3
 3916 0bda 10000000 		.4byte	firStateF32
 3917 0bde 07       		.uleb128 0x7
ARM GAS  C:\Users\jmori\AppData\Local\Temp\ccFGeXpP.s 			page 105


 3918 0bdf EA060000 		.4byte	0x6ea
 3919 0be3 EF0B0000 		.4byte	0xbef
 3920 0be7 29       		.uleb128 0x29
 3921 0be8 E0000000 		.4byte	0xe0
 3922 0bec 5C03     		.2byte	0x35c
 3923 0bee 00       		.byte	0
 3924 0bef 2A       		.uleb128 0x2a
 3925 0bf0 AC030000 		.4byte	.LASF167
 3926 0bf4 01       		.byte	0x1
 3927 0bf5 1A       		.byte	0x1a
 3928 0bf6 DE0B0000 		.4byte	0xbde
 3929 0bfa 05       		.uleb128 0x5
 3930 0bfb 03       		.byte	0x3
 3931 0bfc 08000000 		.4byte	firCoeffs32
 3932 0c00 2B       		.uleb128 0x2b
 3933 0c01 92010000 		.4byte	.LASF168
 3934 0c05 0C       		.byte	0xc
 3935 0c06 0108     		.2byte	0x801
 3936 0c08 0C0C0000 		.4byte	0xc0c
 3937 0c0c 05       		.uleb128 0x5
 3938 0c0d CA000000 		.4byte	0xca
 3939 0c11 2C       		.uleb128 0x2c
 3940 0c12 02070000 		.4byte	.LASF169
 3941 0c16 08       		.byte	0x8
 3942 0c17 A7       		.byte	0xa7
 3943 0c18 1C0C0000 		.4byte	0xc1c
 3944 0c1c 11       		.uleb128 0x11
 3945 0c1d 04       		.byte	0x4
 3946 0c1e 220C0000 		.4byte	0xc22
 3947 0c22 06       		.uleb128 0x6
 3948 0c23 C0060000 		.4byte	0x6c0
 3949 0c27 2D       		.uleb128 0x2d
 3950 0c28 B5090000 		.4byte	.LASF170
 3951 0c2c 01       		.byte	0x1
 3952 0c2d 7C03     		.2byte	0x37c
 3953 0c2f D5000000 		.4byte	0xd5
 3954 0c33 05       		.uleb128 0x5
 3955 0c34 03       		.byte	0x3
 3956 0c35 00000000 		.4byte	blockSize
 3957 0c39 2D       		.uleb128 0x2d
 3958 0c3a 84090000 		.4byte	.LASF171
 3959 0c3e 01       		.byte	0x1
 3960 0c3f 7D03     		.2byte	0x37d
 3961 0c41 D5000000 		.4byte	0xd5
 3962 0c45 05       		.uleb128 0x5
 3963 0c46 03       		.byte	0x3
 3964 0c47 00000000 		.4byte	numBlocks
 3965 0c4b 2E       		.uleb128 0x2e
 3966 0c4c 5300     		.ascii	"S\000"
 3967 0c4e 01       		.byte	0x1
 3968 0c4f 7E03     		.2byte	0x37e
 3969 0c51 2F070000 		.4byte	0x72f
 3970 0c55 05       		.uleb128 0x5
 3971 0c56 03       		.byte	0x3
 3972 0c57 00000000 		.4byte	S
 3973 0c5b 2E       		.uleb128 0x2e
 3974 0c5c 5200     		.ascii	"R\000"
ARM GAS  C:\Users\jmori\AppData\Local\Temp\ccFGeXpP.s 			page 106


 3975 0c5e 01       		.byte	0x1
 3976 0c5f 7F03     		.2byte	0x37f
 3977 0c61 6B0C0000 		.4byte	0xc6b
 3978 0c65 05       		.uleb128 0x5
 3979 0c66 03       		.byte	0x3
 3980 0c67 00000000 		.4byte	R
 3981 0c6b 05       		.uleb128 0x5
 3982 0c6c 25000000 		.4byte	0x25
 3983 0c70 2D       		.uleb128 0x2d
 3984 0c71 0B040000 		.4byte	.LASF165
 3985 0c75 01       		.byte	0x1
 3986 0c76 8003     		.2byte	0x380
 3987 0c78 6B0C0000 		.4byte	0xc6b
 3988 0c7c 05       		.uleb128 0x5
 3989 0c7d 03       		.byte	0x3
 3990 0c7e 00000000 		.4byte	SpO2
 3991 0c82 2E       		.uleb128 0x2e
 3992 0c83 62706D00 		.ascii	"bpm\000"
 3993 0c87 01       		.byte	0x1
 3994 0c88 8103     		.2byte	0x381
 3995 0c8a 6B0C0000 		.4byte	0xc6b
 3996 0c8e 05       		.uleb128 0x5
 3997 0c8f 03       		.byte	0x3
 3998 0c90 00000000 		.4byte	bpm
 3999 0c94 2D       		.uleb128 0x2d
 4000 0c95 63040000 		.4byte	.LASF172
 4001 0c99 01       		.byte	0x1
 4002 0c9a 8303     		.2byte	0x383
 4003 0c9c A60C0000 		.4byte	0xca6
 4004 0ca0 05       		.uleb128 0x5
 4005 0ca1 03       		.byte	0x3
 4006 0ca2 00000000 		.4byte	NbreMax
 4007 0ca6 05       		.uleb128 0x5
 4008 0ca7 9B000000 		.4byte	0x9b
 4009 0cab 2D       		.uleb128 0x2d
 4010 0cac 05080000 		.4byte	.LASF173
 4011 0cb0 01       		.byte	0x1
 4012 0cb1 8403     		.2byte	0x384
 4013 0cb3 A60C0000 		.4byte	0xca6
 4014 0cb7 05       		.uleb128 0x5
 4015 0cb8 03       		.byte	0x3
 4016 0cb9 00000000 		.4byte	flag
 4017 0cbd 2D       		.uleb128 0x2d
 4018 0cbe 08090000 		.4byte	.LASF174
 4019 0cc2 01       		.byte	0x1
 4020 0cc3 8503     		.2byte	0x385
 4021 0cc5 A60C0000 		.4byte	0xca6
 4022 0cc9 05       		.uleb128 0x5
 4023 0cca 03       		.byte	0x3
 4024 0ccb 00000000 		.4byte	NbreSec
 4025 0ccf 07       		.uleb128 0x7
 4026 0cd0 6B0C0000 		.4byte	0xc6b
 4027 0cd4 DF0C0000 		.4byte	0xcdf
 4028 0cd8 08       		.uleb128 0x8
 4029 0cd9 E0000000 		.4byte	0xe0
 4030 0cdd 3B       		.byte	0x3b
 4031 0cde 00       		.byte	0
ARM GAS  C:\Users\jmori\AppData\Local\Temp\ccFGeXpP.s 			page 107


 4032 0cdf 2D       		.uleb128 0x2d
 4033 0ce0 CB0A0000 		.4byte	.LASF175
 4034 0ce4 01       		.byte	0x1
 4035 0ce5 8803     		.2byte	0x388
 4036 0ce7 F10C0000 		.4byte	0xcf1
 4037 0ceb 05       		.uleb128 0x5
 4038 0cec 03       		.byte	0x3
 4039 0ced 00000000 		.4byte	Circulaire
 4040 0cf1 05       		.uleb128 0x5
 4041 0cf2 CF0C0000 		.4byte	0xccf
 4042 0cf6 2D       		.uleb128 0x2d
 4043 0cf7 6B040000 		.4byte	.LASF176
 4044 0cfb 01       		.byte	0x1
 4045 0cfc 8903     		.2byte	0x389
 4046 0cfe A60C0000 		.4byte	0xca6
 4047 0d02 05       		.uleb128 0x5
 4048 0d03 03       		.byte	0x3
 4049 0d04 00000000 		.4byte	borneSup
 4050 0d08 2D       		.uleb128 0x2d
 4051 0d09 07030000 		.4byte	.LASF177
 4052 0d0d 01       		.byte	0x1
 4053 0d0e 8A03     		.2byte	0x38a
 4054 0d10 A60C0000 		.4byte	0xca6
 4055 0d14 05       		.uleb128 0x5
 4056 0d15 03       		.byte	0x3
 4057 0d16 00000000 		.4byte	borneInf
 4058 0d1a 2D       		.uleb128 0x2d
 4059 0d1b FB070000 		.4byte	.LASF178
 4060 0d1f 01       		.byte	0x1
 4061 0d20 B603     		.2byte	0x3b6
 4062 0d22 A60C0000 		.4byte	0xca6
 4063 0d26 05       		.uleb128 0x5
 4064 0d27 03       		.byte	0x3
 4065 0d28 00000000 		.4byte	Interface
 4066 0d2c 07       		.uleb128 0x7
 4067 0d2d 6B0C0000 		.4byte	0xc6b
 4068 0d31 3D0D0000 		.4byte	0xd3d
 4069 0d35 29       		.uleb128 0x29
 4070 0d36 E0000000 		.4byte	0xe0
 4071 0d3a E703     		.2byte	0x3e7
 4072 0d3c 00       		.byte	0
 4073 0d3d 2D       		.uleb128 0x2d
 4074 0d3e 4F070000 		.4byte	.LASF179
 4075 0d42 01       		.byte	0x1
 4076 0d43 B803     		.2byte	0x3b8
 4077 0d45 4F0D0000 		.4byte	0xd4f
 4078 0d49 05       		.uleb128 0x5
 4079 0d4a 03       		.byte	0x3
 4080 0d4b 00000000 		.4byte	dataIrBrut
 4081 0d4f 05       		.uleb128 0x5
 4082 0d50 2C0D0000 		.4byte	0xd2c
 4083 0d54 2D       		.uleb128 0x2d
 4084 0d55 55010000 		.4byte	.LASF180
 4085 0d59 01       		.byte	0x1
 4086 0d5a B903     		.2byte	0x3b9
 4087 0d5c 660D0000 		.4byte	0xd66
 4088 0d60 05       		.uleb128 0x5
ARM GAS  C:\Users\jmori\AppData\Local\Temp\ccFGeXpP.s 			page 108


 4089 0d61 03       		.byte	0x3
 4090 0d62 00000000 		.4byte	dataIRInterface
 4091 0d66 11       		.uleb128 0x11
 4092 0d67 04       		.byte	0x4
 4093 0d68 6B0C0000 		.4byte	0xc6b
 4094 0d6c 2D       		.uleb128 0x2d
 4095 0d6d 12000000 		.4byte	.LASF181
 4096 0d71 01       		.byte	0x1
 4097 0d72 BA03     		.2byte	0x3ba
 4098 0d74 7E0D0000 		.4byte	0xd7e
 4099 0d78 05       		.uleb128 0x5
 4100 0d79 03       		.byte	0x3
 4101 0d7a 00000000 		.4byte	dataRedBrut
 4102 0d7e 05       		.uleb128 0x5
 4103 0d7f 2C0D0000 		.4byte	0xd2c
 4104 0d83 2D       		.uleb128 0x2d
 4105 0d84 CC090000 		.4byte	.LASF182
 4106 0d88 01       		.byte	0x1
 4107 0d89 BB03     		.2byte	0x3bb
 4108 0d8b 660D0000 		.4byte	0xd66
 4109 0d8f 05       		.uleb128 0x5
 4110 0d90 03       		.byte	0x3
 4111 0d91 00000000 		.4byte	dataRedInterface
 4112 0d95 2D       		.uleb128 0x2d
 4113 0d96 EB070000 		.4byte	.LASF183
 4114 0d9a 01       		.byte	0x1
 4115 0d9b FD03     		.2byte	0x3fd
 4116 0d9d A70D0000 		.4byte	0xda7
 4117 0da1 05       		.uleb128 0x5
 4118 0da2 03       		.byte	0x3
 4119 0da3 00000000 		.4byte	Index
 4120 0da7 05       		.uleb128 0x5
 4121 0da8 F1060000 		.4byte	0x6f1
 4122 0dac 2D       		.uleb128 0x2d
 4123 0dad 1E080000 		.4byte	.LASF151
 4124 0db1 01       		.byte	0x1
 4125 0db2 0004     		.2byte	0x400
 4126 0db4 8F080000 		.4byte	0x88f
 4127 0db8 05       		.uleb128 0x5
 4128 0db9 03       		.byte	0x3
 4129 0dba 00000000 		.4byte	maximum
 4130 0dbe 2D       		.uleb128 0x2d
 4131 0dbf DD090000 		.4byte	.LASF152
 4132 0dc3 01       		.byte	0x1
 4133 0dc4 0104     		.2byte	0x401
 4134 0dc6 8F080000 		.4byte	0x88f
 4135 0dca 05       		.uleb128 0x5
 4136 0dcb 03       		.byte	0x3
 4137 0dcc 00000000 		.4byte	dataIR
 4138 0dd0 2D       		.uleb128 0x2d
 4139 0dd1 59020000 		.4byte	.LASF153
 4140 0dd5 01       		.byte	0x1
 4141 0dd6 0204     		.2byte	0x402
 4142 0dd8 8F080000 		.4byte	0x88f
 4143 0ddc 05       		.uleb128 0x5
 4144 0ddd 03       		.byte	0x3
 4145 0dde 00000000 		.4byte	dataRed
ARM GAS  C:\Users\jmori\AppData\Local\Temp\ccFGeXpP.s 			page 109


 4146 0de2 2F       		.uleb128 0x2f
 4147 0de3 13020000 		.4byte	.LASF184
 4148 0de7 13020000 		.4byte	.LASF184
 4149 0deb 0D       		.byte	0xd
 4150 0dec ED02     		.2byte	0x2ed
 4151 0dee 2F       		.uleb128 0x2f
 4152 0def BF090000 		.4byte	.LASF185
 4153 0df3 BF090000 		.4byte	.LASF185
 4154 0df7 0A       		.byte	0xa
 4155 0df8 1D18     		.2byte	0x181d
 4156 0dfa 2F       		.uleb128 0x2f
 4157 0dfb 02020000 		.4byte	.LASF186
 4158 0dff 02020000 		.4byte	.LASF186
 4159 0e03 0A       		.byte	0xa
 4160 0e04 A604     		.2byte	0x4a6
 4161 0e06 2F       		.uleb128 0x2f
 4162 0e07 73000000 		.4byte	.LASF187
 4163 0e0b 73000000 		.4byte	.LASF187
 4164 0e0f 0A       		.byte	0xa
 4165 0e10 9704     		.2byte	0x497
 4166 0e12 2F       		.uleb128 0x2f
 4167 0e13 6A090000 		.4byte	.LASF188
 4168 0e17 6A090000 		.4byte	.LASF188
 4169 0e1b 0A       		.byte	0xa
 4170 0e1c 7619     		.2byte	0x1976
 4171 0e1e 2F       		.uleb128 0x2f
 4172 0e1f 74040000 		.4byte	.LASF189
 4173 0e23 74040000 		.4byte	.LASF189
 4174 0e27 0A       		.byte	0xa
 4175 0e28 3E19     		.2byte	0x193e
 4176 0e2a 2F       		.uleb128 0x2f
 4177 0e2b 2E070000 		.4byte	.LASF190
 4178 0e2f 2E070000 		.4byte	.LASF190
 4179 0e33 0E       		.byte	0xe
 4180 0e34 1902     		.2byte	0x219
 4181 0e36 2F       		.uleb128 0x2f
 4182 0e37 53000000 		.4byte	.LASF191
 4183 0e3b 53000000 		.4byte	.LASF191
 4184 0e3f 0D       		.byte	0xd
 4185 0e40 4101     		.2byte	0x141
 4186 0e42 2F       		.uleb128 0x2f
 4187 0e43 36030000 		.4byte	.LASF192
 4188 0e47 36030000 		.4byte	.LASF192
 4189 0e4b 0D       		.byte	0xd
 4190 0e4c 8E04     		.2byte	0x48e
 4191 0e4e 00       		.byte	0
 4192              		.section	.debug_abbrev,"",%progbits
 4193              	.Ldebug_abbrev0:
 4194 0000 01       		.uleb128 0x1
 4195 0001 11       		.uleb128 0x11
 4196 0002 01       		.byte	0x1
 4197 0003 25       		.uleb128 0x25
 4198 0004 0E       		.uleb128 0xe
 4199 0005 13       		.uleb128 0x13
 4200 0006 0B       		.uleb128 0xb
 4201 0007 03       		.uleb128 0x3
 4202 0008 0E       		.uleb128 0xe
ARM GAS  C:\Users\jmori\AppData\Local\Temp\ccFGeXpP.s 			page 110


 4203 0009 1B       		.uleb128 0x1b
 4204 000a 0E       		.uleb128 0xe
 4205 000b 55       		.uleb128 0x55
 4206 000c 17       		.uleb128 0x17
 4207 000d 11       		.uleb128 0x11
 4208 000e 01       		.uleb128 0x1
 4209 000f 10       		.uleb128 0x10
 4210 0010 17       		.uleb128 0x17
 4211 0011 00       		.byte	0
 4212 0012 00       		.byte	0
 4213 0013 02       		.uleb128 0x2
 4214 0014 24       		.uleb128 0x24
 4215 0015 00       		.byte	0
 4216 0016 0B       		.uleb128 0xb
 4217 0017 0B       		.uleb128 0xb
 4218 0018 3E       		.uleb128 0x3e
 4219 0019 0B       		.uleb128 0xb
 4220 001a 03       		.uleb128 0x3
 4221 001b 0E       		.uleb128 0xe
 4222 001c 00       		.byte	0
 4223 001d 00       		.byte	0
 4224 001e 03       		.uleb128 0x3
 4225 001f 16       		.uleb128 0x16
 4226 0020 00       		.byte	0
 4227 0021 03       		.uleb128 0x3
 4228 0022 0E       		.uleb128 0xe
 4229 0023 3A       		.uleb128 0x3a
 4230 0024 0B       		.uleb128 0xb
 4231 0025 3B       		.uleb128 0x3b
 4232 0026 0B       		.uleb128 0xb
 4233 0027 49       		.uleb128 0x49
 4234 0028 13       		.uleb128 0x13
 4235 0029 00       		.byte	0
 4236 002a 00       		.byte	0
 4237 002b 04       		.uleb128 0x4
 4238 002c 24       		.uleb128 0x24
 4239 002d 00       		.byte	0
 4240 002e 0B       		.uleb128 0xb
 4241 002f 0B       		.uleb128 0xb
 4242 0030 3E       		.uleb128 0x3e
 4243 0031 0B       		.uleb128 0xb
 4244 0032 03       		.uleb128 0x3
 4245 0033 08       		.uleb128 0x8
 4246 0034 00       		.byte	0
 4247 0035 00       		.byte	0
 4248 0036 05       		.uleb128 0x5
 4249 0037 35       		.uleb128 0x35
 4250 0038 00       		.byte	0
 4251 0039 49       		.uleb128 0x49
 4252 003a 13       		.uleb128 0x13
 4253 003b 00       		.byte	0
 4254 003c 00       		.byte	0
 4255 003d 06       		.uleb128 0x6
 4256 003e 26       		.uleb128 0x26
 4257 003f 00       		.byte	0
 4258 0040 49       		.uleb128 0x49
 4259 0041 13       		.uleb128 0x13
ARM GAS  C:\Users\jmori\AppData\Local\Temp\ccFGeXpP.s 			page 111


 4260 0042 00       		.byte	0
 4261 0043 00       		.byte	0
 4262 0044 07       		.uleb128 0x7
 4263 0045 01       		.uleb128 0x1
 4264 0046 01       		.byte	0x1
 4265 0047 49       		.uleb128 0x49
 4266 0048 13       		.uleb128 0x13
 4267 0049 01       		.uleb128 0x1
 4268 004a 13       		.uleb128 0x13
 4269 004b 00       		.byte	0
 4270 004c 00       		.byte	0
 4271 004d 08       		.uleb128 0x8
 4272 004e 21       		.uleb128 0x21
 4273 004f 00       		.byte	0
 4274 0050 49       		.uleb128 0x49
 4275 0051 13       		.uleb128 0x13
 4276 0052 2F       		.uleb128 0x2f
 4277 0053 0B       		.uleb128 0xb
 4278 0054 00       		.byte	0
 4279 0055 00       		.byte	0
 4280 0056 09       		.uleb128 0x9
 4281 0057 13       		.uleb128 0x13
 4282 0058 01       		.byte	0x1
 4283 0059 0B       		.uleb128 0xb
 4284 005a 0B       		.uleb128 0xb
 4285 005b 3A       		.uleb128 0x3a
 4286 005c 0B       		.uleb128 0xb
 4287 005d 3B       		.uleb128 0x3b
 4288 005e 0B       		.uleb128 0xb
 4289 005f 01       		.uleb128 0x1
 4290 0060 13       		.uleb128 0x13
 4291 0061 00       		.byte	0
 4292 0062 00       		.byte	0
 4293 0063 0A       		.uleb128 0xa
 4294 0064 0D       		.uleb128 0xd
 4295 0065 00       		.byte	0
 4296 0066 03       		.uleb128 0x3
 4297 0067 08       		.uleb128 0x8
 4298 0068 3A       		.uleb128 0x3a
 4299 0069 0B       		.uleb128 0xb
 4300 006a 3B       		.uleb128 0x3b
 4301 006b 0B       		.uleb128 0xb
 4302 006c 49       		.uleb128 0x49
 4303 006d 13       		.uleb128 0x13
 4304 006e 38       		.uleb128 0x38
 4305 006f 0B       		.uleb128 0xb
 4306 0070 00       		.byte	0
 4307 0071 00       		.byte	0
 4308 0072 0B       		.uleb128 0xb
 4309 0073 0D       		.uleb128 0xd
 4310 0074 00       		.byte	0
 4311 0075 03       		.uleb128 0x3
 4312 0076 0E       		.uleb128 0xe
 4313 0077 3A       		.uleb128 0x3a
 4314 0078 0B       		.uleb128 0xb
 4315 0079 3B       		.uleb128 0x3b
 4316 007a 0B       		.uleb128 0xb
ARM GAS  C:\Users\jmori\AppData\Local\Temp\ccFGeXpP.s 			page 112


 4317 007b 49       		.uleb128 0x49
 4318 007c 13       		.uleb128 0x13
 4319 007d 38       		.uleb128 0x38
 4320 007e 0B       		.uleb128 0xb
 4321 007f 00       		.byte	0
 4322 0080 00       		.byte	0
 4323 0081 0C       		.uleb128 0xc
 4324 0082 13       		.uleb128 0x13
 4325 0083 01       		.byte	0x1
 4326 0084 0B       		.uleb128 0xb
 4327 0085 05       		.uleb128 0x5
 4328 0086 3A       		.uleb128 0x3a
 4329 0087 0B       		.uleb128 0xb
 4330 0088 3B       		.uleb128 0x3b
 4331 0089 0B       		.uleb128 0xb
 4332 008a 01       		.uleb128 0x1
 4333 008b 13       		.uleb128 0x13
 4334 008c 00       		.byte	0
 4335 008d 00       		.byte	0
 4336 008e 0D       		.uleb128 0xd
 4337 008f 0D       		.uleb128 0xd
 4338 0090 00       		.byte	0
 4339 0091 03       		.uleb128 0x3
 4340 0092 0E       		.uleb128 0xe
 4341 0093 3A       		.uleb128 0x3a
 4342 0094 0B       		.uleb128 0xb
 4343 0095 3B       		.uleb128 0x3b
 4344 0096 0B       		.uleb128 0xb
 4345 0097 49       		.uleb128 0x49
 4346 0098 13       		.uleb128 0x13
 4347 0099 38       		.uleb128 0x38
 4348 009a 05       		.uleb128 0x5
 4349 009b 00       		.byte	0
 4350 009c 00       		.byte	0
 4351 009d 0E       		.uleb128 0xe
 4352 009e 16       		.uleb128 0x16
 4353 009f 00       		.byte	0
 4354 00a0 03       		.uleb128 0x3
 4355 00a1 0E       		.uleb128 0xe
 4356 00a2 3A       		.uleb128 0x3a
 4357 00a3 0B       		.uleb128 0xb
 4358 00a4 3B       		.uleb128 0x3b
 4359 00a5 05       		.uleb128 0x5
 4360 00a6 49       		.uleb128 0x49
 4361 00a7 13       		.uleb128 0x13
 4362 00a8 00       		.byte	0
 4363 00a9 00       		.byte	0
 4364 00aa 0F       		.uleb128 0xf
 4365 00ab 13       		.uleb128 0x13
 4366 00ac 01       		.byte	0x1
 4367 00ad 0B       		.uleb128 0xb
 4368 00ae 0B       		.uleb128 0xb
 4369 00af 3A       		.uleb128 0x3a
 4370 00b0 0B       		.uleb128 0xb
 4371 00b1 3B       		.uleb128 0x3b
 4372 00b2 05       		.uleb128 0x5
 4373 00b3 01       		.uleb128 0x1
ARM GAS  C:\Users\jmori\AppData\Local\Temp\ccFGeXpP.s 			page 113


 4374 00b4 13       		.uleb128 0x13
 4375 00b5 00       		.byte	0
 4376 00b6 00       		.byte	0
 4377 00b7 10       		.uleb128 0x10
 4378 00b8 0D       		.uleb128 0xd
 4379 00b9 00       		.byte	0
 4380 00ba 03       		.uleb128 0x3
 4381 00bb 0E       		.uleb128 0xe
 4382 00bc 3A       		.uleb128 0x3a
 4383 00bd 0B       		.uleb128 0xb
 4384 00be 3B       		.uleb128 0x3b
 4385 00bf 05       		.uleb128 0x5
 4386 00c0 49       		.uleb128 0x49
 4387 00c1 13       		.uleb128 0x13
 4388 00c2 38       		.uleb128 0x38
 4389 00c3 0B       		.uleb128 0xb
 4390 00c4 00       		.byte	0
 4391 00c5 00       		.byte	0
 4392 00c6 11       		.uleb128 0x11
 4393 00c7 0F       		.uleb128 0xf
 4394 00c8 00       		.byte	0
 4395 00c9 0B       		.uleb128 0xb
 4396 00ca 0B       		.uleb128 0xb
 4397 00cb 49       		.uleb128 0x49
 4398 00cc 13       		.uleb128 0x13
 4399 00cd 00       		.byte	0
 4400 00ce 00       		.byte	0
 4401 00cf 12       		.uleb128 0x12
 4402 00d0 2E       		.uleb128 0x2e
 4403 00d1 01       		.byte	0x1
 4404 00d2 03       		.uleb128 0x3
 4405 00d3 0E       		.uleb128 0xe
 4406 00d4 3A       		.uleb128 0x3a
 4407 00d5 0B       		.uleb128 0xb
 4408 00d6 3B       		.uleb128 0x3b
 4409 00d7 05       		.uleb128 0x5
 4410 00d8 27       		.uleb128 0x27
 4411 00d9 19       		.uleb128 0x19
 4412 00da 20       		.uleb128 0x20
 4413 00db 0B       		.uleb128 0xb
 4414 00dc 01       		.uleb128 0x1
 4415 00dd 13       		.uleb128 0x13
 4416 00de 00       		.byte	0
 4417 00df 00       		.byte	0
 4418 00e0 13       		.uleb128 0x13
 4419 00e1 05       		.uleb128 0x5
 4420 00e2 00       		.byte	0
 4421 00e3 03       		.uleb128 0x3
 4422 00e4 0E       		.uleb128 0xe
 4423 00e5 3A       		.uleb128 0x3a
 4424 00e6 0B       		.uleb128 0xb
 4425 00e7 3B       		.uleb128 0x3b
 4426 00e8 05       		.uleb128 0x5
 4427 00e9 49       		.uleb128 0x49
 4428 00ea 13       		.uleb128 0x13
 4429 00eb 00       		.byte	0
 4430 00ec 00       		.byte	0
ARM GAS  C:\Users\jmori\AppData\Local\Temp\ccFGeXpP.s 			page 114


 4431 00ed 14       		.uleb128 0x14
 4432 00ee 2E       		.uleb128 0x2e
 4433 00ef 00       		.byte	0
 4434 00f0 03       		.uleb128 0x3
 4435 00f1 0E       		.uleb128 0xe
 4436 00f2 3A       		.uleb128 0x3a
 4437 00f3 0B       		.uleb128 0xb
 4438 00f4 3B       		.uleb128 0x3b
 4439 00f5 0B       		.uleb128 0xb
 4440 00f6 27       		.uleb128 0x27
 4441 00f7 19       		.uleb128 0x19
 4442 00f8 20       		.uleb128 0x20
 4443 00f9 0B       		.uleb128 0xb
 4444 00fa 00       		.byte	0
 4445 00fb 00       		.byte	0
 4446 00fc 15       		.uleb128 0x15
 4447 00fd 2E       		.uleb128 0x2e
 4448 00fe 01       		.byte	0x1
 4449 00ff 3F       		.uleb128 0x3f
 4450 0100 19       		.uleb128 0x19
 4451 0101 03       		.uleb128 0x3
 4452 0102 0E       		.uleb128 0xe
 4453 0103 3A       		.uleb128 0x3a
 4454 0104 0B       		.uleb128 0xb
 4455 0105 3B       		.uleb128 0x3b
 4456 0106 05       		.uleb128 0x5
 4457 0107 8701     		.uleb128 0x87
 4458 0109 19       		.uleb128 0x19
 4459 010a 11       		.uleb128 0x11
 4460 010b 01       		.uleb128 0x1
 4461 010c 12       		.uleb128 0x12
 4462 010d 06       		.uleb128 0x6
 4463 010e 40       		.uleb128 0x40
 4464 010f 18       		.uleb128 0x18
 4465 0110 9742     		.uleb128 0x2117
 4466 0112 19       		.uleb128 0x19
 4467 0113 01       		.uleb128 0x1
 4468 0114 13       		.uleb128 0x13
 4469 0115 00       		.byte	0
 4470 0116 00       		.byte	0
 4471 0117 16       		.uleb128 0x16
 4472 0118 1D       		.uleb128 0x1d
 4473 0119 01       		.byte	0x1
 4474 011a 31       		.uleb128 0x31
 4475 011b 13       		.uleb128 0x13
 4476 011c 11       		.uleb128 0x11
 4477 011d 01       		.uleb128 0x1
 4478 011e 12       		.uleb128 0x12
 4479 011f 06       		.uleb128 0x6
 4480 0120 58       		.uleb128 0x58
 4481 0121 0B       		.uleb128 0xb
 4482 0122 59       		.uleb128 0x59
 4483 0123 05       		.uleb128 0x5
 4484 0124 01       		.uleb128 0x1
 4485 0125 13       		.uleb128 0x13
 4486 0126 00       		.byte	0
 4487 0127 00       		.byte	0
ARM GAS  C:\Users\jmori\AppData\Local\Temp\ccFGeXpP.s 			page 115


 4488 0128 17       		.uleb128 0x17
 4489 0129 05       		.uleb128 0x5
 4490 012a 00       		.byte	0
 4491 012b 31       		.uleb128 0x31
 4492 012c 13       		.uleb128 0x13
 4493 012d 02       		.uleb128 0x2
 4494 012e 17       		.uleb128 0x17
 4495 012f 00       		.byte	0
 4496 0130 00       		.byte	0
 4497 0131 18       		.uleb128 0x18
 4498 0132 898201   		.uleb128 0x4109
 4499 0135 01       		.byte	0x1
 4500 0136 11       		.uleb128 0x11
 4501 0137 01       		.uleb128 0x1
 4502 0138 31       		.uleb128 0x31
 4503 0139 13       		.uleb128 0x13
 4504 013a 01       		.uleb128 0x1
 4505 013b 13       		.uleb128 0x13
 4506 013c 00       		.byte	0
 4507 013d 00       		.byte	0
 4508 013e 19       		.uleb128 0x19
 4509 013f 8A8201   		.uleb128 0x410a
 4510 0142 00       		.byte	0
 4511 0143 02       		.uleb128 0x2
 4512 0144 18       		.uleb128 0x18
 4513 0145 9142     		.uleb128 0x2111
 4514 0147 18       		.uleb128 0x18
 4515 0148 00       		.byte	0
 4516 0149 00       		.byte	0
 4517 014a 1A       		.uleb128 0x1a
 4518 014b 898201   		.uleb128 0x4109
 4519 014e 01       		.byte	0x1
 4520 014f 11       		.uleb128 0x11
 4521 0150 01       		.uleb128 0x1
 4522 0151 31       		.uleb128 0x31
 4523 0152 13       		.uleb128 0x13
 4524 0153 00       		.byte	0
 4525 0154 00       		.byte	0
 4526 0155 1B       		.uleb128 0x1b
 4527 0156 2E       		.uleb128 0x2e
 4528 0157 01       		.byte	0x1
 4529 0158 3F       		.uleb128 0x3f
 4530 0159 19       		.uleb128 0x19
 4531 015a 03       		.uleb128 0x3
 4532 015b 08       		.uleb128 0x8
 4533 015c 3A       		.uleb128 0x3a
 4534 015d 0B       		.uleb128 0xb
 4535 015e 3B       		.uleb128 0x3b
 4536 015f 05       		.uleb128 0x5
 4537 0160 27       		.uleb128 0x27
 4538 0161 19       		.uleb128 0x19
 4539 0162 49       		.uleb128 0x49
 4540 0163 13       		.uleb128 0x13
 4541 0164 11       		.uleb128 0x11
 4542 0165 01       		.uleb128 0x1
 4543 0166 12       		.uleb128 0x12
 4544 0167 06       		.uleb128 0x6
ARM GAS  C:\Users\jmori\AppData\Local\Temp\ccFGeXpP.s 			page 116


 4545 0168 40       		.uleb128 0x40
 4546 0169 18       		.uleb128 0x18
 4547 016a 9742     		.uleb128 0x2117
 4548 016c 19       		.uleb128 0x19
 4549 016d 01       		.uleb128 0x1
 4550 016e 13       		.uleb128 0x13
 4551 016f 00       		.byte	0
 4552 0170 00       		.byte	0
 4553 0171 1C       		.uleb128 0x1c
 4554 0172 05       		.uleb128 0x5
 4555 0173 00       		.byte	0
 4556 0174 03       		.uleb128 0x3
 4557 0175 0E       		.uleb128 0xe
 4558 0176 3A       		.uleb128 0x3a
 4559 0177 0B       		.uleb128 0xb
 4560 0178 3B       		.uleb128 0x3b
 4561 0179 05       		.uleb128 0x5
 4562 017a 49       		.uleb128 0x49
 4563 017b 13       		.uleb128 0x13
 4564 017c 02       		.uleb128 0x2
 4565 017d 17       		.uleb128 0x17
 4566 017e 00       		.byte	0
 4567 017f 00       		.byte	0
 4568 0180 1D       		.uleb128 0x1d
 4569 0181 34       		.uleb128 0x34
 4570 0182 00       		.byte	0
 4571 0183 03       		.uleb128 0x3
 4572 0184 08       		.uleb128 0x8
 4573 0185 3A       		.uleb128 0x3a
 4574 0186 0B       		.uleb128 0xb
 4575 0187 3B       		.uleb128 0x3b
 4576 0188 05       		.uleb128 0x5
 4577 0189 49       		.uleb128 0x49
 4578 018a 13       		.uleb128 0x13
 4579 018b 1C       		.uleb128 0x1c
 4580 018c 0A       		.uleb128 0xa
 4581 018d 00       		.byte	0
 4582 018e 00       		.byte	0
 4583 018f 1E       		.uleb128 0x1e
 4584 0190 0B       		.uleb128 0xb
 4585 0191 01       		.byte	0x1
 4586 0192 11       		.uleb128 0x11
 4587 0193 01       		.uleb128 0x1
 4588 0194 12       		.uleb128 0x12
 4589 0195 06       		.uleb128 0x6
 4590 0196 01       		.uleb128 0x1
 4591 0197 13       		.uleb128 0x13
 4592 0198 00       		.byte	0
 4593 0199 00       		.byte	0
 4594 019a 1F       		.uleb128 0x1f
 4595 019b 34       		.uleb128 0x34
 4596 019c 00       		.byte	0
 4597 019d 03       		.uleb128 0x3
 4598 019e 0E       		.uleb128 0xe
 4599 019f 3A       		.uleb128 0x3a
 4600 01a0 0B       		.uleb128 0xb
 4601 01a1 3B       		.uleb128 0x3b
ARM GAS  C:\Users\jmori\AppData\Local\Temp\ccFGeXpP.s 			page 117


 4602 01a2 05       		.uleb128 0x5
 4603 01a3 49       		.uleb128 0x49
 4604 01a4 13       		.uleb128 0x13
 4605 01a5 00       		.byte	0
 4606 01a6 00       		.byte	0
 4607 01a7 20       		.uleb128 0x20
 4608 01a8 0B       		.uleb128 0xb
 4609 01a9 01       		.byte	0x1
 4610 01aa 11       		.uleb128 0x11
 4611 01ab 01       		.uleb128 0x1
 4612 01ac 12       		.uleb128 0x12
 4613 01ad 06       		.uleb128 0x6
 4614 01ae 00       		.byte	0
 4615 01af 00       		.byte	0
 4616 01b0 21       		.uleb128 0x21
 4617 01b1 2E       		.uleb128 0x2e
 4618 01b2 01       		.byte	0x1
 4619 01b3 3F       		.uleb128 0x3f
 4620 01b4 19       		.uleb128 0x19
 4621 01b5 03       		.uleb128 0x3
 4622 01b6 0E       		.uleb128 0xe
 4623 01b7 3A       		.uleb128 0x3a
 4624 01b8 0B       		.uleb128 0xb
 4625 01b9 3B       		.uleb128 0x3b
 4626 01ba 05       		.uleb128 0x5
 4627 01bb 27       		.uleb128 0x27
 4628 01bc 19       		.uleb128 0x19
 4629 01bd 49       		.uleb128 0x49
 4630 01be 13       		.uleb128 0x13
 4631 01bf 11       		.uleb128 0x11
 4632 01c0 01       		.uleb128 0x1
 4633 01c1 12       		.uleb128 0x12
 4634 01c2 06       		.uleb128 0x6
 4635 01c3 40       		.uleb128 0x40
 4636 01c4 18       		.uleb128 0x18
 4637 01c5 9642     		.uleb128 0x2116
 4638 01c7 19       		.uleb128 0x19
 4639 01c8 01       		.uleb128 0x1
 4640 01c9 13       		.uleb128 0x13
 4641 01ca 00       		.byte	0
 4642 01cb 00       		.byte	0
 4643 01cc 22       		.uleb128 0x22
 4644 01cd 34       		.uleb128 0x34
 4645 01ce 00       		.byte	0
 4646 01cf 03       		.uleb128 0x3
 4647 01d0 0E       		.uleb128 0xe
 4648 01d1 3A       		.uleb128 0x3a
 4649 01d2 0B       		.uleb128 0xb
 4650 01d3 3B       		.uleb128 0x3b
 4651 01d4 05       		.uleb128 0x5
 4652 01d5 49       		.uleb128 0x49
 4653 01d6 13       		.uleb128 0x13
 4654 01d7 02       		.uleb128 0x2
 4655 01d8 18       		.uleb128 0x18
 4656 01d9 00       		.byte	0
 4657 01da 00       		.byte	0
 4658 01db 23       		.uleb128 0x23
ARM GAS  C:\Users\jmori\AppData\Local\Temp\ccFGeXpP.s 			page 118


 4659 01dc 34       		.uleb128 0x34
 4660 01dd 00       		.byte	0
 4661 01de 03       		.uleb128 0x3
 4662 01df 0E       		.uleb128 0xe
 4663 01e0 3A       		.uleb128 0x3a
 4664 01e1 0B       		.uleb128 0xb
 4665 01e2 3B       		.uleb128 0x3b
 4666 01e3 05       		.uleb128 0x5
 4667 01e4 49       		.uleb128 0x49
 4668 01e5 13       		.uleb128 0x13
 4669 01e6 02       		.uleb128 0x2
 4670 01e7 17       		.uleb128 0x17
 4671 01e8 00       		.byte	0
 4672 01e9 00       		.byte	0
 4673 01ea 24       		.uleb128 0x24
 4674 01eb 34       		.uleb128 0x34
 4675 01ec 00       		.byte	0
 4676 01ed 03       		.uleb128 0x3
 4677 01ee 08       		.uleb128 0x8
 4678 01ef 3A       		.uleb128 0x3a
 4679 01f0 0B       		.uleb128 0xb
 4680 01f1 3B       		.uleb128 0x3b
 4681 01f2 05       		.uleb128 0x5
 4682 01f3 49       		.uleb128 0x49
 4683 01f4 13       		.uleb128 0x13
 4684 01f5 02       		.uleb128 0x2
 4685 01f6 17       		.uleb128 0x17
 4686 01f7 00       		.byte	0
 4687 01f8 00       		.byte	0
 4688 01f9 25       		.uleb128 0x25
 4689 01fa 2E       		.uleb128 0x2e
 4690 01fb 01       		.byte	0x1
 4691 01fc 3F       		.uleb128 0x3f
 4692 01fd 19       		.uleb128 0x19
 4693 01fe 03       		.uleb128 0x3
 4694 01ff 0E       		.uleb128 0xe
 4695 0200 3A       		.uleb128 0x3a
 4696 0201 0B       		.uleb128 0xb
 4697 0202 3B       		.uleb128 0x3b
 4698 0203 05       		.uleb128 0x5
 4699 0204 27       		.uleb128 0x27
 4700 0205 19       		.uleb128 0x19
 4701 0206 49       		.uleb128 0x49
 4702 0207 13       		.uleb128 0x13
 4703 0208 8701     		.uleb128 0x87
 4704 020a 19       		.uleb128 0x19
 4705 020b 11       		.uleb128 0x11
 4706 020c 01       		.uleb128 0x1
 4707 020d 12       		.uleb128 0x12
 4708 020e 06       		.uleb128 0x6
 4709 020f 40       		.uleb128 0x40
 4710 0210 18       		.uleb128 0x18
 4711 0211 9742     		.uleb128 0x2117
 4712 0213 19       		.uleb128 0x19
 4713 0214 01       		.uleb128 0x1
 4714 0215 13       		.uleb128 0x13
 4715 0216 00       		.byte	0
ARM GAS  C:\Users\jmori\AppData\Local\Temp\ccFGeXpP.s 			page 119


 4716 0217 00       		.byte	0
 4717 0218 26       		.uleb128 0x26
 4718 0219 1D       		.uleb128 0x1d
 4719 021a 00       		.byte	0
 4720 021b 31       		.uleb128 0x31
 4721 021c 13       		.uleb128 0x13
 4722 021d 11       		.uleb128 0x11
 4723 021e 01       		.uleb128 0x1
 4724 021f 12       		.uleb128 0x12
 4725 0220 06       		.uleb128 0x6
 4726 0221 58       		.uleb128 0x58
 4727 0222 0B       		.uleb128 0xb
 4728 0223 59       		.uleb128 0x59
 4729 0224 05       		.uleb128 0x5
 4730 0225 00       		.byte	0
 4731 0226 00       		.byte	0
 4732 0227 27       		.uleb128 0x27
 4733 0228 898201   		.uleb128 0x4109
 4734 022b 00       		.byte	0
 4735 022c 11       		.uleb128 0x11
 4736 022d 01       		.uleb128 0x1
 4737 022e 31       		.uleb128 0x31
 4738 022f 13       		.uleb128 0x13
 4739 0230 00       		.byte	0
 4740 0231 00       		.byte	0
 4741 0232 28       		.uleb128 0x28
 4742 0233 34       		.uleb128 0x34
 4743 0234 00       		.byte	0
 4744 0235 03       		.uleb128 0x3
 4745 0236 08       		.uleb128 0x8
 4746 0237 3A       		.uleb128 0x3a
 4747 0238 0B       		.uleb128 0xb
 4748 0239 3B       		.uleb128 0x3b
 4749 023a 05       		.uleb128 0x5
 4750 023b 49       		.uleb128 0x49
 4751 023c 13       		.uleb128 0x13
 4752 023d 00       		.byte	0
 4753 023e 00       		.byte	0
 4754 023f 29       		.uleb128 0x29
 4755 0240 21       		.uleb128 0x21
 4756 0241 00       		.byte	0
 4757 0242 49       		.uleb128 0x49
 4758 0243 13       		.uleb128 0x13
 4759 0244 2F       		.uleb128 0x2f
 4760 0245 05       		.uleb128 0x5
 4761 0246 00       		.byte	0
 4762 0247 00       		.byte	0
 4763 0248 2A       		.uleb128 0x2a
 4764 0249 34       		.uleb128 0x34
 4765 024a 00       		.byte	0
 4766 024b 03       		.uleb128 0x3
 4767 024c 0E       		.uleb128 0xe
 4768 024d 3A       		.uleb128 0x3a
 4769 024e 0B       		.uleb128 0xb
 4770 024f 3B       		.uleb128 0x3b
 4771 0250 0B       		.uleb128 0xb
 4772 0251 49       		.uleb128 0x49
ARM GAS  C:\Users\jmori\AppData\Local\Temp\ccFGeXpP.s 			page 120


 4773 0252 13       		.uleb128 0x13
 4774 0253 02       		.uleb128 0x2
 4775 0254 18       		.uleb128 0x18
 4776 0255 00       		.byte	0
 4777 0256 00       		.byte	0
 4778 0257 2B       		.uleb128 0x2b
 4779 0258 34       		.uleb128 0x34
 4780 0259 00       		.byte	0
 4781 025a 03       		.uleb128 0x3
 4782 025b 0E       		.uleb128 0xe
 4783 025c 3A       		.uleb128 0x3a
 4784 025d 0B       		.uleb128 0xb
 4785 025e 3B       		.uleb128 0x3b
 4786 025f 05       		.uleb128 0x5
 4787 0260 49       		.uleb128 0x49
 4788 0261 13       		.uleb128 0x13
 4789 0262 3F       		.uleb128 0x3f
 4790 0263 19       		.uleb128 0x19
 4791 0264 3C       		.uleb128 0x3c
 4792 0265 19       		.uleb128 0x19
 4793 0266 00       		.byte	0
 4794 0267 00       		.byte	0
 4795 0268 2C       		.uleb128 0x2c
 4796 0269 34       		.uleb128 0x34
 4797 026a 00       		.byte	0
 4798 026b 03       		.uleb128 0x3
 4799 026c 0E       		.uleb128 0xe
 4800 026d 3A       		.uleb128 0x3a
 4801 026e 0B       		.uleb128 0xb
 4802 026f 3B       		.uleb128 0x3b
 4803 0270 0B       		.uleb128 0xb
 4804 0271 49       		.uleb128 0x49
 4805 0272 13       		.uleb128 0x13
 4806 0273 3F       		.uleb128 0x3f
 4807 0274 19       		.uleb128 0x19
 4808 0275 3C       		.uleb128 0x3c
 4809 0276 19       		.uleb128 0x19
 4810 0277 00       		.byte	0
 4811 0278 00       		.byte	0
 4812 0279 2D       		.uleb128 0x2d
 4813 027a 34       		.uleb128 0x34
 4814 027b 00       		.byte	0
 4815 027c 03       		.uleb128 0x3
 4816 027d 0E       		.uleb128 0xe
 4817 027e 3A       		.uleb128 0x3a
 4818 027f 0B       		.uleb128 0xb
 4819 0280 3B       		.uleb128 0x3b
 4820 0281 05       		.uleb128 0x5
 4821 0282 49       		.uleb128 0x49
 4822 0283 13       		.uleb128 0x13
 4823 0284 3F       		.uleb128 0x3f
 4824 0285 19       		.uleb128 0x19
 4825 0286 02       		.uleb128 0x2
 4826 0287 18       		.uleb128 0x18
 4827 0288 00       		.byte	0
 4828 0289 00       		.byte	0
 4829 028a 2E       		.uleb128 0x2e
ARM GAS  C:\Users\jmori\AppData\Local\Temp\ccFGeXpP.s 			page 121


 4830 028b 34       		.uleb128 0x34
 4831 028c 00       		.byte	0
 4832 028d 03       		.uleb128 0x3
 4833 028e 08       		.uleb128 0x8
 4834 028f 3A       		.uleb128 0x3a
 4835 0290 0B       		.uleb128 0xb
 4836 0291 3B       		.uleb128 0x3b
 4837 0292 05       		.uleb128 0x5
 4838 0293 49       		.uleb128 0x49
 4839 0294 13       		.uleb128 0x13
 4840 0295 3F       		.uleb128 0x3f
 4841 0296 19       		.uleb128 0x19
 4842 0297 02       		.uleb128 0x2
 4843 0298 18       		.uleb128 0x18
 4844 0299 00       		.byte	0
 4845 029a 00       		.byte	0
 4846 029b 2F       		.uleb128 0x2f
 4847 029c 2E       		.uleb128 0x2e
 4848 029d 00       		.byte	0
 4849 029e 3F       		.uleb128 0x3f
 4850 029f 19       		.uleb128 0x19
 4851 02a0 3C       		.uleb128 0x3c
 4852 02a1 19       		.uleb128 0x19
 4853 02a2 6E       		.uleb128 0x6e
 4854 02a3 0E       		.uleb128 0xe
 4855 02a4 03       		.uleb128 0x3
 4856 02a5 0E       		.uleb128 0xe
 4857 02a6 3A       		.uleb128 0x3a
 4858 02a7 0B       		.uleb128 0xb
 4859 02a8 3B       		.uleb128 0x3b
 4860 02a9 05       		.uleb128 0x5
 4861 02aa 00       		.byte	0
 4862 02ab 00       		.byte	0
 4863 02ac 00       		.byte	0
 4864              		.section	.debug_loc,"",%progbits
 4865              	.Ldebug_loc0:
 4866              	.LLST0:
 4867 0000 36000000 		.4byte	.LVL0
 4868 0004 3C000000 		.4byte	.LVL1
 4869 0008 0200     		.2byte	0x2
 4870 000a 31       		.byte	0x31
 4871 000b 9F       		.byte	0x9f
 4872 000c 00000000 		.4byte	0
 4873 0010 00000000 		.4byte	0
 4874              	.LLST2:
 4875 0014 36000000 		.4byte	.LVL0
 4876 0018 3C000000 		.4byte	.LVL1
 4877 001c 0600     		.2byte	0x6
 4878 001e 0C       		.byte	0xc
 4879 001f 80053240 		.4byte	0x40320580
 4880 0023 9F       		.byte	0x9f
 4881 0024 00000000 		.4byte	0
 4882 0028 00000000 		.4byte	0
 4883              	.LLST3:
 4884 002c 44000000 		.4byte	.LVL2
 4885 0030 46000000 		.4byte	.LVL3
 4886 0034 0200     		.2byte	0x2
ARM GAS  C:\Users\jmori\AppData\Local\Temp\ccFGeXpP.s 			page 122


 4887 0036 30       		.byte	0x30
 4888 0037 9F       		.byte	0x9f
 4889 0038 00000000 		.4byte	0
 4890 003c 00000000 		.4byte	0
 4891              	.LLST4:
 4892 0040 44000000 		.4byte	.LVL2
 4893 0044 46000000 		.4byte	.LVL3
 4894 0048 0200     		.2byte	0x2
 4895 004a 31       		.byte	0x31
 4896 004b 9F       		.byte	0x9f
 4897 004c 00000000 		.4byte	0
 4898 0050 00000000 		.4byte	0
 4899              	.LLST5:
 4900 0054 44000000 		.4byte	.LVL2
 4901 0058 46000000 		.4byte	.LVL3
 4902 005c 0600     		.2byte	0x6
 4903 005e 0C       		.byte	0xc
 4904 005f 80053240 		.4byte	0x40320580
 4905 0063 9F       		.byte	0x9f
 4906 0064 00000000 		.4byte	0
 4907 0068 00000000 		.4byte	0
 4908              	.LLST6:
 4909 006c 00000000 		.4byte	.LVL5
 4910 0070 1E000000 		.4byte	.LVL8
 4911 0074 0100     		.2byte	0x1
 4912 0076 50       		.byte	0x50
 4913 0077 1E000000 		.4byte	.LVL8
 4914 007b 24000000 		.4byte	.LFE367
 4915 007f 0400     		.2byte	0x4
 4916 0081 F3       		.byte	0xf3
 4917 0082 01       		.uleb128 0x1
 4918 0083 50       		.byte	0x50
 4919 0084 9F       		.byte	0x9f
 4920 0085 00000000 		.4byte	0
 4921 0089 00000000 		.4byte	0
 4922              	.LLST7:
 4923 008d 00000000 		.4byte	.LVL9
 4924 0091 1E000000 		.4byte	.LVL11
 4925 0095 0100     		.2byte	0x1
 4926 0097 50       		.byte	0x50
 4927 0098 1E000000 		.4byte	.LVL11
 4928 009c 02020000 		.4byte	.LVL36
 4929 00a0 0100     		.2byte	0x1
 4930 00a2 55       		.byte	0x55
 4931 00a3 02020000 		.4byte	.LVL36
 4932 00a7 44020000 		.4byte	.LFE368
 4933 00ab 0400     		.2byte	0x4
 4934 00ad F3       		.byte	0xf3
 4935 00ae 01       		.uleb128 0x1
 4936 00af 50       		.byte	0x50
 4937 00b0 9F       		.byte	0x9f
 4938 00b1 00000000 		.4byte	0
 4939 00b5 00000000 		.4byte	0
 4940              	.LLST8:
 4941 00b9 00000000 		.4byte	.LVL9
 4942 00bd 1E000000 		.4byte	.LVL11
 4943 00c1 0100     		.2byte	0x1
ARM GAS  C:\Users\jmori\AppData\Local\Temp\ccFGeXpP.s 			page 123


 4944 00c3 51       		.byte	0x51
 4945 00c4 1E000000 		.4byte	.LVL11
 4946 00c8 38010000 		.4byte	.LVL27
 4947 00cc 0100     		.2byte	0x1
 4948 00ce 54       		.byte	0x54
 4949 00cf 38010000 		.4byte	.LVL27
 4950 00d3 44020000 		.4byte	.LFE368
 4951 00d7 0400     		.2byte	0x4
 4952 00d9 F3       		.byte	0xf3
 4953 00da 01       		.uleb128 0x1
 4954 00db 51       		.byte	0x51
 4955 00dc 9F       		.byte	0x9f
 4956 00dd 00000000 		.4byte	0
 4957 00e1 00000000 		.4byte	0
 4958              	.LLST9:
 4959 00e5 0E010000 		.4byte	.LVL23
 4960 00e9 36010000 		.4byte	.LVL26
 4961 00ed 0200     		.2byte	0x2
 4962 00ef 90       		.byte	0x90
 4963 00f0 4F       		.uleb128 0x4f
 4964 00f1 36010000 		.4byte	.LVL26
 4965 00f5 4F010000 		.4byte	.LVL28-1
 4966 00f9 0E00     		.2byte	0xe
 4967 00fb 91       		.byte	0x91
 4968 00fc 8C70     		.sleb128 -2036
 4969 00fe F6       		.byte	0xf6
 4970 00ff 04       		.byte	0x4
 4971 0100 25       		.uleb128 0x25
 4972 0101 91       		.byte	0x91
 4973 0102 8470     		.sleb128 -2044
 4974 0104 F6       		.byte	0xf6
 4975 0105 04       		.byte	0x4
 4976 0106 25       		.uleb128 0x25
 4977 0107 1C       		.byte	0x1c
 4978 0108 9F       		.byte	0x9f
 4979 0109 00000000 		.4byte	0
 4980 010d 00000000 		.4byte	0
 4981              	.LLST10:
 4982 0111 1A010000 		.4byte	.LVL24
 4983 0115 32010000 		.4byte	.LVL25
 4984 0119 0200     		.2byte	0x2
 4985 011b 90       		.byte	0x90
 4986 011c 4E       		.uleb128 0x4e
 4987 011d 32010000 		.4byte	.LVL25
 4988 0121 4F010000 		.4byte	.LVL28-1
 4989 0125 0E00     		.2byte	0xe
 4990 0127 91       		.byte	0x91
 4991 0128 8870     		.sleb128 -2040
 4992 012a F6       		.byte	0xf6
 4993 012b 04       		.byte	0x4
 4994 012c 25       		.uleb128 0x25
 4995 012d 91       		.byte	0x91
 4996 012e 8070     		.sleb128 -2048
 4997 0130 F6       		.byte	0xf6
 4998 0131 04       		.byte	0x4
 4999 0132 25       		.uleb128 0x25
 5000 0133 1C       		.byte	0x1c
ARM GAS  C:\Users\jmori\AppData\Local\Temp\ccFGeXpP.s 			page 124


 5001 0134 9F       		.byte	0x9f
 5002 0135 00000000 		.4byte	0
 5003 0139 00000000 		.4byte	0
 5004              	.LLST11:
 5005 013d 1C000000 		.4byte	.LVL10
 5006 0141 48000000 		.4byte	.LVL13
 5007 0145 0100     		.2byte	0x1
 5008 0147 52       		.byte	0x52
 5009 0148 00000000 		.4byte	0
 5010 014c 00000000 		.4byte	0
 5011              		.section	.debug_aranges,"",%progbits
 5012 0000 34000000 		.4byte	0x34
 5013 0004 0200     		.2byte	0x2
 5014 0006 00000000 		.4byte	.Ldebug_info0
 5015 000a 04       		.byte	0x4
 5016 000b 00       		.byte	0
 5017 000c 0000     		.2byte	0
 5018 000e 0000     		.2byte	0
 5019 0010 00000000 		.4byte	.LFB366
 5020 0014 5C000000 		.4byte	.LFE366-.LFB366
 5021 0018 00000000 		.4byte	.LFB367
 5022 001c 24000000 		.4byte	.LFE367-.LFB367
 5023 0020 00000000 		.4byte	.LFB368
 5024 0024 44020000 		.4byte	.LFE368-.LFB368
 5025 0028 00000000 		.4byte	.LFB369
 5026 002c 84000000 		.4byte	.LFE369-.LFB369
 5027 0030 00000000 		.4byte	0
 5028 0034 00000000 		.4byte	0
 5029              		.section	.debug_ranges,"",%progbits
 5030              	.Ldebug_ranges0:
 5031 0000 00000000 		.4byte	.LFB366
 5032 0004 5C000000 		.4byte	.LFE366
 5033 0008 00000000 		.4byte	.LFB367
 5034 000c 24000000 		.4byte	.LFE367
 5035 0010 00000000 		.4byte	.LFB368
 5036 0014 44020000 		.4byte	.LFE368
 5037 0018 00000000 		.4byte	.LFB369
 5038 001c 84000000 		.4byte	.LFE369
 5039 0020 00000000 		.4byte	0
 5040 0024 00000000 		.4byte	0
 5041              		.section	.debug_line,"",%progbits
 5042              	.Ldebug_line0:
 5043 0000 6A040000 		.section	.debug_str,"MS",%progbits,1
 5043      0200A303 
 5043      00000201 
 5043      FB0E0D00 
 5043      01010101 
 5044              	.LASF84:
 5045 0000 70726F74 		.ascii	"protBusMasterMask\000"
 5045      4275734D 
 5045      61737465 
 5045      724D6173 
 5045      6B00
 5046              	.LASF181:
 5047 0012 64617461 		.ascii	"dataRedBrut\000"
 5047      52656442 
 5047      72757400 
ARM GAS  C:\Users\jmori\AppData\Local\Temp\ccFGeXpP.s 			page 125


 5048              	.LASF3:
 5049 001e 756E7369 		.ascii	"unsigned char\000"
 5049      676E6564 
 5049      20636861 
 5049      7200
 5050              	.LASF94:
 5051 002c 666C6173 		.ascii	"flashCtlMainWs3Freq\000"
 5051      6843746C 
 5051      4D61696E 
 5051      57733346 
 5051      72657100 
 5052              	.LASF116:
 5053 0040 6770696F 		.ascii	"gpioPrtCfgInOffset\000"
 5053      50727443 
 5053      6667496E 
 5053      4F666673 
 5053      657400
 5054              	.LASF191:
 5055 0053 78546173 		.ascii	"xTaskCreate\000"
 5055      6B437265 
 5055      61746500 
 5056              	.LASF134:
 5057 005f 6970634C 		.ascii	"ipcLockStatusOffset\000"
 5057      6F636B53 
 5057      74617475 
 5057      734F6666 
 5057      73657400 
 5058              	.LASF187:
 5059 0073 61726D5F 		.ascii	"arm_fir_f32\000"
 5059      6669725F 
 5059      66333200 
 5060              	.LASF60:
 5061 007f 63727970 		.ascii	"cryptoVersion\000"
 5061      746F5665 
 5061      7273696F 
 5061      6E00
 5062              	.LASF78:
 5063 008d 70657269 		.ascii	"periClockNr\000"
 5063      436C6F63 
 5063      6B4E7200 
 5064              	.LASF56:
 5065 0099 70617373 		.ascii	"passBase\000"
 5065      42617365 
 5065      00
 5066              	.LASF105:
 5067 00a2 70657269 		.ascii	"periTrGrSize\000"
 5067      54724772 
 5067      53697A65 
 5067      00
 5068              	.LASF69:
 5069 00af 63707573 		.ascii	"cpussIpcIrqNr\000"
 5069      73497063 
 5069      4972714E 
 5069      7200
 5070              	.LASF4:
 5071 00bd 5F5F7569 		.ascii	"__uint8_t\000"
 5071      6E74385F 
ARM GAS  C:\Users\jmori\AppData\Local\Temp\ccFGeXpP.s 			page 126


 5071      7400
 5072              	.LASF35:
 5073 00c7 4750494F 		.ascii	"GPIO_PRT_V1_Type\000"
 5073      5F505254 
 5073      5F56315F 
 5073      54797065 
 5073      00
 5074              	.LASF113:
 5075 00d8 70657269 		.ascii	"periDiv24_5CtlOffset\000"
 5075      44697632 
 5075      345F3543 
 5075      746C4F66 
 5075      66736574 
 5076              	.LASF120:
 5077 00ed 63707573 		.ascii	"cpussCm4ClockCtlOffset\000"
 5077      73436D34 
 5077      436C6F63 
 5077      6B43746C 
 5077      4F666673 
 5078              	.LASF70:
 5079 0104 63707573 		.ascii	"cpussDwChNr\000"
 5079      73447743 
 5079      684E7200 
 5080              	.LASF49:
 5081 0110 63707573 		.ascii	"cpussBase\000"
 5081      73426173 
 5081      6500
 5082              	.LASF159:
 5083 011a 6D617852 		.ascii	"maxRed\000"
 5083      656400
 5084              	.LASF98:
 5085 0121 64774368 		.ascii	"dwChCtlPrioPos\000"
 5085      43746C50 
 5085      72696F50 
 5085      6F7300
 5086              	.LASF42:
 5087 0130 5644445F 		.ascii	"VDD_INTR_MASK\000"
 5087      494E5452 
 5087      5F4D4153 
 5087      4B00
 5088              	.LASF13:
 5089 013e 6C6F6E67 		.ascii	"long long unsigned int\000"
 5089      206C6F6E 
 5089      6720756E 
 5089      7369676E 
 5089      65642069 
 5090              	.LASF180:
 5091 0155 64617461 		.ascii	"dataIRInterface\000"
 5091      4952496E 
 5091      74657266 
 5091      61636500 
 5092              	.LASF102:
 5093 0165 70657269 		.ascii	"periTrCmdOffset\000"
 5093      5472436D 
 5093      644F6666 
 5093      73657400 
 5094              	.LASF29:
ARM GAS  C:\Users\jmori\AppData\Local\Temp\ccFGeXpP.s 			page 127


 5095 0175 4346475F 		.ascii	"CFG_IN\000"
 5095      494E00
 5096              	.LASF126:
 5097 017c 63707573 		.ascii	"cpussSysTickCtlOffset\000"
 5097      73537973 
 5097      5469636B 
 5097      43746C4F 
 5097      66667365 
 5098              	.LASF168:
 5099 0192 49544D5F 		.ascii	"ITM_RxBuffer\000"
 5099      52784275 
 5099      66666572 
 5099      00
 5100              	.LASF87:
 5101 019f 666C6173 		.ascii	"flashPipeRequired\000"
 5101      68506970 
 5101      65526571 
 5101      75697265 
 5101      6400
 5102              	.LASF158:
 5103 01b1 6D617849 		.ascii	"maxIR\000"
 5103      5200
 5104              	.LASF91:
 5105 01b7 666C6173 		.ascii	"flashCtlMainWs0Freq\000"
 5105      6843746C 
 5105      4D61696E 
 5105      57733046 
 5105      72657100 
 5106              	.LASF16:
 5107 01cb 696E7431 		.ascii	"int16_t\000"
 5107      365F7400 
 5108              	.LASF12:
 5109 01d3 6C6F6E67 		.ascii	"long long int\000"
 5109      206C6F6E 
 5109      6720696E 
 5109      7400
 5110              	.LASF2:
 5111 01e1 7369676E 		.ascii	"signed char\000"
 5111      65642063 
 5111      68617200 
 5112              	.LASF107:
 5113 01ed 70657269 		.ascii	"periDivCmdTypeSelPos\000"
 5113      44697643 
 5113      6D645479 
 5113      70655365 
 5113      6C506F73 
 5114              	.LASF186:
 5115 0202 61726D5F 		.ascii	"arm_fir_init_f32\000"
 5115      6669725F 
 5115      696E6974 
 5115      5F663332 
 5115      00
 5116              	.LASF184:
 5117 0213 76546173 		.ascii	"vTaskDelay\000"
 5117      6B44656C 
 5117      617900
 5118              	.LASF53:
ARM GAS  C:\Users\jmori\AppData\Local\Temp\ccFGeXpP.s 			page 128


 5119 021e 70726F74 		.ascii	"protBase\000"
 5119      42617365 
 5119      00
 5120              	.LASF65:
 5121 0227 69706356 		.ascii	"ipcVersion\000"
 5121      65727369 
 5121      6F6E00
 5122              	.LASF196:
 5123 0232 43795F47 		.ascii	"Cy_GPIO_Write\000"
 5123      50494F5F 
 5123      57726974 
 5123      6500
 5124              	.LASF75:
 5125 0240 73727373 		.ascii	"srssNumClkpath\000"
 5125      4E756D43 
 5125      6C6B7061 
 5125      746800
 5126              	.LASF54:
 5127 024f 6873696F 		.ascii	"hsiomBase\000"
 5127      6D426173 
 5127      6500
 5128              	.LASF153:
 5129 0259 64617461 		.ascii	"dataRed\000"
 5129      52656400 
 5130              	.LASF155:
 5131 0261 44435245 		.ascii	"DCRED\000"
 5131      4400
 5132              	.LASF9:
 5133 0267 6C6F6E67 		.ascii	"long int\000"
 5133      20696E74 
 5133      00
 5134              	.LASF161:
 5135 0270 6D696E52 		.ascii	"minRed\000"
 5135      656400
 5136              	.LASF85:
 5137 0277 63727970 		.ascii	"cryptoMemSize\000"
 5137      746F4D65 
 5137      6D53697A 
 5137      6500
 5138              	.LASF51:
 5139 0285 70657269 		.ascii	"periBase\000"
 5139      42617365 
 5139      00
 5140              	.LASF145:
 5141 028e 5469636B 		.ascii	"TickType_t\000"
 5141      54797065 
 5141      5F7400
 5142              	.LASF83:
 5143 0299 73797350 		.ascii	"sysPmSimoPresent\000"
 5143      6D53696D 
 5143      6F507265 
 5143      73656E74 
 5143      00
 5144              	.LASF73:
 5145 02aa 63707573 		.ascii	"cpussFmIrq\000"
 5145      73466D49 
 5145      727100
ARM GAS  C:\Users\jmori\AppData\Local\Temp\ccFGeXpP.s 			page 129


 5146              	.LASF139:
 5147 02b5 646F7562 		.ascii	"double\000"
 5147      6C6500
 5148              	.LASF112:
 5149 02bc 70657269 		.ascii	"periDiv16_5CtlOffset\000"
 5149      44697631 
 5149      365F3543 
 5149      746C4F66 
 5149      66736574 
 5150              	.LASF76:
 5151 02d1 73727373 		.ascii	"srssNumPll\000"
 5151      4E756D50 
 5151      6C6C00
 5152              	.LASF199:
 5153 02dc 6D61696E 		.ascii	"main\000"
 5153      00
 5154              	.LASF110:
 5155 02e1 70657269 		.ascii	"periDiv8CtlOffset\000"
 5155      44697638 
 5155      43746C4F 
 5155      66667365 
 5155      7400
 5156              	.LASF117:
 5157 02f3 6770696F 		.ascii	"gpioPrtCfgOutOffset\000"
 5157      50727443 
 5157      66674F75 
 5157      744F6666 
 5157      73657400 
 5158              	.LASF177:
 5159 0307 626F726E 		.ascii	"borneInf\000"
 5159      65496E66 
 5159      00
 5160              	.LASF50:
 5161 0310 666C6173 		.ascii	"flashcBase\000"
 5161      68634261 
 5161      736500
 5162              	.LASF10:
 5163 031b 5F5F7569 		.ascii	"__uint32_t\000"
 5163      6E743332 
 5163      5F7400
 5164              	.LASF80:
 5165 0326 70617373 		.ascii	"passSarChannels\000"
 5165      53617243 
 5165      68616E6E 
 5165      656C7300 
 5166              	.LASF192:
 5167 0336 76546173 		.ascii	"vTaskStartScheduler\000"
 5167      6B537461 
 5167      72745363 
 5167      68656475 
 5167      6C657200 
 5168              	.LASF160:
 5169 034a 6D696E49 		.ascii	"minIR\000"
 5169      5200
 5170              	.LASF5:
 5171 0350 5F5F696E 		.ascii	"__int16_t\000"
 5171      7431365F 
ARM GAS  C:\Users\jmori\AppData\Local\Temp\ccFGeXpP.s 			page 130


 5171      7400
 5172              	.LASF148:
 5173 035a 76616C75 		.ascii	"value\000"
 5173      6500
 5174              	.LASF118:
 5175 0360 6770696F 		.ascii	"gpioPrtCfgSioOffset\000"
 5175      50727443 
 5175      66675369 
 5175      6F4F6666 
 5175      73657400 
 5176              	.LASF122:
 5177 0374 63707573 		.ascii	"cpussCm0StatusOffset\000"
 5177      73436D30 
 5177      53746174 
 5177      75734F66 
 5177      66736574 
 5178              	.LASF14:
 5179 0389 756E7369 		.ascii	"unsigned int\000"
 5179      676E6564 
 5179      20696E74 
 5179      00
 5180              	.LASF46:
 5181 0396 4750494F 		.ascii	"GPIO_PRT_Type\000"
 5181      5F505254 
 5181      5F547970 
 5181      6500
 5182              	.LASF23:
 5183 03a4 4F55545F 		.ascii	"OUT_INV\000"
 5183      494E5600 
 5184              	.LASF167:
 5185 03ac 66697243 		.ascii	"firCoeffs32\000"
 5185      6F656666 
 5185      73333200 
 5186              	.LASF162:
 5187 03b8 706F7369 		.ascii	"position\000"
 5187      74696F6E 
 5187      00
 5188              	.LASF136:
 5189 03c1 63686172 		.ascii	"char_t\000"
 5189      5F7400
 5190              	.LASF103:
 5191 03c8 70657269 		.ascii	"periTrCmdGrSelMsk\000"
 5191      5472436D 
 5191      64477253 
 5191      656C4D73 
 5191      6B00
 5192              	.LASF92:
 5193 03da 666C6173 		.ascii	"flashCtlMainWs1Freq\000"
 5193      6843746C 
 5193      4D61696E 
 5193      57733146 
 5193      72657100 
 5194              	.LASF11:
 5195 03ee 6C6F6E67 		.ascii	"long unsigned int\000"
 5195      20756E73 
 5195      69676E65 
 5195      6420696E 
ARM GAS  C:\Users\jmori\AppData\Local\Temp\ccFGeXpP.s 			page 131


 5195      7400
 5196              	.LASF68:
 5197 0400 63707573 		.ascii	"cpussIpcNr\000"
 5197      73497063 
 5197      4E7200
 5198              	.LASF165:
 5199 040b 53704F32 		.ascii	"SpO2\000"
 5199      00
 5200              	.LASF55:
 5201 0410 6770696F 		.ascii	"gpioBase\000"
 5201      42617365 
 5201      00
 5202              	.LASF44:
 5203 0419 5644445F 		.ascii	"VDD_INTR_SET\000"
 5203      494E5452 
 5203      5F534554 
 5203      00
 5204              	.LASF93:
 5205 0426 666C6173 		.ascii	"flashCtlMainWs2Freq\000"
 5205      6843746C 
 5205      4D61696E 
 5205      57733246 
 5205      72657100 
 5206              	.LASF104:
 5207 043a 70657269 		.ascii	"periTrGrOffset\000"
 5207      54724772 
 5207      4F666673 
 5207      657400
 5208              	.LASF26:
 5209 0449 494E5452 		.ascii	"INTR_MASKED\000"
 5209      5F4D4153 
 5209      4B454400 
 5210              	.LASF131:
 5211 0455 63707573 		.ascii	"cpussRam1Ctl0\000"
 5211      7352616D 
 5211      3143746C 
 5211      3000
 5212              	.LASF172:
 5213 0463 4E627265 		.ascii	"NbreMax\000"
 5213      4D617800 
 5214              	.LASF176:
 5215 046b 626F726E 		.ascii	"borneSup\000"
 5215      65537570 
 5215      00
 5216              	.LASF189:
 5217 0474 61726D5F 		.ascii	"arm_min_f32\000"
 5217      6D696E5F 
 5217      66333200 
 5218              	.LASF63:
 5219 0480 6770696F 		.ascii	"gpioVersion\000"
 5219      56657273 
 5219      696F6E00 
 5220              	.LASF17:
 5221 048c 75696E74 		.ascii	"uint16_t\000"
 5221      31365F74 
 5221      00
 5222              	.LASF135:
ARM GAS  C:\Users\jmori\AppData\Local\Temp\ccFGeXpP.s 			page 132


 5223 0495 63795F73 		.ascii	"cy_stc_device_t\000"
 5223      74635F64 
 5223      65766963 
 5223      655F7400 
 5224              	.LASF123:
 5225 04a5 63707573 		.ascii	"cpussCm4PwrCtlOffset\000"
 5225      73436D34 
 5225      50777243 
 5225      746C4F66 
 5225      66736574 
 5226              	.LASF81:
 5227 04ba 65704D6F 		.ascii	"epMonitorNr\000"
 5227      6E69746F 
 5227      724E7200 
 5228              	.LASF128:
 5229 04c6 63707573 		.ascii	"cpussCm4NmiCtlOffset\000"
 5229      73436D34 
 5229      4E6D6943 
 5229      746C4F66 
 5229      66736574 
 5230              	.LASF150:
 5231 04db 53617475 		.ascii	"Saturation\000"
 5231      72617469 
 5231      6F6E00
 5232              	.LASF124:
 5233 04e6 63707573 		.ascii	"cpussTrimRamCtlOffset\000"
 5233      73547269 
 5233      6D52616D 
 5233      43746C4F 
 5233      66667365 
 5234              	.LASF119:
 5235 04fc 63707573 		.ascii	"cpussCm0ClockCtlOffset\000"
 5235      73436D30 
 5235      436C6F63 
 5235      6B43746C 
 5235      4F666673 
 5236              	.LASF28:
 5237 0513 494E5452 		.ascii	"INTR_CFG\000"
 5237      5F434647 
 5237      00
 5238              	.LASF27:
 5239 051c 494E5452 		.ascii	"INTR_SET\000"
 5239      5F534554 
 5239      00
 5240              	.LASF59:
 5241 0525 63707573 		.ascii	"cpussVersion\000"
 5241      73566572 
 5241      73696F6E 
 5241      00
 5242              	.LASF146:
 5243 0532 62617365 		.ascii	"base\000"
 5243      00
 5244              	.LASF66:
 5245 0537 70657269 		.ascii	"periVersion\000"
 5245      56657273 
 5245      696F6E00 
 5246              	.LASF40:
ARM GAS  C:\Users\jmori\AppData\Local\Temp\ccFGeXpP.s 			page 133


 5247 0543 5644445F 		.ascii	"VDD_ACTIVE\000"
 5247      41435449 
 5247      564500
 5248              	.LASF20:
 5249 054e 73697A65 		.ascii	"sizetype\000"
 5249      74797065 
 5249      00
 5250              	.LASF96:
 5251 0557 64774368 		.ascii	"dwChOffset\000"
 5251      4F666673 
 5251      657400
 5252              	.LASF71:
 5253 0562 63707573 		.ascii	"cpussFlashPaSize\000"
 5253      73466C61 
 5253      73685061 
 5253      53697A65 
 5253      00
 5254              	.LASF109:
 5255 0573 70657269 		.ascii	"periDivCmdPaTypeSelPos\000"
 5255      44697643 
 5255      6D645061 
 5255      54797065 
 5255      53656C50 
 5256              	.LASF45:
 5257 058a 4750494F 		.ascii	"GPIO_V1_Type\000"
 5257      5F56315F 
 5257      54797065 
 5257      00
 5258              	.LASF132:
 5259 0597 63707573 		.ascii	"cpussRam2Ctl0\000"
 5259      7352616D 
 5259      3243746C 
 5259      3000
 5260              	.LASF67:
 5261 05a5 70726F74 		.ascii	"protVersion\000"
 5261      56657273 
 5261      696F6E00 
 5262              	.LASF100:
 5263 05b1 64775374 		.ascii	"dwStatusChIdxPos\000"
 5263      61747573 
 5263      43684964 
 5263      78506F73 
 5263      00
 5264              	.LASF82:
 5265 05c2 75646250 		.ascii	"udbPresent\000"
 5265      72657365 
 5265      6E7400
 5266              	.LASF62:
 5267 05cd 666C6173 		.ascii	"flashcVersion\000"
 5267      68635665 
 5267      7273696F 
 5267      6E00
 5268              	.LASF58:
 5269 05db 63727970 		.ascii	"cryptoBase\000"
 5269      746F4261 
 5269      736500
 5270              	.LASF79:
ARM GAS  C:\Users\jmori\AppData\Local\Temp\ccFGeXpP.s 			page 134


 5271 05e6 736D6966 		.ascii	"smifDeviceNr\000"
 5271      44657669 
 5271      63654E72 
 5271      00
 5272              	.LASF197:
 5273 05f3 5F5F656E 		.ascii	"__enable_irq\000"
 5273      61626C65 
 5273      5F697271 
 5273      00
 5274              	.LASF164:
 5275 0600 41435265 		.ascii	"ACRed\000"
 5275      6400
 5276              	.LASF193:
 5277 0606 474E5520 		.ascii	"GNU C11 5.4.1 20160609 (release) [ARM/embedded-5-br"
 5277      43313120 
 5277      352E342E 
 5277      31203230 
 5277      31363036 
 5278 0639 616E6368 		.ascii	"anch revision 237715] -mcpu=cortex-m4 -mfloat-abi=s"
 5278      20726576 
 5278      6973696F 
 5278      6E203233 
 5278      37373135 
 5279 066c 6F667466 		.ascii	"oftfp -mfpu=fpv4-sp-d16 -mthumb -g -Og -ffunction-s"
 5279      70202D6D 
 5279      6670753D 
 5279      66707634 
 5279      2D73702D 
 5280 069f 65637469 		.ascii	"ections -ffat-lto-objects\000"
 5280      6F6E7320 
 5280      2D666661 
 5280      742D6C74 
 5280      6F2D6F62 
 5281              	.LASF21:
 5282 06b9 4F55545F 		.ascii	"OUT_CLR\000"
 5282      434C5200 
 5283              	.LASF0:
 5284 06c1 666C6F61 		.ascii	"float\000"
 5284      7400
 5285              	.LASF101:
 5286 06c7 64775374 		.ascii	"dwStatusChIdxMsk\000"
 5286      61747573 
 5286      43684964 
 5286      784D736B 
 5286      00
 5287              	.LASF33:
 5288 06d8 4346475F 		.ascii	"CFG_IN_GPIO5V\000"
 5288      494E5F47 
 5288      50494F35 
 5288      5600
 5289              	.LASF157:
 5290 06e6 52656446 		.ascii	"RedFiltre\000"
 5290      696C7472 
 5290      6500
 5291              	.LASF31:
 5292 06f0 4346475F 		.ascii	"CFG_SIO\000"
 5292      53494F00 
ARM GAS  C:\Users\jmori\AppData\Local\Temp\ccFGeXpP.s 			page 135


 5293              	.LASF34:
 5294 06f8 52455345 		.ascii	"RESERVED1\000"
 5294      52564544 
 5294      3100
 5295              	.LASF169:
 5296 0702 63795F64 		.ascii	"cy_device\000"
 5296      65766963 
 5296      6500
 5297              	.LASF129:
 5298 070c 63707573 		.ascii	"cpussRomCtl\000"
 5298      73526F6D 
 5298      43746C00 
 5299              	.LASF99:
 5300 0718 64774368 		.ascii	"dwChCtlPreemptablePos\000"
 5300      43746C50 
 5300      7265656D 
 5300      70746162 
 5300      6C65506F 
 5301              	.LASF190:
 5302 072e 53797374 		.ascii	"SystemInit\000"
 5302      656D496E 
 5302      697400
 5303              	.LASF52:
 5304 0739 75646242 		.ascii	"udbBase\000"
 5304      61736500 
 5305              	.LASF140:
 5306 0741 5F426F6F 		.ascii	"_Bool\000"
 5306      6C00
 5307              	.LASF18:
 5308 0747 696E7433 		.ascii	"int32_t\000"
 5308      325F7400 
 5309              	.LASF179:
 5310 074f 64617461 		.ascii	"dataIrBrut\000"
 5310      49724272 
 5310      757400
 5311              	.LASF127:
 5312 075a 63707573 		.ascii	"cpussCm0NmiCtlOffset\000"
 5312      73436D30 
 5312      4E6D6943 
 5312      746C4F66 
 5312      66736574 
 5313              	.LASF142:
 5314 076f 70537461 		.ascii	"pState\000"
 5314      746500
 5315              	.LASF95:
 5316 0776 666C6173 		.ascii	"flashCtlMainWs4Freq\000"
 5316      6843746C 
 5316      4D61696E 
 5316      57733446 
 5316      72657100 
 5317              	.LASF195:
 5318 078a 433A5C55 		.ascii	"C:\\Users\\jmori\\OneDrive\\Documents\\GBM2100Proje"
 5318      73657273 
 5318      5C6A6D6F 
 5318      72695C4F 
 5318      6E654472 
 5319 07b8 74325C54 		.ascii	"t2\\Traitement de signal-exploration\\Design01.cyds"
ARM GAS  C:\Users\jmori\AppData\Local\Temp\ccFGeXpP.s 			page 136


 5319      72616974 
 5319      656D656E 
 5319      74206465 
 5319      20736967 
 5320 07e9 6E00     		.ascii	"n\000"
 5321              	.LASF183:
 5322 07eb 496E6465 		.ascii	"Index\000"
 5322      7800
 5323              	.LASF1:
 5324 07f1 73686F72 		.ascii	"short int\000"
 5324      7420696E 
 5324      7400
 5325              	.LASF178:
 5326 07fb 496E7465 		.ascii	"Interface\000"
 5326      72666163 
 5326      6500
 5327              	.LASF173:
 5328 0805 666C6167 		.ascii	"flag\000"
 5328      00
 5329              	.LASF106:
 5330 080a 70657269 		.ascii	"periDivCmdDivSelMsk\000"
 5330      44697643 
 5330      6D644469 
 5330      7653656C 
 5330      4D736B00 
 5331              	.LASF151:
 5332 081e 6D617869 		.ascii	"maximum\000"
 5332      6D756D00 
 5333              	.LASF41:
 5334 0826 5644445F 		.ascii	"VDD_INTR\000"
 5334      494E5452 
 5334      00
 5335              	.LASF156:
 5336 082f 49724669 		.ascii	"IrFiltre\000"
 5336      6C747265 
 5336      00
 5337              	.LASF147:
 5338 0838 70696E4E 		.ascii	"pinNum\000"
 5338      756D00
 5339              	.LASF77:
 5340 083f 73727373 		.ascii	"srssNumHfroot\000"
 5340      4E756D48 
 5340      66726F6F 
 5340      7400
 5341              	.LASF90:
 5342 084d 666C6173 		.ascii	"flashEraseDelay\000"
 5342      68457261 
 5342      73654465 
 5342      6C617900 
 5343              	.LASF19:
 5344 085d 75696E74 		.ascii	"uint32_t\000"
 5344      33325F74 
 5344      00
 5345              	.LASF163:
 5346 0866 41434972 		.ascii	"ACIr\000"
 5346      00
 5347              	.LASF48:
ARM GAS  C:\Users\jmori\AppData\Local\Temp\ccFGeXpP.s 			page 137


 5348 086b 6C6F6E67 		.ascii	"long double\000"
 5348      20646F75 
 5348      626C6500 
 5349              	.LASF137:
 5350 0877 63686172 		.ascii	"char\000"
 5350      00
 5351              	.LASF36:
 5352 087c 494E5452 		.ascii	"INTR_CAUSE0\000"
 5352      5F434155 
 5352      53453000 
 5353              	.LASF37:
 5354 0888 494E5452 		.ascii	"INTR_CAUSE1\000"
 5354      5F434155 
 5354      53453100 
 5355              	.LASF38:
 5356 0894 494E5452 		.ascii	"INTR_CAUSE2\000"
 5356      5F434155 
 5356      53453200 
 5357              	.LASF39:
 5358 08a0 494E5452 		.ascii	"INTR_CAUSE3\000"
 5358      5F434155 
 5358      53453300 
 5359              	.LASF130:
 5360 08ac 63707573 		.ascii	"cpussRam0Ctl0\000"
 5360      7352616D 
 5360      3043746C 
 5360      3000
 5361              	.LASF144:
 5362 08ba 61726D5F 		.ascii	"arm_fir_instance_f32\000"
 5362      6669725F 
 5362      696E7374 
 5362      616E6365 
 5362      5F663332 
 5363              	.LASF6:
 5364 08cf 5F5F7569 		.ascii	"__uint16_t\000"
 5364      6E743136 
 5364      5F7400
 5365              	.LASF22:
 5366 08da 4F55545F 		.ascii	"OUT_SET\000"
 5366      53455400 
 5367              	.LASF111:
 5368 08e2 70657269 		.ascii	"periDiv16CtlOffset\000"
 5368      44697631 
 5368      3643746C 
 5368      4F666673 
 5368      657400
 5369              	.LASF32:
 5370 08f5 52455345 		.ascii	"RESERVED\000"
 5370      52564544 
 5370      00
 5371              	.LASF8:
 5372 08fe 5F5F696E 		.ascii	"__int32_t\000"
 5372      7433325F 
 5372      7400
 5373              	.LASF174:
 5374 0908 4E627265 		.ascii	"NbreSec\000"
 5374      53656300 
ARM GAS  C:\Users\jmori\AppData\Local\Temp\ccFGeXpP.s 			page 138


 5375              	.LASF64:
 5376 0910 6873696F 		.ascii	"hsiomVersion\000"
 5376      6D566572 
 5376      73696F6E 
 5376      00
 5377              	.LASF138:
 5378 091d 666C6F61 		.ascii	"float32_t\000"
 5378      7433325F 
 5378      7400
 5379              	.LASF43:
 5380 0927 5644445F 		.ascii	"VDD_INTR_MASKED\000"
 5380      494E5452 
 5380      5F4D4153 
 5380      4B454400 
 5381              	.LASF24:
 5382 0937 494E5452 		.ascii	"INTR\000"
 5382      00
 5383              	.LASF149:
 5384 093c 6E6F6D62 		.ascii	"nombreMax\000"
 5384      72654D61 
 5384      7800
 5385              	.LASF141:
 5386 0946 6E756D54 		.ascii	"numTaps\000"
 5386      61707300 
 5387              	.LASF7:
 5388 094e 73686F72 		.ascii	"short unsigned int\000"
 5388      7420756E 
 5388      7369676E 
 5388      65642069 
 5388      6E7400
 5389              	.LASF97:
 5390 0961 64774368 		.ascii	"dwChSize\000"
 5390      53697A65 
 5390      00
 5391              	.LASF188:
 5392 096a 61726D5F 		.ascii	"arm_max_f32\000"
 5392      6D61785F 
 5392      66333200 
 5393              	.LASF133:
 5394 0976 69706353 		.ascii	"ipcStructSize\000"
 5394      74727563 
 5394      7453697A 
 5394      6500
 5395              	.LASF171:
 5396 0984 6E756D42 		.ascii	"numBlocks\000"
 5396      6C6F636B 
 5396      7300
 5397              	.LASF72:
 5398 098e 63707573 		.ascii	"cpussIpc0Irq\000"
 5398      73497063 
 5398      30497271 
 5398      00
 5399              	.LASF115:
 5400 099b 6770696F 		.ascii	"gpioPrtCfgOffset\000"
 5400      50727443 
 5400      66674F66 
 5400      66736574 
ARM GAS  C:\Users\jmori\AppData\Local\Temp\ccFGeXpP.s 			page 139


 5400      00
 5401              	.LASF198:
 5402 09ac 416C6172 		.ascii	"AlarmeFC\000"
 5402      6D654643 
 5402      00
 5403              	.LASF170:
 5404 09b5 626C6F63 		.ascii	"blockSize\000"
 5404      6B53697A 
 5404      6500
 5405              	.LASF185:
 5406 09bf 61726D5F 		.ascii	"arm_mean_f32\000"
 5406      6D65616E 
 5406      5F663332 
 5406      00
 5407              	.LASF182:
 5408 09cc 64617461 		.ascii	"dataRedInterface\000"
 5408      52656449 
 5408      6E746572 
 5408      66616365 
 5408      00
 5409              	.LASF152:
 5410 09dd 64617461 		.ascii	"dataIR\000"
 5410      495200
 5411              	.LASF74:
 5412 09e4 63707573 		.ascii	"cpussNotConnectedIrq\000"
 5412      734E6F74 
 5412      436F6E6E 
 5412      65637465 
 5412      64497271 
 5413              	.LASF88:
 5414 09f9 666C6173 		.ascii	"flashWriteDelay\000"
 5414      68577269 
 5414      74654465 
 5414      6C617900 
 5415              	.LASF15:
 5416 0a09 75696E74 		.ascii	"uint8_t\000"
 5416      385F7400 
 5417              	.LASF121:
 5418 0a11 63707573 		.ascii	"cpussCm4StatusOffset\000"
 5418      73436D34 
 5418      53746174 
 5418      75734F66 
 5418      66736574 
 5419              	.LASF114:
 5420 0a26 6770696F 		.ascii	"gpioPrtIntrCfgOffset\000"
 5420      50727449 
 5420      6E747243 
 5420      66674F66 
 5420      66736574 
 5421              	.LASF30:
 5422 0a3b 4346475F 		.ascii	"CFG_OUT\000"
 5422      4F555400 
 5423              	.LASF25:
 5424 0a43 494E5452 		.ascii	"INTR_MASK\000"
 5424      5F4D4153 
 5424      4B00
 5425              	.LASF47:
ARM GAS  C:\Users\jmori\AppData\Local\Temp\ccFGeXpP.s 			page 140


 5426 0a4d 4750494F 		.ascii	"GPIO_Type\000"
 5426      5F547970 
 5426      6500
 5427              	.LASF166:
 5428 0a57 66697253 		.ascii	"firStateF32\000"
 5428      74617465 
 5428      46333200 
 5429              	.LASF125:
 5430 0a63 63707573 		.ascii	"cpussTrimRomCtlOffset\000"
 5430      73547269 
 5430      6D526F6D 
 5430      43746C4F 
 5430      66667365 
 5431              	.LASF143:
 5432 0a79 70436F65 		.ascii	"pCoeffs\000"
 5432      66667300 
 5433              	.LASF154:
 5434 0a81 44434952 		.ascii	"DCIR\000"
 5434      00
 5435              	.LASF61:
 5436 0a86 64775665 		.ascii	"dwVersion\000"
 5436      7273696F 
 5436      6E00
 5437              	.LASF57:
 5438 0a90 69706342 		.ascii	"ipcBase\000"
 5438      61736500 
 5439              	.LASF108:
 5440 0a98 70657269 		.ascii	"periDivCmdPaDivSelPos\000"
 5440      44697643 
 5440      6D645061 
 5440      44697653 
 5440      656C506F 
 5441              	.LASF89:
 5442 0aae 666C6173 		.ascii	"flashProgramDelay\000"
 5442      6850726F 
 5442      6772616D 
 5442      44656C61 
 5442      7900
 5443              	.LASF194:
 5444 0ac0 6D61696E 		.ascii	"main_cm4.c\000"
 5444      5F636D34 
 5444      2E6300
 5445              	.LASF175:
 5446 0acb 43697263 		.ascii	"Circulaire\000"
 5446      756C6169 
 5446      726500
 5447              	.LASF86:
 5448 0ad6 666C6173 		.ascii	"flashRwwRequired\000"
 5448      68527777 
 5448      52657175 
 5448      69726564 
 5448      00
 5449              		.ident	"GCC: (GNU Tools for ARM Embedded Processors) 5.4.1 20160609 (release) [ARM/embedded-5-bran
